Archive member included because of file (symbol)

/home/rahulmahadev/hikey_optee/optee_os/out/arm-plat-hikey/export-ta_arm64/lib/libutee.a(tee_api.o)
                              /home/rahulmahadev/hikey_optee/neo/ta/out/ta.o (TEE_GetSystemTime)
/home/rahulmahadev/hikey_optee/optee_os/out/arm-plat-hikey/export-ta_arm64/lib/libutee.a(tee_api_objects.o)
                              /home/rahulmahadev/hikey_optee/neo/ta/out/ta.o (TEE_CreatePersistentObject)
/home/rahulmahadev/hikey_optee/optee_os/out/arm-plat-hikey/export-ta_arm64/lib/libutee.a(tee_api_operations.o)
                              /home/rahulmahadev/hikey_optee/neo/ta/out/ta.o (TEE_FreeOperation)
/home/rahulmahadev/hikey_optee/optee_os/out/arm-plat-hikey/export-ta_arm64/lib/libutee.a(tee_api_panic.o)
                              /home/rahulmahadev/hikey_optee/optee_os/out/arm-plat-hikey/export-ta_arm64/lib/libutee.a(tee_api.o) (__TEE_Panic)
/home/rahulmahadev/hikey_optee/optee_os/out/arm-plat-hikey/export-ta_arm64/lib/libutee.a(user_ta_entry.o)
                              /home/rahulmahadev/hikey_optee/neo/ta/out/user_ta_header.o (__utee_entry)
/home/rahulmahadev/hikey_optee/optee_os/out/arm-plat-hikey/export-ta_arm64/lib/libutee.a(utee_syscalls_a64.o)
                              /home/rahulmahadev/hikey_optee/optee_os/out/arm-plat-hikey/export-ta_arm64/lib/libutee.a(user_ta_entry.o) (utee_return)
/home/rahulmahadev/hikey_optee/optee_os/out/arm-plat-hikey/export-ta_arm64/lib/libutee.a(tee_user_mem.o)
                              /home/rahulmahadev/hikey_optee/optee_os/out/arm-plat-hikey/export-ta_arm64/lib/libutee.a(tee_api.o) (tee_user_mem_alloc)
/home/rahulmahadev/hikey_optee/optee_os/out/arm-plat-hikey/export-ta_arm64/lib/libutee.a(assert.o)
                              /home/rahulmahadev/hikey_optee/optee_os/out/arm-plat-hikey/export-ta_arm64/lib/libutee.a(tee_user_mem.o) (_assert_log)
/home/rahulmahadev/hikey_optee/optee_os/out/arm-plat-hikey/export-ta_arm64/lib/libutee.a(tee_api_arith.o)
                              /home/rahulmahadev/hikey_optee/optee_os/out/arm-plat-hikey/export-ta_arm64/lib/libutee.a(user_ta_entry.o) (_TEE_MathAPI_Init)
/home/rahulmahadev/hikey_optee/optee_os/out/arm-plat-hikey/export-ta_arm64/lib/libutee.a(utee_misc.o)
                              /home/rahulmahadev/hikey_optee/optee_os/out/arm-plat-hikey/export-ta_arm64/lib/libutee.a(tee_user_mem.o) (utee_malloc)
/home/rahulmahadev/hikey_optee/optee_os/out/arm-plat-hikey/export-ta_arm64/lib/libutee.a(trace_ext.o)
                              /home/rahulmahadev/hikey_optee/optee_os/out/arm-plat-hikey/export-ta_arm64/lib/libutee.a(tee_api_arith.o) (printf)
/home/rahulmahadev/hikey_optee/optee_os/out/arm-plat-hikey/export-ta_arm64/lib/libutils.a(bget_malloc.o)
                              /home/rahulmahadev/hikey_optee/neo/ta/out/ta.o (malloc)
/home/rahulmahadev/hikey_optee/optee_os/out/arm-plat-hikey/export-ta_arm64/lib/libutils.a(snprintf.o)
                              /home/rahulmahadev/hikey_optee/neo/ta/out/ta.o (snprintf)
/home/rahulmahadev/hikey_optee/optee_os/out/arm-plat-hikey/export-ta_arm64/lib/libutils.a(memcmp.o)
                              /home/rahulmahadev/hikey_optee/optee_os/out/arm-plat-hikey/export-ta_arm64/lib/libutee.a(tee_api.o) (memcmp)
/home/rahulmahadev/hikey_optee/optee_os/out/arm-plat-hikey/export-ta_arm64/lib/libutils.a(memcpy.o)
                              /home/rahulmahadev/hikey_optee/neo/ta/out/ta.o (memcpy)
/home/rahulmahadev/hikey_optee/optee_os/out/arm-plat-hikey/export-ta_arm64/lib/libutils.a(memmove.o)
                              /home/rahulmahadev/hikey_optee/optee_os/out/arm-plat-hikey/export-ta_arm64/lib/libutee.a(tee_api.o) (memmove)
/home/rahulmahadev/hikey_optee/optee_os/out/arm-plat-hikey/export-ta_arm64/lib/libutils.a(memset.o)
                              /home/rahulmahadev/hikey_optee/neo/ta/out/ta.o (memset)
/home/rahulmahadev/hikey_optee/optee_os/out/arm-plat-hikey/export-ta_arm64/lib/libutils.a(strcmp.o)
                              /home/rahulmahadev/hikey_optee/neo/ta/out/ta.o (strcmp)
/home/rahulmahadev/hikey_optee/optee_os/out/arm-plat-hikey/export-ta_arm64/lib/libutils.a(strlen.o)
                              /home/rahulmahadev/hikey_optee/neo/ta/out/ta.o (strlen)
/home/rahulmahadev/hikey_optee/optee_os/out/arm-plat-hikey/export-ta_arm64/lib/libutils.a(snprintk.o)
                              /home/rahulmahadev/hikey_optee/optee_os/out/arm-plat-hikey/export-ta_arm64/lib/libutils.a(snprintf.o) (__vsnprintf)
/home/rahulmahadev/hikey_optee/optee_os/out/arm-plat-hikey/export-ta_arm64/lib/libutils.a(strlcpy.o)
                              /home/rahulmahadev/hikey_optee/optee_os/out/arm-plat-hikey/export-ta_arm64/lib/libutee.a(trace_ext.o) (strlcpy)
/home/rahulmahadev/hikey_optee/optee_os/out/arm-plat-hikey/export-ta_arm64/lib/libutils.a(buf_compare_ct.o)
                              /home/rahulmahadev/hikey_optee/optee_os/out/arm-plat-hikey/export-ta_arm64/lib/libutee.a(tee_api_operations.o) (buf_compare_ct)
/home/rahulmahadev/hikey_optee/optee_os/out/arm-plat-hikey/export-ta_arm64/lib/libutils.a(trace.o)
                              /home/rahulmahadev/hikey_optee/optee_os/out/arm-plat-hikey/export-ta_arm64/lib/libutee.a(user_ta_entry.o) (trace_set_level)
/home/rahulmahadev/hikey_optee/optee_os/out/arm-plat-hikey/export-ta_arm64/lib/libutils.a(memchr.o)
                              /home/rahulmahadev/hikey_optee/optee_os/out/arm-plat-hikey/export-ta_arm64/lib/libutils.a(snprintk.o) (memchr)
/home/rahulmahadev/hikey_optee/optee_os/out/arm-plat-hikey/export-ta_arm64/lib/libmpa.a(mpa_misc.o)
                              /home/rahulmahadev/hikey_optee/optee_os/out/arm-plat-hikey/export-ta_arm64/lib/libutee.a(tee_api_arith.o) (mpa_copy)
/home/rahulmahadev/hikey_optee/optee_os/out/arm-plat-hikey/export-ta_arm64/lib/libmpa.a(mpa_montgomery.o)
                              /home/rahulmahadev/hikey_optee/optee_os/out/arm-plat-hikey/export-ta_arm64/lib/libutee.a(tee_api_arith.o) (mpa_compute_fmm_context)
/home/rahulmahadev/hikey_optee/optee_os/out/arm-plat-hikey/export-ta_arm64/lib/libmpa.a(mpa_primetest.o)
                              /home/rahulmahadev/hikey_optee/optee_os/out/arm-plat-hikey/export-ta_arm64/lib/libutee.a(tee_api_arith.o) (mpa_is_prob_prime)
/home/rahulmahadev/hikey_optee/optee_os/out/arm-plat-hikey/export-ta_arm64/lib/libmpa.a(mpa_conv.o)
                              /home/rahulmahadev/hikey_optee/optee_os/out/arm-plat-hikey/export-ta_arm64/lib/libutee.a(tee_api_arith.o) (mpa_set_S32)
/home/rahulmahadev/hikey_optee/optee_os/out/arm-plat-hikey/export-ta_arm64/lib/libmpa.a(mpa_div.o)
                              /home/rahulmahadev/hikey_optee/optee_os/out/arm-plat-hikey/export-ta_arm64/lib/libutee.a(tee_api_arith.o) (mpa_div)
/home/rahulmahadev/hikey_optee/optee_os/out/arm-plat-hikey/export-ta_arm64/lib/libmpa.a(mpa_gcd.o)
                              /home/rahulmahadev/hikey_optee/optee_os/out/arm-plat-hikey/export-ta_arm64/lib/libutee.a(tee_api_arith.o) (mpa_gcd)
/home/rahulmahadev/hikey_optee/optee_os/out/arm-plat-hikey/export-ta_arm64/lib/libmpa.a(mpa_mem_static.o)
                              /home/rahulmahadev/hikey_optee/optee_os/out/arm-plat-hikey/export-ta_arm64/lib/libutee.a(tee_api_arith.o) (mpa_init_scratch_mem)
/home/rahulmahadev/hikey_optee/optee_os/out/arm-plat-hikey/export-ta_arm64/lib/libmpa.a(mpa_mul.o)
                              /home/rahulmahadev/hikey_optee/optee_os/out/arm-plat-hikey/export-ta_arm64/lib/libmpa.a(mpa_div.o) (__mpa_mul_add_word)
/home/rahulmahadev/hikey_optee/optee_os/out/arm-plat-hikey/export-ta_arm64/lib/libmpa.a(mpa_random.o)
                              /home/rahulmahadev/hikey_optee/optee_os/out/arm-plat-hikey/export-ta_arm64/lib/libutee.a(tee_api_arith.o) (mpa_set_random_generator)
/home/rahulmahadev/hikey_optee/optee_os/out/arm-plat-hikey/export-ta_arm64/lib/libmpa.a(mpa_shift.o)
                              /home/rahulmahadev/hikey_optee/optee_os/out/arm-plat-hikey/export-ta_arm64/lib/libmpa.a(mpa_div.o) (__mpa_shift_words_left)
/home/rahulmahadev/hikey_optee/optee_os/out/arm-plat-hikey/export-ta_arm64/lib/libmpa.a(mpa_addsub.o)
                              /home/rahulmahadev/hikey_optee/optee_os/out/arm-plat-hikey/export-ta_arm64/lib/libmpa.a(mpa_div.o) (__mpa_full_adder)
/home/rahulmahadev/hikey_optee/optee_os/out/arm-plat-hikey/export-ta_arm64/lib/libmpa.a(mpa_cmp.o)
                              /home/rahulmahadev/hikey_optee/optee_os/out/arm-plat-hikey/export-ta_arm64/lib/libmpa.a(mpa_montgomery.o) (__mpa_abs_cmp)
/home/rahulmahadev/hikey_optee/optee_os/out/arm-plat-hikey/export-ta_arm64/lib/libmpa.a(mpa_expmod.o)
                              /home/rahulmahadev/hikey_optee/optee_os/out/arm-plat-hikey/export-ta_arm64/lib/libmpa.a(mpa_primetest.o) (mpa_exp_mod)
/home/rahulmahadev/hikey_optee/optee_os/out/arm-plat-hikey/export-ta_arm64/lib/libmpa.a(mpa_init.o)
                              /home/rahulmahadev/hikey_optee/optee_os/out/arm-plat-hikey/export-ta_arm64/lib/libutee.a(tee_api_arith.o) (mpa_init_static)
/home/rahulmahadev/hikey_optee/optee_os/out/arm-plat-hikey/export-ta_arm64/lib/libmpa.a(mpa_io.o)
                              /home/rahulmahadev/hikey_optee/optee_os/out/arm-plat-hikey/export-ta_arm64/lib/libutee.a(tee_api_arith.o) (mpa_set_oct_str)
/home/rahulmahadev/hikey_optee/optee_os/out/arm-plat-hikey/export-ta_arm64/lib/libmpa.a(mpa_modulus.o)
                              /home/rahulmahadev/hikey_optee/optee_os/out/arm-plat-hikey/export-ta_arm64/lib/libutee.a(tee_api_arith.o) (mpa_mod)

Allocating common symbols
Common symbol       size              file

questions           0x8               /home/rahulmahadev/hikey_optee/neo/ta/out/ta.o
max_qs              0x4               /home/rahulmahadev/hikey_optee/neo/ta/out/ta.o
ta_heap             0x8000            /home/rahulmahadev/hikey_optee/neo/ta/out/user_ta_header.o
score               0x4               /home/rahulmahadev/hikey_optee/neo/ta/out/ta.o
answers             0x8               /home/rahulmahadev/hikey_optee/neo/ta/out/ta.o
ta_param_types      0x4               /home/rahulmahadev/hikey_optee/optee_os/out/arm-plat-hikey/export-ta_arm64/lib/libutee.a(user_ta_entry.o)
start_time          0x4               /home/rahulmahadev/hikey_optee/neo/ta/out/ta.o
ta_params           0x40              /home/rahulmahadev/hikey_optee/optee_os/out/arm-plat-hikey/export-ta_arm64/lib/libutee.a(user_ta_entry.o)
q_no                0x4               /home/rahulmahadev/hikey_optee/neo/ta/out/ta.o

Memory Configuration

Name             Origin             Length             Attributes
*default*        0x0000000000000000 0xffffffffffffffff

Linker script and memory map


.ta_head        0x0000000000000000       0x20
 *(SORT(.ta_head))
 .ta_head       0x0000000000000000       0x20 /home/rahulmahadev/hikey_optee/neo/ta/out/user_ta_header.o
                0x0000000000000000                ta_head

.text           0x0000000000000020     0xc190
 *(SORT(.text) SORT(.text.*))
 .text.string_copy
                0x0000000000000020       0x50 /home/rahulmahadev/hikey_optee/neo/ta/out/ta.o
                0x0000000000000020                string_copy
 .text.dump_hash
                0x0000000000000070      0x1d0 /home/rahulmahadev/hikey_optee/neo/ta/out/ta.o
 .text.call_gp_sha1_interface
                0x0000000000000240      0x100 /home/rahulmahadev/hikey_optee/neo/ta/out/ta.o
 .text.TA_CreateEntryPoint
                0x0000000000000340        0x8 /home/rahulmahadev/hikey_optee/neo/ta/out/ta.o
                0x0000000000000340                TA_CreateEntryPoint
 .text.TA_DestroyEntryPoint
                0x0000000000000348        0x4 /home/rahulmahadev/hikey_optee/neo/ta/out/ta.o
                0x0000000000000348                TA_DestroyEntryPoint
 .text.set_params
                0x000000000000034c      0x184 /home/rahulmahadev/hikey_optee/neo/ta/out/ta.o
 .text.TA_OpenSessionEntryPoint
                0x00000000000004d0       0xf0 /home/rahulmahadev/hikey_optee/neo/ta/out/ta.o
                0x00000000000004d0                TA_OpenSessionEntryPoint
 .text.TA_CloseSessionEntryPoint
                0x00000000000005c0       0x10 /home/rahulmahadev/hikey_optee/neo/ta/out/ta.o
                0x00000000000005c0                TA_CloseSessionEntryPoint
 .text.check_answer
                0x00000000000005d0      0x254 /home/rahulmahadev/hikey_optee/neo/ta/out/ta.o
 .text.start_quiz
                0x0000000000000824       0xe0 /home/rahulmahadev/hikey_optee/neo/ta/out/ta.o
 .text.TA_InvokeCommandEntryPoint
                0x0000000000000904       0x5c /home/rahulmahadev/hikey_optee/neo/ta/out/ta.o
                0x0000000000000904                TA_InvokeCommandEntryPoint
 .text.tahead_get_trace_level
                0x0000000000000960        0x8 /home/rahulmahadev/hikey_optee/neo/ta/out/user_ta_header.o
                0x0000000000000960                tahead_get_trace_level
 .text.__utee_from_param
                0x0000000000000968       0x80 /home/rahulmahadev/hikey_optee/optee_os/out/arm-plat-hikey/export-ta_arm64/lib/libutee.a(tee_api.o)
                0x0000000000000968                __utee_from_param
 .text.__utee_to_param
                0x00000000000009e8       0x80 /home/rahulmahadev/hikey_optee/optee_os/out/arm-plat-hikey/export-ta_arm64/lib/libutee.a(tee_api.o)
                0x00000000000009e8                __utee_to_param
 .text.TEE_OpenTASession
                0x0000000000000a68       0x90 /home/rahulmahadev/hikey_optee/optee_os/out/arm-plat-hikey/export-ta_arm64/lib/libutee.a(tee_api.o)
                0x0000000000000a68                TEE_OpenTASession
 .text.TEE_CloseTASession
                0x0000000000000af8       0x5c /home/rahulmahadev/hikey_optee/optee_os/out/arm-plat-hikey/export-ta_arm64/lib/libutee.a(tee_api.o)
                0x0000000000000af8                TEE_CloseTASession
 .text.TEE_InvokeTACommand
                0x0000000000000b54       0xec /home/rahulmahadev/hikey_optee/optee_os/out/arm-plat-hikey/export-ta_arm64/lib/libutee.a(tee_api.o)
                0x0000000000000b54                TEE_InvokeTACommand
 .text.TEE_GetCancellationFlag
                0x0000000000000c40       0x2c /home/rahulmahadev/hikey_optee/optee_os/out/arm-plat-hikey/export-ta_arm64/lib/libutee.a(tee_api.o)
                0x0000000000000c40                TEE_GetCancellationFlag
 .text.TEE_UnmaskCancellation
                0x0000000000000c6c       0x60 /home/rahulmahadev/hikey_optee/optee_os/out/arm-plat-hikey/export-ta_arm64/lib/libutee.a(tee_api.o)
                0x0000000000000c6c                TEE_UnmaskCancellation
 .text.TEE_MaskCancellation
                0x0000000000000ccc       0x60 /home/rahulmahadev/hikey_optee/optee_os/out/arm-plat-hikey/export-ta_arm64/lib/libutee.a(tee_api.o)
                0x0000000000000ccc                TEE_MaskCancellation
 .text.TEE_CheckMemoryAccessRights
                0x0000000000000d2c       0x14 /home/rahulmahadev/hikey_optee/optee_os/out/arm-plat-hikey/export-ta_arm64/lib/libutee.a(tee_api.o)
                0x0000000000000d2c                TEE_CheckMemoryAccessRights
 .text.TEE_SetInstanceData
                0x0000000000000d40        0xc /home/rahulmahadev/hikey_optee/optee_os/out/arm-plat-hikey/export-ta_arm64/lib/libutee.a(tee_api.o)
                0x0000000000000d40                TEE_SetInstanceData
 .text.TEE_GetInstanceData
                0x0000000000000d4c        0xc /home/rahulmahadev/hikey_optee/optee_os/out/arm-plat-hikey/export-ta_arm64/lib/libutee.a(tee_api.o)
                0x0000000000000d4c                TEE_GetInstanceData
 .text.TEE_MemMove
                0x0000000000000d58        0x8 /home/rahulmahadev/hikey_optee/optee_os/out/arm-plat-hikey/export-ta_arm64/lib/libutee.a(tee_api.o)
                0x0000000000000d58                TEE_MemMove
 .text.TEE_MemCompare
                0x0000000000000d60        0x8 /home/rahulmahadev/hikey_optee/optee_os/out/arm-plat-hikey/export-ta_arm64/lib/libutee.a(tee_api.o)
                0x0000000000000d60                TEE_MemCompare
 .text.TEE_MemFill
                0x0000000000000d68        0x8 /home/rahulmahadev/hikey_optee/optee_os/out/arm-plat-hikey/export-ta_arm64/lib/libutee.a(tee_api.o)
                0x0000000000000d68                TEE_MemFill
 .text.TEE_GetSystemTime
                0x0000000000000d70       0x50 /home/rahulmahadev/hikey_optee/optee_os/out/arm-plat-hikey/export-ta_arm64/lib/libutee.a(tee_api.o)
                0x0000000000000d70                TEE_GetSystemTime
 .text.TEE_Wait
                0x0000000000000dc0       0x64 /home/rahulmahadev/hikey_optee/optee_os/out/arm-plat-hikey/export-ta_arm64/lib/libutee.a(tee_api.o)
                0x0000000000000dc0                TEE_Wait
 .text.TEE_GetTAPersistentTime
                0x0000000000000e24       0xa0 /home/rahulmahadev/hikey_optee/optee_os/out/arm-plat-hikey/export-ta_arm64/lib/libutee.a(tee_api.o)
                0x0000000000000e24                TEE_GetTAPersistentTime
 .text.TEE_SetTAPersistentTime
                0x0000000000000ec4       0x78 /home/rahulmahadev/hikey_optee/optee_os/out/arm-plat-hikey/export-ta_arm64/lib/libutee.a(tee_api.o)
                0x0000000000000ec4                TEE_SetTAPersistentTime
 .text.TEE_GetREETime
                0x0000000000000f3c       0x50 /home/rahulmahadev/hikey_optee/optee_os/out/arm-plat-hikey/export-ta_arm64/lib/libutee.a(tee_api.o)
                0x0000000000000f3c                TEE_GetREETime
 .text.TEE_Malloc
                0x0000000000000f8c        0x8 /home/rahulmahadev/hikey_optee/optee_os/out/arm-plat-hikey/export-ta_arm64/lib/libutee.a(tee_api.o)
                0x0000000000000f8c                TEE_Malloc
 .text.TEE_Realloc
                0x0000000000000f94        0x8 /home/rahulmahadev/hikey_optee/optee_os/out/arm-plat-hikey/export-ta_arm64/lib/libutee.a(tee_api.o)
                0x0000000000000f94                TEE_Realloc
 .text.TEE_Free
                0x0000000000000f9c        0x4 /home/rahulmahadev/hikey_optee/optee_os/out/arm-plat-hikey/export-ta_arm64/lib/libutee.a(tee_api.o)
                0x0000000000000f9c                TEE_Free
 .text.TEE_CacheClean
                0x0000000000000fa0        0x8 /home/rahulmahadev/hikey_optee/optee_os/out/arm-plat-hikey/export-ta_arm64/lib/libutee.a(tee_api.o)
                0x0000000000000fa0                TEE_CacheClean
 .text.TEE_CacheFlush
                0x0000000000000fa8        0x8 /home/rahulmahadev/hikey_optee/optee_os/out/arm-plat-hikey/export-ta_arm64/lib/libutee.a(tee_api.o)
                0x0000000000000fa8                TEE_CacheFlush
 .text.TEE_CacheInvalidate
                0x0000000000000fb0        0x8 /home/rahulmahadev/hikey_optee/optee_os/out/arm-plat-hikey/export-ta_arm64/lib/libutee.a(tee_api.o)
                0x0000000000000fb0                TEE_CacheInvalidate
 .text.__utee_from_attr
                0x0000000000000fb8       0x58 /home/rahulmahadev/hikey_optee/optee_os/out/arm-plat-hikey/export-ta_arm64/lib/libutee.a(tee_api_objects.o)
                0x0000000000000fb8                __utee_from_attr
 .text.TEE_GetObjectInfo
                0x0000000000001010       0x80 /home/rahulmahadev/hikey_optee/optee_os/out/arm-plat-hikey/export-ta_arm64/lib/libutee.a(tee_api_objects.o)
                0x0000000000001010                TEE_GetObjectInfo
 .text.TEE_GetObjectInfo1
                0x0000000000001090       0x68 /home/rahulmahadev/hikey_optee/optee_os/out/arm-plat-hikey/export-ta_arm64/lib/libutee.a(tee_api_objects.o)
                0x0000000000001090                TEE_GetObjectInfo1
 .text.TEE_RestrictObjectUsage1
                0x00000000000010f8       0x6c /home/rahulmahadev/hikey_optee/optee_os/out/arm-plat-hikey/export-ta_arm64/lib/libutee.a(tee_api_objects.o)
                0x00000000000010f8                TEE_RestrictObjectUsage1
 .text.TEE_RestrictObjectUsage
                0x0000000000001164       0x78 /home/rahulmahadev/hikey_optee/optee_os/out/arm-plat-hikey/export-ta_arm64/lib/libutee.a(tee_api_objects.o)
                0x0000000000001164                TEE_RestrictObjectUsage
 .text.TEE_GetObjectBufferAttribute
                0x00000000000011dc       0xc8 /home/rahulmahadev/hikey_optee/optee_os/out/arm-plat-hikey/export-ta_arm64/lib/libutee.a(tee_api_objects.o)
                0x00000000000011dc                TEE_GetObjectBufferAttribute
 .text.TEE_GetObjectValueAttribute
                0x00000000000012a4      0x10c /home/rahulmahadev/hikey_optee/optee_os/out/arm-plat-hikey/export-ta_arm64/lib/libutee.a(tee_api_objects.o)
                0x00000000000012a4                TEE_GetObjectValueAttribute
 .text.TEE_CloseObject
                0x00000000000013b0       0x4c /home/rahulmahadev/hikey_optee/optee_os/out/arm-plat-hikey/export-ta_arm64/lib/libutee.a(tee_api_objects.o)
                0x00000000000013b0                TEE_CloseObject
 .text.TEE_AllocateTransientObject
                0x00000000000013fc       0x8c /home/rahulmahadev/hikey_optee/optee_os/out/arm-plat-hikey/export-ta_arm64/lib/libutee.a(tee_api_objects.o)
                0x00000000000013fc                TEE_AllocateTransientObject
 .text.TEE_FreeTransientObject
                0x0000000000001488       0xc4 /home/rahulmahadev/hikey_optee/optee_os/out/arm-plat-hikey/export-ta_arm64/lib/libutee.a(tee_api_objects.o)
                0x0000000000001488                TEE_FreeTransientObject
 .text.TEE_ResetTransientObject
                0x000000000000154c       0xc4 /home/rahulmahadev/hikey_optee/optee_os/out/arm-plat-hikey/export-ta_arm64/lib/libutee.a(tee_api_objects.o)
                0x000000000000154c                TEE_ResetTransientObject
 .text.TEE_PopulateTransientObject
                0x0000000000001610      0x15c /home/rahulmahadev/hikey_optee/optee_os/out/arm-plat-hikey/export-ta_arm64/lib/libutee.a(tee_api_objects.o)
                0x0000000000001610                TEE_PopulateTransientObject
 .text.TEE_InitRefAttribute
                0x000000000000176c       0x9c /home/rahulmahadev/hikey_optee/optee_os/out/arm-plat-hikey/export-ta_arm64/lib/libutee.a(tee_api_objects.o)
                0x000000000000176c                TEE_InitRefAttribute
 .text.TEE_InitValueAttribute
                0x0000000000001808       0x9c /home/rahulmahadev/hikey_optee/optee_os/out/arm-plat-hikey/export-ta_arm64/lib/libutee.a(tee_api_objects.o)
                0x0000000000001808                TEE_InitValueAttribute
 .text.TEE_CopyObjectAttributes1
                0x00000000000018a4      0x140 /home/rahulmahadev/hikey_optee/optee_os/out/arm-plat-hikey/export-ta_arm64/lib/libutee.a(tee_api_objects.o)
                0x00000000000018a4                TEE_CopyObjectAttributes1
 .text.TEE_CopyObjectAttributes
                0x00000000000019e4       0x7c /home/rahulmahadev/hikey_optee/optee_os/out/arm-plat-hikey/export-ta_arm64/lib/libutee.a(tee_api_objects.o)
                0x00000000000019e4                TEE_CopyObjectAttributes
 .text.TEE_GenerateKey
                0x0000000000001a60       0xb4 /home/rahulmahadev/hikey_optee/optee_os/out/arm-plat-hikey/export-ta_arm64/lib/libutee.a(tee_api_objects.o)
                0x0000000000001a60                TEE_GenerateKey
 .text.TEE_OpenPersistentObject
                0x0000000000001b14       0xcc /home/rahulmahadev/hikey_optee/optee_os/out/arm-plat-hikey/export-ta_arm64/lib/libutee.a(tee_api_objects.o)
                0x0000000000001b14                TEE_OpenPersistentObject
 .text.TEE_CreatePersistentObject
                0x0000000000001be0       0xd4 /home/rahulmahadev/hikey_optee/optee_os/out/arm-plat-hikey/export-ta_arm64/lib/libutee.a(tee_api_objects.o)
                0x0000000000001be0                TEE_CreatePersistentObject
 .text.TEE_CloseAndDeletePersistentObject1
                0x0000000000001cb4       0x78 /home/rahulmahadev/hikey_optee/optee_os/out/arm-plat-hikey/export-ta_arm64/lib/libutee.a(tee_api_objects.o)
                0x0000000000001cb4                TEE_CloseAndDeletePersistentObject1
 .text.TEE_CloseAndDeletePersistentObject
                0x0000000000001d2c       0x4c /home/rahulmahadev/hikey_optee/optee_os/out/arm-plat-hikey/export-ta_arm64/lib/libutee.a(tee_api_objects.o)
                0x0000000000001d2c                TEE_CloseAndDeletePersistentObject
 .text.TEE_RenamePersistentObject
                0x0000000000001d78       0x94 /home/rahulmahadev/hikey_optee/optee_os/out/arm-plat-hikey/export-ta_arm64/lib/libutee.a(tee_api_objects.o)
                0x0000000000001d78                TEE_RenamePersistentObject
 .text.TEE_AllocatePersistentObjectEnumerator
                0x0000000000001e0c       0x80 /home/rahulmahadev/hikey_optee/optee_os/out/arm-plat-hikey/export-ta_arm64/lib/libutee.a(tee_api_objects.o)
                0x0000000000001e0c                TEE_AllocatePersistentObjectEnumerator
 .text.TEE_FreePersistentObjectEnumerator
                0x0000000000001e8c       0x4c /home/rahulmahadev/hikey_optee/optee_os/out/arm-plat-hikey/export-ta_arm64/lib/libutee.a(tee_api_objects.o)
                0x0000000000001e8c                TEE_FreePersistentObjectEnumerator
 .text.TEE_ResetPersistentObjectEnumerator
                0x0000000000001ed8       0x4c /home/rahulmahadev/hikey_optee/optee_os/out/arm-plat-hikey/export-ta_arm64/lib/libutee.a(tee_api_objects.o)
                0x0000000000001ed8                TEE_ResetPersistentObjectEnumerator
 .text.TEE_StartPersistentObjectEnumerator
                0x0000000000001f24       0x8c /home/rahulmahadev/hikey_optee/optee_os/out/arm-plat-hikey/export-ta_arm64/lib/libutee.a(tee_api_objects.o)
                0x0000000000001f24                TEE_StartPersistentObjectEnumerator
 .text.TEE_GetNextPersistentObject
                0x0000000000001fb0       0x9c /home/rahulmahadev/hikey_optee/optee_os/out/arm-plat-hikey/export-ta_arm64/lib/libutee.a(tee_api_objects.o)
                0x0000000000001fb0                TEE_GetNextPersistentObject
 .text.TEE_ReadObjectData
                0x000000000000204c       0x8c /home/rahulmahadev/hikey_optee/optee_os/out/arm-plat-hikey/export-ta_arm64/lib/libutee.a(tee_api_objects.o)
                0x000000000000204c                TEE_ReadObjectData
 .text.TEE_WriteObjectData
                0x00000000000020d8       0x8c /home/rahulmahadev/hikey_optee/optee_os/out/arm-plat-hikey/export-ta_arm64/lib/libutee.a(tee_api_objects.o)
                0x00000000000020d8                TEE_WriteObjectData
 .text.TEE_TruncateObjectData
                0x0000000000002164       0x80 /home/rahulmahadev/hikey_optee/optee_os/out/arm-plat-hikey/export-ta_arm64/lib/libutee.a(tee_api_objects.o)
                0x0000000000002164                TEE_TruncateObjectData
 .text.TEE_SeekObjectData
                0x00000000000021e4       0xfc /home/rahulmahadev/hikey_optee/optee_os/out/arm-plat-hikey/export-ta_arm64/lib/libutee.a(tee_api_objects.o)
                0x00000000000021e4                TEE_SeekObjectData
 .text.init_hash_operation
                0x00000000000022e0       0x6c /home/rahulmahadev/hikey_optee/optee_os/out/arm-plat-hikey/export-ta_arm64/lib/libutee.a(tee_api_operations.o)
 .text.tee_buffer_update
                0x000000000000234c      0x244 /home/rahulmahadev/hikey_optee/optee_os/out/arm-plat-hikey/export-ta_arm64/lib/libutee.a(tee_api_operations.o)
 .text.TEE_FreeOperation
                0x0000000000002590       0x90 /home/rahulmahadev/hikey_optee/optee_os/out/arm-plat-hikey/export-ta_arm64/lib/libutee.a(tee_api_operations.o)
                0x0000000000002590                TEE_FreeOperation
 .text.TEE_AllocateOperation
                0x0000000000002620      0x978 /home/rahulmahadev/hikey_optee/optee_os/out/arm-plat-hikey/export-ta_arm64/lib/libutee.a(tee_api_operations.o)
                0x0000000000002620                TEE_AllocateOperation
 .text.TEE_GetOperationInfo
                0x0000000000002f98       0x90 /home/rahulmahadev/hikey_optee/optee_os/out/arm-plat-hikey/export-ta_arm64/lib/libutee.a(tee_api_operations.o)
                0x0000000000002f98                TEE_GetOperationInfo
 .text.TEE_GetOperationInfoMultiple
                0x0000000000003028      0x188 /home/rahulmahadev/hikey_optee/optee_os/out/arm-plat-hikey/export-ta_arm64/lib/libutee.a(tee_api_operations.o)
                0x0000000000003028                TEE_GetOperationInfoMultiple
 .text.TEE_ResetOperation
                0x00000000000031b0       0xec /home/rahulmahadev/hikey_optee/optee_os/out/arm-plat-hikey/export-ta_arm64/lib/libutee.a(tee_api_operations.o)
                0x00000000000031b0                TEE_ResetOperation
 .text.TEE_SetOperationKey
                0x000000000000329c      0x114 /home/rahulmahadev/hikey_optee/optee_os/out/arm-plat-hikey/export-ta_arm64/lib/libutee.a(tee_api_operations.o)
                0x000000000000329c                TEE_SetOperationKey
 .text.TEE_SetOperationKey2
                0x00000000000033b0      0x1c4 /home/rahulmahadev/hikey_optee/optee_os/out/arm-plat-hikey/export-ta_arm64/lib/libutee.a(tee_api_operations.o)
                0x00000000000033b0                TEE_SetOperationKey2
 .text.TEE_CopyOperation
                0x0000000000003574      0x208 /home/rahulmahadev/hikey_optee/optee_os/out/arm-plat-hikey/export-ta_arm64/lib/libutee.a(tee_api_operations.o)
                0x0000000000003574                TEE_CopyOperation
 .text.TEE_DigestUpdate
                0x000000000000377c       0xc0 /home/rahulmahadev/hikey_optee/optee_os/out/arm-plat-hikey/export-ta_arm64/lib/libutee.a(tee_api_operations.o)
                0x000000000000377c                TEE_DigestUpdate
 .text.TEE_DigestDoFinal
                0x000000000000383c       0xd4 /home/rahulmahadev/hikey_optee/optee_os/out/arm-plat-hikey/export-ta_arm64/lib/libutee.a(tee_api_operations.o)
                0x000000000000383c                TEE_DigestDoFinal
 .text.TEE_CipherInit
                0x0000000000003910      0x13c /home/rahulmahadev/hikey_optee/optee_os/out/arm-plat-hikey/export-ta_arm64/lib/libutee.a(tee_api_operations.o)
                0x0000000000003910                TEE_CipherInit
 .text.TEE_CipherUpdate
                0x0000000000003a4c      0x12c /home/rahulmahadev/hikey_optee/optee_os/out/arm-plat-hikey/export-ta_arm64/lib/libutee.a(tee_api_operations.o)
                0x0000000000003a4c                TEE_CipherUpdate
 .text.TEE_CipherDoFinal
                0x0000000000003b78      0x1b8 /home/rahulmahadev/hikey_optee/optee_os/out/arm-plat-hikey/export-ta_arm64/lib/libutee.a(tee_api_operations.o)
                0x0000000000003b78                TEE_CipherDoFinal
 .text.TEE_MACInit
                0x0000000000003d30       0xf4 /home/rahulmahadev/hikey_optee/optee_os/out/arm-plat-hikey/export-ta_arm64/lib/libutee.a(tee_api_operations.o)
                0x0000000000003d30                TEE_MACInit
 .text.TEE_MACUpdate
                0x0000000000003e24      0x158 /home/rahulmahadev/hikey_optee/optee_os/out/arm-plat-hikey/export-ta_arm64/lib/libutee.a(tee_api_operations.o)
                0x0000000000003e24                TEE_MACUpdate
 .text.TEE_MACComputeFinal
                0x0000000000003f7c       0xe4 /home/rahulmahadev/hikey_optee/optee_os/out/arm-plat-hikey/export-ta_arm64/lib/libutee.a(tee_api_operations.o)
                0x0000000000003f7c                TEE_MACComputeFinal
 .text.TEE_MACCompareFinal
                0x0000000000004060       0xe4 /home/rahulmahadev/hikey_optee/optee_os/out/arm-plat-hikey/export-ta_arm64/lib/libutee.a(tee_api_operations.o)
                0x0000000000004060                TEE_MACCompareFinal
 .text.TEE_AEInit
                0x0000000000004144       0xec /home/rahulmahadev/hikey_optee/optee_os/out/arm-plat-hikey/export-ta_arm64/lib/libutee.a(tee_api_operations.o)
                0x0000000000004144                TEE_AEInit
 .text.TEE_AEUpdateAAD
                0x0000000000004230      0x124 /home/rahulmahadev/hikey_optee/optee_os/out/arm-plat-hikey/export-ta_arm64/lib/libutee.a(tee_api_operations.o)
                0x0000000000004230                TEE_AEUpdateAAD
 .text.TEE_AEUpdate
                0x0000000000004354      0x11c /home/rahulmahadev/hikey_optee/optee_os/out/arm-plat-hikey/export-ta_arm64/lib/libutee.a(tee_api_operations.o)
                0x0000000000004354                TEE_AEUpdate
 .text.TEE_AEEncryptFinal
                0x0000000000004470      0x1a8 /home/rahulmahadev/hikey_optee/optee_os/out/arm-plat-hikey/export-ta_arm64/lib/libutee.a(tee_api_operations.o)
                0x0000000000004470                TEE_AEEncryptFinal
 .text.TEE_AEDecryptFinal
                0x0000000000004618      0x1ac /home/rahulmahadev/hikey_optee/optee_os/out/arm-plat-hikey/export-ta_arm64/lib/libutee.a(tee_api_operations.o)
                0x0000000000004618                TEE_AEDecryptFinal
 .text.TEE_AsymmetricEncrypt
                0x00000000000047c4      0x240 /home/rahulmahadev/hikey_optee/optee_os/out/arm-plat-hikey/export-ta_arm64/lib/libutee.a(tee_api_operations.o)
                0x00000000000047c4                TEE_AsymmetricEncrypt
 .text.TEE_AsymmetricDecrypt
                0x0000000000004a04      0x244 /home/rahulmahadev/hikey_optee/optee_os/out/arm-plat-hikey/export-ta_arm64/lib/libutee.a(tee_api_operations.o)
                0x0000000000004a04                TEE_AsymmetricDecrypt
 .text.TEE_AsymmetricSignDigest
                0x0000000000004c48      0x214 /home/rahulmahadev/hikey_optee/optee_os/out/arm-plat-hikey/export-ta_arm64/lib/libutee.a(tee_api_operations.o)
                0x0000000000004c48                TEE_AsymmetricSignDigest
 .text.TEE_AsymmetricVerifyDigest
                0x0000000000004e5c      0x204 /home/rahulmahadev/hikey_optee/optee_os/out/arm-plat-hikey/export-ta_arm64/lib/libutee.a(tee_api_operations.o)
                0x0000000000004e5c                TEE_AsymmetricVerifyDigest
 .text.TEE_DeriveKey
                0x0000000000005060      0x2dc /home/rahulmahadev/hikey_optee/optee_os/out/arm-plat-hikey/export-ta_arm64/lib/libutee.a(tee_api_operations.o)
                0x0000000000005060                TEE_DeriveKey
 .text.TEE_GenerateRandom
                0x000000000000533c       0x5c /home/rahulmahadev/hikey_optee/optee_os/out/arm-plat-hikey/export-ta_arm64/lib/libutee.a(tee_api_operations.o)
                0x000000000000533c                TEE_GenerateRandom
 .text.__TEE_Panic
                0x0000000000005398       0x10 /home/rahulmahadev/hikey_optee/optee_os/out/arm-plat-hikey/export-ta_arm64/lib/libutee.a(tee_api_panic.o)
                0x0000000000005398                __TEE_Panic
 .text.TEE_Panic
                0x00000000000053a8       0x10 /home/rahulmahadev/hikey_optee/optee_os/out/arm-plat-hikey/export-ta_arm64/lib/libutee.a(tee_api_panic.o)
                0x00000000000053a8                TEE_Panic
 .text.ta_header_get_session
                0x00000000000053b8       0x30 /home/rahulmahadev/hikey_optee/optee_os/out/arm-plat-hikey/export-ta_arm64/lib/libutee.a(user_ta_entry.o)
 .text.ta_header_remove_session
                0x00000000000053e8       0x7c /home/rahulmahadev/hikey_optee/optee_os/out/arm-plat-hikey/export-ta_arm64/lib/libutee.a(user_ta_entry.o)
 .text.ta_header_save_params.part.0
                0x0000000000005464       0x14 /home/rahulmahadev/hikey_optee/optee_os/out/arm-plat-hikey/export-ta_arm64/lib/libutee.a(user_ta_entry.o)
 .text.__utee_entry
                0x0000000000005478      0x24c /home/rahulmahadev/hikey_optee/optee_os/out/arm-plat-hikey/export-ta_arm64/lib/libutee.a(user_ta_entry.o)
                0x0000000000005478                __utee_entry
 .text.print_buf
                0x00000000000056c4       0x58 /home/rahulmahadev/hikey_optee/optee_os/out/arm-plat-hikey/export-ta_arm64/lib/libutee.a(tee_user_mem.o)
 .text.check_elem
                0x000000000000571c       0xe4 /home/rahulmahadev/hikey_optee/optee_os/out/arm-plat-hikey/export-ta_arm64/lib/libutee.a(tee_user_mem.o)
 .text.tee_user_mem_alloc
                0x0000000000005800      0x144 /home/rahulmahadev/hikey_optee/optee_os/out/arm-plat-hikey/export-ta_arm64/lib/libutee.a(tee_user_mem.o)
                0x0000000000005800                tee_user_mem_alloc
 .text.tee_user_mem_free
                0x0000000000005944      0x148 /home/rahulmahadev/hikey_optee/optee_os/out/arm-plat-hikey/export-ta_arm64/lib/libutee.a(tee_user_mem.o)
                0x0000000000005944                tee_user_mem_free
 .text.tee_user_mem_realloc
                0x0000000000005a8c       0xc0 /home/rahulmahadev/hikey_optee/optee_os/out/arm-plat-hikey/export-ta_arm64/lib/libutee.a(tee_user_mem.o)
                0x0000000000005a8c                tee_user_mem_realloc
 .text.tee_user_mem_mark_heap
                0x0000000000005b4c        0xc /home/rahulmahadev/hikey_optee/optee_os/out/arm-plat-hikey/export-ta_arm64/lib/libutee.a(tee_user_mem.o)
                0x0000000000005b4c                tee_user_mem_mark_heap
 .text.tee_user_mem_check_heap
                0x0000000000005b58       0x94 /home/rahulmahadev/hikey_optee/optee_os/out/arm-plat-hikey/export-ta_arm64/lib/libutee.a(tee_user_mem.o)
                0x0000000000005b58                tee_user_mem_check_heap
 .text.tee_user_mem_garbage
                0x0000000000005bec       0x74 /home/rahulmahadev/hikey_optee/optee_os/out/arm-plat-hikey/export-ta_arm64/lib/libutee.a(tee_user_mem.o)
                0x0000000000005bec                tee_user_mem_garbage
 .text._assert_log
                0x0000000000005c60       0x2c /home/rahulmahadev/hikey_optee/optee_os/out/arm-plat-hikey/export-ta_arm64/lib/libutee.a(assert.o)
                0x0000000000005c60                _assert_log
 .text._assert_break
                0x0000000000005c8c       0x10 /home/rahulmahadev/hikey_optee/optee_os/out/arm-plat-hikey/export-ta_arm64/lib/libutee.a(assert.o)
                0x0000000000005c8c                _assert_break
 .text.unlikely.TEE_BigInt_Panic
                0x0000000000005c9c       0x50 /home/rahulmahadev/hikey_optee/optee_os/out/arm-plat-hikey/export-ta_arm64/lib/libutee.a(tee_api_arith.o)
 .text._TEE_MathAPI_Init
                0x0000000000005cec       0x2c /home/rahulmahadev/hikey_optee/optee_os/out/arm-plat-hikey/export-ta_arm64/lib/libutee.a(tee_api_arith.o)
                0x0000000000005cec                _TEE_MathAPI_Init
 .text.TEE_BigIntInit
                0x0000000000005d18        0x4 /home/rahulmahadev/hikey_optee/optee_os/out/arm-plat-hikey/export-ta_arm64/lib/libutee.a(tee_api_arith.o)
                0x0000000000005d18                TEE_BigIntInit
 .text.TEE_BigIntInitFMM
                0x0000000000005d1c       0x18 /home/rahulmahadev/hikey_optee/optee_os/out/arm-plat-hikey/export-ta_arm64/lib/libutee.a(tee_api_arith.o)
                0x0000000000005d1c                TEE_BigIntInitFMM
 .text.TEE_BigIntInitFMMContext
                0x0000000000005d34       0x3c /home/rahulmahadev/hikey_optee/optee_os/out/arm-plat-hikey/export-ta_arm64/lib/libutee.a(tee_api_arith.o)
                0x0000000000005d34                TEE_BigIntInitFMMContext
 .text.TEE_BigIntFMMSizeInU32
                0x0000000000005d70       0x10 /home/rahulmahadev/hikey_optee/optee_os/out/arm-plat-hikey/export-ta_arm64/lib/libutee.a(tee_api_arith.o)
                0x0000000000005d70                TEE_BigIntFMMSizeInU32
 .text.TEE_BigIntFMMContextSizeInU32
                0x0000000000005d80       0x14 /home/rahulmahadev/hikey_optee/optee_os/out/arm-plat-hikey/export-ta_arm64/lib/libutee.a(tee_api_arith.o)
                0x0000000000005d80                TEE_BigIntFMMContextSizeInU32
 .text.TEE_BigIntConvertFromOctetString
                0x0000000000005d94       0x28 /home/rahulmahadev/hikey_optee/optee_os/out/arm-plat-hikey/export-ta_arm64/lib/libutee.a(tee_api_arith.o)
                0x0000000000005d94                TEE_BigIntConvertFromOctetString
 .text.TEE_BigIntConvertToOctetString
                0x0000000000005dbc       0x40 /home/rahulmahadev/hikey_optee/optee_os/out/arm-plat-hikey/export-ta_arm64/lib/libutee.a(tee_api_arith.o)
                0x0000000000005dbc                TEE_BigIntConvertToOctetString
 .text.TEE_BigIntConvertFromS32
                0x0000000000005dfc        0x4 /home/rahulmahadev/hikey_optee/optee_os/out/arm-plat-hikey/export-ta_arm64/lib/libutee.a(tee_api_arith.o)
                0x0000000000005dfc                TEE_BigIntConvertFromS32
 .text.TEE_BigIntConvertToS32
                0x0000000000005e00       0x20 /home/rahulmahadev/hikey_optee/optee_os/out/arm-plat-hikey/export-ta_arm64/lib/libutee.a(tee_api_arith.o)
                0x0000000000005e00                TEE_BigIntConvertToS32
 .text.TEE_BigIntCmp
                0x0000000000005e20        0x4 /home/rahulmahadev/hikey_optee/optee_os/out/arm-plat-hikey/export-ta_arm64/lib/libutee.a(tee_api_arith.o)
                0x0000000000005e20                TEE_BigIntCmp
 .text.TEE_BigIntCmpS32
                0x0000000000005e24        0x4 /home/rahulmahadev/hikey_optee/optee_os/out/arm-plat-hikey/export-ta_arm64/lib/libutee.a(tee_api_arith.o)
                0x0000000000005e24                TEE_BigIntCmpS32
 .text.TEE_BigIntShiftRight
                0x0000000000005e28        0x4 /home/rahulmahadev/hikey_optee/optee_os/out/arm-plat-hikey/export-ta_arm64/lib/libutee.a(tee_api_arith.o)
                0x0000000000005e28                TEE_BigIntShiftRight
 .text.TEE_BigIntGetBit
                0x0000000000005e2c       0x1c /home/rahulmahadev/hikey_optee/optee_os/out/arm-plat-hikey/export-ta_arm64/lib/libutee.a(tee_api_arith.o)
                0x0000000000005e2c                TEE_BigIntGetBit
 .text.TEE_BigIntGetBitCount
                0x0000000000005e48       0x18 /home/rahulmahadev/hikey_optee/optee_os/out/arm-plat-hikey/export-ta_arm64/lib/libutee.a(tee_api_arith.o)
                0x0000000000005e48                TEE_BigIntGetBitCount
 .text.TEE_BigIntAdd
                0x0000000000005e60        0xc /home/rahulmahadev/hikey_optee/optee_os/out/arm-plat-hikey/export-ta_arm64/lib/libutee.a(tee_api_arith.o)
                0x0000000000005e60                TEE_BigIntAdd
 .text.TEE_BigIntSub
                0x0000000000005e6c        0xc /home/rahulmahadev/hikey_optee/optee_os/out/arm-plat-hikey/export-ta_arm64/lib/libutee.a(tee_api_arith.o)
                0x0000000000005e6c                TEE_BigIntSub
 .text.TEE_BigIntNeg
                0x0000000000005e78        0x4 /home/rahulmahadev/hikey_optee/optee_os/out/arm-plat-hikey/export-ta_arm64/lib/libutee.a(tee_api_arith.o)
                0x0000000000005e78                TEE_BigIntNeg
 .text.TEE_BigIntMul
                0x0000000000005e7c        0xc /home/rahulmahadev/hikey_optee/optee_os/out/arm-plat-hikey/export-ta_arm64/lib/libutee.a(tee_api_arith.o)
                0x0000000000005e7c                TEE_BigIntMul
 .text.TEE_BigIntSquare
                0x0000000000005e88       0x10 /home/rahulmahadev/hikey_optee/optee_os/out/arm-plat-hikey/export-ta_arm64/lib/libutee.a(tee_api_arith.o)
                0x0000000000005e88                TEE_BigIntSquare
 .text.TEE_BigIntDiv
                0x0000000000005e98       0x5c /home/rahulmahadev/hikey_optee/optee_os/out/arm-plat-hikey/export-ta_arm64/lib/libutee.a(tee_api_arith.o)
                0x0000000000005e98                TEE_BigIntDiv
 .text.TEE_BigIntMod
                0x0000000000005ef4       0x94 /home/rahulmahadev/hikey_optee/optee_os/out/arm-plat-hikey/export-ta_arm64/lib/libutee.a(tee_api_arith.o)
                0x0000000000005ef4                TEE_BigIntMod
 .text.TEE_BigIntAddMod
                0x0000000000005f88       0x9c /home/rahulmahadev/hikey_optee/optee_os/out/arm-plat-hikey/export-ta_arm64/lib/libutee.a(tee_api_arith.o)
                0x0000000000005f88                TEE_BigIntAddMod
 .text.TEE_BigIntSubMod
                0x0000000000006024       0x9c /home/rahulmahadev/hikey_optee/optee_os/out/arm-plat-hikey/export-ta_arm64/lib/libutee.a(tee_api_arith.o)
                0x0000000000006024                TEE_BigIntSubMod
 .text.TEE_BigIntMulMod
                0x00000000000060c0       0xc8 /home/rahulmahadev/hikey_optee/optee_os/out/arm-plat-hikey/export-ta_arm64/lib/libutee.a(tee_api_arith.o)
                0x00000000000060c0                TEE_BigIntMulMod
 .text.TEE_BigIntSquareMod
                0x0000000000006188        0xc /home/rahulmahadev/hikey_optee/optee_os/out/arm-plat-hikey/export-ta_arm64/lib/libutee.a(tee_api_arith.o)
                0x0000000000006188                TEE_BigIntSquareMod
 .text.TEE_BigIntInvMod
                0x0000000000006194       0x6c /home/rahulmahadev/hikey_optee/optee_os/out/arm-plat-hikey/export-ta_arm64/lib/libutee.a(tee_api_arith.o)
                0x0000000000006194                TEE_BigIntInvMod
 .text.TEE_BigIntRelativePrime
                0x0000000000006200       0x78 /home/rahulmahadev/hikey_optee/optee_os/out/arm-plat-hikey/export-ta_arm64/lib/libutee.a(tee_api_arith.o)
                0x0000000000006200                TEE_BigIntRelativePrime
 .text.TEE_BigIntComputeExtendedGcd
                0x0000000000006278        0xc /home/rahulmahadev/hikey_optee/optee_os/out/arm-plat-hikey/export-ta_arm64/lib/libutee.a(tee_api_arith.o)
                0x0000000000006278                TEE_BigIntComputeExtendedGcd
 .text.TEE_BigIntIsProbablePrime
                0x0000000000006284       0x28 /home/rahulmahadev/hikey_optee/optee_os/out/arm-plat-hikey/export-ta_arm64/lib/libutee.a(tee_api_arith.o)
                0x0000000000006284                TEE_BigIntIsProbablePrime
 .text.TEE_BigIntConvertToFMM
                0x00000000000062ac       0x1c /home/rahulmahadev/hikey_optee/optee_os/out/arm-plat-hikey/export-ta_arm64/lib/libutee.a(tee_api_arith.o)
                0x00000000000062ac                TEE_BigIntConvertToFMM
 .text.TEE_BigIntConvertFromFMM
                0x00000000000062c8       0x94 /home/rahulmahadev/hikey_optee/optee_os/out/arm-plat-hikey/export-ta_arm64/lib/libutee.a(tee_api_arith.o)
                0x00000000000062c8                TEE_BigIntConvertFromFMM
 .text.TEE_BigIntComputeFMM
                0x000000000000635c       0x10 /home/rahulmahadev/hikey_optee/optee_os/out/arm-plat-hikey/export-ta_arm64/lib/libutee.a(tee_api_arith.o)
                0x000000000000635c                TEE_BigIntComputeFMM
 .text.utee_get_ta_exec_id
                0x000000000000636c        0x8 /home/rahulmahadev/hikey_optee/optee_os/out/arm-plat-hikey/export-ta_arm64/lib/libutee.a(utee_misc.o)
                0x000000000000636c                utee_get_ta_exec_id
 .text.utee_malloc
                0x0000000000006374        0x4 /home/rahulmahadev/hikey_optee/optee_os/out/arm-plat-hikey/export-ta_arm64/lib/libutee.a(utee_misc.o)
                0x0000000000006374                utee_malloc
 .text.utee_realloc
                0x0000000000006378        0x4 /home/rahulmahadev/hikey_optee/optee_os/out/arm-plat-hikey/export-ta_arm64/lib/libutee.a(utee_misc.o)
                0x0000000000006378                utee_realloc
 .text.utee_calloc
                0x000000000000637c       0x10 /home/rahulmahadev/hikey_optee/optee_os/out/arm-plat-hikey/export-ta_arm64/lib/libutee.a(utee_misc.o)
                0x000000000000637c                utee_calloc
 .text.utee_free
                0x000000000000638c        0x4 /home/rahulmahadev/hikey_optee/optee_os/out/arm-plat-hikey/export-ta_arm64/lib/libutee.a(utee_misc.o)
                0x000000000000638c                utee_free
 .text.get_rng_array
                0x0000000000006390        0x4 /home/rahulmahadev/hikey_optee/optee_os/out/arm-plat-hikey/export-ta_arm64/lib/libutee.a(utee_misc.o)
                0x0000000000006390                get_rng_array
 .text.trace_ext_puts
                0x0000000000006394       0x28 /home/rahulmahadev/hikey_optee/optee_os/out/arm-plat-hikey/export-ta_arm64/lib/libutee.a(trace_ext.o)
                0x0000000000006394                trace_ext_puts
 .text.trace_ext_get_thread_id
                0x00000000000063bc        0x8 /home/rahulmahadev/hikey_optee/optee_os/out/arm-plat-hikey/export-ta_arm64/lib/libutee.a(trace_ext.o)
                0x00000000000063bc                trace_ext_get_thread_id
 .text.puts     0x00000000000063c4       0x34 /home/rahulmahadev/hikey_optee/optee_os/out/arm-plat-hikey/export-ta_arm64/lib/libutee.a(trace_ext.o)
                0x00000000000063c4                puts
 .text.printf   0x00000000000063f8      0x100 /home/rahulmahadev/hikey_optee/optee_os/out/arm-plat-hikey/export-ta_arm64/lib/libutee.a(trace_ext.o)
                0x00000000000063f8                printf
 .text.create_free_block
                0x00000000000064f8       0xf0 /home/rahulmahadev/hikey_optee/optee_os/out/arm-plat-hikey/export-ta_arm64/lib/libutils.a(bget_malloc.o)
 .text.bget     0x00000000000065e8      0x160 /home/rahulmahadev/hikey_optee/optee_os/out/arm-plat-hikey/export-ta_arm64/lib/libutils.a(bget_malloc.o)
                0x00000000000065e8                bget
 .text.bgetz    0x0000000000006748       0x7c /home/rahulmahadev/hikey_optee/optee_os/out/arm-plat-hikey/export-ta_arm64/lib/libutils.a(bget_malloc.o)
                0x0000000000006748                bgetz
 .text.brel     0x00000000000067c4      0x1f0 /home/rahulmahadev/hikey_optee/optee_os/out/arm-plat-hikey/export-ta_arm64/lib/libutils.a(bget_malloc.o)
                0x00000000000067c4                brel
 .text.bgetr    0x00000000000069b4       0x98 /home/rahulmahadev/hikey_optee/optee_os/out/arm-plat-hikey/export-ta_arm64/lib/libutils.a(bget_malloc.o)
                0x00000000000069b4                bgetr
 .text.bpool    0x0000000000006a4c       0xbc /home/rahulmahadev/hikey_optee/optee_os/out/arm-plat-hikey/export-ta_arm64/lib/libutils.a(bget_malloc.o)
                0x0000000000006a4c                bpool
 .text.malloc_reset_max_allocated
                0x0000000000006b08        0x4 /home/rahulmahadev/hikey_optee/optee_os/out/arm-plat-hikey/export-ta_arm64/lib/libutils.a(bget_malloc.o)
                0x0000000000006b08                malloc_reset_max_allocated
 .text.malloc_get_max_allocated
                0x0000000000006b0c        0x8 /home/rahulmahadev/hikey_optee/optee_os/out/arm-plat-hikey/export-ta_arm64/lib/libutils.a(bget_malloc.o)
                0x0000000000006b0c                malloc_get_max_allocated
 .text.malloc_get_allocated
                0x0000000000006b14        0x8 /home/rahulmahadev/hikey_optee/optee_os/out/arm-plat-hikey/export-ta_arm64/lib/libutils.a(bget_malloc.o)
                0x0000000000006b14                malloc_get_allocated
 .text.malloc_get_heap_size
                0x0000000000006b1c       0x38 /home/rahulmahadev/hikey_optee/optee_os/out/arm-plat-hikey/export-ta_arm64/lib/libutils.a(bget_malloc.o)
                0x0000000000006b1c                malloc_get_heap_size
 .text.malloc   0x0000000000006b54        0xc /home/rahulmahadev/hikey_optee/optee_os/out/arm-plat-hikey/export-ta_arm64/lib/libutils.a(bget_malloc.o)
                0x0000000000006b54                malloc
 .text.free     0x0000000000006b60        0xc /home/rahulmahadev/hikey_optee/optee_os/out/arm-plat-hikey/export-ta_arm64/lib/libutils.a(bget_malloc.o)
                0x0000000000006b60                free
 .text.calloc   0x0000000000006b6c       0x28 /home/rahulmahadev/hikey_optee/optee_os/out/arm-plat-hikey/export-ta_arm64/lib/libutils.a(bget_malloc.o)
                0x0000000000006b6c                calloc
 .text.realloc  0x0000000000006b94        0xc /home/rahulmahadev/hikey_optee/optee_os/out/arm-plat-hikey/export-ta_arm64/lib/libutils.a(bget_malloc.o)
                0x0000000000006b94                realloc
 .text.memalign
                0x0000000000006ba0      0x2c0 /home/rahulmahadev/hikey_optee/optee_os/out/arm-plat-hikey/export-ta_arm64/lib/libutils.a(bget_malloc.o)
                0x0000000000006ba0                memalign
 .text.malloc_add_pool
                0x0000000000006e60       0xc8 /home/rahulmahadev/hikey_optee/optee_os/out/arm-plat-hikey/export-ta_arm64/lib/libutils.a(bget_malloc.o)
                0x0000000000006e60                malloc_add_pool
 .text.malloc_buffer_is_within_alloced
                0x0000000000006f28      0x124 /home/rahulmahadev/hikey_optee/optee_os/out/arm-plat-hikey/export-ta_arm64/lib/libutils.a(bget_malloc.o)
                0x0000000000006f28                malloc_buffer_is_within_alloced
 .text.malloc_buffer_overlaps_heap
                0x000000000000704c       0x68 /home/rahulmahadev/hikey_optee/optee_os/out/arm-plat-hikey/export-ta_arm64/lib/libutils.a(bget_malloc.o)
                0x000000000000704c                malloc_buffer_overlaps_heap
 .text.snprintf
                0x00000000000070b4       0x60 /home/rahulmahadev/hikey_optee/optee_os/out/arm-plat-hikey/export-ta_arm64/lib/libutils.a(snprintf.o)
                0x00000000000070b4                snprintf
 .text.vsnprintf
                0x0000000000007114       0x58 /home/rahulmahadev/hikey_optee/optee_os/out/arm-plat-hikey/export-ta_arm64/lib/libutils.a(snprintf.o)
                0x0000000000007114                vsnprintf
 .text.memcmp   0x000000000000716c       0x34 /home/rahulmahadev/hikey_optee/optee_os/out/arm-plat-hikey/export-ta_arm64/lib/libutils.a(memcmp.o)
                0x000000000000716c                memcmp
 .text.memcpy   0x00000000000071a0       0x20 /home/rahulmahadev/hikey_optee/optee_os/out/arm-plat-hikey/export-ta_arm64/lib/libutils.a(memcpy.o)
                0x00000000000071a0                memcpy
 .text.memmove  0x00000000000071c0       0x50 /home/rahulmahadev/hikey_optee/optee_os/out/arm-plat-hikey/export-ta_arm64/lib/libutils.a(memmove.o)
                0x00000000000071c0                memmove
 .text.memset   0x0000000000007210       0x1c /home/rahulmahadev/hikey_optee/optee_os/out/arm-plat-hikey/export-ta_arm64/lib/libutils.a(memset.o)
                0x0000000000007210                memset
 .text.strcmp   0x000000000000722c       0x30 /home/rahulmahadev/hikey_optee/optee_os/out/arm-plat-hikey/export-ta_arm64/lib/libutils.a(strcmp.o)
                0x000000000000722c                strcmp
 .text.strlen   0x000000000000725c       0x1c /home/rahulmahadev/hikey_optee/optee_os/out/arm-plat-hikey/export-ta_arm64/lib/libutils.a(strlen.o)
                0x000000000000725c                strlen
 .text.__vsnprintf
                0x0000000000007278      0xb44 /home/rahulmahadev/hikey_optee/optee_os/out/arm-plat-hikey/export-ta_arm64/lib/libutils.a(snprintk.o)
                0x0000000000007278                __vsnprintf
 .text.vsnprintk
                0x0000000000007dbc       0x58 /home/rahulmahadev/hikey_optee/optee_os/out/arm-plat-hikey/export-ta_arm64/lib/libutils.a(snprintk.o)
                0x0000000000007dbc                vsnprintk
 .text.snprintk
                0x0000000000007e14       0x5c /home/rahulmahadev/hikey_optee/optee_os/out/arm-plat-hikey/export-ta_arm64/lib/libutils.a(snprintk.o)
                0x0000000000007e14                snprintk
 .text.strlcpy  0x0000000000007e70       0x38 /home/rahulmahadev/hikey_optee/optee_os/out/arm-plat-hikey/export-ta_arm64/lib/libutils.a(strlcpy.o)
                0x0000000000007e70                strlcpy
 .text.buf_compare_ct
                0x0000000000007ea8       0x40 /home/rahulmahadev/hikey_optee/optee_os/out/arm-plat-hikey/export-ta_arm64/lib/libutils.a(buf_compare_ct.o)
                0x0000000000007ea8                buf_compare_ct
 .text.trace_set_level
                0x0000000000007ee8       0x20 /home/rahulmahadev/hikey_optee/optee_os/out/arm-plat-hikey/export-ta_arm64/lib/libutils.a(trace.o)
                0x0000000000007ee8                trace_set_level
 .text.trace_get_level
                0x0000000000007f08       0x10 /home/rahulmahadev/hikey_optee/optee_os/out/arm-plat-hikey/export-ta_arm64/lib/libutils.a(trace.o)
                0x0000000000007f08                trace_get_level
 .text.trace_printf
                0x0000000000007f18      0x1b4 /home/rahulmahadev/hikey_optee/optee_os/out/arm-plat-hikey/export-ta_arm64/lib/libutils.a(trace.o)
                0x0000000000007f18                trace_printf
 .text.dhex_dump
                0x00000000000080cc        0x4 /home/rahulmahadev/hikey_optee/optee_os/out/arm-plat-hikey/export-ta_arm64/lib/libutils.a(trace.o)
                0x00000000000080cc                dhex_dump
 .text.memchr   0x00000000000080d0       0x2c /home/rahulmahadev/hikey_optee/optee_os/out/arm-plat-hikey/export-ta_arm64/lib/libutils.a(memchr.o)
                0x00000000000080d0                memchr
 .text.__mpa_set_unused_digits_to_zero
                0x00000000000080fc       0x28 /home/rahulmahadev/hikey_optee/optee_os/out/arm-plat-hikey/export-ta_arm64/lib/libmpa.a(mpa_misc.o)
                0x00000000000080fc                __mpa_set_unused_digits_to_zero
 .text.mpa_wipe
                0x0000000000008124       0x30 /home/rahulmahadev/hikey_optee/optee_os/out/arm-plat-hikey/export-ta_arm64/lib/libmpa.a(mpa_misc.o)
                0x0000000000008124                mpa_wipe
 .text.mpa_copy
                0x0000000000008154       0x50 /home/rahulmahadev/hikey_optee/optee_os/out/arm-plat-hikey/export-ta_arm64/lib/libmpa.a(mpa_misc.o)
                0x0000000000008154                mpa_copy
 .text.mpa_abs  0x00000000000081a4       0x30 /home/rahulmahadev/hikey_optee/optee_os/out/arm-plat-hikey/export-ta_arm64/lib/libmpa.a(mpa_misc.o)
                0x00000000000081a4                mpa_abs
 .text.mpa_highest_bit_index
                0x00000000000081d4       0x48 /home/rahulmahadev/hikey_optee/optee_os/out/arm-plat-hikey/export-ta_arm64/lib/libmpa.a(mpa_misc.o)
                0x00000000000081d4                mpa_highest_bit_index
 .text.mpa_get_bit
                0x000000000000821c       0x44 /home/rahulmahadev/hikey_optee/optee_os/out/arm-plat-hikey/export-ta_arm64/lib/libmpa.a(mpa_misc.o)
                0x000000000000821c                mpa_get_bit
 .text.mpa_can_hold
                0x0000000000008260       0x1c /home/rahulmahadev/hikey_optee/optee_os/out/arm-plat-hikey/export-ta_arm64/lib/libmpa.a(mpa_misc.o)
                0x0000000000008260                mpa_can_hold
 .text.mpa_parity
                0x000000000000827c        0xc /home/rahulmahadev/hikey_optee/optee_os/out/arm-plat-hikey/export-ta_arm64/lib/libmpa.a(mpa_misc.o)
                0x000000000000827c                mpa_parity
 .text.mpa_constant_one
                0x0000000000008288        0xc /home/rahulmahadev/hikey_optee/optee_os/out/arm-plat-hikey/export-ta_arm64/lib/libmpa.a(mpa_misc.o)
                0x0000000000008288                mpa_constant_one
 .text.__mpa_montgomery_mul_add
                0x0000000000008294       0x78 /home/rahulmahadev/hikey_optee/optee_os/out/arm-plat-hikey/export-ta_arm64/lib/libmpa.a(mpa_montgomery.o)
                0x0000000000008294                __mpa_montgomery_mul_add
 .text.__mpa_montgomery_sub_ack
                0x000000000000830c       0x90 /home/rahulmahadev/hikey_optee/optee_os/out/arm-plat-hikey/export-ta_arm64/lib/libmpa.a(mpa_montgomery.o)
                0x000000000000830c                __mpa_montgomery_sub_ack
 .text.__mpa_montgomery_mul
                0x000000000000839c      0x134 /home/rahulmahadev/hikey_optee/optee_os/out/arm-plat-hikey/export-ta_arm64/lib/libmpa.a(mpa_montgomery.o)
                0x000000000000839c                __mpa_montgomery_mul
 .text.mpa_compute_fmm_context
                0x00000000000084d0      0x14c /home/rahulmahadev/hikey_optee/optee_os/out/arm-plat-hikey/export-ta_arm64/lib/libmpa.a(mpa_montgomery.o)
                0x00000000000084d0                mpa_compute_fmm_context
 .text.mpa_montgomery_mul
                0x000000000000861c       0x7c /home/rahulmahadev/hikey_optee/optee_os/out/arm-plat-hikey/export-ta_arm64/lib/libmpa.a(mpa_montgomery.o)
                0x000000000000861c                mpa_montgomery_mul
 .text.mpa_is_prob_prime
                0x0000000000008698      0x3b4 /home/rahulmahadev/hikey_optee/optee_os/out/arm-plat-hikey/export-ta_arm64/lib/libmpa.a(mpa_primetest.o)
                0x0000000000008698                mpa_is_prob_prime
 .text.mpa_set_S32
                0x0000000000008a4c       0x30 /home/rahulmahadev/hikey_optee/optee_os/out/arm-plat-hikey/export-ta_arm64/lib/libmpa.a(mpa_conv.o)
                0x0000000000008a4c                mpa_set_S32
 .text.mpa_get_S32
                0x0000000000008a7c       0x78 /home/rahulmahadev/hikey_optee/optee_os/out/arm-plat-hikey/export-ta_arm64/lib/libmpa.a(mpa_conv.o)
                0x0000000000008a7c                mpa_get_S32
 .text.mpa_set_word
                0x0000000000008af4       0x14 /home/rahulmahadev/hikey_optee/optee_os/out/arm-plat-hikey/export-ta_arm64/lib/libmpa.a(mpa_conv.o)
                0x0000000000008af4                mpa_set_word
 .text.mpa_get_word
                0x0000000000008b08       0x18 /home/rahulmahadev/hikey_optee/optee_os/out/arm-plat-hikey/export-ta_arm64/lib/libmpa.a(mpa_conv.o)
                0x0000000000008b08                mpa_get_word
 .text.__mpa_div_dword
                0x0000000000008b20       0x50 /home/rahulmahadev/hikey_optee/optee_os/out/arm-plat-hikey/export-ta_arm64/lib/libmpa.a(mpa_div.o)
                0x0000000000008b20                __mpa_div_dword
 .text.__mpa_div_q_r_internal_word
                0x0000000000008b70      0x11c /home/rahulmahadev/hikey_optee/optee_os/out/arm-plat-hikey/export-ta_arm64/lib/libmpa.a(mpa_div.o)
                0x0000000000008b70                __mpa_div_q_r_internal_word
 .text.__mpa_div_q_r
                0x0000000000008c8c      0x6ac /home/rahulmahadev/hikey_optee/optee_os/out/arm-plat-hikey/export-ta_arm64/lib/libmpa.a(mpa_div.o)
                0x0000000000008c8c                __mpa_div_q_r
 .text.mpa_div  0x0000000000009338      0x118 /home/rahulmahadev/hikey_optee/optee_os/out/arm-plat-hikey/export-ta_arm64/lib/libmpa.a(mpa_div.o)
                0x0000000000009338                mpa_div
 .text.__mpa_divby2
                0x0000000000009450       0x88 /home/rahulmahadev/hikey_optee/optee_os/out/arm-plat-hikey/export-ta_arm64/lib/libmpa.a(mpa_gcd.o)
 .text.__mpa_gcd.part.0
                0x00000000000094d8      0x17c /home/rahulmahadev/hikey_optee/optee_os/out/arm-plat-hikey/export-ta_arm64/lib/libmpa.a(mpa_gcd.o)
 .text.__mpa_egcd
                0x0000000000009654      0x38c /home/rahulmahadev/hikey_optee/optee_os/out/arm-plat-hikey/export-ta_arm64/lib/libmpa.a(mpa_gcd.o)
 .text.mpa_gcd  0x00000000000099e0      0x11c /home/rahulmahadev/hikey_optee/optee_os/out/arm-plat-hikey/export-ta_arm64/lib/libmpa.a(mpa_gcd.o)
                0x00000000000099e0                mpa_gcd
 .text.mpa_extended_gcd
                0x0000000000009afc      0x1fc /home/rahulmahadev/hikey_optee/optee_os/out/arm-plat-hikey/export-ta_arm64/lib/libmpa.a(mpa_gcd.o)
                0x0000000000009afc                mpa_extended_gcd
 .text.mpa_init_scratch_mem_sync
                0x0000000000009cf8       0x20 /home/rahulmahadev/hikey_optee/optee_os/out/arm-plat-hikey/export-ta_arm64/lib/libmpa.a(mpa_mem_static.o)
                0x0000000000009cf8                mpa_init_scratch_mem_sync
 .text.mpa_init_scratch_mem
                0x0000000000009d18       0x20 /home/rahulmahadev/hikey_optee/optee_os/out/arm-plat-hikey/export-ta_arm64/lib/libmpa.a(mpa_mem_static.o)
                0x0000000000009d18                mpa_init_scratch_mem
 .text.mpa_alloc_static_temp_var_size
                0x0000000000009d38       0xe4 /home/rahulmahadev/hikey_optee/optee_os/out/arm-plat-hikey/export-ta_arm64/lib/libmpa.a(mpa_mem_static.o)
                0x0000000000009d38                mpa_alloc_static_temp_var_size
 .text.mpa_alloc_static_temp_var
                0x0000000000009e1c       0x10 /home/rahulmahadev/hikey_optee/optee_os/out/arm-plat-hikey/export-ta_arm64/lib/libmpa.a(mpa_mem_static.o)
                0x0000000000009e1c                mpa_alloc_static_temp_var
 .text.mpa_free_static_temp_var
                0x0000000000009e2c       0x4c /home/rahulmahadev/hikey_optee/optee_os/out/arm-plat-hikey/export-ta_arm64/lib/libmpa.a(mpa_mem_static.o)
                0x0000000000009e2c                mpa_free_static_temp_var
 .text.__mpa_mul_add_word
                0x0000000000009e78       0x18 /home/rahulmahadev/hikey_optee/optee_os/out/arm-plat-hikey/export-ta_arm64/lib/libmpa.a(mpa_mul.o)
                0x0000000000009e78                __mpa_mul_add_word
 .text.__mpa_mul_add_word_cum
                0x0000000000009e90       0x20 /home/rahulmahadev/hikey_optee/optee_os/out/arm-plat-hikey/export-ta_arm64/lib/libmpa.a(mpa_mul.o)
                0x0000000000009e90                __mpa_mul_add_word_cum
 .text.__mpa_abs_mul_word
                0x0000000000009eb0       0x9c /home/rahulmahadev/hikey_optee/optee_os/out/arm-plat-hikey/export-ta_arm64/lib/libmpa.a(mpa_mul.o)
                0x0000000000009eb0                __mpa_abs_mul_word
 .text.__mpa_abs_mul
                0x0000000000009f4c       0xf4 /home/rahulmahadev/hikey_optee/optee_os/out/arm-plat-hikey/export-ta_arm64/lib/libmpa.a(mpa_mul.o)
                0x0000000000009f4c                __mpa_abs_mul
 .text.mpa_mul  0x000000000000a040       0xe4 /home/rahulmahadev/hikey_optee/optee_os/out/arm-plat-hikey/export-ta_arm64/lib/libmpa.a(mpa_mul.o)
                0x000000000000a040                mpa_mul
 .text.mpa_mul_word
                0x000000000000a124       0xc4 /home/rahulmahadev/hikey_optee/optee_os/out/arm-plat-hikey/export-ta_arm64/lib/libmpa.a(mpa_mul.o)
                0x000000000000a124                mpa_mul_word
 .text.mpa_set_random_generator
                0x000000000000a1e8        0xc /home/rahulmahadev/hikey_optee/optee_os/out/arm-plat-hikey/export-ta_arm64/lib/libmpa.a(mpa_random.o)
                0x000000000000a1e8                mpa_set_random_generator
 .text.mpa_get_random
                0x000000000000a1f4      0x10c /home/rahulmahadev/hikey_optee/optee_os/out/arm-plat-hikey/export-ta_arm64/lib/libmpa.a(mpa_random.o)
                0x000000000000a1f4                mpa_get_random
 .text.__mpa_shift_words_left
                0x000000000000a300       0x98 /home/rahulmahadev/hikey_optee/optee_os/out/arm-plat-hikey/export-ta_arm64/lib/libmpa.a(mpa_shift.o)
                0x000000000000a300                __mpa_shift_words_left
 .text.__mpa_shift_words_right
                0x000000000000a398       0x74 /home/rahulmahadev/hikey_optee/optee_os/out/arm-plat-hikey/export-ta_arm64/lib/libmpa.a(mpa_shift.o)
                0x000000000000a398                __mpa_shift_words_right
 .text.mpa_shift_left
                0x000000000000a40c      0x184 /home/rahulmahadev/hikey_optee/optee_os/out/arm-plat-hikey/export-ta_arm64/lib/libmpa.a(mpa_shift.o)
                0x000000000000a40c                mpa_shift_left
 .text.mpa_shift_right
                0x000000000000a590      0x168 /home/rahulmahadev/hikey_optee/optee_os/out/arm-plat-hikey/export-ta_arm64/lib/libmpa.a(mpa_shift.o)
                0x000000000000a590                mpa_shift_right
 .text.__mpa_full_adder
                0x000000000000a6f8       0x1c /home/rahulmahadev/hikey_optee/optee_os/out/arm-plat-hikey/export-ta_arm64/lib/libmpa.a(mpa_addsub.o)
                0x000000000000a6f8                __mpa_full_adder
 .text.__mpa_full_sub
                0x000000000000a714       0x24 /home/rahulmahadev/hikey_optee/optee_os/out/arm-plat-hikey/export-ta_arm64/lib/libmpa.a(mpa_addsub.o)
                0x000000000000a714                __mpa_full_sub
 .text.__mpa_full_adder_ackum
                0x000000000000a738       0x20 /home/rahulmahadev/hikey_optee/optee_os/out/arm-plat-hikey/export-ta_arm64/lib/libmpa.a(mpa_addsub.o)
                0x000000000000a738                __mpa_full_adder_ackum
 .text.__mpa_abs_add
                0x000000000000a758       0xf8 /home/rahulmahadev/hikey_optee/optee_os/out/arm-plat-hikey/export-ta_arm64/lib/libmpa.a(mpa_addsub.o)
                0x000000000000a758                __mpa_abs_add
 .text.__mpa_abs_add_ackum
                0x000000000000a850       0xd0 /home/rahulmahadev/hikey_optee/optee_os/out/arm-plat-hikey/export-ta_arm64/lib/libmpa.a(mpa_addsub.o)
                0x000000000000a850                __mpa_abs_add_ackum
 .text.__mpa_abs_sub
                0x000000000000a920      0x104 /home/rahulmahadev/hikey_optee/optee_os/out/arm-plat-hikey/export-ta_arm64/lib/libmpa.a(mpa_addsub.o)
                0x000000000000a920                __mpa_abs_sub
 .text.mpa_add  0x000000000000aa24      0x19c /home/rahulmahadev/hikey_optee/optee_os/out/arm-plat-hikey/export-ta_arm64/lib/libmpa.a(mpa_addsub.o)
                0x000000000000aa24                mpa_add
 .text.mpa_sub  0x000000000000abc0      0x1a8 /home/rahulmahadev/hikey_optee/optee_os/out/arm-plat-hikey/export-ta_arm64/lib/libmpa.a(mpa_addsub.o)
                0x000000000000abc0                mpa_sub
 .text.mpa_neg  0x000000000000ad68       0x2c /home/rahulmahadev/hikey_optee/optee_os/out/arm-plat-hikey/export-ta_arm64/lib/libmpa.a(mpa_addsub.o)
                0x000000000000ad68                mpa_neg
 .text.mpa_add_word
                0x000000000000ad94      0x148 /home/rahulmahadev/hikey_optee/optee_os/out/arm-plat-hikey/export-ta_arm64/lib/libmpa.a(mpa_addsub.o)
                0x000000000000ad94                mpa_add_word
 .text.mpa_sub_word
                0x000000000000aedc      0x144 /home/rahulmahadev/hikey_optee/optee_os/out/arm-plat-hikey/export-ta_arm64/lib/libmpa.a(mpa_addsub.o)
                0x000000000000aedc                mpa_sub_word
 .text.__mpa_abs_cmp
                0x000000000000b020       0xac /home/rahulmahadev/hikey_optee/optee_os/out/arm-plat-hikey/export-ta_arm64/lib/libmpa.a(mpa_cmp.o)
                0x000000000000b020                __mpa_abs_cmp
 .text.__mpa_abs_greater_than
                0x000000000000b0cc       0x1c /home/rahulmahadev/hikey_optee/optee_os/out/arm-plat-hikey/export-ta_arm64/lib/libmpa.a(mpa_cmp.o)
                0x000000000000b0cc                __mpa_abs_greater_than
 .text.__mpa_abs_less_than
                0x000000000000b0e8       0x18 /home/rahulmahadev/hikey_optee/optee_os/out/arm-plat-hikey/export-ta_arm64/lib/libmpa.a(mpa_cmp.o)
                0x000000000000b0e8                __mpa_abs_less_than
 .text.mpa_cmp  0x000000000000b100       0x6c /home/rahulmahadev/hikey_optee/optee_os/out/arm-plat-hikey/export-ta_arm64/lib/libmpa.a(mpa_cmp.o)
                0x000000000000b100                mpa_cmp
 .text.mpa_cmp_short
                0x000000000000b16c       0x78 /home/rahulmahadev/hikey_optee/optee_os/out/arm-plat-hikey/export-ta_arm64/lib/libmpa.a(mpa_cmp.o)
                0x000000000000b16c                mpa_cmp_short
 .text.mpa_exp_mod
                0x000000000000b1e4      0x178 /home/rahulmahadev/hikey_optee/optee_os/out/arm-plat-hikey/export-ta_arm64/lib/libmpa.a(mpa_expmod.o)
                0x000000000000b1e4                mpa_exp_mod
 .text.mpa_init_static
                0x000000000000b35c       0x20 /home/rahulmahadev/hikey_optee/optee_os/out/arm-plat-hikey/export-ta_arm64/lib/libmpa.a(mpa_init.o)
                0x000000000000b35c                mpa_init_static
 .text.mpa_init_static_fmm_context
                0x000000000000b37c       0x74 /home/rahulmahadev/hikey_optee/optee_os/out/arm-plat-hikey/export-ta_arm64/lib/libmpa.a(mpa_init.o)
                0x000000000000b37c                mpa_init_static_fmm_context
 .text.__mpa_word_to_hexstr
                0x000000000000b3f0       0x50 /home/rahulmahadev/hikey_optee/optee_os/out/arm-plat-hikey/export-ta_arm64/lib/libmpa.a(mpa_io.o)
 .text.__mpa_mpanum_to_hexstr
                0x000000000000b440      0x130 /home/rahulmahadev/hikey_optee/optee_os/out/arm-plat-hikey/export-ta_arm64/lib/libmpa.a(mpa_io.o)
 .text.__mpa_isspace
                0x000000000000b570       0x3c /home/rahulmahadev/hikey_optee/optee_os/out/arm-plat-hikey/export-ta_arm64/lib/libmpa.a(mpa_io.o)
 .text.mpa_get_str_size
                0x000000000000b5ac        0x8 /home/rahulmahadev/hikey_optee/optee_os/out/arm-plat-hikey/export-ta_arm64/lib/libmpa.a(mpa_io.o)
                0x000000000000b5ac                mpa_get_str_size
 .text.mpa_set_str
                0x000000000000b5b4      0x2ac /home/rahulmahadev/hikey_optee/optee_os/out/arm-plat-hikey/export-ta_arm64/lib/libmpa.a(mpa_io.o)
                0x000000000000b5b4                mpa_set_str
 .text.mpa_get_str
                0x000000000000b860       0x78 /home/rahulmahadev/hikey_optee/optee_os/out/arm-plat-hikey/export-ta_arm64/lib/libmpa.a(mpa_io.o)
                0x000000000000b860                mpa_get_str
 .text.mpa_set_oct_str
                0x000000000000b8d8      0x120 /home/rahulmahadev/hikey_optee/optee_os/out/arm-plat-hikey/export-ta_arm64/lib/libmpa.a(mpa_io.o)
                0x000000000000b8d8                mpa_set_oct_str
 .text.mpa_get_oct_str
                0x000000000000b9f8      0x18c /home/rahulmahadev/hikey_optee/optee_os/out/arm-plat-hikey/export-ta_arm64/lib/libmpa.a(mpa_io.o)
                0x000000000000b9f8                mpa_get_oct_str
 .text.mpa_mod  0x000000000000bb84       0x18 /home/rahulmahadev/hikey_optee/optee_os/out/arm-plat-hikey/export-ta_arm64/lib/libmpa.a(mpa_modulus.o)
                0x000000000000bb84                mpa_mod
 .text.mpa_add_mod
                0x000000000000bb9c       0x84 /home/rahulmahadev/hikey_optee/optee_os/out/arm-plat-hikey/export-ta_arm64/lib/libmpa.a(mpa_modulus.o)
                0x000000000000bb9c                mpa_add_mod
 .text.mpa_sub_mod
                0x000000000000bc20       0x84 /home/rahulmahadev/hikey_optee/optee_os/out/arm-plat-hikey/export-ta_arm64/lib/libmpa.a(mpa_modulus.o)
                0x000000000000bc20                mpa_sub_mod
 .text.mpa_mul_mod
                0x000000000000bca4       0x84 /home/rahulmahadev/hikey_optee/optee_os/out/arm-plat-hikey/export-ta_arm64/lib/libmpa.a(mpa_modulus.o)
                0x000000000000bca4                mpa_mul_mod
 .text.mpa_inv_mod
                0x000000000000bd28      0x11c /home/rahulmahadev/hikey_optee/optee_os/out/arm-plat-hikey/export-ta_arm64/lib/libmpa.a(mpa_modulus.o)
                0x000000000000bd28                mpa_inv_mod
 .text          0x000000000000be44        0x0 /home/rahulmahadev/hikey_optee/neo/ta/out/ta.o
 .text          0x000000000000be44        0x0 /home/rahulmahadev/hikey_optee/neo/ta/out/user_ta_header.o
 .text          0x000000000000be44        0x0 /home/rahulmahadev/hikey_optee/optee_os/out/arm-plat-hikey/export-ta_arm64/lib/libutee.a(tee_api.o)
 .text          0x000000000000be44        0x0 /home/rahulmahadev/hikey_optee/optee_os/out/arm-plat-hikey/export-ta_arm64/lib/libutee.a(tee_api_objects.o)
 .text          0x000000000000be44        0x0 /home/rahulmahadev/hikey_optee/optee_os/out/arm-plat-hikey/export-ta_arm64/lib/libutee.a(tee_api_operations.o)
 .text          0x000000000000be44        0x0 /home/rahulmahadev/hikey_optee/optee_os/out/arm-plat-hikey/export-ta_arm64/lib/libutee.a(tee_api_panic.o)
 .text          0x000000000000be44        0x0 /home/rahulmahadev/hikey_optee/optee_os/out/arm-plat-hikey/export-ta_arm64/lib/libutee.a(user_ta_entry.o)
 .text          0x000000000000be44      0x36c /home/rahulmahadev/hikey_optee/optee_os/out/arm-plat-hikey/export-ta_arm64/lib/libutee.a(utee_syscalls_a64.o)
                0x000000000000be44                utee_return
                0x000000000000be50                utee_log
                0x000000000000be5c                utee_panic
                0x000000000000be68                utee_dummy
                0x000000000000be74                utee_dummy_7args
                0x000000000000be80                utee_nocall
                0x000000000000be8c                utee_get_property
                0x000000000000be98                utee_open_ta_session
                0x000000000000bea4                utee_close_ta_session
                0x000000000000beb0                utee_invoke_ta_command
                0x000000000000bebc                utee_get_cancellation_flag
                0x000000000000bec8                utee_check_access_rights
                0x000000000000bed4                utee_unmask_cancellation
                0x000000000000bee0                utee_mask_cancellation
                0x000000000000beec                utee_wait
                0x000000000000bef8                utee_get_time
                0x000000000000bf04                utee_set_ta_time
                0x000000000000bf10                utee_cryp_state_alloc
                0x000000000000bf1c                utee_cryp_state_copy
                0x000000000000bf28                utee_cryp_state_free
                0x000000000000bf34                utee_hash_init
                0x000000000000bf40                utee_hash_update
                0x000000000000bf4c                utee_hash_final
                0x000000000000bf58                utee_cipher_init
                0x000000000000bf64                utee_cipher_update
                0x000000000000bf70                utee_cipher_final
                0x000000000000bf7c                utee_cryp_obj_get_info
                0x000000000000bf88                utee_cryp_obj_restrict_usage
                0x000000000000bf94                utee_cryp_obj_get_attr
                0x000000000000bfa0                utee_cryp_obj_alloc
                0x000000000000bfac                utee_cryp_obj_close
                0x000000000000bfb8                utee_cryp_obj_reset
                0x000000000000bfc4                utee_cryp_obj_populate
                0x000000000000bfd0                utee_cryp_obj_copy
                0x000000000000bfdc                utee_cryp_derive_key
                0x000000000000bfe8                utee_cryp_random_number_generate
                0x000000000000bff4                utee_authenc_init
                0x000000000000c000                utee_authenc_update_aad
                0x000000000000c00c                utee_authenc_update_payload
                0x000000000000c018                utee_authenc_enc_final
                0x000000000000c024                utee_authenc_dec_final
                0x000000000000c030                utee_asymm_operate
                0x000000000000c03c                utee_asymm_verify
                0x000000000000c048                utee_storage_obj_open
                0x000000000000c054                utee_storage_obj_create
                0x000000000000c060                utee_storage_obj_del
                0x000000000000c06c                utee_storage_obj_rename
                0x000000000000c078                utee_storage_alloc_enum
                0x000000000000c084                utee_storage_free_enum
                0x000000000000c090                utee_storage_reset_enum
                0x000000000000c09c                utee_storage_start_enum
                0x000000000000c0a8                utee_storage_next_enum
                0x000000000000c0b4                utee_storage_obj_read
                0x000000000000c0c0                utee_storage_obj_write
                0x000000000000c0cc                utee_storage_obj_trunc
                0x000000000000c0d8                utee_storage_obj_seek
                0x000000000000c0e4                utee_cryp_obj_generate_key
                0x000000000000c0f0                utee_se_service_open
                0x000000000000c0fc                utee_se_service_close
                0x000000000000c108                utee_se_service_get_readers
                0x000000000000c114                utee_se_reader_get_prop
                0x000000000000c120                utee_se_reader_get_name
                0x000000000000c12c                utee_se_reader_open_session
                0x000000000000c138                utee_se_reader_close_sessions
                0x000000000000c144                utee_se_session_is_closed
                0x000000000000c150                utee_se_session_get_atr
                0x000000000000c15c                utee_se_session_open_channel
                0x000000000000c168                utee_se_session_close
                0x000000000000c174                utee_se_channel_select_next
                0x000000000000c180                utee_se_channel_get_select_resp
                0x000000000000c18c                utee_se_channel_transmit
                0x000000000000c198                utee_se_channel_close
                0x000000000000c1a4                utee_cache_operation
 .text          0x000000000000c1b0        0x0 /home/rahulmahadev/hikey_optee/optee_os/out/arm-plat-hikey/export-ta_arm64/lib/libutee.a(tee_user_mem.o)
 .text          0x000000000000c1b0        0x0 /home/rahulmahadev/hikey_optee/optee_os/out/arm-plat-hikey/export-ta_arm64/lib/libutee.a(assert.o)
 .text          0x000000000000c1b0        0x0 /home/rahulmahadev/hikey_optee/optee_os/out/arm-plat-hikey/export-ta_arm64/lib/libutee.a(tee_api_arith.o)
 .text          0x000000000000c1b0        0x0 /home/rahulmahadev/hikey_optee/optee_os/out/arm-plat-hikey/export-ta_arm64/lib/libutee.a(utee_misc.o)
 .text          0x000000000000c1b0        0x0 /home/rahulmahadev/hikey_optee/optee_os/out/arm-plat-hikey/export-ta_arm64/lib/libutee.a(trace_ext.o)
 .text          0x000000000000c1b0        0x0 /home/rahulmahadev/hikey_optee/optee_os/out/arm-plat-hikey/export-ta_arm64/lib/libutils.a(bget_malloc.o)
 .text          0x000000000000c1b0        0x0 /home/rahulmahadev/hikey_optee/optee_os/out/arm-plat-hikey/export-ta_arm64/lib/libutils.a(snprintf.o)
 .text          0x000000000000c1b0        0x0 /home/rahulmahadev/hikey_optee/optee_os/out/arm-plat-hikey/export-ta_arm64/lib/libutils.a(memcmp.o)
 .text          0x000000000000c1b0        0x0 /home/rahulmahadev/hikey_optee/optee_os/out/arm-plat-hikey/export-ta_arm64/lib/libutils.a(memcpy.o)
 .text          0x000000000000c1b0        0x0 /home/rahulmahadev/hikey_optee/optee_os/out/arm-plat-hikey/export-ta_arm64/lib/libutils.a(memmove.o)
 .text          0x000000000000c1b0        0x0 /home/rahulmahadev/hikey_optee/optee_os/out/arm-plat-hikey/export-ta_arm64/lib/libutils.a(memset.o)
 .text          0x000000000000c1b0        0x0 /home/rahulmahadev/hikey_optee/optee_os/out/arm-plat-hikey/export-ta_arm64/lib/libutils.a(strcmp.o)
 .text          0x000000000000c1b0        0x0 /home/rahulmahadev/hikey_optee/optee_os/out/arm-plat-hikey/export-ta_arm64/lib/libutils.a(strlen.o)
 .text          0x000000000000c1b0        0x0 /home/rahulmahadev/hikey_optee/optee_os/out/arm-plat-hikey/export-ta_arm64/lib/libutils.a(snprintk.o)
 .text          0x000000000000c1b0        0x0 /home/rahulmahadev/hikey_optee/optee_os/out/arm-plat-hikey/export-ta_arm64/lib/libutils.a(strlcpy.o)
 .text          0x000000000000c1b0        0x0 /home/rahulmahadev/hikey_optee/optee_os/out/arm-plat-hikey/export-ta_arm64/lib/libutils.a(buf_compare_ct.o)
 .text          0x000000000000c1b0        0x0 /home/rahulmahadev/hikey_optee/optee_os/out/arm-plat-hikey/export-ta_arm64/lib/libutils.a(trace.o)
 .text          0x000000000000c1b0        0x0 /home/rahulmahadev/hikey_optee/optee_os/out/arm-plat-hikey/export-ta_arm64/lib/libutils.a(memchr.o)
 .text          0x000000000000c1b0        0x0 /home/rahulmahadev/hikey_optee/optee_os/out/arm-plat-hikey/export-ta_arm64/lib/libmpa.a(mpa_misc.o)
 .text          0x000000000000c1b0        0x0 /home/rahulmahadev/hikey_optee/optee_os/out/arm-plat-hikey/export-ta_arm64/lib/libmpa.a(mpa_montgomery.o)
 .text          0x000000000000c1b0        0x0 /home/rahulmahadev/hikey_optee/optee_os/out/arm-plat-hikey/export-ta_arm64/lib/libmpa.a(mpa_primetest.o)
 .text          0x000000000000c1b0        0x0 /home/rahulmahadev/hikey_optee/optee_os/out/arm-plat-hikey/export-ta_arm64/lib/libmpa.a(mpa_conv.o)
 .text          0x000000000000c1b0        0x0 /home/rahulmahadev/hikey_optee/optee_os/out/arm-plat-hikey/export-ta_arm64/lib/libmpa.a(mpa_div.o)
 .text          0x000000000000c1b0        0x0 /home/rahulmahadev/hikey_optee/optee_os/out/arm-plat-hikey/export-ta_arm64/lib/libmpa.a(mpa_gcd.o)
 .text          0x000000000000c1b0        0x0 /home/rahulmahadev/hikey_optee/optee_os/out/arm-plat-hikey/export-ta_arm64/lib/libmpa.a(mpa_mem_static.o)
 .text          0x000000000000c1b0        0x0 /home/rahulmahadev/hikey_optee/optee_os/out/arm-plat-hikey/export-ta_arm64/lib/libmpa.a(mpa_mul.o)
 .text          0x000000000000c1b0        0x0 /home/rahulmahadev/hikey_optee/optee_os/out/arm-plat-hikey/export-ta_arm64/lib/libmpa.a(mpa_random.o)
 .text          0x000000000000c1b0        0x0 /home/rahulmahadev/hikey_optee/optee_os/out/arm-plat-hikey/export-ta_arm64/lib/libmpa.a(mpa_shift.o)
 .text          0x000000000000c1b0        0x0 /home/rahulmahadev/hikey_optee/optee_os/out/arm-plat-hikey/export-ta_arm64/lib/libmpa.a(mpa_addsub.o)
 .text          0x000000000000c1b0        0x0 /home/rahulmahadev/hikey_optee/optee_os/out/arm-plat-hikey/export-ta_arm64/lib/libmpa.a(mpa_cmp.o)
 .text          0x000000000000c1b0        0x0 /home/rahulmahadev/hikey_optee/optee_os/out/arm-plat-hikey/export-ta_arm64/lib/libmpa.a(mpa_expmod.o)
 .text          0x000000000000c1b0        0x0 /home/rahulmahadev/hikey_optee/optee_os/out/arm-plat-hikey/export-ta_arm64/lib/libmpa.a(mpa_init.o)
 .text          0x000000000000c1b0        0x0 /home/rahulmahadev/hikey_optee/optee_os/out/arm-plat-hikey/export-ta_arm64/lib/libmpa.a(mpa_io.o)
 .text          0x000000000000c1b0        0x0 /home/rahulmahadev/hikey_optee/optee_os/out/arm-plat-hikey/export-ta_arm64/lib/libmpa.a(mpa_modulus.o)
 *(SORT(.stub))
 *(SORT(.glue_7))
 *(SORT(.glue_7t))
 *(SORT(.gnu.linkonce.t.*))
 *(SORT(.vfp11_veneer))

.eh_frame
 *(SORT(.eh_frame))

.rodata         0x000000000000c1b0     0x1d16
 *(SORT(.gnu.linkonce.r.*))
 *(SORT(.rodata) SORT(.rodata.*))
 .rodata.ta.c   0x000000000000c1b0       0x60 /home/rahulmahadev/hikey_optee/neo/ta/out/ta.o
 .rodata.__func__.2226
                0x000000000000c210       0x20 /home/rahulmahadev/hikey_optee/neo/ta/out/ta.o
 .rodata.__func__.2237
                0x000000000000c230       0x10 /home/rahulmahadev/hikey_optee/neo/ta/out/ta.o
 .rodata.trace_ext_prefix
                0x000000000000c240        0x8 /home/rahulmahadev/hikey_optee/neo/ta/out/user_ta_header.o
                0x000000000000c240                trace_ext_prefix
 .rodata.ta_heap_size
                0x000000000000c248        0x8 /home/rahulmahadev/hikey_optee/neo/ta/out/user_ta_header.o
                0x000000000000c248                ta_heap_size
 .rodata.user_ta_header.c
                0x000000000000c250       0xd8 /home/rahulmahadev/hikey_optee/neo/ta/out/user_ta_header.o
 .rodata.ta_num_props
                0x000000000000c328        0x8 /home/rahulmahadev/hikey_optee/neo/ta/out/user_ta_header.o
                0x000000000000c328                ta_num_props
 .rodata.__func__.2607
                0x000000000000c330       0x18 /home/rahulmahadev/hikey_optee/optee_os/out/arm-plat-hikey/export-ta_arm64/lib/libutee.a(tee_api.o)
 .rodata.__func__.2669
                0x000000000000c348       0x18 /home/rahulmahadev/hikey_optee/optee_os/out/arm-plat-hikey/export-ta_arm64/lib/libutee.a(tee_api.o)
 .rodata.__func__.2684
                0x000000000000c360       0x18 /home/rahulmahadev/hikey_optee/optee_os/out/arm-plat-hikey/export-ta_arm64/lib/libutee.a(tee_api.o)
 .rodata.__func__.2679
                0x000000000000c378       0x18 /home/rahulmahadev/hikey_optee/optee_os/out/arm-plat-hikey/export-ta_arm64/lib/libutee.a(tee_api.o)
 .rodata.__func__.2619
                0x000000000000c390       0x18 /home/rahulmahadev/hikey_optee/optee_os/out/arm-plat-hikey/export-ta_arm64/lib/libutee.a(tee_api.o)
 .rodata.__func__.2689
                0x000000000000c3a8       0x10 /home/rahulmahadev/hikey_optee/optee_os/out/arm-plat-hikey/export-ta_arm64/lib/libutee.a(tee_api.o)
 .rodata.__func__.2636
                0x000000000000c3b8       0x18 /home/rahulmahadev/hikey_optee/optee_os/out/arm-plat-hikey/export-ta_arm64/lib/libutee.a(tee_api.o)
 .rodata.__func__.2630
                0x000000000000c3d0       0x18 /home/rahulmahadev/hikey_optee/optee_os/out/arm-plat-hikey/export-ta_arm64/lib/libutee.a(tee_api.o)
 .rodata.__func__.2674
                0x000000000000c3e8       0x10 /home/rahulmahadev/hikey_optee/optee_os/out/arm-plat-hikey/export-ta_arm64/lib/libutee.a(tee_api.o)
 .rodata.__func__.2510
                0x000000000000c3f8       0x20 /home/rahulmahadev/hikey_optee/optee_os/out/arm-plat-hikey/export-ta_arm64/lib/libutee.a(tee_api_objects.o)
 .rodata.__func__.2468
                0x000000000000c418       0x18 /home/rahulmahadev/hikey_optee/optee_os/out/arm-plat-hikey/export-ta_arm64/lib/libutee.a(tee_api_objects.o)
 .rodata.__func__.2474
                0x000000000000c430       0x18 /home/rahulmahadev/hikey_optee/optee_os/out/arm-plat-hikey/export-ta_arm64/lib/libutee.a(tee_api_objects.o)
 .rodata.__func__.2515
                0x000000000000c448       0x10 /home/rahulmahadev/hikey_optee/optee_os/out/arm-plat-hikey/export-ta_arm64/lib/libutee.a(tee_api_objects.o)
 .rodata.__func__.2481
                0x000000000000c458       0x18 /home/rahulmahadev/hikey_optee/optee_os/out/arm-plat-hikey/export-ta_arm64/lib/libutee.a(tee_api_objects.o)
 .rodata.__func__.2659
                0x000000000000c470       0x20 /home/rahulmahadev/hikey_optee/optee_os/out/arm-plat-hikey/export-ta_arm64/lib/libutee.a(tee_api_objects.o)
 .rodata.__func__.2523
                0x000000000000c490       0x20 /home/rahulmahadev/hikey_optee/optee_os/out/arm-plat-hikey/export-ta_arm64/lib/libutee.a(tee_api_objects.o)
 .rodata.__func__.2487
                0x000000000000c4b0       0x20 /home/rahulmahadev/hikey_optee/optee_os/out/arm-plat-hikey/export-ta_arm64/lib/libutee.a(tee_api_objects.o)
 .rodata.__func__.2669
                0x000000000000c4d0       0x18 /home/rahulmahadev/hikey_optee/optee_os/out/arm-plat-hikey/export-ta_arm64/lib/libutee.a(tee_api_objects.o)
 .rodata.__func__.2529
                0x000000000000c4e8       0x18 /home/rahulmahadev/hikey_optee/optee_os/out/arm-plat-hikey/export-ta_arm64/lib/libutee.a(tee_api_objects.o)
 .rodata.__func__.2535
                0x000000000000c500       0x20 /home/rahulmahadev/hikey_optee/optee_os/out/arm-plat-hikey/export-ta_arm64/lib/libutee.a(tee_api_objects.o)
 .rodata.__func__.2677
                0x000000000000c520       0x18 /home/rahulmahadev/hikey_optee/optee_os/out/arm-plat-hikey/export-ta_arm64/lib/libutee.a(tee_api_objects.o)
 .rodata.__func__.2498
                0x000000000000c538       0x20 /home/rahulmahadev/hikey_optee/optee_os/out/arm-plat-hikey/export-ta_arm64/lib/libutee.a(tee_api_objects.o)
 .rodata.__func__.2684
                0x000000000000c558       0x18 /home/rahulmahadev/hikey_optee/optee_os/out/arm-plat-hikey/export-ta_arm64/lib/libutee.a(tee_api_objects.o)
 .rodata.__func__.2544
                0x000000000000c570       0x20 /home/rahulmahadev/hikey_optee/optee_os/out/arm-plat-hikey/export-ta_arm64/lib/libutee.a(tee_api_objects.o)
 .rodata.__func__.2551
                0x000000000000c590       0x18 /home/rahulmahadev/hikey_optee/optee_os/out/arm-plat-hikey/export-ta_arm64/lib/libutee.a(tee_api_objects.o)
 .rodata.__func__.2698
                0x000000000000c5a8       0x18 /home/rahulmahadev/hikey_optee/optee_os/out/arm-plat-hikey/export-ta_arm64/lib/libutee.a(tee_api_objects.o)
 .rodata.__func__.2558
                0x000000000000c5c0       0x18 /home/rahulmahadev/hikey_optee/optee_os/out/arm-plat-hikey/export-ta_arm64/lib/libutee.a(tee_api_objects.o)
 .rodata.__func__.2565
                0x000000000000c5d8       0x20 /home/rahulmahadev/hikey_optee/optee_os/out/arm-plat-hikey/export-ta_arm64/lib/libutee.a(tee_api_objects.o)
 .rodata.__func__.2649
                0x000000000000c5f8       0x28 /home/rahulmahadev/hikey_optee/optee_os/out/arm-plat-hikey/export-ta_arm64/lib/libutee.a(tee_api_objects.o)
 .rodata.__func__.2609
                0x000000000000c620       0x20 /home/rahulmahadev/hikey_optee/optee_os/out/arm-plat-hikey/export-ta_arm64/lib/libutee.a(tee_api_objects.o)
 .rodata.__func__.2574
                0x000000000000c640       0x20 /home/rahulmahadev/hikey_optee/optee_os/out/arm-plat-hikey/export-ta_arm64/lib/libutee.a(tee_api_objects.o)
 .rodata.__func__.2583
                0x000000000000c660       0x10 /home/rahulmahadev/hikey_optee/optee_os/out/arm-plat-hikey/export-ta_arm64/lib/libutee.a(tee_api_objects.o)
 .rodata.__func__.2619
                0x000000000000c670       0x28 /home/rahulmahadev/hikey_optee/optee_os/out/arm-plat-hikey/export-ta_arm64/lib/libutee.a(tee_api_objects.o)
 .rodata.__func__.2614
                0x000000000000c698       0x28 /home/rahulmahadev/hikey_optee/optee_os/out/arm-plat-hikey/export-ta_arm64/lib/libutee.a(tee_api_objects.o)
 .rodata.__func__.2627
                0x000000000000c6c0       0x20 /home/rahulmahadev/hikey_optee/optee_os/out/arm-plat-hikey/export-ta_arm64/lib/libutee.a(tee_api_objects.o)
 .rodata.__func__.2633
                0x000000000000c6e0       0x28 /home/rahulmahadev/hikey_optee/optee_os/out/arm-plat-hikey/export-ta_arm64/lib/libutee.a(tee_api_objects.o)
 .rodata.__func__.2594
                0x000000000000c708       0x20 /home/rahulmahadev/hikey_optee/optee_os/out/arm-plat-hikey/export-ta_arm64/lib/libutee.a(tee_api_objects.o)
 .rodata.__func__.2638
                0x000000000000c728       0x28 /home/rahulmahadev/hikey_optee/optee_os/out/arm-plat-hikey/export-ta_arm64/lib/libutee.a(tee_api_objects.o)
 .rodata.__func__.2643
                0x000000000000c750       0x28 /home/rahulmahadev/hikey_optee/optee_os/out/arm-plat-hikey/export-ta_arm64/lib/libutee.a(tee_api_objects.o)
 .rodata.__func__.2792
                0x000000000000c778       0x18 /home/rahulmahadev/hikey_optee/optee_os/out/arm-plat-hikey/export-ta_arm64/lib/libutee.a(tee_api_operations.o)
 .rodata.__func__.2648
                0x000000000000c790       0x18 /home/rahulmahadev/hikey_optee/optee_os/out/arm-plat-hikey/export-ta_arm64/lib/libutee.a(tee_api_operations.o)
 .rodata.__func__.2834
                0x000000000000c7a8       0x10 /home/rahulmahadev/hikey_optee/optee_os/out/arm-plat-hikey/export-ta_arm64/lib/libutee.a(tee_api_operations.o)
 .rodata.__func__.2668
                0x000000000000c7b8       0x18 /home/rahulmahadev/hikey_optee/optee_os/out/arm-plat-hikey/export-ta_arm64/lib/libutee.a(tee_api_operations.o)
 .rodata.__func__.2657
                0x000000000000c7d0       0x18 /home/rahulmahadev/hikey_optee/optee_os/out/arm-plat-hikey/export-ta_arm64/lib/libutee.a(tee_api_operations.o)
 .rodata.__func__.2701
                0x000000000000c7e8       0x18 /home/rahulmahadev/hikey_optee/optee_os/out/arm-plat-hikey/export-ta_arm64/lib/libutee.a(tee_api_operations.o)
 .rodata.__func__.2523
                0x000000000000c800       0x18 /home/rahulmahadev/hikey_optee/optee_os/out/arm-plat-hikey/export-ta_arm64/lib/libutee.a(tee_api_operations.o)
 .rodata.__func__.2851
                0x000000000000c818       0x18 /home/rahulmahadev/hikey_optee/optee_os/out/arm-plat-hikey/export-ta_arm64/lib/libutee.a(tee_api_operations.o)
 .rodata.__func__.2708
                0x000000000000c830       0x10 /home/rahulmahadev/hikey_optee/optee_os/out/arm-plat-hikey/export-ta_arm64/lib/libutee.a(tee_api_operations.o)
 .rodata.__func__.2674
                0x000000000000c840       0x18 /home/rahulmahadev/hikey_optee/optee_os/out/arm-plat-hikey/export-ta_arm64/lib/libutee.a(tee_api_operations.o)
 .rodata.__func__.2683
                0x000000000000c858       0x18 /home/rahulmahadev/hikey_optee/optee_os/out/arm-plat-hikey/export-ta_arm64/lib/libutee.a(tee_api_operations.o)
 .rodata.__func__.2906
                0x000000000000c870       0x20 /home/rahulmahadev/hikey_optee/optee_os/out/arm-plat-hikey/export-ta_arm64/lib/libutee.a(tee_api_operations.o)
 .rodata.__func__.2690
                0x000000000000c890       0x18 /home/rahulmahadev/hikey_optee/optee_os/out/arm-plat-hikey/export-ta_arm64/lib/libutee.a(tee_api_operations.o)
 .rodata.__func__.2867
                0x000000000000c8a8       0x18 /home/rahulmahadev/hikey_optee/optee_os/out/arm-plat-hikey/export-ta_arm64/lib/libutee.a(tee_api_operations.o)
 .rodata.__func__.2880
                0x000000000000c8c0       0x18 /home/rahulmahadev/hikey_optee/optee_os/out/arm-plat-hikey/export-ta_arm64/lib/libutee.a(tee_api_operations.o)
 .rodata.__func__.2804
                0x000000000000c8d8       0x18 /home/rahulmahadev/hikey_optee/optee_os/out/arm-plat-hikey/export-ta_arm64/lib/libutee.a(tee_api_operations.o)
 .rodata.__func__.2918
                0x000000000000c8f0       0x20 /home/rahulmahadev/hikey_optee/optee_os/out/arm-plat-hikey/export-ta_arm64/lib/libutee.a(tee_api_operations.o)
 .rodata.__func__.2742
                0x000000000000c910       0x18 /home/rahulmahadev/hikey_optee/optee_os/out/arm-plat-hikey/export-ta_arm64/lib/libutee.a(tee_api_operations.o)
 .rodata.__func__.2928
                0x000000000000c928       0x10 /home/rahulmahadev/hikey_optee/optee_os/out/arm-plat-hikey/export-ta_arm64/lib/libutee.a(tee_api_operations.o)
 .rodata.__func__.2893
                0x000000000000c938       0x18 /home/rahulmahadev/hikey_optee/optee_os/out/arm-plat-hikey/export-ta_arm64/lib/libutee.a(tee_api_operations.o)
 .rodata.__func__.2934
                0x000000000000c950       0x18 /home/rahulmahadev/hikey_optee/optee_os/out/arm-plat-hikey/export-ta_arm64/lib/libutee.a(tee_api_operations.o)
 .rodata.__func__.2754
                0x000000000000c968       0x18 /home/rahulmahadev/hikey_optee/optee_os/out/arm-plat-hikey/export-ta_arm64/lib/libutee.a(tee_api_operations.o)
 .rodata.__func__.2623
                0x000000000000c980       0x18 /home/rahulmahadev/hikey_optee/optee_os/out/arm-plat-hikey/export-ta_arm64/lib/libutee.a(tee_api_operations.o)
 .rodata.__func__.2768
                0x000000000000c998       0x18 /home/rahulmahadev/hikey_optee/optee_os/out/arm-plat-hikey/export-ta_arm64/lib/libutee.a(tee_api_operations.o)
 .rodata.__func__.2628
                0x000000000000c9b0       0x18 /home/rahulmahadev/hikey_optee/optee_os/out/arm-plat-hikey/export-ta_arm64/lib/libutee.a(tee_api_operations.o)
 .rodata.__func__.2774
                0x000000000000c9c8       0x10 /home/rahulmahadev/hikey_optee/optee_os/out/arm-plat-hikey/export-ta_arm64/lib/libutee.a(tee_api_operations.o)
 .rodata.__func__.2815
                0x000000000000c9d8       0x10 /home/rahulmahadev/hikey_optee/optee_os/out/arm-plat-hikey/export-ta_arm64/lib/libutee.a(tee_api_operations.o)
 .rodata.__func__.2781
                0x000000000000c9e8       0x10 /home/rahulmahadev/hikey_optee/optee_os/out/arm-plat-hikey/export-ta_arm64/lib/libutee.a(tee_api_operations.o)
 .rodata.__func__.2822
                0x000000000000c9f8       0x10 /home/rahulmahadev/hikey_optee/optee_os/out/arm-plat-hikey/export-ta_arm64/lib/libutee.a(tee_api_operations.o)
 .rodata.__func__.2643
                0x000000000000ca08       0x20 /home/rahulmahadev/hikey_optee/optee_os/out/arm-plat-hikey/export-ta_arm64/lib/libutee.a(tee_api_operations.o)
 .rodata.__func__.2641
                0x000000000000ca28       0x10 /home/rahulmahadev/hikey_optee/optee_os/out/arm-plat-hikey/export-ta_arm64/lib/libutee.a(user_ta_entry.o)
 .rodata.__func__.2216
                0x000000000000ca38       0x18 /home/rahulmahadev/hikey_optee/optee_os/out/arm-plat-hikey/export-ta_arm64/lib/libutee.a(tee_user_mem.o)
 .rodata.__func__.2233
                0x000000000000ca50       0x18 /home/rahulmahadev/hikey_optee/optee_os/out/arm-plat-hikey/export-ta_arm64/lib/libutee.a(tee_user_mem.o)
 .rodata.__func__.2241
                0x000000000000ca68       0x18 /home/rahulmahadev/hikey_optee/optee_os/out/arm-plat-hikey/export-ta_arm64/lib/libutee.a(tee_user_mem.o)
 .rodata.__func__.2246
                0x000000000000ca80       0x18 /home/rahulmahadev/hikey_optee/optee_os/out/arm-plat-hikey/export-ta_arm64/lib/libutee.a(tee_user_mem.o)
 .rodata.__func__.2197
                0x000000000000ca98       0x10 /home/rahulmahadev/hikey_optee/optee_os/out/arm-plat-hikey/export-ta_arm64/lib/libutee.a(tee_user_mem.o)
 .rodata.__func__.2192
                0x000000000000caa8       0x10 /home/rahulmahadev/hikey_optee/optee_os/out/arm-plat-hikey/export-ta_arm64/lib/libutee.a(tee_user_mem.o)
 .rodata.__func__.2410
                0x000000000000cab8       0x10 /home/rahulmahadev/hikey_optee/optee_os/out/arm-plat-hikey/export-ta_arm64/lib/libutee.a(assert.o)
 .rodata.__func__.2377
                0x000000000000cac8       0x18 /home/rahulmahadev/hikey_optee/optee_os/out/arm-plat-hikey/export-ta_arm64/lib/libutee.a(tee_api_arith.o)
 .rodata.failed.1944
                0x000000000000cae0       0x18 /home/rahulmahadev/hikey_optee/optee_os/out/arm-plat-hikey/export-ta_arm64/lib/libutee.a(trace_ext.o)
 .rodata.prefix.1943
                0x000000000000caf8       0x10 /home/rahulmahadev/hikey_optee/optee_os/out/arm-plat-hikey/export-ta_arm64/lib/libutee.a(trace_ext.o)
 .rodata.HEXDIGITS
                0x000000000000cb08       0x18 /home/rahulmahadev/hikey_optee/optee_os/out/arm-plat-hikey/export-ta_arm64/lib/libutils.a(snprintk.o)
 .rodata.hexdigits
                0x000000000000cb20       0x18 /home/rahulmahadev/hikey_optee/optee_os/out/arm-plat-hikey/export-ta_arm64/lib/libutils.a(snprintk.o)
 .rodata.lvl_strs.1494
                0x000000000000cb38       0x18 /home/rahulmahadev/hikey_optee/optee_os/out/arm-plat-hikey/export-ta_arm64/lib/libutils.a(trace.o)
 .rodata.const_largest_deci_base
                0x000000000000cb50       0x10 /home/rahulmahadev/hikey_optee/optee_os/out/arm-plat-hikey/export-ta_arm64/lib/libmpa.a(mpa_misc.o)
                0x000000000000cb50                const_largest_deci_base
 .rodata.Const_1_LShift_Base
                0x000000000000cb60       0x10 /home/rahulmahadev/hikey_optee/optee_os/out/arm-plat-hikey/export-ta_arm64/lib/libmpa.a(mpa_misc.o)
                0x000000000000cb60                Const_1_LShift_Base
 .rodata.const_one
                0x000000000000cb70       0x10 /home/rahulmahadev/hikey_optee/optee_os/out/arm-plat-hikey/export-ta_arm64/lib/libmpa.a(mpa_misc.o)
                0x000000000000cb70                const_one
 .rodata.const_miller_rabin_proof_limit
                0x000000000000cb80       0x10 /home/rahulmahadev/hikey_optee/optee_os/out/arm-plat-hikey/export-ta_arm64/lib/libmpa.a(mpa_primetest.o)
 .rodata.const_two
                0x000000000000cb90       0x10 /home/rahulmahadev/hikey_optee/optee_os/out/arm-plat-hikey/export-ta_arm64/lib/libmpa.a(mpa_primetest.o)
 .rodata.const_small_prime_factors
                0x000000000000cba0       0xb8 /home/rahulmahadev/hikey_optee/optee_os/out/arm-plat-hikey/export-ta_arm64/lib/libmpa.a(mpa_primetest.o)
 .rodata.proof_a.1863
                0x000000000000cc58       0x20 /home/rahulmahadev/hikey_optee/optee_os/out/arm-plat-hikey/export-ta_arm64/lib/libmpa.a(mpa_primetest.o)
 .rodata.PRIME_TABLE
                0x000000000000cc78      0xc38 /home/rahulmahadev/hikey_optee/optee_os/out/arm-plat-hikey/export-ta_arm64/lib/libmpa.a(mpa_primetest.o)
                0x000000000000cc78                PRIME_TABLE
 .rodata.__compound_literal.3
                0x000000000000d8b0        0x4 /home/rahulmahadev/hikey_optee/neo/ta/out/user_ta_header.o
 .rodata.__compound_literal.4
                0x000000000000d8b4        0x4 /home/rahulmahadev/hikey_optee/neo/ta/out/user_ta_header.o
 .rodata.__compound_literal.5
                0x000000000000d8b8        0x4 /home/rahulmahadev/hikey_optee/neo/ta/out/user_ta_header.o
 .rodata.__utee_from_param
                0x000000000000d8bc        0x8 /home/rahulmahadev/hikey_optee/optee_os/out/arm-plat-hikey/export-ta_arm64/lib/libutee.a(tee_api.o)
 .rodata.__utee_to_param
                0x000000000000d8c4        0x8 /home/rahulmahadev/hikey_optee/optee_os/out/arm-plat-hikey/export-ta_arm64/lib/libutee.a(tee_api.o)
 .rodata.NR_STORED_PRIMES
                0x000000000000d8cc        0x4 /home/rahulmahadev/hikey_optee/optee_os/out/arm-plat-hikey/export-ta_arm64/lib/libmpa.a(mpa_primetest.o)
                0x000000000000d8cc                NR_STORED_PRIMES
 .rodata.MAX_TABULATED_PRIME
                0x000000000000d8d0        0x4 /home/rahulmahadev/hikey_optee/optee_os/out/arm-plat-hikey/export-ta_arm64/lib/libmpa.a(mpa_primetest.o)
                0x000000000000d8d0                MAX_TABULATED_PRIME
 .rodata.__compound_literal.0
                0x000000000000d8d4        0x1 /home/rahulmahadev/hikey_optee/neo/ta/out/user_ta_header.o
 .rodata.__compound_literal.1
                0x000000000000d8d5        0x1 /home/rahulmahadev/hikey_optee/neo/ta/out/user_ta_header.o
 .rodata.__compound_literal.2
                0x000000000000d8d6        0x1 /home/rahulmahadev/hikey_optee/neo/ta/out/user_ta_header.o
 .rodata.str1.1.lib/libutee/tee_api.c
                0x000000000000d8d7        0xb /home/rahulmahadev/hikey_optee/optee_os/out/arm-plat-hikey/export-ta_arm64/lib/libutee.a(tee_api.o)
 .rodata.str1.1.lib/libutee/tee_api_objects.c
                0x0000000000000000        0xb /home/rahulmahadev/hikey_optee/optee_os/out/arm-plat-hikey/export-ta_arm64/lib/libutee.a(tee_api_objects.o)
 .rodata.str1.1.lib/libutee/tee_api_operations.c
                0x0000000000000000        0xb /home/rahulmahadev/hikey_optee/optee_os/out/arm-plat-hikey/export-ta_arm64/lib/libutee.a(tee_api_operations.o)
 .rodata.str1.1.lib/libutee/arch/arm/user_ta_entry.c
                0x0000000000000000        0xb /home/rahulmahadev/hikey_optee/optee_os/out/arm-plat-hikey/export-ta_arm64/lib/libutee.a(user_ta_entry.o)
 .rodata.str1.1.lib/libutee/tee_user_mem.c
                0x000000000000d8e2       0xe1 /home/rahulmahadev/hikey_optee/optee_os/out/arm-plat-hikey/export-ta_arm64/lib/libutee.a(tee_user_mem.o)
                                         0xe4 (size before relaxing)
 .rodata.str1.1.lib/libutee/assert.c
                0x000000000000d9c3       0x1f /home/rahulmahadev/hikey_optee/optee_os/out/arm-plat-hikey/export-ta_arm64/lib/libutee.a(assert.o)
 .rodata.str1.1.lib/libutee/tee_api_arith.c
                0x000000000000d9e2       0x5b /home/rahulmahadev/hikey_optee/optee_os/out/arm-plat-hikey/export-ta_arm64/lib/libutee.a(tee_api_arith.o)
                                         0x66 (size before relaxing)
 .rodata.str1.1.lib/libutee/trace_ext.c
                0x000000000000da3d        0x5 /home/rahulmahadev/hikey_optee/optee_os/out/arm-plat-hikey/export-ta_arm64/lib/libutee.a(trace_ext.o)
 .rodata.str1.1.lib/libutils/isoc/bget_malloc.c
                0x000000000000da42      0x3a5 /home/rahulmahadev/hikey_optee/optee_os/out/arm-plat-hikey/export-ta_arm64/lib/libutils.a(bget_malloc.o)
                                        0x3ae (size before relaxing)
 .rodata.str1.1.lib/libutils/ext/snprintk.c
                0x000000000000dde7       0x37 /home/rahulmahadev/hikey_optee/optee_os/out/arm-plat-hikey/export-ta_arm64/lib/libutils.a(snprintk.o)
 .rodata.str1.1.lib/libutils/ext/trace.c
                0x000000000000de1e       0x27 /home/rahulmahadev/hikey_optee/optee_os/out/arm-plat-hikey/export-ta_arm64/lib/libutils.a(trace.o)
 .rodata.str1.1.lib/libmpa/mpa_io.c
                0x000000000000de45       0x81 /home/rahulmahadev/hikey_optee/optee_os/out/arm-plat-hikey/export-ta_arm64/lib/libmpa.a(mpa_io.o)

.gnu.version_d  0x000000000000dec8        0x0
 .gnu.version_d
                0x0000000000000000        0x0 /home/rahulmahadev/hikey_optee/neo/ta/out/ta.o

.gnu.version    0x000000000000dec6        0x0
 .gnu.version   0x0000000000000000        0x0 /home/rahulmahadev/hikey_optee/neo/ta/out/ta.o

.gnu.version_r  0x000000000000dec8        0x0
 .gnu.version_r
                0x0000000000000000        0x0 /home/rahulmahadev/hikey_optee/neo/ta/out/ta.o

.ARM.exidx
 *(SORT(.ARM.exidx*) SORT(.gnu.linkonce.armexidx.*))

.ctors
 *(SORT(.ctors))

.dtors
 *(SORT(.dtors))

.plt            0x000000000000dec8        0x0
 *(SORT(.plt))
 .plt           0x0000000000000000        0x0 /home/rahulmahadev/hikey_optee/neo/ta/out/ta.o

.rela.dyn       0x000000000000dec8      0x228
 .rela.ifunc    0x0000000000000000        0x0 /home/rahulmahadev/hikey_optee/neo/ta/out/ta.o
 .rela.ta_head  0x000000000000dec8       0x18 /home/rahulmahadev/hikey_optee/neo/ta/out/ta.o
 .rela.data.rel.ro.local.ta_props
                0x000000000000dee0      0x1b0 /home/rahulmahadev/hikey_optee/neo/ta/out/ta.o
 .rela.data.rel.local.ta_sessions
                0x000000000000e090       0x18 /home/rahulmahadev/hikey_optee/neo/ta/out/ta.o
 .rela.data.rel.local.user_mem_head
                0x000000000000e0a8       0x18 /home/rahulmahadev/hikey_optee/neo/ta/out/ta.o
 .rela.data.rel.local.freelist
                0x000000000000e0c0       0x30 /home/rahulmahadev/hikey_optee/neo/ta/out/ta.o

.got            0x000000000000e0f0       0xa8
 *(SORT(.got.plt))
 .got.plt       0x000000000000e0f0       0x18 /home/rahulmahadev/hikey_optee/neo/ta/out/ta.o
 *(SORT(.got))
 .got           0x000000000000e108       0x90 /home/rahulmahadev/hikey_optee/neo/ta/out/ta.o
                0x000000000000e108                _GLOBAL_OFFSET_TABLE_

.rel.text
 *(SORT(.rel.text))
 *(SORT(.rel.gnu.linkonce.t*))

.rela.text
 *(SORT(.rela.text))
 *(SORT(.rela.gnu.linkonce.t*))

.rel.data
 *(SORT(.rel.data))
 *(SORT(.rel.gnu.linkonce.d*))

.rela.data
 *(SORT(.rela.data))
 *(SORT(.rela.gnu.linkonce.d*))

.rel.rodata
 *(SORT(.rel.rodata))
 *(SORT(.rel.gnu.linkonce.r*))

.rela.rodata
 *(SORT(.rela.rodata))
 *(SORT(.rela.gnu.linkonce.r*))

.rel.dyn
 *(SORT(.rel.dyn))

.rel.got
 *(SORT(.rel.got))

.rela.got       0x000000000000e198      0x198
 *(SORT(.rela.got))
 .rela.got      0x000000000000e198      0x198 /home/rahulmahadev/hikey_optee/neo/ta/out/ta.o

.rel.ctors
 *(SORT(.rel.ctors))

.rela.ctors
 *(SORT(.rela.ctors))

.rel.dtors
 *(SORT(.rel.dtors))

.rela.dtors
 *(SORT(.rela.dtors))

.rel.init
 *(SORT(.rel.init))

.rela.init
 *(SORT(.rela.init))

.rel.fini
 *(SORT(.rel.fini))

.rela.fini
 *(SORT(.rela.fini))

.rel.bss
 *(SORT(.rel.bss))

.rela.bss
 *(SORT(.rela.bss))

.rel.plt
 *(SORT(.rel.plt))

.rela.plt       0x000000000000e330        0x0
 *(SORT(.rela.plt))
 .rela.plt      0x0000000000000000        0x0 /home/rahulmahadev/hikey_optee/neo/ta/out/ta.o
                0x000000000000f000                . = ALIGN (0x1000)

.data           0x000000000000f000      0x11c
 *(SORT(.data) SORT(.data.*) SORT(.gnu.linkonce.d.*))
 .data.rel.ro.local.ta_props
                0x000000000000f000       0xd8 /home/rahulmahadev/hikey_optee/neo/ta/out/user_ta_header.o
                0x000000000000f000                ta_props
 .data.rel.local.ta_sessions
                0x000000000000f0d8       0x10 /home/rahulmahadev/hikey_optee/optee_os/out/arm-plat-hikey/export-ta_arm64/lib/libutee.a(user_ta_entry.o)
 .data.rel.local.user_mem_head
                0x000000000000f0e8       0x10 /home/rahulmahadev/hikey_optee/optee_os/out/arm-plat-hikey/export-ta_arm64/lib/libutee.a(tee_user_mem.o)
                0x000000000000f0e8                user_mem_head
 .data.rel.local.freelist
                0x000000000000f0f8       0x20 /home/rahulmahadev/hikey_optee/optee_os/out/arm-plat-hikey/export-ta_arm64/lib/libutils.a(bget_malloc.o)
 .data.trace_level
                0x000000000000f118        0x4 /home/rahulmahadev/hikey_optee/neo/ta/out/user_ta_header.o
                0x000000000000f118                trace_level
 .data          0x000000000000f11c        0x0 /home/rahulmahadev/hikey_optee/neo/ta/out/ta.o
 .data          0x000000000000f11c        0x0 /home/rahulmahadev/hikey_optee/neo/ta/out/user_ta_header.o
 .data          0x000000000000f11c        0x0 /home/rahulmahadev/hikey_optee/optee_os/out/arm-plat-hikey/export-ta_arm64/lib/libutee.a(tee_api.o)
 .data          0x000000000000f11c        0x0 /home/rahulmahadev/hikey_optee/optee_os/out/arm-plat-hikey/export-ta_arm64/lib/libutee.a(tee_api_objects.o)
 .data          0x000000000000f11c        0x0 /home/rahulmahadev/hikey_optee/optee_os/out/arm-plat-hikey/export-ta_arm64/lib/libutee.a(tee_api_operations.o)
 .data          0x000000000000f11c        0x0 /home/rahulmahadev/hikey_optee/optee_os/out/arm-plat-hikey/export-ta_arm64/lib/libutee.a(tee_api_panic.o)
 .data          0x000000000000f11c        0x0 /home/rahulmahadev/hikey_optee/optee_os/out/arm-plat-hikey/export-ta_arm64/lib/libutee.a(user_ta_entry.o)
 .data          0x000000000000f11c        0x0 /home/rahulmahadev/hikey_optee/optee_os/out/arm-plat-hikey/export-ta_arm64/lib/libutee.a(utee_syscalls_a64.o)
 .data          0x000000000000f11c        0x0 /home/rahulmahadev/hikey_optee/optee_os/out/arm-plat-hikey/export-ta_arm64/lib/libutee.a(tee_user_mem.o)
 .data          0x000000000000f11c        0x0 /home/rahulmahadev/hikey_optee/optee_os/out/arm-plat-hikey/export-ta_arm64/lib/libutee.a(assert.o)
 .data          0x000000000000f11c        0x0 /home/rahulmahadev/hikey_optee/optee_os/out/arm-plat-hikey/export-ta_arm64/lib/libutee.a(tee_api_arith.o)
 .data          0x000000000000f11c        0x0 /home/rahulmahadev/hikey_optee/optee_os/out/arm-plat-hikey/export-ta_arm64/lib/libutee.a(utee_misc.o)
 .data          0x000000000000f11c        0x0 /home/rahulmahadev/hikey_optee/optee_os/out/arm-plat-hikey/export-ta_arm64/lib/libutee.a(trace_ext.o)
 .data          0x000000000000f11c        0x0 /home/rahulmahadev/hikey_optee/optee_os/out/arm-plat-hikey/export-ta_arm64/lib/libutils.a(bget_malloc.o)
 .data          0x000000000000f11c        0x0 /home/rahulmahadev/hikey_optee/optee_os/out/arm-plat-hikey/export-ta_arm64/lib/libutils.a(snprintf.o)
 .data          0x000000000000f11c        0x0 /home/rahulmahadev/hikey_optee/optee_os/out/arm-plat-hikey/export-ta_arm64/lib/libutils.a(memcmp.o)
 .data          0x000000000000f11c        0x0 /home/rahulmahadev/hikey_optee/optee_os/out/arm-plat-hikey/export-ta_arm64/lib/libutils.a(memcpy.o)
 .data          0x000000000000f11c        0x0 /home/rahulmahadev/hikey_optee/optee_os/out/arm-plat-hikey/export-ta_arm64/lib/libutils.a(memmove.o)
 .data          0x000000000000f11c        0x0 /home/rahulmahadev/hikey_optee/optee_os/out/arm-plat-hikey/export-ta_arm64/lib/libutils.a(memset.o)
 .data          0x000000000000f11c        0x0 /home/rahulmahadev/hikey_optee/optee_os/out/arm-plat-hikey/export-ta_arm64/lib/libutils.a(strcmp.o)
 .data          0x000000000000f11c        0x0 /home/rahulmahadev/hikey_optee/optee_os/out/arm-plat-hikey/export-ta_arm64/lib/libutils.a(strlen.o)
 .data          0x000000000000f11c        0x0 /home/rahulmahadev/hikey_optee/optee_os/out/arm-plat-hikey/export-ta_arm64/lib/libutils.a(snprintk.o)
 .data          0x000000000000f11c        0x0 /home/rahulmahadev/hikey_optee/optee_os/out/arm-plat-hikey/export-ta_arm64/lib/libutils.a(strlcpy.o)
 .data          0x000000000000f11c        0x0 /home/rahulmahadev/hikey_optee/optee_os/out/arm-plat-hikey/export-ta_arm64/lib/libutils.a(buf_compare_ct.o)
 .data          0x000000000000f11c        0x0 /home/rahulmahadev/hikey_optee/optee_os/out/arm-plat-hikey/export-ta_arm64/lib/libutils.a(trace.o)
 .data          0x000000000000f11c        0x0 /home/rahulmahadev/hikey_optee/optee_os/out/arm-plat-hikey/export-ta_arm64/lib/libutils.a(memchr.o)
 .data          0x000000000000f11c        0x0 /home/rahulmahadev/hikey_optee/optee_os/out/arm-plat-hikey/export-ta_arm64/lib/libmpa.a(mpa_misc.o)
 .data          0x000000000000f11c        0x0 /home/rahulmahadev/hikey_optee/optee_os/out/arm-plat-hikey/export-ta_arm64/lib/libmpa.a(mpa_montgomery.o)
 .data          0x000000000000f11c        0x0 /home/rahulmahadev/hikey_optee/optee_os/out/arm-plat-hikey/export-ta_arm64/lib/libmpa.a(mpa_primetest.o)
 .data          0x000000000000f11c        0x0 /home/rahulmahadev/hikey_optee/optee_os/out/arm-plat-hikey/export-ta_arm64/lib/libmpa.a(mpa_conv.o)
 .data          0x000000000000f11c        0x0 /home/rahulmahadev/hikey_optee/optee_os/out/arm-plat-hikey/export-ta_arm64/lib/libmpa.a(mpa_div.o)
 .data          0x000000000000f11c        0x0 /home/rahulmahadev/hikey_optee/optee_os/out/arm-plat-hikey/export-ta_arm64/lib/libmpa.a(mpa_gcd.o)
 .data          0x000000000000f11c        0x0 /home/rahulmahadev/hikey_optee/optee_os/out/arm-plat-hikey/export-ta_arm64/lib/libmpa.a(mpa_mem_static.o)
 .data          0x000000000000f11c        0x0 /home/rahulmahadev/hikey_optee/optee_os/out/arm-plat-hikey/export-ta_arm64/lib/libmpa.a(mpa_mul.o)
 .data          0x000000000000f11c        0x0 /home/rahulmahadev/hikey_optee/optee_os/out/arm-plat-hikey/export-ta_arm64/lib/libmpa.a(mpa_random.o)
 .data          0x000000000000f11c        0x0 /home/rahulmahadev/hikey_optee/optee_os/out/arm-plat-hikey/export-ta_arm64/lib/libmpa.a(mpa_shift.o)
 .data          0x000000000000f11c        0x0 /home/rahulmahadev/hikey_optee/optee_os/out/arm-plat-hikey/export-ta_arm64/lib/libmpa.a(mpa_addsub.o)
 .data          0x000000000000f11c        0x0 /home/rahulmahadev/hikey_optee/optee_os/out/arm-plat-hikey/export-ta_arm64/lib/libmpa.a(mpa_cmp.o)
 .data          0x000000000000f11c        0x0 /home/rahulmahadev/hikey_optee/optee_os/out/arm-plat-hikey/export-ta_arm64/lib/libmpa.a(mpa_expmod.o)
 .data          0x000000000000f11c        0x0 /home/rahulmahadev/hikey_optee/optee_os/out/arm-plat-hikey/export-ta_arm64/lib/libmpa.a(mpa_init.o)
 .data          0x000000000000f11c        0x0 /home/rahulmahadev/hikey_optee/optee_os/out/arm-plat-hikey/export-ta_arm64/lib/libmpa.a(mpa_io.o)
 .data          0x000000000000f11c        0x0 /home/rahulmahadev/hikey_optee/optee_os/out/arm-plat-hikey/export-ta_arm64/lib/libmpa.a(mpa_modulus.o)

.bss            0x000000000000f120     0xabed
 *(SORT(.bss) SORT(.bss.*) SORT(.gnu.linkonce.b.*) SORT(COMMON))
 COMMON         0x000000000000f120       0x20 /home/rahulmahadev/hikey_optee/neo/ta/out/ta.o
                0x000000000000f120                questions
                0x000000000000f128                max_qs
                0x000000000000f12c                score
                0x000000000000f130                answers
                0x000000000000f138                start_time
                0x000000000000f13c                q_no
 COMMON         0x000000000000f140     0x8000 /home/rahulmahadev/hikey_optee/neo/ta/out/user_ta_header.o
                0x000000000000f140                ta_heap
 .bss.tee_api_instance_data
                0x0000000000017140        0x8 /home/rahulmahadev/hikey_optee/optee_os/out/arm-plat-hikey/export-ta_arm64/lib/libutee.a(tee_api.o)
 COMMON         0x0000000000017148       0x48 /home/rahulmahadev/hikey_optee/optee_os/out/arm-plat-hikey/export-ta_arm64/lib/libutee.a(user_ta_entry.o)
                0x0000000000017148                ta_param_types
                0x0000000000017150                ta_params
 .bss.global_stats
                0x0000000000017190       0x10 /home/rahulmahadev/hikey_optee/optee_os/out/arm-plat-hikey/export-ta_arm64/lib/libutee.a(tee_user_mem.o)
 .bss.heap_level
                0x00000000000171a0        0x8 /home/rahulmahadev/hikey_optee/optee_os/out/arm-plat-hikey/export-ta_arm64/lib/libutee.a(tee_user_mem.o)
 .bss.mempool_u32
                0x00000000000171a8     0x1b40 /home/rahulmahadev/hikey_optee/optee_os/out/arm-plat-hikey/export-ta_arm64/lib/libutee.a(tee_api_arith.o)
 .bss.malloc_pool
                0x0000000000018ce8        0x8 /home/rahulmahadev/hikey_optee/optee_os/out/arm-plat-hikey/export-ta_arm64/lib/libutils.a(bget_malloc.o)
 .bss.malloc_pool_len
                0x0000000000018cf0        0x8 /home/rahulmahadev/hikey_optee/optee_os/out/arm-plat-hikey/export-ta_arm64/lib/libutils.a(bget_malloc.o)
 .bss.get_rng_array
                0x0000000000018cf8        0x8 /home/rahulmahadev/hikey_optee/optee_os/out/arm-plat-hikey/export-ta_arm64/lib/libmpa.a(mpa_random.o)
 .bss.buf.1900  0x0000000000018d00     0x1008 /home/rahulmahadev/hikey_optee/optee_os/out/arm-plat-hikey/export-ta_arm64/lib/libmpa.a(mpa_io.o)
 .bss.ta_ref_count
                0x0000000000019d08        0x4 /home/rahulmahadev/hikey_optee/optee_os/out/arm-plat-hikey/export-ta_arm64/lib/libutee.a(user_ta_entry.o)
 .bss           0x0000000000019d0c        0x0 /home/rahulmahadev/hikey_optee/neo/ta/out/ta.o
 .bss           0x0000000000019d0c        0x0 /home/rahulmahadev/hikey_optee/neo/ta/out/user_ta_header.o
 .bss           0x0000000000019d0c        0x0 /home/rahulmahadev/hikey_optee/optee_os/out/arm-plat-hikey/export-ta_arm64/lib/libutee.a(tee_api.o)
 .bss           0x0000000000019d0c        0x0 /home/rahulmahadev/hikey_optee/optee_os/out/arm-plat-hikey/export-ta_arm64/lib/libutee.a(tee_api_objects.o)
 .bss           0x0000000000019d0c        0x0 /home/rahulmahadev/hikey_optee/optee_os/out/arm-plat-hikey/export-ta_arm64/lib/libutee.a(tee_api_operations.o)
 .bss           0x0000000000019d0c        0x0 /home/rahulmahadev/hikey_optee/optee_os/out/arm-plat-hikey/export-ta_arm64/lib/libutee.a(tee_api_panic.o)
 .bss           0x0000000000019d0c        0x0 /home/rahulmahadev/hikey_optee/optee_os/out/arm-plat-hikey/export-ta_arm64/lib/libutee.a(user_ta_entry.o)
 .bss.context_init
                0x0000000000019d0c        0x1 /home/rahulmahadev/hikey_optee/optee_os/out/arm-plat-hikey/export-ta_arm64/lib/libutee.a(user_ta_entry.o)
 .bss           0x0000000000019d0d        0x0 /home/rahulmahadev/hikey_optee/optee_os/out/arm-plat-hikey/export-ta_arm64/lib/libutee.a(utee_syscalls_a64.o)
 .bss           0x0000000000019d0d        0x0 /home/rahulmahadev/hikey_optee/optee_os/out/arm-plat-hikey/export-ta_arm64/lib/libutee.a(tee_user_mem.o)
 .bss           0x0000000000019d0d        0x0 /home/rahulmahadev/hikey_optee/optee_os/out/arm-plat-hikey/export-ta_arm64/lib/libutee.a(assert.o)
 .bss           0x0000000000019d0d        0x0 /home/rahulmahadev/hikey_optee/optee_os/out/arm-plat-hikey/export-ta_arm64/lib/libutee.a(tee_api_arith.o)
 .bss           0x0000000000019d0d        0x0 /home/rahulmahadev/hikey_optee/optee_os/out/arm-plat-hikey/export-ta_arm64/lib/libutee.a(utee_misc.o)
 .bss           0x0000000000019d0d        0x0 /home/rahulmahadev/hikey_optee/optee_os/out/arm-plat-hikey/export-ta_arm64/lib/libutee.a(trace_ext.o)
 .bss           0x0000000000019d0d        0x0 /home/rahulmahadev/hikey_optee/optee_os/out/arm-plat-hikey/export-ta_arm64/lib/libutils.a(bget_malloc.o)
 .bss           0x0000000000019d0d        0x0 /home/rahulmahadev/hikey_optee/optee_os/out/arm-plat-hikey/export-ta_arm64/lib/libutils.a(snprintf.o)
 .bss           0x0000000000019d0d        0x0 /home/rahulmahadev/hikey_optee/optee_os/out/arm-plat-hikey/export-ta_arm64/lib/libutils.a(memcmp.o)
 .bss           0x0000000000019d0d        0x0 /home/rahulmahadev/hikey_optee/optee_os/out/arm-plat-hikey/export-ta_arm64/lib/libutils.a(memcpy.o)
 .bss           0x0000000000019d0d        0x0 /home/rahulmahadev/hikey_optee/optee_os/out/arm-plat-hikey/export-ta_arm64/lib/libutils.a(memmove.o)
 .bss           0x0000000000019d0d        0x0 /home/rahulmahadev/hikey_optee/optee_os/out/arm-plat-hikey/export-ta_arm64/lib/libutils.a(memset.o)
 .bss           0x0000000000019d0d        0x0 /home/rahulmahadev/hikey_optee/optee_os/out/arm-plat-hikey/export-ta_arm64/lib/libutils.a(strcmp.o)
 .bss           0x0000000000019d0d        0x0 /home/rahulmahadev/hikey_optee/optee_os/out/arm-plat-hikey/export-ta_arm64/lib/libutils.a(strlen.o)
 .bss           0x0000000000019d0d        0x0 /home/rahulmahadev/hikey_optee/optee_os/out/arm-plat-hikey/export-ta_arm64/lib/libutils.a(snprintk.o)
 .bss           0x0000000000019d0d        0x0 /home/rahulmahadev/hikey_optee/optee_os/out/arm-plat-hikey/export-ta_arm64/lib/libutils.a(strlcpy.o)
 .bss           0x0000000000019d0d        0x0 /home/rahulmahadev/hikey_optee/optee_os/out/arm-plat-hikey/export-ta_arm64/lib/libutils.a(buf_compare_ct.o)
 .bss           0x0000000000019d0d        0x0 /home/rahulmahadev/hikey_optee/optee_os/out/arm-plat-hikey/export-ta_arm64/lib/libutils.a(trace.o)
 .bss           0x0000000000019d0d        0x0 /home/rahulmahadev/hikey_optee/optee_os/out/arm-plat-hikey/export-ta_arm64/lib/libutils.a(memchr.o)
 .bss           0x0000000000019d0d        0x0 /home/rahulmahadev/hikey_optee/optee_os/out/arm-plat-hikey/export-ta_arm64/lib/libmpa.a(mpa_misc.o)
 .bss           0x0000000000019d0d        0x0 /home/rahulmahadev/hikey_optee/optee_os/out/arm-plat-hikey/export-ta_arm64/lib/libmpa.a(mpa_montgomery.o)
 .bss           0x0000000000019d0d        0x0 /home/rahulmahadev/hikey_optee/optee_os/out/arm-plat-hikey/export-ta_arm64/lib/libmpa.a(mpa_primetest.o)
 .bss           0x0000000000019d0d        0x0 /home/rahulmahadev/hikey_optee/optee_os/out/arm-plat-hikey/export-ta_arm64/lib/libmpa.a(mpa_conv.o)
 .bss           0x0000000000019d0d        0x0 /home/rahulmahadev/hikey_optee/optee_os/out/arm-plat-hikey/export-ta_arm64/lib/libmpa.a(mpa_div.o)
 .bss           0x0000000000019d0d        0x0 /home/rahulmahadev/hikey_optee/optee_os/out/arm-plat-hikey/export-ta_arm64/lib/libmpa.a(mpa_gcd.o)
 .bss           0x0000000000019d0d        0x0 /home/rahulmahadev/hikey_optee/optee_os/out/arm-plat-hikey/export-ta_arm64/lib/libmpa.a(mpa_mem_static.o)
 .bss           0x0000000000019d0d        0x0 /home/rahulmahadev/hikey_optee/optee_os/out/arm-plat-hikey/export-ta_arm64/lib/libmpa.a(mpa_mul.o)
 .bss           0x0000000000019d0d        0x0 /home/rahulmahadev/hikey_optee/optee_os/out/arm-plat-hikey/export-ta_arm64/lib/libmpa.a(mpa_random.o)
 .bss           0x0000000000019d0d        0x0 /home/rahulmahadev/hikey_optee/optee_os/out/arm-plat-hikey/export-ta_arm64/lib/libmpa.a(mpa_shift.o)
 .bss           0x0000000000019d0d        0x0 /home/rahulmahadev/hikey_optee/optee_os/out/arm-plat-hikey/export-ta_arm64/lib/libmpa.a(mpa_addsub.o)
 .bss           0x0000000000019d0d        0x0 /home/rahulmahadev/hikey_optee/optee_os/out/arm-plat-hikey/export-ta_arm64/lib/libmpa.a(mpa_cmp.o)
 .bss           0x0000000000019d0d        0x0 /home/rahulmahadev/hikey_optee/optee_os/out/arm-plat-hikey/export-ta_arm64/lib/libmpa.a(mpa_expmod.o)
 .bss           0x0000000000019d0d        0x0 /home/rahulmahadev/hikey_optee/optee_os/out/arm-plat-hikey/export-ta_arm64/lib/libmpa.a(mpa_init.o)
 .bss           0x0000000000019d0d        0x0 /home/rahulmahadev/hikey_optee/optee_os/out/arm-plat-hikey/export-ta_arm64/lib/libmpa.a(mpa_io.o)
 .bss           0x0000000000019d0d        0x0 /home/rahulmahadev/hikey_optee/optee_os/out/arm-plat-hikey/export-ta_arm64/lib/libmpa.a(mpa_modulus.o)

.dynbss         0x0000000000019d0d        0x0
 .dynbss        0x0000000000000000        0x0 /home/rahulmahadev/hikey_optee/neo/ta/out/ta.o
                0x000000000001a000                . = ALIGN (0x1000)

.dynamic        0x000000000001a000       0xf0
 *(SORT(.dynamic))
 .dynamic       0x000000000001a000       0xf0 /home/rahulmahadev/hikey_optee/neo/ta/out/ta.o
                0x000000000001a000                _DYNAMIC

.dynsym         0x000000000001a0f0      0x240
 *(SORT(.dynsym))
 .dynsym        0x000000000001a0f0      0x240 /home/rahulmahadev/hikey_optee/neo/ta/out/ta.o

.dynstr         0x000000000001a330      0x13b
 *(SORT(.dynstr))
 .dynstr        0x000000000001a330      0x13b /home/rahulmahadev/hikey_optee/neo/ta/out/ta.o

.hash           0x000000000001a470       0xac
 *(SORT(.hash))
 .hash          0x000000000001a470       0xac /home/rahulmahadev/hikey_optee/neo/ta/out/ta.o

/DISCARD/
 *(SORT(.interp))
                0x000000000000000c                linker_RO_sections_size = 0xc
                0x000000000000000c                linker_RW_sections_size = 0xc
                0x000000000000000c                linker_res_funcs_ZI_sections_size = 0xc
                0x000000000000000c                linker_rel_dyn_GOT = 0xc
LOAD /home/rahulmahadev/hikey_optee/neo/ta/out/ta.o
LOAD /home/rahulmahadev/hikey_optee/neo/ta/out/user_ta_header.o
LOAD /home/rahulmahadev/hikey_optee/optee_os/out/arm-plat-hikey/export-ta_arm64/lib/libutee.a
LOAD /home/rahulmahadev/hikey_optee/optee_os/out/arm-plat-hikey/export-ta_arm64/lib/libutils.a
LOAD /home/rahulmahadev/hikey_optee/optee_os/out/arm-plat-hikey/export-ta_arm64/lib/libmpa.a
LOAD /home/rahulmahadev/hikey_optee/optee_os/out/arm-plat-hikey/export-ta_arm64/lib/libutee.a
LOAD /home/rahulmahadev/hikey_optee/optee_os/out/arm-plat-hikey/export-ta_arm64/lib/libutils.a
OUTPUT(/home/rahulmahadev/hikey_optee/neo/ta/out/11111111-1111-1111-1111111111111111.elf elf64-littleaarch64)

.debug_info     0x0000000000000000    0x1717a
 .debug_info    0x0000000000000000      0x78d /home/rahulmahadev/hikey_optee/neo/ta/out/ta.o
 .debug_info    0x000000000000078d      0x2ee /home/rahulmahadev/hikey_optee/neo/ta/out/user_ta_header.o
 .debug_info    0x0000000000000a7b     0x13df /home/rahulmahadev/hikey_optee/optee_os/out/arm-plat-hikey/export-ta_arm64/lib/libutee.a(tee_api.o)
 .debug_info    0x0000000000001e5a     0x2a99 /home/rahulmahadev/hikey_optee/optee_os/out/arm-plat-hikey/export-ta_arm64/lib/libutee.a(tee_api_objects.o)
 .debug_info    0x00000000000048f3     0x45f9 /home/rahulmahadev/hikey_optee/optee_os/out/arm-plat-hikey/export-ta_arm64/lib/libutee.a(tee_api_operations.o)
 .debug_info    0x0000000000008eec      0x150 /home/rahulmahadev/hikey_optee/optee_os/out/arm-plat-hikey/export-ta_arm64/lib/libutee.a(tee_api_panic.o)
 .debug_info    0x000000000000903c      0xb2d /home/rahulmahadev/hikey_optee/optee_os/out/arm-plat-hikey/export-ta_arm64/lib/libutee.a(user_ta_entry.o)
 .debug_info    0x0000000000009b69       0x81 /home/rahulmahadev/hikey_optee/optee_os/out/arm-plat-hikey/export-ta_arm64/lib/libutee.a(utee_syscalls_a64.o)
 .debug_info    0x0000000000009bea      0xe01 /home/rahulmahadev/hikey_optee/optee_os/out/arm-plat-hikey/export-ta_arm64/lib/libutee.a(tee_user_mem.o)
 .debug_info    0x000000000000a9eb      0x1aa /home/rahulmahadev/hikey_optee/optee_os/out/arm-plat-hikey/export-ta_arm64/lib/libutee.a(assert.o)
 .debug_info    0x000000000000ab95     0x20b2 /home/rahulmahadev/hikey_optee/optee_os/out/arm-plat-hikey/export-ta_arm64/lib/libutee.a(tee_api_arith.o)
 .debug_info    0x000000000000cc47      0x2bb /home/rahulmahadev/hikey_optee/optee_os/out/arm-plat-hikey/export-ta_arm64/lib/libutee.a(utee_misc.o)
 .debug_info    0x000000000000cf02      0x3c6 /home/rahulmahadev/hikey_optee/optee_os/out/arm-plat-hikey/export-ta_arm64/lib/libutee.a(trace_ext.o)
 .debug_info    0x000000000000d2c8     0x1565 /home/rahulmahadev/hikey_optee/optee_os/out/arm-plat-hikey/export-ta_arm64/lib/libutils.a(bget_malloc.o)
 .debug_info    0x000000000000e82d      0x252 /home/rahulmahadev/hikey_optee/optee_os/out/arm-plat-hikey/export-ta_arm64/lib/libutils.a(snprintf.o)
 .debug_info    0x000000000000ea7f       0xca /home/rahulmahadev/hikey_optee/optee_os/out/arm-plat-hikey/export-ta_arm64/lib/libutils.a(memcmp.o)
 .debug_info    0x000000000000eb49       0xd6 /home/rahulmahadev/hikey_optee/optee_os/out/arm-plat-hikey/export-ta_arm64/lib/libutils.a(memcpy.o)
 .debug_info    0x000000000000ec1f       0xd6 /home/rahulmahadev/hikey_optee/optee_os/out/arm-plat-hikey/export-ta_arm64/lib/libutils.a(memmove.o)
 .debug_info    0x000000000000ecf5       0xb2 /home/rahulmahadev/hikey_optee/optee_os/out/arm-plat-hikey/export-ta_arm64/lib/libutils.a(memset.o)
 .debug_info    0x000000000000eda7       0x96 /home/rahulmahadev/hikey_optee/optee_os/out/arm-plat-hikey/export-ta_arm64/lib/libutils.a(strcmp.o)
 .debug_info    0x000000000000ee3d       0x9c /home/rahulmahadev/hikey_optee/optee_os/out/arm-plat-hikey/export-ta_arm64/lib/libutils.a(strlen.o)
 .debug_info    0x000000000000eed9      0x776 /home/rahulmahadev/hikey_optee/optee_os/out/arm-plat-hikey/export-ta_arm64/lib/libutils.a(snprintk.o)
 .debug_info    0x000000000000f64f       0xf9 /home/rahulmahadev/hikey_optee/optee_os/out/arm-plat-hikey/export-ta_arm64/lib/libutils.a(strlcpy.o)
 .debug_info    0x000000000000f748       0xd9 /home/rahulmahadev/hikey_optee/optee_os/out/arm-plat-hikey/export-ta_arm64/lib/libutils.a(buf_compare_ct.o)
 .debug_info    0x000000000000f821      0x4c4 /home/rahulmahadev/hikey_optee/optee_os/out/arm-plat-hikey/export-ta_arm64/lib/libutils.a(trace.o)
 .debug_info    0x000000000000fce5       0xd3 /home/rahulmahadev/hikey_optee/optee_os/out/arm-plat-hikey/export-ta_arm64/lib/libutils.a(memchr.o)
 .debug_info    0x000000000000fdb8      0x3fe /home/rahulmahadev/hikey_optee/optee_os/out/arm-plat-hikey/export-ta_arm64/lib/libmpa.a(mpa_misc.o)
 .debug_info    0x00000000000101b6      0x945 /home/rahulmahadev/hikey_optee/optee_os/out/arm-plat-hikey/export-ta_arm64/lib/libmpa.a(mpa_montgomery.o)
 .debug_info    0x0000000000010afb      0xb77 /home/rahulmahadev/hikey_optee/optee_os/out/arm-plat-hikey/export-ta_arm64/lib/libmpa.a(mpa_primetest.o)
 .debug_info    0x0000000000011672      0x1e8 /home/rahulmahadev/hikey_optee/optee_os/out/arm-plat-hikey/export-ta_arm64/lib/libmpa.a(mpa_conv.o)
 .debug_info    0x000000000001185a      0xc73 /home/rahulmahadev/hikey_optee/optee_os/out/arm-plat-hikey/export-ta_arm64/lib/libmpa.a(mpa_div.o)
 .debug_info    0x00000000000124cd      0xf76 /home/rahulmahadev/hikey_optee/optee_os/out/arm-plat-hikey/export-ta_arm64/lib/libmpa.a(mpa_gcd.o)
 .debug_info    0x0000000000013443      0x4bc /home/rahulmahadev/hikey_optee/optee_os/out/arm-plat-hikey/export-ta_arm64/lib/libmpa.a(mpa_mem_static.o)
 .debug_info    0x00000000000138ff      0x720 /home/rahulmahadev/hikey_optee/optee_os/out/arm-plat-hikey/export-ta_arm64/lib/libmpa.a(mpa_mul.o)
 .debug_info    0x000000000001401f      0x306 /home/rahulmahadev/hikey_optee/optee_os/out/arm-plat-hikey/export-ta_arm64/lib/libmpa.a(mpa_random.o)
 .debug_info    0x0000000000014325      0x3ed /home/rahulmahadev/hikey_optee/optee_os/out/arm-plat-hikey/export-ta_arm64/lib/libmpa.a(mpa_shift.o)
 .debug_info    0x0000000000014712      0xd56 /home/rahulmahadev/hikey_optee/optee_os/out/arm-plat-hikey/export-ta_arm64/lib/libmpa.a(mpa_addsub.o)
 .debug_info    0x0000000000015468      0x2f7 /home/rahulmahadev/hikey_optee/optee_os/out/arm-plat-hikey/export-ta_arm64/lib/libmpa.a(mpa_cmp.o)
 .debug_info    0x000000000001575f      0x518 /home/rahulmahadev/hikey_optee/optee_os/out/arm-plat-hikey/export-ta_arm64/lib/libmpa.a(mpa_expmod.o)
 .debug_info    0x0000000000015c77      0x215 /home/rahulmahadev/hikey_optee/optee_os/out/arm-plat-hikey/export-ta_arm64/lib/libmpa.a(mpa_init.o)
 .debug_info    0x0000000000015e8c      0xaa9 /home/rahulmahadev/hikey_optee/optee_os/out/arm-plat-hikey/export-ta_arm64/lib/libmpa.a(mpa_io.o)
 .debug_info    0x0000000000016935      0x845 /home/rahulmahadev/hikey_optee/optee_os/out/arm-plat-hikey/export-ta_arm64/lib/libmpa.a(mpa_modulus.o)

.debug_abbrev   0x0000000000000000     0x48ed
 .debug_abbrev  0x0000000000000000      0x263 /home/rahulmahadev/hikey_optee/neo/ta/out/ta.o
 .debug_abbrev  0x0000000000000263      0x100 /home/rahulmahadev/hikey_optee/neo/ta/out/user_ta_header.o
 .debug_abbrev  0x0000000000000363      0x2b8 /home/rahulmahadev/hikey_optee/optee_os/out/arm-plat-hikey/export-ta_arm64/lib/libutee.a(tee_api.o)
 .debug_abbrev  0x000000000000061b      0x331 /home/rahulmahadev/hikey_optee/optee_os/out/arm-plat-hikey/export-ta_arm64/lib/libutee.a(tee_api_objects.o)
 .debug_abbrev  0x000000000000094c      0x383 /home/rahulmahadev/hikey_optee/optee_os/out/arm-plat-hikey/export-ta_arm64/lib/libutee.a(tee_api_operations.o)
 .debug_abbrev  0x0000000000000ccf       0xd9 /home/rahulmahadev/hikey_optee/optee_os/out/arm-plat-hikey/export-ta_arm64/lib/libutee.a(tee_api_panic.o)
 .debug_abbrev  0x0000000000000da8      0x33f /home/rahulmahadev/hikey_optee/optee_os/out/arm-plat-hikey/export-ta_arm64/lib/libutee.a(user_ta_entry.o)
 .debug_abbrev  0x00000000000010e7       0x14 /home/rahulmahadev/hikey_optee/optee_os/out/arm-plat-hikey/export-ta_arm64/lib/libutee.a(utee_syscalls_a64.o)
 .debug_abbrev  0x00000000000010fb      0x3ee /home/rahulmahadev/hikey_optee/optee_os/out/arm-plat-hikey/export-ta_arm64/lib/libutee.a(tee_user_mem.o)
 .debug_abbrev  0x00000000000014e9       0xd7 /home/rahulmahadev/hikey_optee/optee_os/out/arm-plat-hikey/export-ta_arm64/lib/libutee.a(assert.o)
 .debug_abbrev  0x00000000000015c0      0x38a /home/rahulmahadev/hikey_optee/optee_os/out/arm-plat-hikey/export-ta_arm64/lib/libutee.a(tee_api_arith.o)
 .debug_abbrev  0x000000000000194a      0x108 /home/rahulmahadev/hikey_optee/optee_os/out/arm-plat-hikey/export-ta_arm64/lib/libutee.a(utee_misc.o)
 .debug_abbrev  0x0000000000001a52      0x1a2 /home/rahulmahadev/hikey_optee/optee_os/out/arm-plat-hikey/export-ta_arm64/lib/libutee.a(trace_ext.o)
 .debug_abbrev  0x0000000000001bf4      0x3c1 /home/rahulmahadev/hikey_optee/optee_os/out/arm-plat-hikey/export-ta_arm64/lib/libutils.a(bget_malloc.o)
 .debug_abbrev  0x0000000000001fb5      0x12e /home/rahulmahadev/hikey_optee/optee_os/out/arm-plat-hikey/export-ta_arm64/lib/libutils.a(snprintf.o)
 .debug_abbrev  0x00000000000020e3       0x8e /home/rahulmahadev/hikey_optee/optee_os/out/arm-plat-hikey/export-ta_arm64/lib/libutils.a(memcmp.o)
 .debug_abbrev  0x0000000000002171       0x99 /home/rahulmahadev/hikey_optee/optee_os/out/arm-plat-hikey/export-ta_arm64/lib/libutils.a(memcpy.o)
 .debug_abbrev  0x000000000000220a       0x91 /home/rahulmahadev/hikey_optee/optee_os/out/arm-plat-hikey/export-ta_arm64/lib/libutils.a(memmove.o)
 .debug_abbrev  0x000000000000229b       0x90 /home/rahulmahadev/hikey_optee/optee_os/out/arm-plat-hikey/export-ta_arm64/lib/libutils.a(memset.o)
 .debug_abbrev  0x000000000000232b       0x65 /home/rahulmahadev/hikey_optee/optee_os/out/arm-plat-hikey/export-ta_arm64/lib/libutils.a(strcmp.o)
 .debug_abbrev  0x0000000000002390       0x76 /home/rahulmahadev/hikey_optee/optee_os/out/arm-plat-hikey/export-ta_arm64/lib/libutils.a(strlen.o)
 .debug_abbrev  0x0000000000002406      0x273 /home/rahulmahadev/hikey_optee/optee_os/out/arm-plat-hikey/export-ta_arm64/lib/libutils.a(snprintk.o)
 .debug_abbrev  0x0000000000002679       0x90 /home/rahulmahadev/hikey_optee/optee_os/out/arm-plat-hikey/export-ta_arm64/lib/libutils.a(strlcpy.o)
 .debug_abbrev  0x0000000000002709       0x8e /home/rahulmahadev/hikey_optee/optee_os/out/arm-plat-hikey/export-ta_arm64/lib/libutils.a(buf_compare_ct.o)
 .debug_abbrev  0x0000000000002797      0x224 /home/rahulmahadev/hikey_optee/optee_os/out/arm-plat-hikey/export-ta_arm64/lib/libutils.a(trace.o)
 .debug_abbrev  0x00000000000029bb       0xab /home/rahulmahadev/hikey_optee/optee_os/out/arm-plat-hikey/export-ta_arm64/lib/libutils.a(memchr.o)
 .debug_abbrev  0x0000000000002a66      0x15d /home/rahulmahadev/hikey_optee/optee_os/out/arm-plat-hikey/export-ta_arm64/lib/libmpa.a(mpa_misc.o)
 .debug_abbrev  0x0000000000002bc3      0x29d /home/rahulmahadev/hikey_optee/optee_os/out/arm-plat-hikey/export-ta_arm64/lib/libmpa.a(mpa_montgomery.o)
 .debug_abbrev  0x0000000000002e60      0x242 /home/rahulmahadev/hikey_optee/optee_os/out/arm-plat-hikey/export-ta_arm64/lib/libmpa.a(mpa_primetest.o)
 .debug_abbrev  0x00000000000030a2       0xfa /home/rahulmahadev/hikey_optee/optee_os/out/arm-plat-hikey/export-ta_arm64/lib/libmpa.a(mpa_conv.o)
 .debug_abbrev  0x000000000000319c      0x286 /home/rahulmahadev/hikey_optee/optee_os/out/arm-plat-hikey/export-ta_arm64/lib/libmpa.a(mpa_div.o)
 .debug_abbrev  0x0000000000003422      0x24d /home/rahulmahadev/hikey_optee/optee_os/out/arm-plat-hikey/export-ta_arm64/lib/libmpa.a(mpa_gcd.o)
 .debug_abbrev  0x000000000000366f      0x1e7 /home/rahulmahadev/hikey_optee/optee_os/out/arm-plat-hikey/export-ta_arm64/lib/libmpa.a(mpa_mem_static.o)
 .debug_abbrev  0x0000000000003856      0x218 /home/rahulmahadev/hikey_optee/optee_os/out/arm-plat-hikey/export-ta_arm64/lib/libmpa.a(mpa_mul.o)
 .debug_abbrev  0x0000000000003a6e      0x1aa /home/rahulmahadev/hikey_optee/optee_os/out/arm-plat-hikey/export-ta_arm64/lib/libmpa.a(mpa_random.o)
 .debug_abbrev  0x0000000000003c18      0x151 /home/rahulmahadev/hikey_optee/optee_os/out/arm-plat-hikey/export-ta_arm64/lib/libmpa.a(mpa_shift.o)
 .debug_abbrev  0x0000000000003d69      0x2b2 /home/rahulmahadev/hikey_optee/optee_os/out/arm-plat-hikey/export-ta_arm64/lib/libmpa.a(mpa_addsub.o)
 .debug_abbrev  0x000000000000401b       0xfa /home/rahulmahadev/hikey_optee/optee_os/out/arm-plat-hikey/export-ta_arm64/lib/libmpa.a(mpa_cmp.o)
 .debug_abbrev  0x0000000000004115      0x1aa /home/rahulmahadev/hikey_optee/optee_os/out/arm-plat-hikey/export-ta_arm64/lib/libmpa.a(mpa_expmod.o)
 .debug_abbrev  0x00000000000042bf      0x109 /home/rahulmahadev/hikey_optee/optee_os/out/arm-plat-hikey/export-ta_arm64/lib/libmpa.a(mpa_init.o)
 .debug_abbrev  0x00000000000043c8      0x38d /home/rahulmahadev/hikey_optee/optee_os/out/arm-plat-hikey/export-ta_arm64/lib/libmpa.a(mpa_io.o)
 .debug_abbrev  0x0000000000004755      0x198 /home/rahulmahadev/hikey_optee/optee_os/out/arm-plat-hikey/export-ta_arm64/lib/libmpa.a(mpa_modulus.o)

.debug_aranges  0x0000000000000000     0x1640
 .debug_aranges
                0x0000000000000000       0xd0 /home/rahulmahadev/hikey_optee/neo/ta/out/ta.o
 .debug_aranges
                0x00000000000000d0       0x30 /home/rahulmahadev/hikey_optee/neo/ta/out/user_ta_header.o
 .debug_aranges
                0x0000000000000100      0x1b0 /home/rahulmahadev/hikey_optee/optee_os/out/arm-plat-hikey/export-ta_arm64/lib/libutee.a(tee_api.o)
 .debug_aranges
                0x00000000000002b0      0x210 /home/rahulmahadev/hikey_optee/optee_os/out/arm-plat-hikey/export-ta_arm64/lib/libutee.a(tee_api_objects.o)
 .debug_aranges
                0x00000000000004c0      0x200 /home/rahulmahadev/hikey_optee/optee_os/out/arm-plat-hikey/export-ta_arm64/lib/libutee.a(tee_api_operations.o)
 .debug_aranges
                0x00000000000006c0       0x40 /home/rahulmahadev/hikey_optee/optee_os/out/arm-plat-hikey/export-ta_arm64/lib/libutee.a(tee_api_panic.o)
 .debug_aranges
                0x0000000000000700       0x60 /home/rahulmahadev/hikey_optee/optee_os/out/arm-plat-hikey/export-ta_arm64/lib/libutee.a(user_ta_entry.o)
 .debug_aranges
                0x0000000000000760       0x30 /home/rahulmahadev/hikey_optee/optee_os/out/arm-plat-hikey/export-ta_arm64/lib/libutee.a(utee_syscalls_a64.o)
 .debug_aranges
                0x0000000000000790       0xa0 /home/rahulmahadev/hikey_optee/optee_os/out/arm-plat-hikey/export-ta_arm64/lib/libutee.a(tee_user_mem.o)
 .debug_aranges
                0x0000000000000830       0x40 /home/rahulmahadev/hikey_optee/optee_os/out/arm-plat-hikey/export-ta_arm64/lib/libutee.a(assert.o)
 .debug_aranges
                0x0000000000000870      0x240 /home/rahulmahadev/hikey_optee/optee_os/out/arm-plat-hikey/export-ta_arm64/lib/libutee.a(tee_api_arith.o)
 .debug_aranges
                0x0000000000000ab0       0x80 /home/rahulmahadev/hikey_optee/optee_os/out/arm-plat-hikey/export-ta_arm64/lib/libutee.a(utee_misc.o)
 .debug_aranges
                0x0000000000000b30       0x60 /home/rahulmahadev/hikey_optee/optee_os/out/arm-plat-hikey/export-ta_arm64/lib/libutee.a(trace_ext.o)
 .debug_aranges
                0x0000000000000b90      0x140 /home/rahulmahadev/hikey_optee/optee_os/out/arm-plat-hikey/export-ta_arm64/lib/libutils.a(bget_malloc.o)
 .debug_aranges
                0x0000000000000cd0       0x40 /home/rahulmahadev/hikey_optee/optee_os/out/arm-plat-hikey/export-ta_arm64/lib/libutils.a(snprintf.o)
 .debug_aranges
                0x0000000000000d10       0x30 /home/rahulmahadev/hikey_optee/optee_os/out/arm-plat-hikey/export-ta_arm64/lib/libutils.a(memcmp.o)
 .debug_aranges
                0x0000000000000d40       0x30 /home/rahulmahadev/hikey_optee/optee_os/out/arm-plat-hikey/export-ta_arm64/lib/libutils.a(memcpy.o)
 .debug_aranges
                0x0000000000000d70       0x30 /home/rahulmahadev/hikey_optee/optee_os/out/arm-plat-hikey/export-ta_arm64/lib/libutils.a(memmove.o)
 .debug_aranges
                0x0000000000000da0       0x30 /home/rahulmahadev/hikey_optee/optee_os/out/arm-plat-hikey/export-ta_arm64/lib/libutils.a(memset.o)
 .debug_aranges
                0x0000000000000dd0       0x30 /home/rahulmahadev/hikey_optee/optee_os/out/arm-plat-hikey/export-ta_arm64/lib/libutils.a(strcmp.o)
 .debug_aranges
                0x0000000000000e00       0x30 /home/rahulmahadev/hikey_optee/optee_os/out/arm-plat-hikey/export-ta_arm64/lib/libutils.a(strlen.o)
 .debug_aranges
                0x0000000000000e30       0x50 /home/rahulmahadev/hikey_optee/optee_os/out/arm-plat-hikey/export-ta_arm64/lib/libutils.a(snprintk.o)
 .debug_aranges
                0x0000000000000e80       0x30 /home/rahulmahadev/hikey_optee/optee_os/out/arm-plat-hikey/export-ta_arm64/lib/libutils.a(strlcpy.o)
 .debug_aranges
                0x0000000000000eb0       0x30 /home/rahulmahadev/hikey_optee/optee_os/out/arm-plat-hikey/export-ta_arm64/lib/libutils.a(buf_compare_ct.o)
 .debug_aranges
                0x0000000000000ee0       0x60 /home/rahulmahadev/hikey_optee/optee_os/out/arm-plat-hikey/export-ta_arm64/lib/libutils.a(trace.o)
 .debug_aranges
                0x0000000000000f40       0x30 /home/rahulmahadev/hikey_optee/optee_os/out/arm-plat-hikey/export-ta_arm64/lib/libutils.a(memchr.o)
 .debug_aranges
                0x0000000000000f70       0xb0 /home/rahulmahadev/hikey_optee/optee_os/out/arm-plat-hikey/export-ta_arm64/lib/libmpa.a(mpa_misc.o)
 .debug_aranges
                0x0000000000001020       0x70 /home/rahulmahadev/hikey_optee/optee_os/out/arm-plat-hikey/export-ta_arm64/lib/libmpa.a(mpa_montgomery.o)
 .debug_aranges
                0x0000000000001090       0x30 /home/rahulmahadev/hikey_optee/optee_os/out/arm-plat-hikey/export-ta_arm64/lib/libmpa.a(mpa_primetest.o)
 .debug_aranges
                0x00000000000010c0       0x60 /home/rahulmahadev/hikey_optee/optee_os/out/arm-plat-hikey/export-ta_arm64/lib/libmpa.a(mpa_conv.o)
 .debug_aranges
                0x0000000000001120       0x60 /home/rahulmahadev/hikey_optee/optee_os/out/arm-plat-hikey/export-ta_arm64/lib/libmpa.a(mpa_div.o)
 .debug_aranges
                0x0000000000001180       0x70 /home/rahulmahadev/hikey_optee/optee_os/out/arm-plat-hikey/export-ta_arm64/lib/libmpa.a(mpa_gcd.o)
 .debug_aranges
                0x00000000000011f0       0x70 /home/rahulmahadev/hikey_optee/optee_os/out/arm-plat-hikey/export-ta_arm64/lib/libmpa.a(mpa_mem_static.o)
 .debug_aranges
                0x0000000000001260       0x80 /home/rahulmahadev/hikey_optee/optee_os/out/arm-plat-hikey/export-ta_arm64/lib/libmpa.a(mpa_mul.o)
 .debug_aranges
                0x00000000000012e0       0x40 /home/rahulmahadev/hikey_optee/optee_os/out/arm-plat-hikey/export-ta_arm64/lib/libmpa.a(mpa_random.o)
 .debug_aranges
                0x0000000000001320       0x60 /home/rahulmahadev/hikey_optee/optee_os/out/arm-plat-hikey/export-ta_arm64/lib/libmpa.a(mpa_shift.o)
 .debug_aranges
                0x0000000000001380       0xd0 /home/rahulmahadev/hikey_optee/optee_os/out/arm-plat-hikey/export-ta_arm64/lib/libmpa.a(mpa_addsub.o)
 .debug_aranges
                0x0000000000001450       0x70 /home/rahulmahadev/hikey_optee/optee_os/out/arm-plat-hikey/export-ta_arm64/lib/libmpa.a(mpa_cmp.o)
 .debug_aranges
                0x00000000000014c0       0x30 /home/rahulmahadev/hikey_optee/optee_os/out/arm-plat-hikey/export-ta_arm64/lib/libmpa.a(mpa_expmod.o)
 .debug_aranges
                0x00000000000014f0       0x40 /home/rahulmahadev/hikey_optee/optee_os/out/arm-plat-hikey/export-ta_arm64/lib/libmpa.a(mpa_init.o)
 .debug_aranges
                0x0000000000001530       0xa0 /home/rahulmahadev/hikey_optee/optee_os/out/arm-plat-hikey/export-ta_arm64/lib/libmpa.a(mpa_io.o)
 .debug_aranges
                0x00000000000015d0       0x70 /home/rahulmahadev/hikey_optee/optee_os/out/arm-plat-hikey/export-ta_arm64/lib/libmpa.a(mpa_modulus.o)

.debug_ranges   0x0000000000000000     0x1d20
 .debug_ranges  0x0000000000000000       0xc0 /home/rahulmahadev/hikey_optee/neo/ta/out/ta.o
 .debug_ranges  0x00000000000000c0       0x20 /home/rahulmahadev/hikey_optee/neo/ta/out/user_ta_header.o
 .debug_ranges  0x00000000000000e0      0x200 /home/rahulmahadev/hikey_optee/optee_os/out/arm-plat-hikey/export-ta_arm64/lib/libutee.a(tee_api.o)
 .debug_ranges  0x00000000000002e0      0x230 /home/rahulmahadev/hikey_optee/optee_os/out/arm-plat-hikey/export-ta_arm64/lib/libutee.a(tee_api_objects.o)
 .debug_ranges  0x0000000000000510      0x220 /home/rahulmahadev/hikey_optee/optee_os/out/arm-plat-hikey/export-ta_arm64/lib/libutee.a(tee_api_operations.o)
 .debug_ranges  0x0000000000000730       0x60 /home/rahulmahadev/hikey_optee/optee_os/out/arm-plat-hikey/export-ta_arm64/lib/libutee.a(tee_api_panic.o)
 .debug_ranges  0x0000000000000790       0x80 /home/rahulmahadev/hikey_optee/optee_os/out/arm-plat-hikey/export-ta_arm64/lib/libutee.a(user_ta_entry.o)
 .debug_ranges  0x0000000000000810      0x1a0 /home/rahulmahadev/hikey_optee/optee_os/out/arm-plat-hikey/export-ta_arm64/lib/libutee.a(tee_user_mem.o)
 .debug_ranges  0x00000000000009b0       0x30 /home/rahulmahadev/hikey_optee/optee_os/out/arm-plat-hikey/export-ta_arm64/lib/libutee.a(assert.o)
 .debug_ranges  0x00000000000009e0      0x320 /home/rahulmahadev/hikey_optee/optee_os/out/arm-plat-hikey/export-ta_arm64/lib/libutee.a(tee_api_arith.o)
 .debug_ranges  0x0000000000000d00       0x70 /home/rahulmahadev/hikey_optee/optee_os/out/arm-plat-hikey/export-ta_arm64/lib/libutee.a(utee_misc.o)
 .debug_ranges  0x0000000000000d70       0x50 /home/rahulmahadev/hikey_optee/optee_os/out/arm-plat-hikey/export-ta_arm64/lib/libutee.a(trace_ext.o)
 .debug_ranges  0x0000000000000dc0      0x3a0 /home/rahulmahadev/hikey_optee/optee_os/out/arm-plat-hikey/export-ta_arm64/lib/libutils.a(bget_malloc.o)
 .debug_ranges  0x0000000000001160       0x30 /home/rahulmahadev/hikey_optee/optee_os/out/arm-plat-hikey/export-ta_arm64/lib/libutils.a(snprintf.o)
 .debug_ranges  0x0000000000001190       0x20 /home/rahulmahadev/hikey_optee/optee_os/out/arm-plat-hikey/export-ta_arm64/lib/libutils.a(memcmp.o)
 .debug_ranges  0x00000000000011b0       0x20 /home/rahulmahadev/hikey_optee/optee_os/out/arm-plat-hikey/export-ta_arm64/lib/libutils.a(memcpy.o)
 .debug_ranges  0x00000000000011d0       0x20 /home/rahulmahadev/hikey_optee/optee_os/out/arm-plat-hikey/export-ta_arm64/lib/libutils.a(memmove.o)
 .debug_ranges  0x00000000000011f0       0x20 /home/rahulmahadev/hikey_optee/optee_os/out/arm-plat-hikey/export-ta_arm64/lib/libutils.a(memset.o)
 .debug_ranges  0x0000000000001210       0x20 /home/rahulmahadev/hikey_optee/optee_os/out/arm-plat-hikey/export-ta_arm64/lib/libutils.a(strcmp.o)
 .debug_ranges  0x0000000000001230       0x20 /home/rahulmahadev/hikey_optee/optee_os/out/arm-plat-hikey/export-ta_arm64/lib/libutils.a(strlen.o)
 .debug_ranges  0x0000000000001250       0xe0 /home/rahulmahadev/hikey_optee/optee_os/out/arm-plat-hikey/export-ta_arm64/lib/libutils.a(snprintk.o)
 .debug_ranges  0x0000000000001330       0x20 /home/rahulmahadev/hikey_optee/optee_os/out/arm-plat-hikey/export-ta_arm64/lib/libutils.a(strlcpy.o)
 .debug_ranges  0x0000000000001350       0x20 /home/rahulmahadev/hikey_optee/optee_os/out/arm-plat-hikey/export-ta_arm64/lib/libutils.a(buf_compare_ct.o)
 .debug_ranges  0x0000000000001370       0x50 /home/rahulmahadev/hikey_optee/optee_os/out/arm-plat-hikey/export-ta_arm64/lib/libutils.a(trace.o)
 .debug_ranges  0x00000000000013c0       0x20 /home/rahulmahadev/hikey_optee/optee_os/out/arm-plat-hikey/export-ta_arm64/lib/libutils.a(memchr.o)
 .debug_ranges  0x00000000000013e0       0xa0 /home/rahulmahadev/hikey_optee/optee_os/out/arm-plat-hikey/export-ta_arm64/lib/libmpa.a(mpa_misc.o)
 .debug_ranges  0x0000000000001480       0x90 /home/rahulmahadev/hikey_optee/optee_os/out/arm-plat-hikey/export-ta_arm64/lib/libmpa.a(mpa_montgomery.o)
 .debug_ranges  0x0000000000001510       0x90 /home/rahulmahadev/hikey_optee/optee_os/out/arm-plat-hikey/export-ta_arm64/lib/libmpa.a(mpa_primetest.o)
 .debug_ranges  0x00000000000015a0       0x50 /home/rahulmahadev/hikey_optee/optee_os/out/arm-plat-hikey/export-ta_arm64/lib/libmpa.a(mpa_conv.o)
 .debug_ranges  0x00000000000015f0       0xb0 /home/rahulmahadev/hikey_optee/optee_os/out/arm-plat-hikey/export-ta_arm64/lib/libmpa.a(mpa_div.o)
 .debug_ranges  0x00000000000016a0       0x60 /home/rahulmahadev/hikey_optee/optee_os/out/arm-plat-hikey/export-ta_arm64/lib/libmpa.a(mpa_gcd.o)
 .debug_ranges  0x0000000000001700       0x60 /home/rahulmahadev/hikey_optee/optee_os/out/arm-plat-hikey/export-ta_arm64/lib/libmpa.a(mpa_mem_static.o)
 .debug_ranges  0x0000000000001760       0x70 /home/rahulmahadev/hikey_optee/optee_os/out/arm-plat-hikey/export-ta_arm64/lib/libmpa.a(mpa_mul.o)
 .debug_ranges  0x00000000000017d0      0x170 /home/rahulmahadev/hikey_optee/optee_os/out/arm-plat-hikey/export-ta_arm64/lib/libmpa.a(mpa_random.o)
 .debug_ranges  0x0000000000001940       0x50 /home/rahulmahadev/hikey_optee/optee_os/out/arm-plat-hikey/export-ta_arm64/lib/libmpa.a(mpa_shift.o)
 .debug_ranges  0x0000000000001990       0xf0 /home/rahulmahadev/hikey_optee/optee_os/out/arm-plat-hikey/export-ta_arm64/lib/libmpa.a(mpa_addsub.o)
 .debug_ranges  0x0000000000001a80       0x60 /home/rahulmahadev/hikey_optee/optee_os/out/arm-plat-hikey/export-ta_arm64/lib/libmpa.a(mpa_cmp.o)
 .debug_ranges  0x0000000000001ae0       0x20 /home/rahulmahadev/hikey_optee/optee_os/out/arm-plat-hikey/export-ta_arm64/lib/libmpa.a(mpa_expmod.o)
 .debug_ranges  0x0000000000001b00       0x30 /home/rahulmahadev/hikey_optee/optee_os/out/arm-plat-hikey/export-ta_arm64/lib/libmpa.a(mpa_init.o)
 .debug_ranges  0x0000000000001b30      0x190 /home/rahulmahadev/hikey_optee/optee_os/out/arm-plat-hikey/export-ta_arm64/lib/libmpa.a(mpa_io.o)
 .debug_ranges  0x0000000000001cc0       0x60 /home/rahulmahadev/hikey_optee/optee_os/out/arm-plat-hikey/export-ta_arm64/lib/libmpa.a(mpa_modulus.o)

.debug_line     0x0000000000000000     0x5538
 .debug_line    0x0000000000000000      0x2e0 /home/rahulmahadev/hikey_optee/neo/ta/out/ta.o
 .debug_line    0x00000000000002e0      0x1a9 /home/rahulmahadev/hikey_optee/neo/ta/out/user_ta_header.o
 .debug_line    0x0000000000000489      0x421 /home/rahulmahadev/hikey_optee/optee_os/out/arm-plat-hikey/export-ta_arm64/lib/libutee.a(tee_api.o)
 .debug_line    0x00000000000008aa      0x56f /home/rahulmahadev/hikey_optee/optee_os/out/arm-plat-hikey/export-ta_arm64/lib/libutee.a(tee_api_objects.o)
 .debug_line    0x0000000000000e19      0x948 /home/rahulmahadev/hikey_optee/optee_os/out/arm-plat-hikey/export-ta_arm64/lib/libutee.a(tee_api_operations.o)
 .debug_line    0x0000000000001761       0xc8 /home/rahulmahadev/hikey_optee/optee_os/out/arm-plat-hikey/export-ta_arm64/lib/libutee.a(tee_api_panic.o)
 .debug_line    0x0000000000001829      0x2e3 /home/rahulmahadev/hikey_optee/optee_os/out/arm-plat-hikey/export-ta_arm64/lib/libutee.a(user_ta_entry.o)
 .debug_line    0x0000000000001b0c       0xa4 /home/rahulmahadev/hikey_optee/optee_os/out/arm-plat-hikey/export-ta_arm64/lib/libutee.a(utee_syscalls_a64.o)
 .debug_line    0x0000000000001bb0      0x2f4 /home/rahulmahadev/hikey_optee/optee_os/out/arm-plat-hikey/export-ta_arm64/lib/libutee.a(tee_user_mem.o)
 .debug_line    0x0000000000001ea4       0xaa /home/rahulmahadev/hikey_optee/optee_os/out/arm-plat-hikey/export-ta_arm64/lib/libutee.a(assert.o)
 .debug_line    0x0000000000001f4e      0x51b /home/rahulmahadev/hikey_optee/optee_os/out/arm-plat-hikey/export-ta_arm64/lib/libutee.a(tee_api_arith.o)
 .debug_line    0x0000000000002469      0x1b4 /home/rahulmahadev/hikey_optee/optee_os/out/arm-plat-hikey/export-ta_arm64/lib/libutee.a(utee_misc.o)
 .debug_line    0x000000000000261d      0x1d9 /home/rahulmahadev/hikey_optee/optee_os/out/arm-plat-hikey/export-ta_arm64/lib/libutee.a(trace_ext.o)
 .debug_line    0x00000000000027f6      0x50b /home/rahulmahadev/hikey_optee/optee_os/out/arm-plat-hikey/export-ta_arm64/lib/libutils.a(bget_malloc.o)
 .debug_line    0x0000000000002d01      0x13c /home/rahulmahadev/hikey_optee/optee_os/out/arm-plat-hikey/export-ta_arm64/lib/libutils.a(snprintf.o)
 .debug_line    0x0000000000002e3d       0xea /home/rahulmahadev/hikey_optee/optee_os/out/arm-plat-hikey/export-ta_arm64/lib/libutils.a(memcmp.o)
 .debug_line    0x0000000000002f27       0xe8 /home/rahulmahadev/hikey_optee/optee_os/out/arm-plat-hikey/export-ta_arm64/lib/libutils.a(memcpy.o)
 .debug_line    0x000000000000300f       0xf3 /home/rahulmahadev/hikey_optee/optee_os/out/arm-plat-hikey/export-ta_arm64/lib/libutils.a(memmove.o)
 .debug_line    0x0000000000003102       0xe8 /home/rahulmahadev/hikey_optee/optee_os/out/arm-plat-hikey/export-ta_arm64/lib/libutils.a(memset.o)
 .debug_line    0x00000000000031ea       0x62 /home/rahulmahadev/hikey_optee/optee_os/out/arm-plat-hikey/export-ta_arm64/lib/libutils.a(strcmp.o)
 .debug_line    0x000000000000324c       0xe8 /home/rahulmahadev/hikey_optee/optee_os/out/arm-plat-hikey/export-ta_arm64/lib/libutils.a(strlen.o)
 .debug_line    0x0000000000003334      0x2cd /home/rahulmahadev/hikey_optee/optee_os/out/arm-plat-hikey/export-ta_arm64/lib/libutils.a(snprintk.o)
 .debug_line    0x0000000000003601       0xec /home/rahulmahadev/hikey_optee/optee_os/out/arm-plat-hikey/export-ta_arm64/lib/libutils.a(strlcpy.o)
 .debug_line    0x00000000000036ed       0xea /home/rahulmahadev/hikey_optee/optee_os/out/arm-plat-hikey/export-ta_arm64/lib/libutils.a(buf_compare_ct.o)
 .debug_line    0x00000000000037d7      0x1a5 /home/rahulmahadev/hikey_optee/optee_os/out/arm-plat-hikey/export-ta_arm64/lib/libutils.a(trace.o)
 .debug_line    0x000000000000397c       0xeb /home/rahulmahadev/hikey_optee/optee_os/out/arm-plat-hikey/export-ta_arm64/lib/libutils.a(memchr.o)
 .debug_line    0x0000000000003a67      0x17a /home/rahulmahadev/hikey_optee/optee_os/out/arm-plat-hikey/export-ta_arm64/lib/libmpa.a(mpa_misc.o)
 .debug_line    0x0000000000003be1      0x1d5 /home/rahulmahadev/hikey_optee/optee_os/out/arm-plat-hikey/export-ta_arm64/lib/libmpa.a(mpa_montgomery.o)
 .debug_line    0x0000000000003db6      0x141 /home/rahulmahadev/hikey_optee/optee_os/out/arm-plat-hikey/export-ta_arm64/lib/libmpa.a(mpa_primetest.o)
 .debug_line    0x0000000000003ef7      0x11b /home/rahulmahadev/hikey_optee/optee_os/out/arm-plat-hikey/export-ta_arm64/lib/libmpa.a(mpa_conv.o)
 .debug_line    0x0000000000004012      0x1f0 /home/rahulmahadev/hikey_optee/optee_os/out/arm-plat-hikey/export-ta_arm64/lib/libmpa.a(mpa_div.o)
 .debug_line    0x0000000000004202      0x234 /home/rahulmahadev/hikey_optee/optee_os/out/arm-plat-hikey/export-ta_arm64/lib/libmpa.a(mpa_gcd.o)
 .debug_line    0x0000000000004436      0x1f9 /home/rahulmahadev/hikey_optee/optee_os/out/arm-plat-hikey/export-ta_arm64/lib/libmpa.a(mpa_mem_static.o)
 .debug_line    0x000000000000462f      0x1a0 /home/rahulmahadev/hikey_optee/optee_os/out/arm-plat-hikey/export-ta_arm64/lib/libmpa.a(mpa_mul.o)
 .debug_line    0x00000000000047cf      0x188 /home/rahulmahadev/hikey_optee/optee_os/out/arm-plat-hikey/export-ta_arm64/lib/libmpa.a(mpa_random.o)
 .debug_line    0x0000000000004957      0x1d7 /home/rahulmahadev/hikey_optee/optee_os/out/arm-plat-hikey/export-ta_arm64/lib/libmpa.a(mpa_shift.o)
 .debug_line    0x0000000000004b2e      0x2c2 /home/rahulmahadev/hikey_optee/optee_os/out/arm-plat-hikey/export-ta_arm64/lib/libmpa.a(mpa_addsub.o)
 .debug_line    0x0000000000004df0      0x13b /home/rahulmahadev/hikey_optee/optee_os/out/arm-plat-hikey/export-ta_arm64/lib/libmpa.a(mpa_cmp.o)
 .debug_line    0x0000000000004f2b       0xea /home/rahulmahadev/hikey_optee/optee_os/out/arm-plat-hikey/export-ta_arm64/lib/libmpa.a(mpa_expmod.o)
 .debug_line    0x0000000000005015       0xd3 /home/rahulmahadev/hikey_optee/optee_os/out/arm-plat-hikey/export-ta_arm64/lib/libmpa.a(mpa_init.o)
 .debug_line    0x00000000000050e8      0x31e /home/rahulmahadev/hikey_optee/optee_os/out/arm-plat-hikey/export-ta_arm64/lib/libmpa.a(mpa_io.o)
 .debug_line    0x0000000000005406      0x132 /home/rahulmahadev/hikey_optee/optee_os/out/arm-plat-hikey/export-ta_arm64/lib/libmpa.a(mpa_modulus.o)

.debug_str      0x0000000000000000     0x347c
 .debug_str     0x0000000000000000      0x37e /home/rahulmahadev/hikey_optee/neo/ta/out/ta.o
                                        0x413 (size before relaxing)
 .debug_str     0x000000000000037e      0x1fb /home/rahulmahadev/hikey_optee/neo/ta/out/user_ta_header.o
                                        0x376 (size before relaxing)
 .debug_str     0x0000000000000579      0x573 /home/rahulmahadev/hikey_optee/optee_os/out/arm-plat-hikey/export-ta_arm64/lib/libutee.a(tee_api.o)
                                        0x6e0 (size before relaxing)
 .debug_str     0x0000000000000aec      0x71b /home/rahulmahadev/hikey_optee/optee_os/out/arm-plat-hikey/export-ta_arm64/lib/libutee.a(tee_api_objects.o)
                                        0x928 (size before relaxing)
 .debug_str     0x0000000000001207      0x74f /home/rahulmahadev/hikey_optee/optee_os/out/arm-plat-hikey/export-ta_arm64/lib/libutee.a(tee_api_operations.o)
                                        0xb50 (size before relaxing)
 .debug_str     0x0000000000001956       0x31 /home/rahulmahadev/hikey_optee/optee_os/out/arm-plat-hikey/export-ta_arm64/lib/libutee.a(tee_api_panic.o)
                                        0x19c (size before relaxing)
 .debug_str     0x0000000000001987      0x1ec /home/rahulmahadev/hikey_optee/optee_os/out/arm-plat-hikey/export-ta_arm64/lib/libutee.a(user_ta_entry.o)
                                        0x4d8 (size before relaxing)
 .debug_str     0x0000000000001b73      0x188 /home/rahulmahadev/hikey_optee/optee_os/out/arm-plat-hikey/export-ta_arm64/lib/libutee.a(tee_user_mem.o)
                                        0x3bc (size before relaxing)
 .debug_str     0x0000000000001cfb       0x1f /home/rahulmahadev/hikey_optee/optee_os/out/arm-plat-hikey/export-ta_arm64/lib/libutee.a(assert.o)
                                        0x1a5 (size before relaxing)
 .debug_str     0x0000000000001d1a      0x6d6 /home/rahulmahadev/hikey_optee/optee_os/out/arm-plat-hikey/export-ta_arm64/lib/libutee.a(tee_api_arith.o)
                                        0x8e7 (size before relaxing)
 .debug_str     0x00000000000023f0       0x5c /home/rahulmahadev/hikey_optee/optee_os/out/arm-plat-hikey/export-ta_arm64/lib/libutee.a(utee_misc.o)
                                        0x216 (size before relaxing)
 .debug_str     0x000000000000244c       0xbf /home/rahulmahadev/hikey_optee/optee_os/out/arm-plat-hikey/export-ta_arm64/lib/libutee.a(trace_ext.o)
                                        0x23e (size before relaxing)
 .debug_str     0x000000000000250b      0x351 /home/rahulmahadev/hikey_optee/optee_os/out/arm-plat-hikey/export-ta_arm64/lib/libutils.a(bget_malloc.o)
                                        0x526 (size before relaxing)
 .debug_str     0x000000000000285c       0x30 /home/rahulmahadev/hikey_optee/optee_os/out/arm-plat-hikey/export-ta_arm64/lib/libutils.a(snprintf.o)
                                        0x1b4 (size before relaxing)
 .debug_str     0x000000000000288c       0x22 /home/rahulmahadev/hikey_optee/optee_os/out/arm-plat-hikey/export-ta_arm64/lib/libutils.a(memcmp.o)
                                        0x139 (size before relaxing)
 .debug_str     0x00000000000028ae       0x36 /home/rahulmahadev/hikey_optee/optee_os/out/arm-plat-hikey/export-ta_arm64/lib/libutils.a(memcpy.o)
                                        0x144 (size before relaxing)
 .debug_str     0x00000000000028e4       0x35 /home/rahulmahadev/hikey_optee/optee_os/out/arm-plat-hikey/export-ta_arm64/lib/libutils.a(memmove.o)
                                        0x14b (size before relaxing)
 .debug_str     0x0000000000002919       0x22 /home/rahulmahadev/hikey_optee/optee_os/out/arm-plat-hikey/export-ta_arm64/lib/libutils.a(memset.o)
                                        0x130 (size before relaxing)
 .debug_str     0x000000000000293b       0x29 /home/rahulmahadev/hikey_optee/optee_os/out/arm-plat-hikey/export-ta_arm64/lib/libutils.a(strcmp.o)
                                        0x129 (size before relaxing)
 .debug_str     0x0000000000002964       0x22 /home/rahulmahadev/hikey_optee/optee_os/out/arm-plat-hikey/export-ta_arm64/lib/libutils.a(strlen.o)
                                        0x136 (size before relaxing)
 .debug_str     0x0000000000002986       0xc1 /home/rahulmahadev/hikey_optee/optee_os/out/arm-plat-hikey/export-ta_arm64/lib/libutils.a(snprintk.o)
                                        0x2d1 (size before relaxing)
 .debug_str     0x0000000000002a47       0x1b /home/rahulmahadev/hikey_optee/optee_os/out/arm-plat-hikey/export-ta_arm64/lib/libutils.a(strlcpy.o)
                                        0x161 (size before relaxing)
 .debug_str     0x0000000000002a62       0x22 /home/rahulmahadev/hikey_optee/optee_os/out/arm-plat-hikey/export-ta_arm64/lib/libutils.a(buf_compare_ct.o)
                                        0x141 (size before relaxing)
 .debug_str     0x0000000000002a84       0x5a /home/rahulmahadev/hikey_optee/optee_os/out/arm-plat-hikey/export-ta_arm64/lib/libutils.a(trace.o)
                                        0x28f (size before relaxing)
 .debug_str     0x0000000000002ade       0x22 /home/rahulmahadev/hikey_optee/optee_os/out/arm-plat-hikey/export-ta_arm64/lib/libutils.a(memchr.o)
                                        0x149 (size before relaxing)
 .debug_str     0x0000000000002b00       0x95 /home/rahulmahadev/hikey_optee/optee_os/out/arm-plat-hikey/export-ta_arm64/lib/libmpa.a(mpa_misc.o)
                                        0x29c (size before relaxing)
 .debug_str     0x0000000000002b95       0xea /home/rahulmahadev/hikey_optee/optee_os/out/arm-plat-hikey/export-ta_arm64/lib/libmpa.a(mpa_montgomery.o)
                                        0x404 (size before relaxing)
 .debug_str     0x0000000000002c7f      0x166 /home/rahulmahadev/hikey_optee/optee_os/out/arm-plat-hikey/export-ta_arm64/lib/libmpa.a(mpa_primetest.o)
                                        0x482 (size before relaxing)
 .debug_str     0x0000000000002de5       0x20 /home/rahulmahadev/hikey_optee/optee_os/out/arm-plat-hikey/export-ta_arm64/lib/libmpa.a(mpa_conv.o)
                                        0x20f (size before relaxing)
 .debug_str     0x0000000000002e05      0x14c /home/rahulmahadev/hikey_optee/optee_os/out/arm-plat-hikey/export-ta_arm64/lib/libmpa.a(mpa_div.o)
                                        0x43b (size before relaxing)
 .debug_str     0x0000000000002f51       0x8b /home/rahulmahadev/hikey_optee/optee_os/out/arm-plat-hikey/export-ta_arm64/lib/libmpa.a(mpa_gcd.o)
                                        0x36b (size before relaxing)
 .debug_str     0x0000000000002fdc       0xc7 /home/rahulmahadev/hikey_optee/optee_os/out/arm-plat-hikey/export-ta_arm64/lib/libmpa.a(mpa_mem_static.o)
                                        0x37b (size before relaxing)
 .debug_str     0x00000000000030a3       0x59 /home/rahulmahadev/hikey_optee/optee_os/out/arm-plat-hikey/export-ta_arm64/lib/libmpa.a(mpa_mul.o)
                                        0x340 (size before relaxing)
 .debug_str     0x00000000000030fc       0x31 /home/rahulmahadev/hikey_optee/optee_os/out/arm-plat-hikey/export-ta_arm64/lib/libmpa.a(mpa_random.o)
                                        0x27f (size before relaxing)
 .debug_str     0x000000000000312d       0x33 /home/rahulmahadev/hikey_optee/optee_os/out/arm-plat-hikey/export-ta_arm64/lib/libmpa.a(mpa_shift.o)
                                        0x27b (size before relaxing)
 .debug_str     0x0000000000003160       0xf8 /home/rahulmahadev/hikey_optee/optee_os/out/arm-plat-hikey/export-ta_arm64/lib/libmpa.a(mpa_addsub.o)
                                        0x410 (size before relaxing)
 .debug_str     0x0000000000003258       0x3c /home/rahulmahadev/hikey_optee/optee_os/out/arm-plat-hikey/export-ta_arm64/lib/libmpa.a(mpa_cmp.o)
                                        0x247 (size before relaxing)
 .debug_str     0x0000000000003294       0x33 /home/rahulmahadev/hikey_optee/optee_os/out/arm-plat-hikey/export-ta_arm64/lib/libmpa.a(mpa_expmod.o)
                                        0x335 (size before relaxing)
 .debug_str     0x00000000000032c7       0x16 /home/rahulmahadev/hikey_optee/optee_os/out/arm-plat-hikey/export-ta_arm64/lib/libmpa.a(mpa_init.o)
                                        0x250 (size before relaxing)
 .debug_str     0x00000000000032dd      0x186 /home/rahulmahadev/hikey_optee/optee_os/out/arm-plat-hikey/export-ta_arm64/lib/libmpa.a(mpa_io.o)
                                        0x3fe (size before relaxing)
 .debug_str     0x0000000000003463       0x19 /home/rahulmahadev/hikey_optee/optee_os/out/arm-plat-hikey/export-ta_arm64/lib/libmpa.a(mpa_modulus.o)
                                        0x330 (size before relaxing)

.comment        0x0000000000000000       0x63
 .comment       0x0000000000000000       0x63 /home/rahulmahadev/hikey_optee/neo/ta/out/ta.o
                                         0x64 (size before relaxing)
 .comment       0x0000000000000000       0x64 /home/rahulmahadev/hikey_optee/neo/ta/out/user_ta_header.o
 .comment       0x0000000000000000       0x64 /home/rahulmahadev/hikey_optee/optee_os/out/arm-plat-hikey/export-ta_arm64/lib/libutee.a(tee_api.o)
 .comment       0x0000000000000000       0x64 /home/rahulmahadev/hikey_optee/optee_os/out/arm-plat-hikey/export-ta_arm64/lib/libutee.a(tee_api_objects.o)
 .comment       0x0000000000000000       0x64 /home/rahulmahadev/hikey_optee/optee_os/out/arm-plat-hikey/export-ta_arm64/lib/libutee.a(tee_api_operations.o)
 .comment       0x0000000000000000       0x64 /home/rahulmahadev/hikey_optee/optee_os/out/arm-plat-hikey/export-ta_arm64/lib/libutee.a(tee_api_panic.o)
 .comment       0x0000000000000000       0x64 /home/rahulmahadev/hikey_optee/optee_os/out/arm-plat-hikey/export-ta_arm64/lib/libutee.a(user_ta_entry.o)
 .comment       0x0000000000000000       0x64 /home/rahulmahadev/hikey_optee/optee_os/out/arm-plat-hikey/export-ta_arm64/lib/libutee.a(tee_user_mem.o)
 .comment       0x0000000000000000       0x64 /home/rahulmahadev/hikey_optee/optee_os/out/arm-plat-hikey/export-ta_arm64/lib/libutee.a(assert.o)
 .comment       0x0000000000000000       0x64 /home/rahulmahadev/hikey_optee/optee_os/out/arm-plat-hikey/export-ta_arm64/lib/libutee.a(tee_api_arith.o)
 .comment       0x0000000000000000       0x64 /home/rahulmahadev/hikey_optee/optee_os/out/arm-plat-hikey/export-ta_arm64/lib/libutee.a(utee_misc.o)
 .comment       0x0000000000000000       0x64 /home/rahulmahadev/hikey_optee/optee_os/out/arm-plat-hikey/export-ta_arm64/lib/libutee.a(trace_ext.o)
 .comment       0x0000000000000000       0x64 /home/rahulmahadev/hikey_optee/optee_os/out/arm-plat-hikey/export-ta_arm64/lib/libutils.a(bget_malloc.o)
 .comment       0x0000000000000000       0x64 /home/rahulmahadev/hikey_optee/optee_os/out/arm-plat-hikey/export-ta_arm64/lib/libutils.a(snprintf.o)
 .comment       0x0000000000000000       0x64 /home/rahulmahadev/hikey_optee/optee_os/out/arm-plat-hikey/export-ta_arm64/lib/libutils.a(memcmp.o)
 .comment       0x0000000000000000       0x64 /home/rahulmahadev/hikey_optee/optee_os/out/arm-plat-hikey/export-ta_arm64/lib/libutils.a(memcpy.o)
 .comment       0x0000000000000000       0x64 /home/rahulmahadev/hikey_optee/optee_os/out/arm-plat-hikey/export-ta_arm64/lib/libutils.a(memmove.o)
 .comment       0x0000000000000000       0x64 /home/rahulmahadev/hikey_optee/optee_os/out/arm-plat-hikey/export-ta_arm64/lib/libutils.a(memset.o)
 .comment       0x0000000000000000       0x64 /home/rahulmahadev/hikey_optee/optee_os/out/arm-plat-hikey/export-ta_arm64/lib/libutils.a(strcmp.o)
 .comment       0x0000000000000000       0x64 /home/rahulmahadev/hikey_optee/optee_os/out/arm-plat-hikey/export-ta_arm64/lib/libutils.a(strlen.o)
 .comment       0x0000000000000000       0x64 /home/rahulmahadev/hikey_optee/optee_os/out/arm-plat-hikey/export-ta_arm64/lib/libutils.a(snprintk.o)
 .comment       0x0000000000000000       0x64 /home/rahulmahadev/hikey_optee/optee_os/out/arm-plat-hikey/export-ta_arm64/lib/libutils.a(strlcpy.o)
 .comment       0x0000000000000000       0x64 /home/rahulmahadev/hikey_optee/optee_os/out/arm-plat-hikey/export-ta_arm64/lib/libutils.a(buf_compare_ct.o)
 .comment       0x0000000000000000       0x64 /home/rahulmahadev/hikey_optee/optee_os/out/arm-plat-hikey/export-ta_arm64/lib/libutils.a(trace.o)
 .comment       0x0000000000000000       0x64 /home/rahulmahadev/hikey_optee/optee_os/out/arm-plat-hikey/export-ta_arm64/lib/libutils.a(memchr.o)
 .comment       0x0000000000000000       0x64 /home/rahulmahadev/hikey_optee/optee_os/out/arm-plat-hikey/export-ta_arm64/lib/libmpa.a(mpa_misc.o)
 .comment       0x0000000000000000       0x64 /home/rahulmahadev/hikey_optee/optee_os/out/arm-plat-hikey/export-ta_arm64/lib/libmpa.a(mpa_montgomery.o)
 .comment       0x0000000000000000       0x64 /home/rahulmahadev/hikey_optee/optee_os/out/arm-plat-hikey/export-ta_arm64/lib/libmpa.a(mpa_primetest.o)
 .comment       0x0000000000000000       0x64 /home/rahulmahadev/hikey_optee/optee_os/out/arm-plat-hikey/export-ta_arm64/lib/libmpa.a(mpa_conv.o)
 .comment       0x0000000000000000       0x64 /home/rahulmahadev/hikey_optee/optee_os/out/arm-plat-hikey/export-ta_arm64/lib/libmpa.a(mpa_div.o)
 .comment       0x0000000000000000       0x64 /home/rahulmahadev/hikey_optee/optee_os/out/arm-plat-hikey/export-ta_arm64/lib/libmpa.a(mpa_gcd.o)
 .comment       0x0000000000000000       0x64 /home/rahulmahadev/hikey_optee/optee_os/out/arm-plat-hikey/export-ta_arm64/lib/libmpa.a(mpa_mem_static.o)
 .comment       0x0000000000000000       0x64 /home/rahulmahadev/hikey_optee/optee_os/out/arm-plat-hikey/export-ta_arm64/lib/libmpa.a(mpa_mul.o)
 .comment       0x0000000000000000       0x64 /home/rahulmahadev/hikey_optee/optee_os/out/arm-plat-hikey/export-ta_arm64/lib/libmpa.a(mpa_random.o)
 .comment       0x0000000000000000       0x64 /home/rahulmahadev/hikey_optee/optee_os/out/arm-plat-hikey/export-ta_arm64/lib/libmpa.a(mpa_shift.o)
 .comment       0x0000000000000000       0x64 /home/rahulmahadev/hikey_optee/optee_os/out/arm-plat-hikey/export-ta_arm64/lib/libmpa.a(mpa_addsub.o)
 .comment       0x0000000000000000       0x64 /home/rahulmahadev/hikey_optee/optee_os/out/arm-plat-hikey/export-ta_arm64/lib/libmpa.a(mpa_cmp.o)
 .comment       0x0000000000000000       0x64 /home/rahulmahadev/hikey_optee/optee_os/out/arm-plat-hikey/export-ta_arm64/lib/libmpa.a(mpa_expmod.o)
 .comment       0x0000000000000000       0x64 /home/rahulmahadev/hikey_optee/optee_os/out/arm-plat-hikey/export-ta_arm64/lib/libmpa.a(mpa_init.o)
 .comment       0x0000000000000000       0x64 /home/rahulmahadev/hikey_optee/optee_os/out/arm-plat-hikey/export-ta_arm64/lib/libmpa.a(mpa_io.o)
 .comment       0x0000000000000000       0x64 /home/rahulmahadev/hikey_optee/optee_os/out/arm-plat-hikey/export-ta_arm64/lib/libmpa.a(mpa_modulus.o)

.note.GNU-stack
                0x0000000000000000        0x0
 .note.GNU-stack
                0x0000000000000000        0x0 /home/rahulmahadev/hikey_optee/neo/ta/out/ta.o
 .note.GNU-stack
                0x0000000000000000        0x0 /home/rahulmahadev/hikey_optee/neo/ta/out/user_ta_header.o
 .note.GNU-stack
                0x0000000000000000        0x0 /home/rahulmahadev/hikey_optee/optee_os/out/arm-plat-hikey/export-ta_arm64/lib/libutee.a(tee_api.o)
 .note.GNU-stack
                0x0000000000000000        0x0 /home/rahulmahadev/hikey_optee/optee_os/out/arm-plat-hikey/export-ta_arm64/lib/libutee.a(tee_api_objects.o)
 .note.GNU-stack
                0x0000000000000000        0x0 /home/rahulmahadev/hikey_optee/optee_os/out/arm-plat-hikey/export-ta_arm64/lib/libutee.a(tee_api_operations.o)
 .note.GNU-stack
                0x0000000000000000        0x0 /home/rahulmahadev/hikey_optee/optee_os/out/arm-plat-hikey/export-ta_arm64/lib/libutee.a(tee_api_panic.o)
 .note.GNU-stack
                0x0000000000000000        0x0 /home/rahulmahadev/hikey_optee/optee_os/out/arm-plat-hikey/export-ta_arm64/lib/libutee.a(user_ta_entry.o)
 .note.GNU-stack
                0x0000000000000000        0x0 /home/rahulmahadev/hikey_optee/optee_os/out/arm-plat-hikey/export-ta_arm64/lib/libutee.a(tee_user_mem.o)
 .note.GNU-stack
                0x0000000000000000        0x0 /home/rahulmahadev/hikey_optee/optee_os/out/arm-plat-hikey/export-ta_arm64/lib/libutee.a(assert.o)
 .note.GNU-stack
                0x0000000000000000        0x0 /home/rahulmahadev/hikey_optee/optee_os/out/arm-plat-hikey/export-ta_arm64/lib/libutee.a(tee_api_arith.o)
 .note.GNU-stack
                0x0000000000000000        0x0 /home/rahulmahadev/hikey_optee/optee_os/out/arm-plat-hikey/export-ta_arm64/lib/libutee.a(utee_misc.o)
 .note.GNU-stack
                0x0000000000000000        0x0 /home/rahulmahadev/hikey_optee/optee_os/out/arm-plat-hikey/export-ta_arm64/lib/libutee.a(trace_ext.o)
 .note.GNU-stack
                0x0000000000000000        0x0 /home/rahulmahadev/hikey_optee/optee_os/out/arm-plat-hikey/export-ta_arm64/lib/libutils.a(bget_malloc.o)
 .note.GNU-stack
                0x0000000000000000        0x0 /home/rahulmahadev/hikey_optee/optee_os/out/arm-plat-hikey/export-ta_arm64/lib/libutils.a(snprintf.o)
 .note.GNU-stack
                0x0000000000000000        0x0 /home/rahulmahadev/hikey_optee/optee_os/out/arm-plat-hikey/export-ta_arm64/lib/libutils.a(memcmp.o)
 .note.GNU-stack
                0x0000000000000000        0x0 /home/rahulmahadev/hikey_optee/optee_os/out/arm-plat-hikey/export-ta_arm64/lib/libutils.a(memcpy.o)
 .note.GNU-stack
                0x0000000000000000        0x0 /home/rahulmahadev/hikey_optee/optee_os/out/arm-plat-hikey/export-ta_arm64/lib/libutils.a(memmove.o)
 .note.GNU-stack
                0x0000000000000000        0x0 /home/rahulmahadev/hikey_optee/optee_os/out/arm-plat-hikey/export-ta_arm64/lib/libutils.a(memset.o)
 .note.GNU-stack
                0x0000000000000000        0x0 /home/rahulmahadev/hikey_optee/optee_os/out/arm-plat-hikey/export-ta_arm64/lib/libutils.a(strcmp.o)
 .note.GNU-stack
                0x0000000000000000        0x0 /home/rahulmahadev/hikey_optee/optee_os/out/arm-plat-hikey/export-ta_arm64/lib/libutils.a(strlen.o)
 .note.GNU-stack
                0x0000000000000000        0x0 /home/rahulmahadev/hikey_optee/optee_os/out/arm-plat-hikey/export-ta_arm64/lib/libutils.a(snprintk.o)
 .note.GNU-stack
                0x0000000000000000        0x0 /home/rahulmahadev/hikey_optee/optee_os/out/arm-plat-hikey/export-ta_arm64/lib/libutils.a(strlcpy.o)
 .note.GNU-stack
                0x0000000000000000        0x0 /home/rahulmahadev/hikey_optee/optee_os/out/arm-plat-hikey/export-ta_arm64/lib/libutils.a(buf_compare_ct.o)
 .note.GNU-stack
                0x0000000000000000        0x0 /home/rahulmahadev/hikey_optee/optee_os/out/arm-plat-hikey/export-ta_arm64/lib/libutils.a(trace.o)
 .note.GNU-stack
                0x0000000000000000        0x0 /home/rahulmahadev/hikey_optee/optee_os/out/arm-plat-hikey/export-ta_arm64/lib/libutils.a(memchr.o)
 .note.GNU-stack
                0x0000000000000000        0x0 /home/rahulmahadev/hikey_optee/optee_os/out/arm-plat-hikey/export-ta_arm64/lib/libmpa.a(mpa_misc.o)
 .note.GNU-stack
                0x0000000000000000        0x0 /home/rahulmahadev/hikey_optee/optee_os/out/arm-plat-hikey/export-ta_arm64/lib/libmpa.a(mpa_montgomery.o)
 .note.GNU-stack
                0x0000000000000000        0x0 /home/rahulmahadev/hikey_optee/optee_os/out/arm-plat-hikey/export-ta_arm64/lib/libmpa.a(mpa_primetest.o)
 .note.GNU-stack
                0x0000000000000000        0x0 /home/rahulmahadev/hikey_optee/optee_os/out/arm-plat-hikey/export-ta_arm64/lib/libmpa.a(mpa_conv.o)
 .note.GNU-stack
                0x0000000000000000        0x0 /home/rahulmahadev/hikey_optee/optee_os/out/arm-plat-hikey/export-ta_arm64/lib/libmpa.a(mpa_div.o)
 .note.GNU-stack
                0x0000000000000000        0x0 /home/rahulmahadev/hikey_optee/optee_os/out/arm-plat-hikey/export-ta_arm64/lib/libmpa.a(mpa_gcd.o)
 .note.GNU-stack
                0x0000000000000000        0x0 /home/rahulmahadev/hikey_optee/optee_os/out/arm-plat-hikey/export-ta_arm64/lib/libmpa.a(mpa_mem_static.o)
 .note.GNU-stack
                0x0000000000000000        0x0 /home/rahulmahadev/hikey_optee/optee_os/out/arm-plat-hikey/export-ta_arm64/lib/libmpa.a(mpa_mul.o)
 .note.GNU-stack
                0x0000000000000000        0x0 /home/rahulmahadev/hikey_optee/optee_os/out/arm-plat-hikey/export-ta_arm64/lib/libmpa.a(mpa_random.o)
 .note.GNU-stack
                0x0000000000000000        0x0 /home/rahulmahadev/hikey_optee/optee_os/out/arm-plat-hikey/export-ta_arm64/lib/libmpa.a(mpa_shift.o)
 .note.GNU-stack
                0x0000000000000000        0x0 /home/rahulmahadev/hikey_optee/optee_os/out/arm-plat-hikey/export-ta_arm64/lib/libmpa.a(mpa_addsub.o)
 .note.GNU-stack
                0x0000000000000000        0x0 /home/rahulmahadev/hikey_optee/optee_os/out/arm-plat-hikey/export-ta_arm64/lib/libmpa.a(mpa_cmp.o)
 .note.GNU-stack
                0x0000000000000000        0x0 /home/rahulmahadev/hikey_optee/optee_os/out/arm-plat-hikey/export-ta_arm64/lib/libmpa.a(mpa_expmod.o)
 .note.GNU-stack
                0x0000000000000000        0x0 /home/rahulmahadev/hikey_optee/optee_os/out/arm-plat-hikey/export-ta_arm64/lib/libmpa.a(mpa_init.o)
 .note.GNU-stack
                0x0000000000000000        0x0 /home/rahulmahadev/hikey_optee/optee_os/out/arm-plat-hikey/export-ta_arm64/lib/libmpa.a(mpa_io.o)
 .note.GNU-stack
                0x0000000000000000        0x0 /home/rahulmahadev/hikey_optee/optee_os/out/arm-plat-hikey/export-ta_arm64/lib/libmpa.a(mpa_modulus.o)

.debug_frame    0x0000000000000000     0x31f0
 .debug_frame   0x0000000000000000      0x1c0 /home/rahulmahadev/hikey_optee/neo/ta/out/ta.o
 .debug_frame   0x00000000000001c0       0x28 /home/rahulmahadev/hikey_optee/neo/ta/out/user_ta_header.o
 .debug_frame   0x00000000000001e8      0x3a0 /home/rahulmahadev/hikey_optee/optee_os/out/arm-plat-hikey/export-ta_arm64/lib/libutee.a(tee_api.o)
 .debug_frame   0x0000000000000588      0x638 /home/rahulmahadev/hikey_optee/optee_os/out/arm-plat-hikey/export-ta_arm64/lib/libutee.a(tee_api_objects.o)
 .debug_frame   0x0000000000000bc0      0x798 /home/rahulmahadev/hikey_optee/optee_os/out/arm-plat-hikey/export-ta_arm64/lib/libutee.a(tee_api_operations.o)
 .debug_frame   0x0000000000001358       0x60 /home/rahulmahadev/hikey_optee/optee_os/out/arm-plat-hikey/export-ta_arm64/lib/libutee.a(tee_api_panic.o)
 .debug_frame   0x00000000000013b8       0xa8 /home/rahulmahadev/hikey_optee/optee_os/out/arm-plat-hikey/export-ta_arm64/lib/libutee.a(user_ta_entry.o)
 .debug_frame   0x0000000000001460      0x1b8 /home/rahulmahadev/hikey_optee/optee_os/out/arm-plat-hikey/export-ta_arm64/lib/libutee.a(tee_user_mem.o)
 .debug_frame   0x0000000000001618       0x50 /home/rahulmahadev/hikey_optee/optee_os/out/arm-plat-hikey/export-ta_arm64/lib/libutee.a(assert.o)
 .debug_frame   0x0000000000001668      0x500 /home/rahulmahadev/hikey_optee/optee_os/out/arm-plat-hikey/export-ta_arm64/lib/libutee.a(tee_api_arith.o)
 .debug_frame   0x0000000000001b68       0xa0 /home/rahulmahadev/hikey_optee/optee_os/out/arm-plat-hikey/export-ta_arm64/lib/libutee.a(utee_misc.o)
 .debug_frame   0x0000000000001c08       0xc0 /home/rahulmahadev/hikey_optee/optee_os/out/arm-plat-hikey/export-ta_arm64/lib/libutee.a(trace_ext.o)
 .debug_frame   0x0000000000001cc8      0x2b8 /home/rahulmahadev/hikey_optee/optee_os/out/arm-plat-hikey/export-ta_arm64/lib/libutils.a(bget_malloc.o)
 .debug_frame   0x0000000000001f80       0x78 /home/rahulmahadev/hikey_optee/optee_os/out/arm-plat-hikey/export-ta_arm64/lib/libutils.a(snprintf.o)
 .debug_frame   0x0000000000001ff8       0x28 /home/rahulmahadev/hikey_optee/optee_os/out/arm-plat-hikey/export-ta_arm64/lib/libutils.a(memcmp.o)
 .debug_frame   0x0000000000002020       0x28 /home/rahulmahadev/hikey_optee/optee_os/out/arm-plat-hikey/export-ta_arm64/lib/libutils.a(memcpy.o)
 .debug_frame   0x0000000000002048       0x28 /home/rahulmahadev/hikey_optee/optee_os/out/arm-plat-hikey/export-ta_arm64/lib/libutils.a(memmove.o)
 .debug_frame   0x0000000000002070       0x28 /home/rahulmahadev/hikey_optee/optee_os/out/arm-plat-hikey/export-ta_arm64/lib/libutils.a(memset.o)
 .debug_frame   0x0000000000002098       0x28 /home/rahulmahadev/hikey_optee/optee_os/out/arm-plat-hikey/export-ta_arm64/lib/libutils.a(strcmp.o)
 .debug_frame   0x00000000000020c0       0x28 /home/rahulmahadev/hikey_optee/optee_os/out/arm-plat-hikey/export-ta_arm64/lib/libutils.a(strlen.o)
 .debug_frame   0x00000000000020e8       0xd0 /home/rahulmahadev/hikey_optee/optee_os/out/arm-plat-hikey/export-ta_arm64/lib/libutils.a(snprintk.o)
 .debug_frame   0x00000000000021b8       0x28 /home/rahulmahadev/hikey_optee/optee_os/out/arm-plat-hikey/export-ta_arm64/lib/libutils.a(strlcpy.o)
 .debug_frame   0x00000000000021e0       0x28 /home/rahulmahadev/hikey_optee/optee_os/out/arm-plat-hikey/export-ta_arm64/lib/libutils.a(buf_compare_ct.o)
 .debug_frame   0x0000000000002208       0x98 /home/rahulmahadev/hikey_optee/optee_os/out/arm-plat-hikey/export-ta_arm64/lib/libutils.a(trace.o)
 .debug_frame   0x00000000000022a0       0x28 /home/rahulmahadev/hikey_optee/optee_os/out/arm-plat-hikey/export-ta_arm64/lib/libutils.a(memchr.o)
 .debug_frame   0x00000000000022c8      0x130 /home/rahulmahadev/hikey_optee/optee_os/out/arm-plat-hikey/export-ta_arm64/lib/libmpa.a(mpa_misc.o)
 .debug_frame   0x00000000000023f8      0x118 /home/rahulmahadev/hikey_optee/optee_os/out/arm-plat-hikey/export-ta_arm64/lib/libmpa.a(mpa_montgomery.o)
 .debug_frame   0x0000000000002510       0x60 /home/rahulmahadev/hikey_optee/optee_os/out/arm-plat-hikey/export-ta_arm64/lib/libmpa.a(mpa_primetest.o)
 .debug_frame   0x0000000000002570       0x70 /home/rahulmahadev/hikey_optee/optee_os/out/arm-plat-hikey/export-ta_arm64/lib/libmpa.a(mpa_conv.o)
 .debug_frame   0x00000000000025e0       0xf8 /home/rahulmahadev/hikey_optee/optee_os/out/arm-plat-hikey/export-ta_arm64/lib/libmpa.a(mpa_div.o)
 .debug_frame   0x00000000000026d8      0x148 /home/rahulmahadev/hikey_optee/optee_os/out/arm-plat-hikey/export-ta_arm64/lib/libmpa.a(mpa_gcd.o)
 .debug_frame   0x0000000000002820       0xa0 /home/rahulmahadev/hikey_optee/optee_os/out/arm-plat-hikey/export-ta_arm64/lib/libmpa.a(mpa_mem_static.o)
 .debug_frame   0x00000000000028c0      0x148 /home/rahulmahadev/hikey_optee/optee_os/out/arm-plat-hikey/export-ta_arm64/lib/libmpa.a(mpa_mul.o)
 .debug_frame   0x0000000000002a08       0x70 /home/rahulmahadev/hikey_optee/optee_os/out/arm-plat-hikey/export-ta_arm64/lib/libmpa.a(mpa_random.o)
 .debug_frame   0x0000000000002a78       0xd0 /home/rahulmahadev/hikey_optee/optee_os/out/arm-plat-hikey/export-ta_arm64/lib/libmpa.a(mpa_shift.o)
 .debug_frame   0x0000000000002b48      0x268 /home/rahulmahadev/hikey_optee/optee_os/out/arm-plat-hikey/export-ta_arm64/lib/libmpa.a(mpa_addsub.o)
 .debug_frame   0x0000000000002db0       0xc0 /home/rahulmahadev/hikey_optee/optee_os/out/arm-plat-hikey/export-ta_arm64/lib/libmpa.a(mpa_cmp.o)
 .debug_frame   0x0000000000002e70       0x68 /home/rahulmahadev/hikey_optee/optee_os/out/arm-plat-hikey/export-ta_arm64/lib/libmpa.a(mpa_expmod.o)
 .debug_frame   0x0000000000002ed8       0x60 /home/rahulmahadev/hikey_optee/optee_os/out/arm-plat-hikey/export-ta_arm64/lib/libmpa.a(mpa_init.o)
 .debug_frame   0x0000000000002f38      0x190 /home/rahulmahadev/hikey_optee/optee_os/out/arm-plat-hikey/export-ta_arm64/lib/libmpa.a(mpa_io.o)
 .debug_frame   0x00000000000030c8      0x128 /home/rahulmahadev/hikey_optee/optee_os/out/arm-plat-hikey/export-ta_arm64/lib/libmpa.a(mpa_modulus.o)

.debug_loc      0x0000000000000000    0x19d77
 .debug_loc     0x0000000000000000      0xe59 /home/rahulmahadev/hikey_optee/optee_os/out/arm-plat-hikey/export-ta_arm64/lib/libutee.a(tee_api.o)
 .debug_loc     0x0000000000000e59     0x222a /home/rahulmahadev/hikey_optee/optee_os/out/arm-plat-hikey/export-ta_arm64/lib/libutee.a(tee_api_objects.o)
 .debug_loc     0x0000000000003083     0x4a14 /home/rahulmahadev/hikey_optee/optee_os/out/arm-plat-hikey/export-ta_arm64/lib/libutee.a(tee_api_operations.o)
 .debug_loc     0x0000000000007a97       0x72 /home/rahulmahadev/hikey_optee/optee_os/out/arm-plat-hikey/export-ta_arm64/lib/libutee.a(tee_api_panic.o)
 .debug_loc     0x0000000000007b09      0x82f /home/rahulmahadev/hikey_optee/optee_os/out/arm-plat-hikey/export-ta_arm64/lib/libutee.a(user_ta_entry.o)
 .debug_loc     0x0000000000008338      0x9d8 /home/rahulmahadev/hikey_optee/optee_os/out/arm-plat-hikey/export-ta_arm64/lib/libutee.a(tee_user_mem.o)
 .debug_loc     0x0000000000008d10       0xe4 /home/rahulmahadev/hikey_optee/optee_os/out/arm-plat-hikey/export-ta_arm64/lib/libutee.a(assert.o)
 .debug_loc     0x0000000000008df4     0x2571 /home/rahulmahadev/hikey_optee/optee_os/out/arm-plat-hikey/export-ta_arm64/lib/libutee.a(tee_api_arith.o)
 .debug_loc     0x000000000000b365      0x1ee /home/rahulmahadev/hikey_optee/optee_os/out/arm-plat-hikey/export-ta_arm64/lib/libutee.a(utee_misc.o)
 .debug_loc     0x000000000000b553      0x153 /home/rahulmahadev/hikey_optee/optee_os/out/arm-plat-hikey/export-ta_arm64/lib/libutee.a(trace_ext.o)
 .debug_loc     0x000000000000b6a6     0x282f /home/rahulmahadev/hikey_optee/optee_os/out/arm-plat-hikey/export-ta_arm64/lib/libutils.a(bget_malloc.o)
 .debug_loc     0x000000000000ded5      0x18f /home/rahulmahadev/hikey_optee/optee_os/out/arm-plat-hikey/export-ta_arm64/lib/libutils.a(snprintf.o)
 .debug_loc     0x000000000000e064      0x1c4 /home/rahulmahadev/hikey_optee/optee_os/out/arm-plat-hikey/export-ta_arm64/lib/libutils.a(memcmp.o)
 .debug_loc     0x000000000000e228      0x147 /home/rahulmahadev/hikey_optee/optee_os/out/arm-plat-hikey/export-ta_arm64/lib/libutils.a(memcpy.o)
 .debug_loc     0x000000000000e36f      0x273 /home/rahulmahadev/hikey_optee/optee_os/out/arm-plat-hikey/export-ta_arm64/lib/libutils.a(memmove.o)
 .debug_loc     0x000000000000e5e2       0xda /home/rahulmahadev/hikey_optee/optee_os/out/arm-plat-hikey/export-ta_arm64/lib/libutils.a(memset.o)
 .debug_loc     0x000000000000e6bc       0x8b /home/rahulmahadev/hikey_optee/optee_os/out/arm-plat-hikey/export-ta_arm64/lib/libutils.a(strcmp.o)
 .debug_loc     0x000000000000e747       0x6f /home/rahulmahadev/hikey_optee/optee_os/out/arm-plat-hikey/export-ta_arm64/lib/libutils.a(strlen.o)
 .debug_loc     0x000000000000e7b6     0x1d85 /home/rahulmahadev/hikey_optee/optee_os/out/arm-plat-hikey/export-ta_arm64/lib/libutils.a(snprintk.o)
 .debug_loc     0x000000000001053b      0x1b5 /home/rahulmahadev/hikey_optee/optee_os/out/arm-plat-hikey/export-ta_arm64/lib/libutils.a(strlcpy.o)
 .debug_loc     0x00000000000106f0      0x1fa /home/rahulmahadev/hikey_optee/optee_os/out/arm-plat-hikey/export-ta_arm64/lib/libutils.a(buf_compare_ct.o)
 .debug_loc     0x00000000000108ea      0x585 /home/rahulmahadev/hikey_optee/optee_os/out/arm-plat-hikey/export-ta_arm64/lib/libutils.a(trace.o)
 .debug_loc     0x0000000000010e6f      0x10f /home/rahulmahadev/hikey_optee/optee_os/out/arm-plat-hikey/export-ta_arm64/lib/libutils.a(memchr.o)
 .debug_loc     0x0000000000010f7e      0x458 /home/rahulmahadev/hikey_optee/optee_os/out/arm-plat-hikey/export-ta_arm64/lib/libmpa.a(mpa_misc.o)
 .debug_loc     0x00000000000113d6      0xb53 /home/rahulmahadev/hikey_optee/optee_os/out/arm-plat-hikey/export-ta_arm64/lib/libmpa.a(mpa_montgomery.o)
 .debug_loc     0x0000000000011f29      0x4f3 /home/rahulmahadev/hikey_optee/optee_os/out/arm-plat-hikey/export-ta_arm64/lib/libmpa.a(mpa_primetest.o)
 .debug_loc     0x000000000001241c      0x115 /home/rahulmahadev/hikey_optee/optee_os/out/arm-plat-hikey/export-ta_arm64/lib/libmpa.a(mpa_conv.o)
 .debug_loc     0x0000000000012531      0xbcc /home/rahulmahadev/hikey_optee/optee_os/out/arm-plat-hikey/export-ta_arm64/lib/libmpa.a(mpa_div.o)
 .debug_loc     0x00000000000130fd      0xf0f /home/rahulmahadev/hikey_optee/optee_os/out/arm-plat-hikey/export-ta_arm64/lib/libmpa.a(mpa_gcd.o)
 .debug_loc     0x000000000001400c      0x523 /home/rahulmahadev/hikey_optee/optee_os/out/arm-plat-hikey/export-ta_arm64/lib/libmpa.a(mpa_mem_static.o)
 .debug_loc     0x000000000001452f      0xbcc /home/rahulmahadev/hikey_optee/optee_os/out/arm-plat-hikey/export-ta_arm64/lib/libmpa.a(mpa_mul.o)
 .debug_loc     0x00000000000150fb      0x1b1 /home/rahulmahadev/hikey_optee/optee_os/out/arm-plat-hikey/export-ta_arm64/lib/libmpa.a(mpa_random.o)
 .debug_loc     0x00000000000152ac      0x78f /home/rahulmahadev/hikey_optee/optee_os/out/arm-plat-hikey/export-ta_arm64/lib/libmpa.a(mpa_shift.o)
 .debug_loc     0x0000000000015a3b     0x1c6c /home/rahulmahadev/hikey_optee/optee_os/out/arm-plat-hikey/export-ta_arm64/lib/libmpa.a(mpa_addsub.o)
 .debug_loc     0x00000000000176a7      0x4bf /home/rahulmahadev/hikey_optee/optee_os/out/arm-plat-hikey/export-ta_arm64/lib/libmpa.a(mpa_cmp.o)
 .debug_loc     0x0000000000017b66      0x40c /home/rahulmahadev/hikey_optee/optee_os/out/arm-plat-hikey/export-ta_arm64/lib/libmpa.a(mpa_expmod.o)
 .debug_loc     0x0000000000017f72      0x109 /home/rahulmahadev/hikey_optee/optee_os/out/arm-plat-hikey/export-ta_arm64/lib/libmpa.a(mpa_init.o)
 .debug_loc     0x000000000001807b     0x15b1 /home/rahulmahadev/hikey_optee/optee_os/out/arm-plat-hikey/export-ta_arm64/lib/libmpa.a(mpa_io.o)
 .debug_loc     0x000000000001962c      0x74b /home/rahulmahadev/hikey_optee/optee_os/out/arm-plat-hikey/export-ta_arm64/lib/libmpa.a(mpa_modulus.o)
