
/home/rahulmahadev/hikey_optee/neo/ta/out/11111111-1111-1111-1111111111111111.elf:     file format elf64-littleaarch64
/home/rahulmahadev/hikey_optee/neo/ta/out/11111111-1111-1111-1111111111111111.elf
architecture: aarch64, flags 0x00000150:
HAS_SYMS, DYNAMIC, D_PAGED
start address 0x0000000000000020

Program Header:
    LOAD off    0x0000000000010000 vaddr 0x0000000000000000 paddr 0x0000000000000000 align 2**16
         filesz 0x000000000000e330 memsz 0x000000000000e330 flags rwx
    LOAD off    0x000000000001f000 vaddr 0x000000000000f000 paddr 0x000000000000f000 align 2**16
         filesz 0x000000000000011c memsz 0x000000000000ad0d flags rw-
    LOAD off    0x000000000002a000 vaddr 0x000000000001a000 paddr 0x000000000001a000 align 2**16
         filesz 0x000000000000051c memsz 0x000000000000051c flags rw-
 DYNAMIC off    0x000000000002a000 vaddr 0x000000000001a000 paddr 0x000000000001a000 align 2**3
         filesz 0x00000000000000f0 memsz 0x00000000000000f0 flags rw-

Dynamic Section:
  HASH                 0x000000000001a470
  STRTAB               0x000000000001a330
  SYMTAB               0x000000000001a0f0
  STRSZ                0x000000000000013b
  SYMENT               0x0000000000000018
  DEBUG                0x0000000000000000
  RELA                 0x000000000000dec8
  RELASZ               0x00000000000003c0
  RELAENT              0x0000000000000018
  RELACOUNT            0x0000000000000017
private flags = 0:

Sections:
Idx Name          Size      VMA               LMA               File off  Algn
  0 .ta_head      00000020  0000000000000000  0000000000000000  00010000  2**3
                  CONTENTS, ALLOC, LOAD, DATA
  1 .text         0000c190  0000000000000020  0000000000000020  00010020  2**2
                  CONTENTS, ALLOC, LOAD, READONLY, CODE
  2 .rodata       00001d16  000000000000c1b0  000000000000c1b0  0001c1b0  2**3
                  CONTENTS, ALLOC, LOAD, READONLY, DATA
  3 .dynsym       00000240  000000000001a0f0  000000000001a0f0  0002a0f0  2**3
                  CONTENTS, ALLOC, LOAD, READONLY, DATA
  4 .rela.dyn     00000228  000000000000dec8  000000000000dec8  0001dec8  2**3
                  CONTENTS, ALLOC, LOAD, READONLY, DATA
  5 .got          000000a8  000000000000e0f0  000000000000e0f0  0001e0f0  2**3
                  CONTENTS, ALLOC, LOAD, DATA
  6 .rela.got     00000198  000000000000e198  000000000000e198  0001e198  2**3
                  CONTENTS, ALLOC, LOAD, READONLY, DATA
  7 .data         0000011c  000000000000f000  000000000000f000  0001f000  2**3
                  CONTENTS, ALLOC, LOAD, DATA
  8 .bss          0000abed  000000000000f120  000000000000f120  0001f11c  2**3
                  ALLOC
  9 .dynamic      000000f0  000000000001a000  000000000001a000  0002a000  2**3
                  CONTENTS, ALLOC, LOAD, DATA
 10 .dynstr       0000013b  000000000001a330  000000000001a330  0002a330  2**0
                  CONTENTS, ALLOC, LOAD, READONLY, DATA
 11 .hash         000000ac  000000000001a470  000000000001a470  0002a470  2**3
                  CONTENTS, ALLOC, LOAD, READONLY, DATA
 12 .debug_info   0001717a  0000000000000000  0000000000000000  0002a51c  2**0
                  CONTENTS, READONLY, DEBUGGING
 13 .debug_abbrev 000048ed  0000000000000000  0000000000000000  00041696  2**0
                  CONTENTS, READONLY, DEBUGGING
 14 .debug_aranges 00001640  0000000000000000  0000000000000000  00045f90  2**4
                  CONTENTS, READONLY, DEBUGGING
 15 .debug_ranges 00001d20  0000000000000000  0000000000000000  000475d0  2**0
                  CONTENTS, READONLY, DEBUGGING
 16 .debug_line   00005538  0000000000000000  0000000000000000  000492f0  2**0
                  CONTENTS, READONLY, DEBUGGING
 17 .debug_str    0000347c  0000000000000000  0000000000000000  0004e828  2**0
                  CONTENTS, READONLY, DEBUGGING
 18 .comment      00000063  0000000000000000  0000000000000000  00051ca4  2**0
                  CONTENTS, READONLY
 19 .debug_frame  000031f0  0000000000000000  0000000000000000  00051d08  2**3
                  CONTENTS, READONLY, DEBUGGING
 20 .debug_loc    00019d77  0000000000000000  0000000000000000  00054ef8  2**0
                  CONTENTS, READONLY, DEBUGGING
SYMBOL TABLE:
0000000000000000 l    d  .ta_head	0000000000000000 .ta_head
0000000000000020 l    d  .text	0000000000000000 .text
000000000000c1b0 l    d  .rodata	0000000000000000 .rodata
000000000000dec8 l    d  .rela.dyn	0000000000000000 .rela.dyn
000000000000e0f0 l    d  .got	0000000000000000 .got
000000000000e198 l    d  .rela.got	0000000000000000 .rela.got
000000000000f000 l    d  .data	0000000000000000 .data
000000000000f120 l    d  .bss	0000000000000000 .bss
000000000001a000 l    d  .dynamic	0000000000000000 .dynamic
000000000001a0f0 l    d  .dynsym	0000000000000000 .dynsym
000000000001a330 l    d  .dynstr	0000000000000000 .dynstr
000000000001a470 l    d  .hash	0000000000000000 .hash
0000000000000000 l    d  .debug_info	0000000000000000 .debug_info
0000000000000000 l    d  .debug_abbrev	0000000000000000 .debug_abbrev
0000000000000000 l    d  .debug_aranges	0000000000000000 .debug_aranges
0000000000000000 l    d  .debug_ranges	0000000000000000 .debug_ranges
0000000000000000 l    d  .debug_line	0000000000000000 .debug_line
0000000000000000 l    d  .debug_str	0000000000000000 .debug_str
0000000000000000 l    d  .comment	0000000000000000 .comment
0000000000000000 l    d  .debug_frame	0000000000000000 .debug_frame
0000000000000000 l    d  .debug_loc	0000000000000000 .debug_loc
0000000000000000 l    df *ABS*	0000000000000000 user_ta_header.c
000000000000d8d4 l     O .rodata	0000000000000001 __compound_literal.0
000000000000d8d5 l     O .rodata	0000000000000001 __compound_literal.1
000000000000d8d6 l     O .rodata	0000000000000001 __compound_literal.2
000000000000d8b0 l     O .rodata	0000000000000004 __compound_literal.3
000000000000d8b4 l     O .rodata	0000000000000004 __compound_literal.4
000000000000d8b8 l     O .rodata	0000000000000004 __compound_literal.5
0000000000000000 l    df *ABS*	0000000000000000 ta.c
0000000000000070 l     F .text	00000000000001d0 dump_hash
0000000000000240 l     F .text	0000000000000100 call_gp_sha1_interface
000000000000034c l     F .text	0000000000000184 set_params
000000000000c210 l     O .rodata	0000000000000019 __func__.2226
00000000000005d0 l     F .text	0000000000000254 check_answer
000000000000c230 l     O .rodata	000000000000000d __func__.2237
0000000000000824 l     F .text	00000000000000e0 start_quiz
0000000000000000 l    df *ABS*	0000000000000000 tee_api.c
000000000000c330 l     O .rodata	0000000000000013 __func__.2607
000000000000c348 l     O .rodata	0000000000000012 __func__.2669
000000000000c360 l     O .rodata	0000000000000018 __func__.2684
000000000000c378 l     O .rodata	0000000000000018 __func__.2679
000000000000c390 l     O .rodata	0000000000000014 __func__.2619
000000000000c3a8 l     O .rodata	000000000000000f __func__.2689
000000000000c3b8 l     O .rodata	0000000000000015 __func__.2636
000000000000c3d0 l     O .rodata	0000000000000017 __func__.2630
000000000000c3e8 l     O .rodata	0000000000000009 __func__.2674
0000000000017140 l     O .bss	0000000000000008 tee_api_instance_data
0000000000000000 l    df *ABS*	0000000000000000 tee_api_objects.c
000000000000c3f8 l     O .rodata	000000000000001c __func__.2510
000000000000c418 l     O .rodata	0000000000000012 __func__.2468
000000000000c430 l     O .rodata	0000000000000013 __func__.2474
000000000000c448 l     O .rodata	0000000000000010 __func__.2515
000000000000c458 l     O .rodata	0000000000000018 __func__.2481
000000000000c470 l     O .rodata	000000000000001c __func__.2659
000000000000c490 l     O .rodata	000000000000001c __func__.2523
000000000000c4b0 l     O .rodata	0000000000000019 __func__.2487
000000000000c4d0 l     O .rodata	0000000000000013 __func__.2669
000000000000c4e8 l     O .rodata	0000000000000018 __func__.2529
000000000000c500 l     O .rodata	0000000000000019 __func__.2535
000000000000c520 l     O .rodata	0000000000000014 __func__.2677
000000000000c538 l     O .rodata	000000000000001d __func__.2498
000000000000c558 l     O .rodata	0000000000000017 __func__.2684
000000000000c570 l     O .rodata	000000000000001c __func__.2544
000000000000c590 l     O .rodata	0000000000000015 __func__.2551
000000000000c5a8 l     O .rodata	0000000000000013 __func__.2698
000000000000c5c0 l     O .rodata	0000000000000017 __func__.2558
000000000000c5d8 l     O .rodata	0000000000000019 __func__.2565
000000000000c5f8 l     O .rodata	0000000000000024 __func__.2649
000000000000c620 l     O .rodata	000000000000001b __func__.2609
000000000000c640 l     O .rodata	000000000000001a __func__.2574
000000000000c660 l     O .rodata	0000000000000010 __func__.2583
000000000000c670 l     O .rodata	0000000000000024 __func__.2619
000000000000c698 l     O .rodata	0000000000000023 __func__.2614
000000000000c6c0 l     O .rodata	000000000000001b __func__.2627
000000000000c6e0 l     O .rodata	0000000000000027 __func__.2633
000000000000c708 l     O .rodata	0000000000000019 __func__.2594
000000000000c728 l     O .rodata	0000000000000023 __func__.2638
000000000000c750 l     O .rodata	0000000000000024 __func__.2643
0000000000000000 l    df *ABS*	0000000000000000 tee_api_operations.c
00000000000022e0 l     F .text	000000000000006c init_hash_operation
000000000000234c l     F .text	0000000000000244 tee_buffer_update
000000000000c778 l     O .rodata	0000000000000014 __func__.2792
000000000000c790 l     O .rodata	0000000000000013 __func__.2648
000000000000c7a8 l     O .rodata	000000000000000d __func__.2834
000000000000c7b8 l     O .rodata	0000000000000015 __func__.2668
000000000000c7d0 l     O .rodata	0000000000000014 __func__.2657
000000000000c7e8 l     O .rodata	0000000000000012 __func__.2701
000000000000c800 l     O .rodata	0000000000000016 __func__.2523
000000000000c818 l     O .rodata	0000000000000013 __func__.2851
000000000000c830 l     O .rodata	000000000000000f __func__.2708
000000000000c840 l     O .rodata	0000000000000012 __func__.2674
000000000000c858 l     O .rodata	0000000000000014 __func__.2683
000000000000c870 l     O .rodata	0000000000000019 __func__.2906
000000000000c890 l     O .rodata	0000000000000011 __func__.2690
000000000000c8a8 l     O .rodata	0000000000000013 __func__.2867
000000000000c8c0 l     O .rodata	0000000000000016 __func__.2880
000000000000c8d8 l     O .rodata	0000000000000014 __func__.2804
000000000000c8f0 l     O .rodata	000000000000001b __func__.2918
000000000000c910 l     O .rodata	0000000000000012 __func__.2742
000000000000c928 l     O .rodata	000000000000000e __func__.2928
000000000000c938 l     O .rodata	0000000000000016 __func__.2893
000000000000c950 l     O .rodata	0000000000000013 __func__.2934
000000000000c968 l     O .rodata	0000000000000011 __func__.2754
000000000000c980 l     O .rodata	0000000000000012 __func__.2623
000000000000c998 l     O .rodata	0000000000000012 __func__.2768
000000000000c9b0 l     O .rodata	0000000000000015 __func__.2628
000000000000c9c8 l     O .rodata	000000000000000c __func__.2774
000000000000c9d8 l     O .rodata	000000000000000b __func__.2815
000000000000c9e8 l     O .rodata	000000000000000e __func__.2781
000000000000c9f8 l     O .rodata	0000000000000010 __func__.2822
000000000000ca08 l     O .rodata	000000000000001d __func__.2643
0000000000000000 l    df *ABS*	0000000000000000 tee_api_panic.c
0000000000000000 l    df *ABS*	0000000000000000 user_ta_entry.c
00000000000053b8 l     F .text	0000000000000030 ta_header_get_session
00000000000053e8 l     F .text	000000000000007c ta_header_remove_session
0000000000005464 l     F .text	0000000000000014 ta_header_save_params.part.0
0000000000019d0c l     O .bss	0000000000000001 context_init
0000000000019d08 l     O .bss	0000000000000004 ta_ref_count
000000000000ca28 l     O .rodata	000000000000000d __func__.2641
000000000000f0d8 l     O .data	0000000000000010 ta_sessions
0000000000000000 l    df *ABS*	0000000000000000 tee_user_mem.c
00000000000056c4 l     F .text	0000000000000058 print_buf
000000000000571c l     F .text	00000000000000e4 check_elem
000000000000ca38 l     O .rodata	0000000000000013 __func__.2216
000000000000ca50 l     O .rodata	0000000000000012 __func__.2233
000000000000ca68 l     O .rodata	0000000000000018 __func__.2241
0000000000017190 l     O .bss	0000000000000010 global_stats
000000000000ca80 l     O .rodata	0000000000000014 __func__.2246
000000000000ca98 l     O .rodata	000000000000000b __func__.2197
000000000000caa8 l     O .rodata	000000000000000f __func__.2192
00000000000171a0 l     O .bss	0000000000000008 heap_level
0000000000000000 l    df *ABS*	0000000000000000 assert.c
000000000000cab8 l     O .rodata	000000000000000c __func__.2410
0000000000000000 l    df *ABS*	0000000000000000 tee_api_arith.c
0000000000005c9c l     F .text	0000000000000050 TEE_BigInt_Panic
00000000000171a8 l     O .bss	0000000000001b40 mempool_u32
000000000000cac8 l     O .rodata	0000000000000011 __func__.2377
0000000000000000 l    df *ABS*	0000000000000000 utee_misc.c
0000000000000000 l    df *ABS*	0000000000000000 trace_ext.c
000000000000cae0 l     O .rodata	0000000000000011 failed.1944
000000000000caf8 l     O .rodata	000000000000000a prefix.1943
0000000000000000 l    df *ABS*	0000000000000000 bget_malloc.c
00000000000064f8 l     F .text	00000000000000f0 create_free_block
0000000000018ce8 l     O .bss	0000000000000008 malloc_pool
000000000000f0f8 l     O .data	0000000000000020 freelist
0000000000018cf0 l     O .bss	0000000000000008 malloc_pool_len
0000000000000000 l    df *ABS*	0000000000000000 snprintf.c
0000000000000000 l    df *ABS*	0000000000000000 memcmp.c
0000000000000000 l    df *ABS*	0000000000000000 memcpy.c
0000000000000000 l    df *ABS*	0000000000000000 memmove.c
0000000000000000 l    df *ABS*	0000000000000000 memset.c
0000000000000000 l    df *ABS*	0000000000000000 strcmp.c
0000000000000000 l    df *ABS*	0000000000000000 strlen.c
0000000000000000 l    df *ABS*	0000000000000000 snprintk.c
000000000000cb08 l     O .rodata	0000000000000011 HEXDIGITS
000000000000cb20 l     O .rodata	0000000000000011 hexdigits
0000000000000000 l    df *ABS*	0000000000000000 strlcpy.c
0000000000000000 l    df *ABS*	0000000000000000 buf_compare_ct.c
0000000000000000 l    df *ABS*	0000000000000000 trace.c
000000000000cb38 l     O .rodata	0000000000000014 lvl_strs.1494
0000000000000000 l    df *ABS*	0000000000000000 memchr.c
0000000000000000 l    df *ABS*	0000000000000000 mpa_misc.c
0000000000000000 l    df *ABS*	0000000000000000 mpa_montgomery.c
0000000000000000 l    df *ABS*	0000000000000000 mpa_primetest.c
000000000000cb80 l     O .rodata	0000000000000008 const_miller_rabin_proof_limit
000000000000cb90 l     O .rodata	0000000000000008 const_two
000000000000cba0 l     O .rodata	0000000000000008 const_small_prime_factors
000000000000cc58 l     O .rodata	000000000000001c proof_a.1863
0000000000000000 l    df *ABS*	0000000000000000 mpa_conv.c
0000000000000000 l    df *ABS*	0000000000000000 mpa_div.c
0000000000000000 l    df *ABS*	0000000000000000 mpa_gcd.c
0000000000009450 l     F .text	0000000000000088 __mpa_divby2
00000000000094d8 l     F .text	000000000000017c __mpa_gcd.part.0
0000000000009654 l     F .text	000000000000038c __mpa_egcd
0000000000000000 l    df *ABS*	0000000000000000 mpa_mem_static.c
0000000000000000 l    df *ABS*	0000000000000000 mpa_mul.c
0000000000000000 l    df *ABS*	0000000000000000 mpa_random.c
0000000000018cf8 l     O .bss	0000000000000008 get_rng_array
0000000000000000 l    df *ABS*	0000000000000000 mpa_shift.c
0000000000000000 l    df *ABS*	0000000000000000 mpa_addsub.c
0000000000000000 l    df *ABS*	0000000000000000 mpa_cmp.c
0000000000000000 l    df *ABS*	0000000000000000 mpa_expmod.c
0000000000000000 l    df *ABS*	0000000000000000 mpa_init.c
0000000000000000 l    df *ABS*	0000000000000000 mpa_io.c
000000000000b3f0 l     F .text	0000000000000050 __mpa_word_to_hexstr
000000000000b440 l     F .text	0000000000000130 __mpa_mpanum_to_hexstr
000000000000b570 l     F .text	000000000000003c __mpa_isspace
0000000000018d00 l     O .bss	0000000000001002 buf.1900
0000000000000000 l    df *ABS*	0000000000000000 mpa_modulus.c
0000000000000000 l    df *ABS*	0000000000000000 utee_syscalls_a64.o
0000000000000000 l    df *ABS*	0000000000000000 
000000000001a000 l     O *ABS*	0000000000000000 _DYNAMIC
000000000000e108 l     O *ABS*	0000000000000000 _GLOBAL_OFFSET_TABLE_
000000000000c18c g       .text	0000000000000000 utee_se_channel_transmit
000000000000b35c g     F .text	0000000000000020 mpa_init_static
0000000000001610 g     F .text	000000000000015c TEE_PopulateTransientObject
0000000000008154 g     F .text	0000000000000050 mpa_copy
00000000000062ac g     F .text	000000000000001c TEE_BigIntConvertToFMM
0000000000006188 g     F .text	000000000000000c TEE_BigIntSquareMod
0000000000005e28 g     F .text	0000000000000004 TEE_BigIntShiftRight
0000000000008a7c g     F .text	0000000000000078 mpa_get_S32
00000000000081d4 g     F .text	0000000000000048 mpa_highest_bit_index
000000000000c054 g       .text	0000000000000000 utee_storage_obj_create
000000000000c168 g       .text	0000000000000000 utee_se_session_close
000000000000f120 g     O .bss	0000000000000008 questions
000000000000be44 g       .text	0000000000000000 utee_return
000000000000377c g     F .text	00000000000000c0 TEE_DigestUpdate
0000000000006b08 g     F .text	0000000000000004 malloc_reset_max_allocated
000000000000c108 g       .text	0000000000000000 utee_se_service_get_readers
0000000000000f94 g     F .text	0000000000000008 TEE_Realloc
0000000000008b70 g     F .text	000000000000011c __mpa_div_q_r_internal_word
0000000000005a8c g     F .text	00000000000000c0 tee_user_mem_realloc
00000000000033b0 g     F .text	00000000000001c4 TEE_SetOperationKey2
0000000000006b1c g     F .text	0000000000000038 malloc_get_heap_size
000000000000abc0 g     F .text	00000000000001a8 mpa_sub
00000000000063f8 g     F .text	0000000000000100 printf
0000000000005944 g     F .text	0000000000000148 tee_user_mem_free
000000000000be50 g       .text	0000000000000000 utee_log
000000000000d8cc g     O .rodata	0000000000000004 NR_STORED_PRIMES
000000000000176c g     F .text	000000000000009c TEE_InitRefAttribute
0000000000000b54 g     F .text	00000000000000ec TEE_InvokeTACommand
0000000000008260 g     F .text	000000000000001c mpa_can_hold
0000000000009eb0 g     F .text	000000000000009c __mpa_abs_mul_word
0000000000004470 g     F .text	00000000000001a8 TEE_AEEncryptFinal
000000000000861c g     F .text	000000000000007c mpa_montgomery_mul
0000000000007dbc g     F .text	0000000000000058 vsnprintk
000000000000827c g     F .text	000000000000000c mpa_parity
00000000000071c0 g     F .text	0000000000000050 memmove
000000000000a738 g     F .text	0000000000000020 __mpa_full_adder_ackum
00000000000070b4 g     F .text	0000000000000060 snprintf
0000000000005e24 g     F .text	0000000000000004 TEE_BigIntCmpS32
0000000000001808 g     F .text	000000000000009c TEE_InitValueAttribute
0000000000005e60 g     F .text	000000000000000c TEE_BigIntAdd
000000000000c248 g     O .rodata	0000000000000008 ta_heap_size
000000000000d8d0 g     O .rodata	0000000000000004 MAX_TABULATED_PRIME
000000000000154c g     F .text	00000000000000c4 TEE_ResetTransientObject
0000000000006374 g     F .text	0000000000000004 utee_malloc
000000000000bf10 g       .text	0000000000000000 utee_cryp_state_alloc
000000000000c018 g       .text	0000000000000000 utee_authenc_enc_final
0000000000009e90 g     F .text	0000000000000020 __mpa_mul_add_word_cum
0000000000003910 g     F .text	000000000000013c TEE_CipherInit
0000000000005e78 g     F .text	0000000000000004 TEE_BigIntNeg
0000000000009338 g     F .text	0000000000000118 mpa_div
0000000000001f24 g     F .text	000000000000008c TEE_StartPersistentObjectEnumerator
000000000000cb70 g     O .rodata	0000000000000008 const_one
000000000000704c g     F .text	0000000000000068 malloc_buffer_overlaps_heap
000000000000b0e8 g     F .text	0000000000000018 __mpa_abs_less_than
0000000000006024 g     F .text	000000000000009c TEE_BigIntSubMod
0000000000004144 g     F .text	00000000000000ec TEE_AEInit
000000000000a1f4 g     F .text	000000000000010c mpa_get_random
0000000000006390 g     F .text	0000000000000004 get_rng_array
0000000000007f18 g     F .text	00000000000001b4 trace_printf
000000000000c0f0 g       .text	0000000000000000 utee_se_service_open
00000000000071a0 g     F .text	0000000000000020 memcpy
000000000000bf28 g       .text	0000000000000000 utee_cryp_state_free
0000000000008124 g     F .text	0000000000000030 mpa_wipe
00000000000062c8 g     F .text	0000000000000094 TEE_BigIntConvertFromFMM
00000000000053a8 g     F .text	0000000000000010 TEE_Panic
000000000000c180 g       .text	0000000000000000 utee_se_channel_get_select_resp
0000000000003574 g     F .text	0000000000000208 TEE_CopyOperation
00000000000063c4 g     F .text	0000000000000034 puts
000000000000635c g     F .text	0000000000000010 TEE_BigIntComputeFMM
0000000000008af4 g     F .text	0000000000000014 mpa_set_word
000000000000a40c g     F .text	0000000000000184 mpa_shift_left
000000000000bf70 g       .text	0000000000000000 utee_cipher_final
000000000000a040 g     F .text	00000000000000e4 mpa_mul
0000000000000f3c g     F .text	0000000000000050 TEE_GetREETime
0000000000001e0c g     F .text	0000000000000080 TEE_AllocatePersistentObjectEnumerator
000000000000f000 g     O .data	00000000000000d8 ta_props
00000000000047c4 g     F .text	0000000000000240 TEE_AsymmetricEncrypt
0000000000006b54 g     F .text	000000000000000c malloc
000000000000bfac g       .text	0000000000000000 utee_cryp_obj_close
000000000000c12c g       .text	0000000000000000 utee_se_reader_open_session
0000000000007114 g     F .text	0000000000000058 vsnprintf
0000000000001a60 g     F .text	00000000000000b4 TEE_GenerateKey
000000000000f118 g     O .data	0000000000000004 trace_level
000000000000636c g     F .text	0000000000000008 utee_get_ta_exec_id
0000000000005e20 g     F .text	0000000000000004 TEE_BigIntCmp
0000000000006378 g     F .text	0000000000000004 utee_realloc
000000000000c328 g     O .rodata	0000000000000008 ta_num_props
00000000000069b4 g     F .text	0000000000000098 bgetr
000000000000c00c g       .text	0000000000000000 utee_authenc_update_payload
0000000000003a4c g     F .text	000000000000012c TEE_CipherUpdate
0000000000005dbc g     F .text	0000000000000040 TEE_BigIntConvertToOctetString
0000000000003028 g     F .text	0000000000000188 TEE_GetOperationInfoMultiple
000000000000c1a4 g       .text	0000000000000000 utee_cache_operation
000000000000bff4 g       .text	0000000000000000 utee_authenc_init
0000000000005e2c g     F .text	000000000000001c TEE_BigIntGetBit
000000000000c240 g     O .rodata	0000000000000008 trace_ext_prefix
000000000000a758 g     F .text	00000000000000f8 __mpa_abs_add
0000000000006748 g     F .text	000000000000007c bgetz
0000000000000d4c g     F .text	000000000000000c TEE_GetInstanceData
0000000000000dc0 g     F .text	0000000000000064 TEE_Wait
000000000000be80 g       .text	0000000000000000 utee_nocall
000000000000c0c0 g       .text	0000000000000000 utee_storage_obj_write
0000000000009e2c g     F .text	000000000000004c mpa_free_static_temp_var
0000000000006b14 g     F .text	0000000000000008 malloc_get_allocated
0000000000008698 g     F .text	00000000000003b4 mpa_is_prob_prime
000000000000c198 g       .text	0000000000000000 utee_se_channel_close
000000000000a124 g     F .text	00000000000000c4 mpa_mul_word
0000000000000fa8 g     F .text	0000000000000008 TEE_CacheFlush
0000000000000348 g     F .text	0000000000000004 TA_DestroyEntryPoint
000000000000f128 g     O .bss	0000000000000004 max_qs
0000000000005c60 g     F .text	000000000000002c _assert_log
0000000000005d80 g     F .text	0000000000000014 TEE_BigIntFMMContextSizeInU32
0000000000004060 g     F .text	00000000000000e4 TEE_MACCompareFinal
000000000000000c g       *ABS*	0000000000000000 linker_RW_sections_size
0000000000001d78 g     F .text	0000000000000094 TEE_RenamePersistentObject
000000000000383c g     F .text	00000000000000d4 TEE_DigestDoFinal
0000000000008c8c g     F .text	00000000000006ac __mpa_div_q_r
0000000000005cec g     F .text	000000000000002c _TEE_MathAPI_Init
000000000000c0a8 g       .text	0000000000000000 utee_storage_next_enum
000000000000f140 g     O .bss	0000000000008000 ta_heap
0000000000006194 g     F .text	000000000000006c TEE_BigIntInvMod
00000000000005c0 g     F .text	0000000000000010 TA_CloseSessionEntryPoint
0000000000004a04 g     F .text	0000000000000244 TEE_AsymmetricDecrypt
0000000000001b14 g     F .text	00000000000000cc TEE_OpenPersistentObject
000000000000bf1c g       .text	0000000000000000 utee_cryp_state_copy
0000000000000904 g     F .text	000000000000005c TA_InvokeCommandEntryPoint
000000000000b8d8 g     F .text	0000000000000120 mpa_set_oct_str
000000000000c15c g       .text	0000000000000000 utee_se_session_open_channel
000000000000a300 g     F .text	0000000000000098 __mpa_shift_words_left
000000000000bfa0 g       .text	0000000000000000 utee_cryp_obj_alloc
000000000000bf04 g       .text	0000000000000000 utee_set_ta_time
000000000000bf94 g       .text	0000000000000000 utee_cryp_obj_get_attr
00000000000019e4 g     F .text	000000000000007c TEE_CopyObjectAttributes
000000000000830c g     F .text	0000000000000090 __mpa_montgomery_sub_ack
0000000000006b6c g     F .text	0000000000000028 calloc
0000000000000f8c g     F .text	0000000000000008 TEE_Malloc
000000000000bee0 g       .text	0000000000000000 utee_mask_cancellation
000000000000bfb8 g       .text	0000000000000000 utee_cryp_obj_reset
0000000000000d2c g     F .text	0000000000000014 TEE_CheckMemoryAccessRights
000000000000f12c g     O .bss	0000000000000004 score
000000000000ad68 g     F .text	000000000000002c mpa_neg
000000000000cc78 g     O .rodata	0000000000000c38 PRIME_TABLE
000000000000204c g     F .text	000000000000008c TEE_ReadObjectData
00000000000011dc g     F .text	00000000000000c8 TEE_GetObjectBufferAttribute
00000000000004d0 g     F .text	00000000000000f0 TA_OpenSessionEntryPoint
000000000000f130 g     O .bss	0000000000000008 answers
00000000000099e0 g     F .text	000000000000011c mpa_gcd
00000000000081a4 g     F .text	0000000000000030 mpa_abs
000000000000c09c g       .text	0000000000000000 utee_storage_start_enum
0000000000002590 g     F .text	0000000000000090 TEE_FreeOperation
000000000000b5b4 g     F .text	00000000000002ac mpa_set_str
000000000000c06c g       .text	0000000000000000 utee_storage_obj_rename
0000000000017148 g     O .bss	0000000000000004 ta_param_types
0000000000000fb8 g     F .text	0000000000000058 __utee_from_attr
0000000000006284 g     F .text	0000000000000028 TEE_BigIntIsProbablePrime
0000000000009e1c g     F .text	0000000000000010 mpa_alloc_static_temp_var
0000000000001cb4 g     F .text	0000000000000078 TEE_CloseAndDeletePersistentObject1
000000000000a1e8 g     F .text	000000000000000c mpa_set_random_generator
000000000000be8c g       .text	0000000000000000 utee_get_property
0000000000004618 g     F .text	00000000000001ac TEE_AEDecryptFinal
0000000000005d18 g     F .text	0000000000000004 TEE_BigIntInit
000000000000f138 g     O .bss	0000000000000004 start_time
0000000000000d58 g     F .text	0000000000000008 TEE_MemMove
0000000000005d94 g     F .text	0000000000000028 TEE_BigIntConvertFromOctetString
0000000000003d30 g     F .text	00000000000000f4 TEE_MACInit
0000000000004c48 g     F .text	0000000000000214 TEE_AsymmetricSignDigest
00000000000080d0 g     F .text	000000000000002c memchr
0000000000000c6c g     F .text	0000000000000060 TEE_UnmaskCancellation
0000000000001010 g     F .text	0000000000000080 TEE_GetObjectInfo
000000000000bca4 g     F .text	0000000000000084 mpa_mul_mod
000000000000c060 g       .text	0000000000000000 utee_storage_obj_del
0000000000004354 g     F .text	000000000000011c TEE_AEUpdate
000000000000c0d8 g       .text	0000000000000000 utee_storage_obj_seek
0000000000001488 g     F .text	00000000000000c4 TEE_FreeTransientObject
00000000000084d0 g     F .text	000000000000014c mpa_compute_fmm_context
000000000000bf40 g       .text	0000000000000000 utee_hash_update
0000000000009cf8 g     F .text	0000000000000020 mpa_init_scratch_mem_sync
0000000000002f98 g     F .text	0000000000000090 TEE_GetOperationInfo
0000000000005ef4 g     F .text	0000000000000094 TEE_BigIntMod
000000000000c174 g       .text	0000000000000000 utee_se_channel_select_next
000000000000bea4 g       .text	0000000000000000 utee_close_ta_session
0000000000005e98 g     F .text	000000000000005c TEE_BigIntDiv
0000000000007e70 g     F .text	0000000000000038 strlcpy
000000000000bf64 g       .text	0000000000000000 utee_cipher_update
00000000000010f8 g     F .text	000000000000006c TEE_RestrictObjectUsage1
000000000000c150 g       .text	0000000000000000 utee_se_session_get_atr
0000000000006b94 g     F .text	000000000000000c realloc
000000000000a850 g     F .text	00000000000000d0 __mpa_abs_add_ackum
000000000000c03c g       .text	0000000000000000 utee_asymm_verify
0000000000005e7c g     F .text	000000000000000c TEE_BigIntMul
00000000000031b0 g     F .text	00000000000000ec TEE_ResetOperation
0000000000008b08 g     F .text	0000000000000018 mpa_get_word
0000000000000d68 g     F .text	0000000000000008 TEE_MemFill
000000000000716c g     F .text	0000000000000034 memcmp
0000000000006e60 g     F .text	00000000000000c8 malloc_add_pool
0000000000003e24 g     F .text	0000000000000158 TEE_MACUpdate
0000000000007f08 g     F .text	0000000000000010 trace_get_level
000000000000bfe8 g       .text	0000000000000000 utee_cryp_random_number_generate
0000000000001164 g     F .text	0000000000000078 TEE_RestrictObjectUsage
0000000000005d70 g     F .text	0000000000000010 TEE_BigIntFMMSizeInU32
0000000000005d1c g     F .text	0000000000000018 TEE_BigIntInitFMM
000000000000c030 g       .text	0000000000000000 utee_asymm_operate
00000000000013b0 g     F .text	000000000000004c TEE_CloseObject
0000000000005478 g     F .text	000000000000024c __utee_entry
0000000000006200 g     F .text	0000000000000078 TEE_BigIntRelativePrime
000000000000000c g       *ABS*	0000000000000000 linker_RO_sections_size
0000000000006a4c g     F .text	00000000000000bc bpool
0000000000008a4c g     F .text	0000000000000030 mpa_set_S32
000000000000b37c g     F .text	0000000000000074 mpa_init_static_fmm_context
0000000000000c40 g     F .text	000000000000002c TEE_GetCancellationFlag
000000000000c0fc g       .text	0000000000000000 utee_se_service_close
0000000000005800 g     F .text	0000000000000144 tee_user_mem_alloc
000000000000f0e8 g     O .data	0000000000000010 user_mem_head
0000000000000ec4 g     F .text	0000000000000078 TEE_SetTAPersistentTime
000000000000ad94 g     F .text	0000000000000148 mpa_add_word
000000000000c114 g       .text	0000000000000000 utee_se_reader_get_prop
0000000000007210 g     F .text	000000000000001c memset
0000000000000e24 g     F .text	00000000000000a0 TEE_GetTAPersistentTime
0000000000000020 g     F .text	0000000000000050 string_copy
00000000000080cc g     F .text	0000000000000004 dhex_dump
0000000000001be0 g     F .text	00000000000000d4 TEE_CreatePersistentObject
0000000000000ccc g     F .text	0000000000000060 TEE_MaskCancellation
000000000000a714 g     F .text	0000000000000024 __mpa_full_sub
0000000000004230 g     F .text	0000000000000124 TEE_AEUpdateAAD
000000000000c0b4 g       .text	0000000000000000 utee_storage_obj_read
0000000000002164 g     F .text	0000000000000080 TEE_TruncateObjectData
000000000000637c g     F .text	0000000000000010 utee_calloc
000000000000bfc4 g       .text	0000000000000000 utee_cryp_obj_populate
000000000000b100 g     F .text	000000000000006c mpa_cmp
000000000000bd28 g     F .text	000000000000011c mpa_inv_mod
000000000000aedc g     F .text	0000000000000144 mpa_sub_word
0000000000009e78 g     F .text	0000000000000018 __mpa_mul_add_word
000000000000aa24 g     F .text	000000000000019c mpa_add
000000000000b1e4 g     F .text	0000000000000178 mpa_exp_mod
0000000000001090 g     F .text	0000000000000068 TEE_GetObjectInfo1
000000000000a398 g     F .text	0000000000000074 __mpa_shift_words_right
0000000000007ee8 g     F .text	0000000000000020 trace_set_level
000000000000c144 g       .text	0000000000000000 utee_se_session_is_closed
000000000000bf7c g       .text	0000000000000000 utee_cryp_obj_get_info
00000000000012a4 g     F .text	000000000000010c TEE_GetObjectValueAttribute
000000000000329c g     F .text	0000000000000114 TEE_SetOperationKey
000000000000c078 g       .text	0000000000000000 utee_storage_alloc_enum
000000000000c090 g       .text	0000000000000000 utee_storage_reset_enum
000000000000c0cc g       .text	0000000000000000 utee_storage_obj_trunc
000000000000722c g     F .text	0000000000000030 strcmp
000000000000bb84 g     F .text	0000000000000018 mpa_mod
000000000000b0cc g     F .text	000000000000001c __mpa_abs_greater_than
0000000000005e00 g     F .text	0000000000000020 TEE_BigIntConvertToS32
0000000000005e6c g     F .text	000000000000000c TEE_BigIntSub
000000000000bebc g       .text	0000000000000000 utee_get_cancellation_flag
000000000000bf34 g       .text	0000000000000000 utee_hash_init
0000000000000960 g     F .text	0000000000000008 tahead_get_trace_level
0000000000000968 g     F .text	0000000000000080 __utee_from_param
00000000000021e4 g     F .text	00000000000000fc TEE_SeekObjectData
000000000000cb60 g     O .rodata	0000000000000008 Const_1_LShift_Base
00000000000009e8 g     F .text	0000000000000080 __utee_to_param
0000000000006ba0 g     F .text	00000000000002c0 memalign
0000000000003b78 g     F .text	00000000000001b8 TEE_CipherDoFinal
0000000000005dfc g     F .text	0000000000000004 TEE_BigIntConvertFromS32
000000000000bc20 g     F .text	0000000000000084 mpa_sub_mod
000000000000bf88 g       .text	0000000000000000 utee_cryp_obj_restrict_usage
0000000000006f28 g     F .text	0000000000000124 malloc_buffer_is_within_alloced
000000000000bfd0 g       .text	0000000000000000 utee_cryp_obj_copy
000000000000be74 g       .text	0000000000000000 utee_dummy_7args
000000000000a590 g     F .text	0000000000000168 mpa_shift_right
0000000000005d34 g     F .text	000000000000003c TEE_BigIntInitFMMContext
000000000000bfdc g       .text	0000000000000000 utee_cryp_derive_key
000000000000839c g     F .text	0000000000000134 __mpa_montgomery_mul
000000000000b9f8 g     F .text	000000000000018c mpa_get_oct_str
000000000000b16c g     F .text	0000000000000078 mpa_cmp_short
000000000000c024 g       .text	0000000000000000 utee_authenc_dec_final
00000000000020d8 g     F .text	000000000000008c TEE_WriteObjectData
0000000000001ed8 g     F .text	000000000000004c TEE_ResetPersistentObjectEnumerator
000000000000b020 g     F .text	00000000000000ac __mpa_abs_cmp
0000000000005e88 g     F .text	0000000000000010 TEE_BigIntSquare
0000000000000340 g     F .text	0000000000000008 TA_CreateEntryPoint
0000000000007e14 g     F .text	000000000000005c snprintk
0000000000005e48 g     F .text	0000000000000018 TEE_BigIntGetBitCount
00000000000060c0 g     F .text	00000000000000c8 TEE_BigIntMulMod
0000000000005398 g     F .text	0000000000000010 __TEE_Panic
0000000000005060 g     F .text	00000000000002dc TEE_DeriveKey
0000000000017150 g     O .bss	0000000000000040 ta_params
0000000000009f4c g     F .text	00000000000000f4 __mpa_abs_mul
00000000000065e8 g     F .text	0000000000000160 bget
00000000000013fc g     F .text	000000000000008c TEE_AllocateTransientObject
0000000000000f9c g     F .text	0000000000000004 TEE_Free
000000000000c120 g       .text	0000000000000000 utee_se_reader_get_name
0000000000000fb0 g     F .text	0000000000000008 TEE_CacheInvalidate
000000000000bf58 g       .text	0000000000000000 utee_cipher_init
0000000000005c8c g     F .text	0000000000000010 _assert_break
0000000000005f88 g     F .text	000000000000009c TEE_BigIntAddMod
000000000000c084 g       .text	0000000000000000 utee_storage_free_enum
000000000000c000 g       .text	0000000000000000 utee_authenc_update_aad
000000000000821c g     F .text	0000000000000044 mpa_get_bit
0000000000002620 g     F .text	0000000000000978 TEE_AllocateOperation
0000000000009d18 g     F .text	0000000000000020 mpa_init_scratch_mem
000000000000533c g     F .text	000000000000005c TEE_GenerateRandom
0000000000000d60 g     F .text	0000000000000008 TEE_MemCompare
0000000000007278 g     F .text	0000000000000b44 __vsnprintf
0000000000001e8c g     F .text	000000000000004c TEE_FreePersistentObjectEnumerator
000000000000be5c g       .text	0000000000000000 utee_panic
0000000000000a68 g     F .text	0000000000000090 TEE_OpenTASession
0000000000006394 g     F .text	0000000000000028 trace_ext_puts
0000000000005bec g     F .text	0000000000000074 tee_user_mem_garbage
00000000000063bc g     F .text	0000000000000008 trace_ext_get_thread_id
0000000000001d2c g     F .text	000000000000004c TEE_CloseAndDeletePersistentObject
0000000000000fa0 g     F .text	0000000000000008 TEE_CacheClean
000000000000be98 g       .text	0000000000000000 utee_open_ta_session
0000000000007ea8 g     F .text	0000000000000040 buf_compare_ct
0000000000008b20 g     F .text	0000000000000050 __mpa_div_dword
00000000000080fc g     F .text	0000000000000028 __mpa_set_unused_digits_to_zero
000000000000cb50 g     O .rodata	0000000000000008 const_largest_deci_base
000000000000b5ac g     F .text	0000000000000008 mpa_get_str_size
0000000000005b58 g     F .text	0000000000000094 tee_user_mem_check_heap
000000000000000c g       *ABS*	0000000000000000 linker_res_funcs_ZI_sections_size
00000000000018a4 g     F .text	0000000000000140 TEE_CopyObjectAttributes1
000000000000bf4c g       .text	0000000000000000 utee_hash_final
000000000000725c g     F .text	000000000000001c strlen
0000000000006278 g     F .text	000000000000000c TEE_BigIntComputeExtendedGcd
0000000000009afc g     F .text	00000000000001fc mpa_extended_gcd
000000000000bb9c g     F .text	0000000000000084 mpa_add_mod
000000000000000c g       *ABS*	0000000000000000 linker_rel_dyn_GOT
000000000000c048 g       .text	0000000000000000 utee_storage_obj_open
000000000000beb0 g       .text	0000000000000000 utee_invoke_ta_command
000000000000b860 g     F .text	0000000000000078 mpa_get_str
000000000000beec g       .text	0000000000000000 utee_wait
000000000000be68 g       .text	0000000000000000 utee_dummy
000000000000638c g     F .text	0000000000000004 utee_free
0000000000005b4c g     F .text	000000000000000c tee_user_mem_mark_heap
0000000000000d70 g     F .text	0000000000000050 TEE_GetSystemTime
0000000000000000 g     O .ta_head	0000000000000020 ta_head
00000000000067c4 g     F .text	00000000000001f0 brel
0000000000009d38 g     F .text	00000000000000e4 mpa_alloc_static_temp_var_size
000000000000bef8 g       .text	0000000000000000 utee_get_time
0000000000008294 g     F .text	0000000000000078 __mpa_montgomery_mul_add
0000000000000d40 g     F .text	000000000000000c TEE_SetInstanceData
000000000000bed4 g       .text	0000000000000000 utee_unmask_cancellation
000000000000bec8 g       .text	0000000000000000 utee_check_access_rights
000000000000c138 g       .text	0000000000000000 utee_se_reader_close_sessions
0000000000001fb0 g     F .text	000000000000009c TEE_GetNextPersistentObject
000000000000c0e4 g       .text	0000000000000000 utee_cryp_obj_generate_key
0000000000008288 g     F .text	000000000000000c mpa_constant_one
0000000000000af8 g     F .text	000000000000005c TEE_CloseTASession
0000000000004e5c g     F .text	0000000000000204 TEE_AsymmetricVerifyDigest
0000000000006b0c g     F .text	0000000000000008 malloc_get_max_allocated
000000000000f13c g     O .bss	0000000000000004 q_no
000000000000a6f8 g     F .text	000000000000001c __mpa_full_adder
000000000000a920 g     F .text	0000000000000104 __mpa_abs_sub
0000000000006b60 g     F .text	000000000000000c free
0000000000003f7c g     F .text	00000000000000e4 TEE_MACComputeFinal



Disassembly of section .text:

0000000000000020 <string_copy>:
string_copy():
/home/rahulmahadev/hikey_optee/neo/ta/./neolib.h:6
      20:	d10083ff 	sub	sp, sp, #0x20
      24:	f90007e0 	str	x0, [sp,#8]
      28:	f90003e1 	str	x1, [sp]
/home/rahulmahadev/hikey_optee/neo/ta/./neolib.h:8
      2c:	f94007e0 	ldr	x0, [sp,#8]
      30:	f9000fe0 	str	x0, [sp,#24]
/home/rahulmahadev/hikey_optee/neo/ta/./neolib.h:9
      34:	d503201f 	nop
/home/rahulmahadev/hikey_optee/neo/ta/./neolib.h:9 (discriminator 1)
      38:	f94007e0 	ldr	x0, [sp,#8]
      3c:	91000401 	add	x1, x0, #0x1
      40:	f90007e1 	str	x1, [sp,#8]
      44:	f94003e1 	ldr	x1, [sp]
      48:	91000422 	add	x2, x1, #0x1
      4c:	f90003e2 	str	x2, [sp]
      50:	39400021 	ldrb	w1, [x1]
      54:	39000001 	strb	w1, [x0]
      58:	39400000 	ldrb	w0, [x0]
      5c:	6b1f001f 	cmp	w0, wzr
      60:	54fffec1 	b.ne	38 <string_copy+0x18>
/home/rahulmahadev/hikey_optee/neo/ta/./neolib.h:10
      64:	f9400fe0 	ldr	x0, [sp,#24]
/home/rahulmahadev/hikey_optee/neo/ta/./neolib.h:11
      68:	910083ff 	add	sp, sp, #0x20
      6c:	d65f03c0 	ret

0000000000000070 <dump_hash>:
dump_hash():
/home/rahulmahadev/hikey_optee/neo/ta/ta.c:18
      70:	a9b77bfd 	stp	x29, x30, [sp,#-144]!
      74:	910003fd 	mov	x29, sp
      78:	f9000bf3 	str	x19, [sp,#16]
      7c:	f9001fa0 	str	x0, [x29,#56]
      80:	b90037a1 	str	w1, [x29,#52]
      84:	f90017a2 	str	x2, [x29,#40]
      88:	910003e0 	mov	x0, sp
      8c:	aa0003f3 	mov	x19, x0
/home/rahulmahadev/hikey_optee/neo/ta/ta.c:21
      90:	b94037a0 	ldr	w0, [x29,#52]
      94:	93407c01 	sxtw	x1, w0
      98:	d1000421 	sub	x1, x1, #0x1
      9c:	f90043a1 	str	x1, [x29,#128]
      a0:	93407c01 	sxtw	x1, w0
      a4:	aa0103e9 	mov	x9, x1
      a8:	d280000a 	mov	x10, #0x0                   	// #0
      ac:	d37bfd21 	lsr	x1, x9, #59
      b0:	d37be946 	lsl	x6, x10, #5
      b4:	aa060026 	orr	x6, x1, x6
      b8:	d37be925 	lsl	x5, x9, #5
      bc:	93407c01 	sxtw	x1, w0
      c0:	aa0103e7 	mov	x7, x1
      c4:	d2800008 	mov	x8, #0x0                   	// #0
      c8:	d37bfce1 	lsr	x1, x7, #59
      cc:	d37be904 	lsl	x4, x8, #5
      d0:	aa040024 	orr	x4, x1, x4
      d4:	d37be8e3 	lsl	x3, x7, #5
      d8:	93407c00 	sxtw	x0, w0
      dc:	d37ef400 	lsl	x0, x0, #2
      e0:	91000c00 	add	x0, x0, #0x3
      e4:	91003c00 	add	x0, x0, #0xf
      e8:	d344fc00 	lsr	x0, x0, #4
      ec:	d37cec00 	lsl	x0, x0, #4
      f0:	910003e1 	mov	x1, sp
      f4:	cb20603f 	sub	sp, x1, x0
      f8:	910003e0 	mov	x0, sp
      fc:	91000c00 	add	x0, x0, #0x3
     100:	d342fc00 	lsr	x0, x0, #2
     104:	d37ef400 	lsl	x0, x0, #2
     108:	f9003fa0 	str	x0, [x29,#120]
/home/rahulmahadev/hikey_optee/neo/ta/ta.c:22
     10c:	b9008fbf 	str	wzr, [x29,#140]
     110:	1400000c 	b	140 <dump_hash+0xd0>
/home/rahulmahadev/hikey_optee/neo/ta/ta.c:23 (discriminator 3)
     114:	b9808fa0 	ldrsw	x0, [x29,#140]
     118:	f9401fa1 	ldr	x1, [x29,#56]
     11c:	8b000020 	add	x0, x1, x0
     120:	39400000 	ldrb	w0, [x0]
     124:	2a0003e2 	mov	w2, w0
     128:	f9403fa0 	ldr	x0, [x29,#120]
     12c:	b9808fa1 	ldrsw	x1, [x29,#140]
     130:	b8217802 	str	w2, [x0,x1,lsl #2]
/home/rahulmahadev/hikey_optee/neo/ta/ta.c:22 (discriminator 3)
     134:	b9408fa0 	ldr	w0, [x29,#140]
     138:	11000400 	add	w0, w0, #0x1
     13c:	b9008fa0 	str	w0, [x29,#140]
/home/rahulmahadev/hikey_optee/neo/ta/ta.c:22 (discriminator 1)
     140:	b9408fa1 	ldr	w1, [x29,#140]
     144:	b94037a0 	ldr	w0, [x29,#52]
     148:	6b00003f 	cmp	w1, w0
     14c:	54fffe4b 	b.lt	114 <dump_hash+0xa4>
/home/rahulmahadev/hikey_optee/neo/ta/ta.c:26
     150:	b9008fbf 	str	wzr, [x29,#140]
     154:	14000026 	b	1ec <dump_hash+0x17c>
/home/rahulmahadev/hikey_optee/neo/ta/ta.c:29
     158:	f9403fa0 	ldr	x0, [x29,#120]
     15c:	b9808fa1 	ldrsw	x1, [x29,#140]
     160:	b8617800 	ldr	w0, [x0,x1,lsl #2]
     164:	b90077a0 	str	w0, [x29,#116]
/home/rahulmahadev/hikey_optee/neo/ta/ta.c:30
     168:	90000060 	adrp	x0, c000 <utee_authenc_update_aad>
     16c:	9106c001 	add	x1, x0, #0x1b0
     170:	910103a0 	add	x0, x29, #0x40
     174:	b94077a3 	ldr	w3, [x29,#116]
     178:	aa0103e2 	mov	x2, x1
     17c:	d2800081 	mov	x1, #0x4                   	// #4
     180:	94001bcd 	bl	70b4 <snprintf>
/home/rahulmahadev/hikey_optee/neo/ta/ta.c:31
     184:	910103a0 	add	x0, x29, #0x40
     188:	94001c35 	bl	725c <strlen>
     18c:	f100041f 	cmp	x0, #0x1
     190:	540000a1 	b.ne	1a4 <dump_hash+0x134>
/home/rahulmahadev/hikey_optee/neo/ta/ta.c:32
     194:	394103a0 	ldrb	w0, [x29,#64]
     198:	390107a0 	strb	w0, [x29,#65]
/home/rahulmahadev/hikey_optee/neo/ta/ta.c:33
     19c:	52800600 	mov	w0, #0x30                  	// #48
     1a0:	390103a0 	strb	w0, [x29,#64]
/home/rahulmahadev/hikey_optee/neo/ta/ta.c:36 (discriminator 2)
     1a4:	b9408fa0 	ldr	w0, [x29,#140]
     1a8:	0b000000 	add	w0, w0, w0
     1ac:	394103a1 	ldrb	w1, [x29,#64]
     1b0:	93407c00 	sxtw	x0, w0
     1b4:	910243a2 	add	x2, x29, #0x90
     1b8:	8b000040 	add	x0, x2, x0
     1bc:	381b8001 	strb	w1, [x0,#-72]
/home/rahulmahadev/hikey_optee/neo/ta/ta.c:37 (discriminator 2)
     1c0:	b9408fa0 	ldr	w0, [x29,#140]
     1c4:	0b000000 	add	w0, w0, w0
     1c8:	11000400 	add	w0, w0, #0x1
     1cc:	394107a1 	ldrb	w1, [x29,#65]
     1d0:	93407c00 	sxtw	x0, w0
     1d4:	910243a2 	add	x2, x29, #0x90
     1d8:	8b000040 	add	x0, x2, x0
     1dc:	381b8001 	strb	w1, [x0,#-72]
/home/rahulmahadev/hikey_optee/neo/ta/ta.c:26 (discriminator 2)
     1e0:	b9408fa0 	ldr	w0, [x29,#140]
     1e4:	11000400 	add	w0, w0, #0x1
     1e8:	b9008fa0 	str	w0, [x29,#140]
/home/rahulmahadev/hikey_optee/neo/ta/ta.c:26 (discriminator 1)
     1ec:	b9408fa1 	ldr	w1, [x29,#140]
     1f0:	b94037a0 	ldr	w0, [x29,#52]
     1f4:	6b00003f 	cmp	w1, w0
     1f8:	54fffb0b 	b.lt	158 <dump_hash+0xe8>
/home/rahulmahadev/hikey_optee/neo/ta/ta.c:39
     1fc:	f94017a0 	ldr	x0, [x29,#40]
     200:	9100a000 	add	x0, x0, #0x28
     204:	3900001f 	strb	wzr, [x0]
/home/rahulmahadev/hikey_optee/neo/ta/ta.c:40
     208:	3901c3bf 	strb	wzr, [x29,#112]
/home/rahulmahadev/hikey_optee/neo/ta/ta.c:45
     20c:	910123a0 	add	x0, x29, #0x48
     210:	f94017a1 	ldr	x1, [x29,#40]
     214:	94001c06 	bl	722c <strcmp>
     218:	6b1f001f 	cmp	w0, wzr
     21c:	54000061 	b.ne	228 <dump_hash+0x1b8>
/home/rahulmahadev/hikey_optee/neo/ta/ta.c:47
     220:	52800020 	mov	w0, #0x1                   	// #1
     224:	14000002 	b	22c <dump_hash+0x1bc>
/home/rahulmahadev/hikey_optee/neo/ta/ta.c:50
     228:	52800000 	mov	w0, #0x0                   	// #0
     22c:	9100027f 	mov	sp, x19
/home/rahulmahadev/hikey_optee/neo/ta/ta.c:54
     230:	910003bf 	mov	sp, x29
     234:	f9400bf3 	ldr	x19, [sp,#16]
     238:	a8c97bfd 	ldp	x29, x30, [sp],#144
     23c:	d65f03c0 	ret

0000000000000240 <call_gp_sha1_interface>:
call_gp_sha1_interface():
/home/rahulmahadev/hikey_optee/neo/ta/ta.c:61
     240:	a9b87bfd 	stp	x29, x30, [sp,#-128]!
     244:	910003fd 	mov	x29, sp
     248:	f90017a0 	str	x0, [x29,#40]
     24c:	b90027a1 	str	w1, [x29,#36]
     250:	f9000fa2 	str	x2, [x29,#24]
/home/rahulmahadev/hikey_optee/neo/ta/ta.c:62
     254:	f9002fbf 	str	xzr, [x29,#88]
/home/rahulmahadev/hikey_optee/neo/ta/ta.c:63
     258:	52bfffe0 	mov	w0, #0xffff0000            	// #-65536
     25c:	b9007fa0 	str	w0, [x29,#124]
/home/rahulmahadev/hikey_optee/neo/ta/ta.c:66
     260:	f9003bbf 	str	xzr, [x29,#112]
/home/rahulmahadev/hikey_optee/neo/ta/ta.c:68
     264:	f90037bf 	str	xzr, [x29,#104]
/home/rahulmahadev/hikey_optee/neo/ta/ta.c:71
     268:	f90033bf 	str	xzr, [x29,#96]
/home/rahulmahadev/hikey_optee/neo/ta/ta.c:72
     26c:	b9003fbf 	str	wzr, [x29,#60]
/home/rahulmahadev/hikey_optee/neo/ta/ta.c:75
     270:	f94017a0 	ldr	x0, [x29,#40]
     274:	f9003ba0 	str	x0, [x29,#112]
/home/rahulmahadev/hikey_optee/neo/ta/ta.c:76
     278:	b98027a0 	ldrsw	x0, [x29,#36]
     27c:	f90037a0 	str	x0, [x29,#104]
/home/rahulmahadev/hikey_optee/neo/ta/ta.c:79
     280:	910103a0 	add	x0, x29, #0x40
     284:	f90033a0 	str	x0, [x29,#96]
/home/rahulmahadev/hikey_optee/neo/ta/ta.c:80
     288:	52800280 	mov	w0, #0x14                  	// #20
     28c:	b9003fa0 	str	w0, [x29,#60]
/home/rahulmahadev/hikey_optee/neo/ta/ta.c:83
     290:	b9403fa0 	ldr	w0, [x29,#60]
     294:	2a0003e0 	mov	w0, w0
     298:	aa0003e2 	mov	x2, x0
     29c:	52800001 	mov	w1, #0x0                   	// #0
     2a0:	f94033a0 	ldr	x0, [x29,#96]
     2a4:	94001bdb 	bl	7210 <memset>
/home/rahulmahadev/hikey_optee/neo/ta/ta.c:85
     2a8:	910163a0 	add	x0, x29, #0x58
     2ac:	52800003 	mov	w3, #0x0                   	// #0
     2b0:	528000a2 	mov	w2, #0x5                   	// #5
     2b4:	52800041 	mov	w1, #0x2                   	// #2
     2b8:	72aa0001 	movk	w1, #0x5000, lsl #16
     2bc:	940008d9 	bl	2620 <TEE_AllocateOperation>
     2c0:	b9007fa0 	str	w0, [x29,#124]
/home/rahulmahadev/hikey_optee/neo/ta/ta.c:87
     2c4:	b9407fa0 	ldr	w0, [x29,#124]
     2c8:	6b1f001f 	cmp	w0, wzr
     2cc:	54000040 	b.eq	2d4 <call_gp_sha1_interface+0x94>
/home/rahulmahadev/hikey_optee/neo/ta/ta.c:89
     2d0:	14000014 	b	320 <call_gp_sha1_interface+0xe0>
/home/rahulmahadev/hikey_optee/neo/ta/ta.c:96
     2d4:	f9402fa0 	ldr	x0, [x29,#88]
     2d8:	f94037a1 	ldr	x1, [x29,#104]
     2dc:	2a0103e2 	mov	w2, w1
     2e0:	9100f3a1 	add	x1, x29, #0x3c
     2e4:	aa0103e4 	mov	x4, x1
     2e8:	f94033a3 	ldr	x3, [x29,#96]
     2ec:	f9403ba1 	ldr	x1, [x29,#112]
     2f0:	94000d53 	bl	383c <TEE_DigestDoFinal>
     2f4:	b9007fa0 	str	w0, [x29,#124]
/home/rahulmahadev/hikey_optee/neo/ta/ta.c:99
     2f8:	b9407fa0 	ldr	w0, [x29,#124]
     2fc:	6b1f001f 	cmp	w0, wzr
     300:	54000040 	b.eq	308 <call_gp_sha1_interface+0xc8>
/home/rahulmahadev/hikey_optee/neo/ta/ta.c:101
     304:	14000007 	b	320 <call_gp_sha1_interface+0xe0>
/home/rahulmahadev/hikey_optee/neo/ta/ta.c:112
     308:	b9403fa0 	ldr	w0, [x29,#60]
     30c:	f9400fa2 	ldr	x2, [x29,#24]
     310:	2a0003e1 	mov	w1, w0
     314:	f94033a0 	ldr	x0, [x29,#96]
     318:	97ffff56 	bl	70 <dump_hash>
     31c:	14000007 	b	338 <call_gp_sha1_interface+0xf8>
/home/rahulmahadev/hikey_optee/neo/ta/ta.c:115
     320:	f9402fa0 	ldr	x0, [x29,#88]
     324:	eb1f001f 	cmp	x0, xzr
     328:	54000060 	b.eq	334 <call_gp_sha1_interface+0xf4>
/home/rahulmahadev/hikey_optee/neo/ta/ta.c:116
     32c:	f9402fa0 	ldr	x0, [x29,#88]
     330:	94000898 	bl	2590 <TEE_FreeOperation>
/home/rahulmahadev/hikey_optee/neo/ta/ta.c:118
     334:	52800000 	mov	w0, #0x0                   	// #0
/home/rahulmahadev/hikey_optee/neo/ta/ta.c:119 (discriminator 1)
     338:	a8c87bfd 	ldp	x29, x30, [sp],#128
     33c:	d65f03c0 	ret

0000000000000340 <TA_CreateEntryPoint>:
TA_CreateEntryPoint():
/home/rahulmahadev/hikey_optee/neo/ta/ta.c:127
     340:	52800000 	mov	w0, #0x0                   	// #0
/home/rahulmahadev/hikey_optee/neo/ta/ta.c:128
     344:	d65f03c0 	ret

0000000000000348 <TA_DestroyEntryPoint>:
TA_DestroyEntryPoint():
/home/rahulmahadev/hikey_optee/neo/ta/ta.c:136
     348:	d65f03c0 	ret

000000000000034c <set_params>:
set_params():
/home/rahulmahadev/hikey_optee/neo/ta/ta.c:149
     34c:	a9bd7bfd 	stp	x29, x30, [sp,#-48]!
     350:	910003fd 	mov	x29, sp
     354:	f9000fa0 	str	x0, [x29,#24]
     358:	b90017a1 	str	w1, [x29,#20]
/home/rahulmahadev/hikey_optee/neo/ta/ta.c:151
     35c:	d0000060 	adrp	x0, e000 <__compound_literal.2+0x72a>
     360:	f940ac00 	ldr	x0, [x0,#344]
     364:	b900001f 	str	wzr, [x0]
/home/rahulmahadev/hikey_optee/neo/ta/ta.c:152
     368:	d0000060 	adrp	x0, e000 <__compound_literal.2+0x72a>
     36c:	f940c800 	ldr	x0, [x0,#400]
     370:	b900001f 	str	wzr, [x0]
/home/rahulmahadev/hikey_optee/neo/ta/ta.c:153
     374:	d0000060 	adrp	x0, e000 <__compound_literal.2+0x72a>
     378:	f940a400 	ldr	x0, [x0,#328]
     37c:	b94017a1 	ldr	w1, [x29,#20]
     380:	b9000001 	str	w1, [x0]
/home/rahulmahadev/hikey_optee/neo/ta/ta.c:155
     384:	d0000060 	adrp	x0, e000 <__compound_literal.2+0x72a>
     388:	f940a400 	ldr	x0, [x0,#328]
     38c:	b9400001 	ldr	w1, [x0]
     390:	52800f00 	mov	w0, #0x78                  	// #120
     394:	1b007c20 	mul	w0, w1, w0
     398:	93407c00 	sxtw	x0, w0
     39c:	940019ee 	bl	6b54 <malloc>
     3a0:	aa0003e1 	mov	x1, x0
     3a4:	d0000060 	adrp	x0, e000 <__compound_literal.2+0x72a>
     3a8:	f9408800 	ldr	x0, [x0,#272]
     3ac:	f9000001 	str	x1, [x0]
/home/rahulmahadev/hikey_optee/neo/ta/ta.c:156
     3b0:	d0000060 	adrp	x0, e000 <__compound_literal.2+0x72a>
     3b4:	f940b000 	ldr	x0, [x0,#352]
     3b8:	f9400001 	ldr	x1, [x0]
     3bc:	d0000060 	adrp	x0, e000 <__compound_literal.2+0x72a>
     3c0:	f940a400 	ldr	x0, [x0,#328]
     3c4:	b9400000 	ldr	w0, [x0]
     3c8:	93407c02 	sxtw	x2, w0
     3cc:	d2870800 	mov	x0, #0x3840                	// #14400
     3d0:	9b007c40 	mul	x0, x2, x0
     3d4:	8b000021 	add	x1, x1, x0
     3d8:	d0000060 	adrp	x0, e000 <__compound_literal.2+0x72a>
     3dc:	f940b000 	ldr	x0, [x0,#352]
     3e0:	f9000001 	str	x1, [x0]
/home/rahulmahadev/hikey_optee/neo/ta/ta.c:157
     3e4:	d0000060 	adrp	x0, e000 <__compound_literal.2+0x72a>
     3e8:	f940a400 	ldr	x0, [x0,#328]
     3ec:	b9400001 	ldr	w1, [x0]
     3f0:	52800f00 	mov	w0, #0x78                  	// #120
     3f4:	1b007c20 	mul	w0, w1, w0
     3f8:	93407c00 	sxtw	x0, w0
     3fc:	940019d6 	bl	6b54 <malloc>
     400:	aa0003e1 	mov	x1, x0
     404:	d0000060 	adrp	x0, e000 <__compound_literal.2+0x72a>
     408:	f940b000 	ldr	x0, [x0,#352]
     40c:	f9000001 	str	x1, [x0]
/home/rahulmahadev/hikey_optee/neo/ta/ta.c:159
     410:	b9002fbf 	str	wzr, [x29,#44]
     414:	14000027 	b	4b0 <set_params+0x164>
/home/rahulmahadev/hikey_optee/neo/ta/ta.c:160 (discriminator 3)
     418:	d0000060 	adrp	x0, e000 <__compound_literal.2+0x72a>
     41c:	f9408800 	ldr	x0, [x0,#272]
     420:	f9400002 	ldr	x2, [x0]
     424:	b9802fa1 	ldrsw	x1, [x29,#44]
     428:	aa0103e0 	mov	x0, x1
     42c:	d37cec00 	lsl	x0, x0, #4
     430:	cb010000 	sub	x0, x0, x1
     434:	d37df000 	lsl	x0, x0, #3
     438:	8b000042 	add	x2, x2, x0
     43c:	b9802fa1 	ldrsw	x1, [x29,#44]
     440:	d2801400 	mov	x0, #0xa0                  	// #160
     444:	9b007c20 	mul	x0, x1, x0
     448:	f9400fa1 	ldr	x1, [x29,#24]
     44c:	8b000020 	add	x0, x1, x0
     450:	aa0003e1 	mov	x1, x0
     454:	aa0203e0 	mov	x0, x2
     458:	97fffef2 	bl	20 <string_copy>
/home/rahulmahadev/hikey_optee/neo/ta/ta.c:161 (discriminator 3)
     45c:	d0000060 	adrp	x0, e000 <__compound_literal.2+0x72a>
     460:	f940b000 	ldr	x0, [x0,#352]
     464:	f9400002 	ldr	x2, [x0]
     468:	b9802fa1 	ldrsw	x1, [x29,#44]
     46c:	aa0103e0 	mov	x0, x1
     470:	d37cec00 	lsl	x0, x0, #4
     474:	cb010000 	sub	x0, x0, x1
     478:	d37df000 	lsl	x0, x0, #3
     47c:	8b000042 	add	x2, x2, x0
     480:	b9802fa1 	ldrsw	x1, [x29,#44]
     484:	d2801400 	mov	x0, #0xa0                  	// #160
     488:	9b007c20 	mul	x0, x1, x0
     48c:	f9400fa1 	ldr	x1, [x29,#24]
     490:	8b000020 	add	x0, x1, x0
     494:	9101e000 	add	x0, x0, #0x78
     498:	aa0003e1 	mov	x1, x0
     49c:	aa0203e0 	mov	x0, x2
     4a0:	97fffee0 	bl	20 <string_copy>
/home/rahulmahadev/hikey_optee/neo/ta/ta.c:159 (discriminator 3)
     4a4:	b9402fa0 	ldr	w0, [x29,#44]
     4a8:	11000400 	add	w0, w0, #0x1
     4ac:	b9002fa0 	str	w0, [x29,#44]
/home/rahulmahadev/hikey_optee/neo/ta/ta.c:159 (discriminator 1)
     4b0:	d0000060 	adrp	x0, e000 <__compound_literal.2+0x72a>
     4b4:	f940a400 	ldr	x0, [x0,#328]
     4b8:	b9400000 	ldr	w0, [x0]
     4bc:	b9402fa1 	ldr	w1, [x29,#44]
     4c0:	6b00003f 	cmp	w1, w0
     4c4:	54fffaab 	b.lt	418 <set_params+0xcc>
/home/rahulmahadev/hikey_optee/neo/ta/ta.c:166
     4c8:	a8c37bfd 	ldp	x29, x30, [sp],#48
     4cc:	d65f03c0 	ret

00000000000004d0 <TA_OpenSessionEntryPoint>:
TA_OpenSessionEntryPoint():
/home/rahulmahadev/hikey_optee/neo/ta/ta.c:176
     4d0:	a9bb7bfd 	stp	x29, x30, [sp,#-80]!
     4d4:	910003fd 	mov	x29, sp
     4d8:	b9002fa0 	str	w0, [x29,#44]
     4dc:	f90013a1 	str	x1, [x29,#32]
     4e0:	f9000fa2 	str	x2, [x29,#24]
/home/rahulmahadev/hikey_optee/neo/ta/ta.c:179
     4e4:	52800a20 	mov	w0, #0x51                  	// #81
     4e8:	b9004fa0 	str	w0, [x29,#76]
/home/rahulmahadev/hikey_optee/neo/ta/ta.c:183
     4ec:	b9402fa1 	ldr	w1, [x29,#44]
     4f0:	b9404fa0 	ldr	w0, [x29,#76]
     4f4:	6b00003f 	cmp	w1, w0
     4f8:	54000060 	b.eq	504 <TA_OpenSessionEntryPoint+0x34>
/home/rahulmahadev/hikey_optee/neo/ta/ta.c:184
     4fc:	129fff20 	mov	w0, #0xffff0006            	// #-65530
     500:	1400002e 	b	5b8 <TA_OpenSessionEntryPoint+0xe8>
/home/rahulmahadev/hikey_optee/neo/ta/ta.c:188
     504:	9100e3a0 	add	x0, x29, #0x38
     508:	9400021a 	bl	d70 <TEE_GetSystemTime>
/home/rahulmahadev/hikey_optee/neo/ta/ta.c:189
     50c:	b9403ba1 	ldr	w1, [x29,#56]
     510:	d0000060 	adrp	x0, e000 <__compound_literal.2+0x72a>
     514:	f940b800 	ldr	x0, [x0,#368]
     518:	b9000001 	str	w1, [x0]
/home/rahulmahadev/hikey_optee/neo/ta/ta.c:190
     51c:	d0000060 	adrp	x0, e000 <__compound_literal.2+0x72a>
     520:	f940b800 	ldr	x0, [x0,#368]
     524:	b9400002 	ldr	w2, [x0]
     528:	90000060 	adrp	x0, c000 <utee_authenc_update_aad>
     52c:	9106e001 	add	x1, x0, #0x1b8
     530:	90000060 	adrp	x0, c000 <utee_authenc_update_aad>
     534:	91084000 	add	x0, x0, #0x210
     538:	2a0203e5 	mov	w5, w2
     53c:	aa0103e4 	mov	x4, x1
     540:	52800023 	mov	w3, #0x1                   	// #1
     544:	52800042 	mov	w2, #0x2                   	// #2
     548:	528017c1 	mov	w1, #0xbe                  	// #190
     54c:	94001e73 	bl	7f18 <trace_printf>
/home/rahulmahadev/hikey_optee/neo/ta/ta.c:191
     550:	f94013a0 	ldr	x0, [x29,#32]
     554:	91004000 	add	x0, x0, #0x10
     558:	f9400000 	ldr	x0, [x0]
     55c:	f90023a0 	str	x0, [x29,#64]
/home/rahulmahadev/hikey_optee/neo/ta/ta.c:192
     560:	f94013a0 	ldr	x0, [x29,#32]
     564:	b9400002 	ldr	w2, [x0]
     568:	f94023a0 	ldr	x0, [x29,#64]
     56c:	91028000 	add	x0, x0, #0xa0
     570:	aa0003e3 	mov	x3, x0
     574:	90000060 	adrp	x0, c000 <utee_authenc_update_aad>
     578:	91074001 	add	x1, x0, #0x1d0
     57c:	90000060 	adrp	x0, c000 <utee_authenc_update_aad>
     580:	91084000 	add	x0, x0, #0x210
     584:	aa0303e6 	mov	x6, x3
     588:	2a0203e5 	mov	w5, w2
     58c:	aa0103e4 	mov	x4, x1
     590:	52800023 	mov	w3, #0x1                   	// #1
     594:	52800042 	mov	w2, #0x2                   	// #2
     598:	52801801 	mov	w1, #0xc0                  	// #192
     59c:	94001e5f 	bl	7f18 <trace_printf>
/home/rahulmahadev/hikey_optee/neo/ta/ta.c:193
     5a0:	f94013a0 	ldr	x0, [x29,#32]
     5a4:	b9400000 	ldr	w0, [x0]
     5a8:	2a0003e1 	mov	w1, w0
     5ac:	f94023a0 	ldr	x0, [x29,#64]
     5b0:	97ffff67 	bl	34c <set_params>
/home/rahulmahadev/hikey_optee/neo/ta/ta.c:200
     5b4:	52800000 	mov	w0, #0x0                   	// #0
/home/rahulmahadev/hikey_optee/neo/ta/ta.c:201 (discriminator 1)
     5b8:	a8c57bfd 	ldp	x29, x30, [sp],#80
     5bc:	d65f03c0 	ret

00000000000005c0 <TA_CloseSessionEntryPoint>:
TA_CloseSessionEntryPoint():
/home/rahulmahadev/hikey_optee/neo/ta/ta.c:208
     5c0:	d10043ff 	sub	sp, sp, #0x10
     5c4:	f90007e0 	str	x0, [sp,#8]
/home/rahulmahadev/hikey_optee/neo/ta/ta.c:211
     5c8:	910043ff 	add	sp, sp, #0x10
     5cc:	d65f03c0 	ret

00000000000005d0 <check_answer>:
check_answer():
/home/rahulmahadev/hikey_optee/neo/ta/ta.c:213
     5d0:	a9b97bfd 	stp	x29, x30, [sp,#-112]!
     5d4:	910003fd 	mov	x29, sp
     5d8:	f9000bf3 	str	x19, [sp,#16]
     5dc:	b9002fa0 	str	w0, [x29,#44]
     5e0:	f90013a1 	str	x1, [x29,#32]
/home/rahulmahadev/hikey_optee/neo/ta/ta.c:216
     5e4:	52804a40 	mov	w0, #0x252                 	// #594
     5e8:	b9006fa0 	str	w0, [x29,#108]
/home/rahulmahadev/hikey_optee/neo/ta/ta.c:220
     5ec:	b9402fa1 	ldr	w1, [x29,#44]
     5f0:	b9406fa0 	ldr	w0, [x29,#108]
     5f4:	6b00003f 	cmp	w1, w0
     5f8:	54000060 	b.eq	604 <check_answer+0x34>
/home/rahulmahadev/hikey_optee/neo/ta/ta.c:221
     5fc:	129fff20 	mov	w0, #0xffff0006            	// #-65530
     600:	14000086 	b	818 <check_answer+0x248>
/home/rahulmahadev/hikey_optee/neo/ta/ta.c:222
     604:	910143a0 	add	x0, x29, #0x50
     608:	940001da 	bl	d70 <TEE_GetSystemTime>
/home/rahulmahadev/hikey_optee/neo/ta/ta.c:223
     60c:	b94053a1 	ldr	w1, [x29,#80]
     610:	d0000060 	adrp	x0, e000 <__compound_literal.2+0x72a>
     614:	f940b800 	ldr	x0, [x0,#368]
     618:	b9400000 	ldr	w0, [x0]
     61c:	4b000020 	sub	w0, w1, w0
     620:	71095c1f 	cmp	w0, #0x257
     624:	54000229 	b.ls	668 <check_answer+0x98>
/home/rahulmahadev/hikey_optee/neo/ta/ta.c:224
     628:	90000060 	adrp	x0, c000 <utee_authenc_update_aad>
     62c:	91078001 	add	x1, x0, #0x1e0
     630:	90000060 	adrp	x0, c000 <utee_authenc_update_aad>
     634:	9108c000 	add	x0, x0, #0x230
     638:	aa0103e4 	mov	x4, x1
     63c:	52800023 	mov	w3, #0x1                   	// #1
     640:	52800042 	mov	w2, #0x2                   	// #2
     644:	52801c01 	mov	w1, #0xe0                  	// #224
     648:	94001e34 	bl	7f18 <trace_printf>
/home/rahulmahadev/hikey_optee/neo/ta/ta.c:225
     64c:	d0000060 	adrp	x0, e000 <__compound_literal.2+0x72a>
     650:	f940a400 	ldr	x0, [x0,#328]
     654:	b9400001 	ldr	w1, [x0]
     658:	d0000060 	adrp	x0, e000 <__compound_literal.2+0x72a>
     65c:	f940c800 	ldr	x0, [x0,#400]
     660:	b9000001 	str	w1, [x0]
/home/rahulmahadev/hikey_optee/neo/ta/ta.c:226
     664:	14000033 	b	730 <check_answer+0x160>
/home/rahulmahadev/hikey_optee/neo/ta/ta.c:228
     668:	f94013a0 	ldr	x0, [x29,#32]
     66c:	91004000 	add	x0, x0, #0x10
     670:	f9400000 	ldr	x0, [x0]
     674:	f90033a0 	str	x0, [x29,#96]
/home/rahulmahadev/hikey_optee/neo/ta/ta.c:229
     678:	f94013a0 	ldr	x0, [x29,#32]
     67c:	91004000 	add	x0, x0, #0x10
     680:	b9400800 	ldr	w0, [x0,#8]
     684:	2a0003e0 	mov	w0, w0
     688:	f94033a1 	ldr	x1, [x29,#96]
     68c:	8b000020 	add	x0, x1, x0
     690:	3900001f 	strb	wzr, [x0]
/home/rahulmahadev/hikey_optee/neo/ta/ta.c:230
     694:	90000060 	adrp	x0, c000 <utee_authenc_update_aad>
     698:	9107a001 	add	x1, x0, #0x1e8
     69c:	90000060 	adrp	x0, c000 <utee_authenc_update_aad>
     6a0:	9108c000 	add	x0, x0, #0x230
     6a4:	f94033a5 	ldr	x5, [x29,#96]
     6a8:	aa0103e4 	mov	x4, x1
     6ac:	52800023 	mov	w3, #0x1                   	// #1
     6b0:	52800042 	mov	w2, #0x2                   	// #2
     6b4:	52801cc1 	mov	w1, #0xe6                  	// #230
     6b8:	94001e18 	bl	7f18 <trace_printf>
/home/rahulmahadev/hikey_optee/neo/ta/ta.c:231
     6bc:	f94033a0 	ldr	x0, [x29,#96]
     6c0:	94001ae7 	bl	725c <strlen>
     6c4:	2a0003e3 	mov	w3, w0
     6c8:	d0000060 	adrp	x0, e000 <__compound_literal.2+0x72a>
     6cc:	f940b000 	ldr	x0, [x0,#352]
     6d0:	f9400002 	ldr	x2, [x0]
     6d4:	d0000060 	adrp	x0, e000 <__compound_literal.2+0x72a>
     6d8:	f940c800 	ldr	x0, [x0,#400]
     6dc:	b9400000 	ldr	w0, [x0]
     6e0:	93407c01 	sxtw	x1, w0
     6e4:	aa0103e0 	mov	x0, x1
     6e8:	d37cec00 	lsl	x0, x0, #4
     6ec:	cb010000 	sub	x0, x0, x1
     6f0:	d37df000 	lsl	x0, x0, #3
     6f4:	d101e000 	sub	x0, x0, #0x78
     6f8:	8b000040 	add	x0, x2, x0
     6fc:	aa0003e2 	mov	x2, x0
     700:	2a0303e1 	mov	w1, w3
     704:	f94033a0 	ldr	x0, [x29,#96]
     708:	97fffece 	bl	240 <call_gp_sha1_interface>
     70c:	7100041f 	cmp	w0, #0x1
     710:	54000101 	b.ne	730 <check_answer+0x160>
/home/rahulmahadev/hikey_optee/neo/ta/ta.c:233
     714:	d0000060 	adrp	x0, e000 <__compound_literal.2+0x72a>
     718:	f940ac00 	ldr	x0, [x0,#344]
     71c:	b9400000 	ldr	w0, [x0]
     720:	11000401 	add	w1, w0, #0x1
     724:	d0000060 	adrp	x0, e000 <__compound_literal.2+0x72a>
     728:	f940ac00 	ldr	x0, [x0,#344]
     72c:	b9000001 	str	w1, [x0]
/home/rahulmahadev/hikey_optee/neo/ta/ta.c:236
     730:	d0000060 	adrp	x0, e000 <__compound_literal.2+0x72a>
     734:	f940c800 	ldr	x0, [x0,#400]
     738:	b9400001 	ldr	w1, [x0]
     73c:	d0000060 	adrp	x0, e000 <__compound_literal.2+0x72a>
     740:	f940a400 	ldr	x0, [x0,#328]
     744:	b9400000 	ldr	w0, [x0]
     748:	6b00003f 	cmp	w1, w0
     74c:	54000601 	b.ne	80c <check_answer+0x23c>
/home/rahulmahadev/hikey_optee/neo/ta/ta.c:239
     750:	90000060 	adrp	x0, c000 <utee_authenc_update_aad>
     754:	91080000 	add	x0, x0, #0x200
     758:	39400000 	ldrb	w0, [x0]
     75c:	390103a0 	strb	w0, [x29,#64]
/home/rahulmahadev/hikey_optee/neo/ta/ta.c:240
     760:	90000060 	adrp	x0, c000 <utee_authenc_update_aad>
     764:	91082000 	add	x0, x0, #0x208
     768:	b9400001 	ldr	w1, [x0]
     76c:	b9003ba1 	str	w1, [x29,#56]
     770:	39401000 	ldrb	w0, [x0,#4]
     774:	3900f3a0 	strb	w0, [x29,#60]
/home/rahulmahadev/hikey_optee/neo/ta/ta.c:241
     778:	f94013a0 	ldr	x0, [x29,#32]
     77c:	91008000 	add	x0, x0, #0x20
     780:	d0000061 	adrp	x1, e000 <__compound_literal.2+0x72a>
     784:	f940ac21 	ldr	x1, [x1,#344]
     788:	b9400021 	ldr	w1, [x1]
     78c:	b9000001 	str	w1, [x0]
/home/rahulmahadev/hikey_optee/neo/ta/ta.c:242
     790:	f94013a0 	ldr	x0, [x29,#32]
     794:	52800021 	mov	w1, #0x1                   	// #1
     798:	b9000001 	str	w1, [x0]
/home/rahulmahadev/hikey_optee/neo/ta/ta.c:243
     79c:	394103a1 	ldrb	w1, [x29,#64]
     7a0:	f94013a0 	ldr	x0, [x29,#32]
     7a4:	91008000 	add	x0, x0, #0x20
     7a8:	b9400000 	ldr	w0, [x0]
     7ac:	53001c00 	uxtb	w0, w0
     7b0:	0b000020 	add	w0, w1, w0
     7b4:	53001c00 	uxtb	w0, w0
     7b8:	390103a0 	strb	w0, [x29,#64]
/home/rahulmahadev/hikey_optee/neo/ta/ta.c:244
     7bc:	9100e3a0 	add	x0, x29, #0x38
     7c0:	94001aa7 	bl	725c <strlen>
     7c4:	2a0003f3 	mov	w19, w0
/home/rahulmahadev/hikey_optee/neo/ta/ta.c:246
     7c8:	910103a0 	add	x0, x29, #0x40
     7cc:	94001aa4 	bl	725c <strlen>
/home/rahulmahadev/hikey_optee/neo/ta/ta.c:244
     7d0:	2a0003e3 	mov	w3, w0
     7d4:	910123a2 	add	x2, x29, #0x48
     7d8:	910103a1 	add	x1, x29, #0x40
     7dc:	9100e3a0 	add	x0, x29, #0x38
     7e0:	aa0203e7 	mov	x7, x2
     7e4:	2a0303e6 	mov	w6, w3
     7e8:	aa0103e5 	mov	x5, x1
     7ec:	d2800004 	mov	x4, #0x0                   	// #0
     7f0:	528000e3 	mov	w3, #0x7                   	// #7
     7f4:	2a1303e2 	mov	w2, w19
     7f8:	aa0003e1 	mov	x1, x0
     7fc:	52800020 	mov	w0, #0x1                   	// #1
     800:	940004f8 	bl	1be0 <TEE_CreatePersistentObject>
     804:	b9005fa0 	str	w0, [x29,#92]
     808:	14000003 	b	814 <check_answer+0x244>
/home/rahulmahadev/hikey_optee/neo/ta/ta.c:251
     80c:	f94013a0 	ldr	x0, [x29,#32]
     810:	b900001f 	str	wzr, [x0]
/home/rahulmahadev/hikey_optee/neo/ta/ta.c:255
     814:	52800000 	mov	w0, #0x0                   	// #0
/home/rahulmahadev/hikey_optee/neo/ta/ta.c:256 (discriminator 1)
     818:	f9400bf3 	ldr	x19, [sp,#16]
     81c:	a8c77bfd 	ldp	x29, x30, [sp],#112
     820:	d65f03c0 	ret

0000000000000824 <start_quiz>:
start_quiz():
/home/rahulmahadev/hikey_optee/neo/ta/ta.c:262
     824:	a9bd7bfd 	stp	x29, x30, [sp,#-48]!
     828:	910003fd 	mov	x29, sp
     82c:	b9001fa0 	str	w0, [x29,#28]
     830:	f9000ba1 	str	x1, [x29,#16]
/home/rahulmahadev/hikey_optee/neo/ta/ta.c:263
     834:	52800c40 	mov	w0, #0x62                  	// #98
     838:	b9002fa0 	str	w0, [x29,#44]
/home/rahulmahadev/hikey_optee/neo/ta/ta.c:267
     83c:	b9401fa1 	ldr	w1, [x29,#28]
     840:	b9402fa0 	ldr	w0, [x29,#44]
     844:	6b00003f 	cmp	w1, w0
     848:	54000060 	b.eq	854 <start_quiz+0x30>
/home/rahulmahadev/hikey_optee/neo/ta/ta.c:268
     84c:	129fff20 	mov	w0, #0xffff0006            	// #-65530
     850:	1400002b 	b	8fc <start_quiz+0xd8>
/home/rahulmahadev/hikey_optee/neo/ta/ta.c:270
     854:	d0000060 	adrp	x0, e000 <__compound_literal.2+0x72a>
     858:	f940c800 	ldr	x0, [x0,#400]
     85c:	b9400001 	ldr	w1, [x0]
     860:	d0000060 	adrp	x0, e000 <__compound_literal.2+0x72a>
     864:	f940a400 	ldr	x0, [x0,#328]
     868:	b9400000 	ldr	w0, [x0]
     86c:	6b00003f 	cmp	w1, w0
     870:	5400032a 	b.ge	8d4 <start_quiz+0xb0>
/home/rahulmahadev/hikey_optee/neo/ta/ta.c:271
     874:	f9400ba0 	ldr	x0, [x29,#16]
     878:	91004000 	add	x0, x0, #0x10
     87c:	f9400000 	ldr	x0, [x0]
     880:	f90013a0 	str	x0, [x29,#32]
/home/rahulmahadev/hikey_optee/neo/ta/ta.c:273
     884:	f9400ba0 	ldr	x0, [x29,#16]
     888:	52800021 	mov	w1, #0x1                   	// #1
     88c:	b9000001 	str	w1, [x0]
/home/rahulmahadev/hikey_optee/neo/ta/ta.c:274
     890:	d0000060 	adrp	x0, e000 <__compound_literal.2+0x72a>
     894:	f9408800 	ldr	x0, [x0,#272]
     898:	f9400002 	ldr	x2, [x0]
     89c:	d0000060 	adrp	x0, e000 <__compound_literal.2+0x72a>
     8a0:	f940c800 	ldr	x0, [x0,#400]
     8a4:	b9400000 	ldr	w0, [x0]
     8a8:	93407c01 	sxtw	x1, w0
     8ac:	aa0103e0 	mov	x0, x1
     8b0:	d37cec00 	lsl	x0, x0, #4
     8b4:	cb010000 	sub	x0, x0, x1
     8b8:	d37df000 	lsl	x0, x0, #3
     8bc:	8b000040 	add	x0, x2, x0
     8c0:	d2800f02 	mov	x2, #0x78                  	// #120
     8c4:	aa0003e1 	mov	x1, x0
     8c8:	f94013a0 	ldr	x0, [x29,#32]
     8cc:	94001a35 	bl	71a0 <memcpy>
     8d0:	14000003 	b	8dc <start_quiz+0xb8>
/home/rahulmahadev/hikey_optee/neo/ta/ta.c:277
     8d4:	f9400ba0 	ldr	x0, [x29,#16]
     8d8:	b900001f 	str	wzr, [x0]
/home/rahulmahadev/hikey_optee/neo/ta/ta.c:279
     8dc:	d0000060 	adrp	x0, e000 <__compound_literal.2+0x72a>
     8e0:	f940c800 	ldr	x0, [x0,#400]
     8e4:	b9400000 	ldr	w0, [x0]
     8e8:	11000401 	add	w1, w0, #0x1
     8ec:	d0000060 	adrp	x0, e000 <__compound_literal.2+0x72a>
     8f0:	f940c800 	ldr	x0, [x0,#400]
     8f4:	b9000001 	str	w1, [x0]
/home/rahulmahadev/hikey_optee/neo/ta/ta.c:280
     8f8:	52800000 	mov	w0, #0x0                   	// #0
/home/rahulmahadev/hikey_optee/neo/ta/ta.c:281
     8fc:	a8c37bfd 	ldp	x29, x30, [sp],#48
     900:	d65f03c0 	ret

0000000000000904 <TA_InvokeCommandEntryPoint>:
TA_InvokeCommandEntryPoint():
/home/rahulmahadev/hikey_optee/neo/ta/ta.c:290
     904:	a9bd7bfd 	stp	x29, x30, [sp,#-48]!
     908:	910003fd 	mov	x29, sp
     90c:	f90017a0 	str	x0, [x29,#40]
     910:	b90027a1 	str	w1, [x29,#36]
     914:	b90023a2 	str	w2, [x29,#32]
     918:	f9000fa3 	str	x3, [x29,#24]
/home/rahulmahadev/hikey_optee/neo/ta/ta.c:293
     91c:	b94027a0 	ldr	w0, [x29,#36]
     920:	6b1f001f 	cmp	w0, wzr
     924:	54000080 	b.eq	934 <TA_InvokeCommandEntryPoint+0x30>
     928:	7100041f 	cmp	w0, #0x1
     92c:	540000c0 	b.eq	944 <TA_InvokeCommandEntryPoint+0x40>
     930:	14000009 	b	954 <TA_InvokeCommandEntryPoint+0x50>
/home/rahulmahadev/hikey_optee/neo/ta/ta.c:295
     934:	f9400fa1 	ldr	x1, [x29,#24]
     938:	b94023a0 	ldr	w0, [x29,#32]
     93c:	97ffffba 	bl	824 <start_quiz>
     940:	14000006 	b	958 <TA_InvokeCommandEntryPoint+0x54>
/home/rahulmahadev/hikey_optee/neo/ta/ta.c:297
     944:	f9400fa1 	ldr	x1, [x29,#24]
     948:	b94023a0 	ldr	w0, [x29,#32]
     94c:	97ffff21 	bl	5d0 <check_answer>
     950:	14000002 	b	958 <TA_InvokeCommandEntryPoint+0x54>
/home/rahulmahadev/hikey_optee/neo/ta/ta.c:299
     954:	129fff20 	mov	w0, #0xffff0006            	// #-65530
/home/rahulmahadev/hikey_optee/neo/ta/ta.c:301
     958:	a8c37bfd 	ldp	x29, x30, [sp],#48
     95c:	d65f03c0 	ret

0000000000000960 <tahead_get_trace_level>:
tahead_get_trace_level():
/home/rahulmahadev/hikey_optee/optee_os/out/arm-plat-hikey/export-ta_arm64/src/user_ta_header.c:115
     960:	52800040 	mov	w0, #0x2                   	// #2
/home/rahulmahadev/hikey_optee/optee_os/out/arm-plat-hikey/export-ta_arm64/src/user_ta_header.c:116
     964:	d65f03c0 	ret

0000000000000968 <__utee_from_param>:
__utee_from_param():
/home/rahulmahadev/hikey_optee/optee_os/lib/libutee/tee_api.c:47
     968:	b0000065 	adrp	x5, d000 <PRIME_TABLE+0x388>
/home/rahulmahadev/hikey_optee/optee_os/lib/libutee/tee_api.c:45
     96c:	2a0103e3 	mov	w3, w1
/home/rahulmahadev/hikey_optee/optee_os/lib/libutee/tee_api.c:46
     970:	d2800004 	mov	x4, #0x0                   	// #0
/home/rahulmahadev/hikey_optee/optee_os/lib/libutee/tee_api.c:45
     974:	f8008403 	str	x3, [x0],#8
/home/rahulmahadev/hikey_optee/optee_os/lib/libutee/tee_api.c:47
     978:	9122f0a5 	add	x5, x5, #0x8bc
     97c:	531e7483 	lsl	w3, w4, #2
     980:	1ac32423 	lsr	w3, w1, w3
     984:	12000c63 	and	w3, w3, #0xf
     988:	51000463 	sub	w3, w3, #0x1
     98c:	7100187f 	cmp	w3, #0x6
     990:	540001c8 	b.hi	9c8 <__utee_from_param+0x60>
     994:	386348a3 	ldrb	w3, [x5,w3,uxtw]
     998:	10000066 	adr	x6, 9a4 <__utee_from_param+0x3c>
     99c:	8b2388c3 	add	x3, x6, w3, sxtb #2
     9a0:	d61f0060 	br	x3
/home/rahulmahadev/hikey_optee/optee_os/lib/libutee/tee_api.c:51
     9a4:	b9400043 	ldr	w3, [x2]
     9a8:	f9000003 	str	x3, [x0]
/home/rahulmahadev/hikey_optee/optee_os/lib/libutee/tee_api.c:52
     9ac:	b9400443 	ldr	w3, [x2,#4]
     9b0:	14000004 	b	9c0 <__utee_from_param+0x58>
/home/rahulmahadev/hikey_optee/optee_os/lib/libutee/tee_api.c:57
     9b4:	f9400043 	ldr	x3, [x2]
     9b8:	f9000003 	str	x3, [x0]
/home/rahulmahadev/hikey_optee/optee_os/lib/libutee/tee_api.c:58
     9bc:	b9400843 	ldr	w3, [x2,#8]
     9c0:	f9000403 	str	x3, [x0,#8]
/home/rahulmahadev/hikey_optee/optee_os/lib/libutee/tee_api.c:59
     9c4:	14000003 	b	9d0 <__utee_from_param+0x68>
/home/rahulmahadev/hikey_optee/optee_os/lib/libutee/tee_api.c:61
     9c8:	f900001f 	str	xzr, [x0]
/home/rahulmahadev/hikey_optee/optee_os/lib/libutee/tee_api.c:62
     9cc:	f900041f 	str	xzr, [x0,#8]
/home/rahulmahadev/hikey_optee/optee_os/lib/libutee/tee_api.c:46 (discriminator 2)
     9d0:	91000484 	add	x4, x4, #0x1
     9d4:	91004042 	add	x2, x2, #0x10
     9d8:	f100109f 	cmp	x4, #0x4
     9dc:	91004000 	add	x0, x0, #0x10
     9e0:	54fffce1 	b.ne	97c <__utee_from_param+0x14>
/home/rahulmahadev/hikey_optee/optee_os/lib/libutee/tee_api.c:66
     9e4:	d65f03c0 	ret

00000000000009e8 <__utee_to_param>:
__utee_to_param():
/home/rahulmahadev/hikey_optee/optee_os/lib/libutee/tee_api.c:72
     9e8:	f9400047 	ldr	x7, [x2]
/home/rahulmahadev/hikey_optee/optee_os/lib/libutee/tee_api.c:78
     9ec:	b0000066 	adrp	x6, d000 <PRIME_TABLE+0x388>
/home/rahulmahadev/hikey_optee/optee_os/lib/libutee/tee_api.c:72
     9f0:	52800005 	mov	w5, #0x0                   	// #0
     9f4:	d2800003 	mov	x3, #0x0                   	// #0
     9f8:	2a0703ea 	mov	w10, w7
/home/rahulmahadev/hikey_optee/optee_os/lib/libutee/tee_api.c:78
     9fc:	912310c6 	add	x6, x6, #0x8c4
     a00:	8b030044 	add	x4, x2, x3
/home/rahulmahadev/hikey_optee/optee_os/lib/libutee/tee_api.c:75
     a04:	f9400489 	ldr	x9, [x4,#8]
/home/rahulmahadev/hikey_optee/optee_os/lib/libutee/tee_api.c:76
     a08:	f9400888 	ldr	x8, [x4,#16]
/home/rahulmahadev/hikey_optee/optee_os/lib/libutee/tee_api.c:78
     a0c:	1ac52544 	lsr	w4, w10, w5
     a10:	12000c84 	and	w4, w4, #0xf
     a14:	51000484 	sub	w4, w4, #0x1
     a18:	7100189f 	cmp	w4, #0x6
     a1c:	54000188 	b.hi	a4c <__utee_to_param+0x64>
     a20:	386448c4 	ldrb	w4, [x6,w4,uxtw]
     a24:	1000006b 	adr	x11, a30 <__utee_to_param+0x48>
     a28:	8b248964 	add	x4, x11, w4, sxtb #2
     a2c:	d61f0080 	br	x4
     a30:	8b030004 	add	x4, x0, x3
/home/rahulmahadev/hikey_optee/optee_os/lib/libutee/tee_api.c:82
     a34:	b8236809 	str	w9, [x0,x3]
/home/rahulmahadev/hikey_optee/optee_os/lib/libutee/tee_api.c:83
     a38:	b9000488 	str	w8, [x4,#4]
/home/rahulmahadev/hikey_optee/optee_os/lib/libutee/tee_api.c:84
     a3c:	14000004 	b	a4c <__utee_to_param+0x64>
     a40:	8b030004 	add	x4, x0, x3
/home/rahulmahadev/hikey_optee/optee_os/lib/libutee/tee_api.c:88
     a44:	f8236809 	str	x9, [x0,x3]
/home/rahulmahadev/hikey_optee/optee_os/lib/libutee/tee_api.c:89
     a48:	b9000888 	str	w8, [x4,#8]
     a4c:	91004063 	add	x3, x3, #0x10
     a50:	110010a5 	add	w5, w5, #0x4
/home/rahulmahadev/hikey_optee/optee_os/lib/libutee/tee_api.c:74 (discriminator 2)
     a54:	f101007f 	cmp	x3, #0x40
     a58:	54fffd41 	b.ne	a00 <__utee_to_param+0x18>
/home/rahulmahadev/hikey_optee/optee_os/lib/libutee/tee_api.c:96
     a5c:	b4000041 	cbz	x1, a64 <__utee_to_param+0x7c>
/home/rahulmahadev/hikey_optee/optee_os/lib/libutee/tee_api.c:97
     a60:	b9000027 	str	w7, [x1]
/home/rahulmahadev/hikey_optee/optee_os/lib/libutee/tee_api.c:98
     a64:	d65f03c0 	ret

0000000000000a68 <TEE_OpenTASession>:
TEE_OpenTASession():
/home/rahulmahadev/hikey_optee/optee_os/lib/libutee/tee_api.c:105
     a68:	a9b67bfd 	stp	x29, x30, [sp,#-160]!
     a6c:	910003fd 	mov	x29, sp
     a70:	a90153f3 	stp	x19, x20, [sp,#16]
/home/rahulmahadev/hikey_optee/optee_os/lib/libutee/tee_api.c:110
     a74:	910163b3 	add	x19, x29, #0x58
/home/rahulmahadev/hikey_optee/optee_os/lib/libutee/tee_api.c:105
     a78:	f9001bf7 	str	x23, [sp,#48]
     a7c:	aa0003f4 	mov	x20, x0
     a80:	2a0103f7 	mov	w23, w1
/home/rahulmahadev/hikey_optee/optee_os/lib/libutee/tee_api.c:110
     a84:	aa1303e0 	mov	x0, x19
/home/rahulmahadev/hikey_optee/optee_os/lib/libutee/tee_api.c:105
     a88:	2a0203e1 	mov	w1, w2
/home/rahulmahadev/hikey_optee/optee_os/lib/libutee/tee_api.c:110
     a8c:	aa0303e2 	mov	x2, x3
/home/rahulmahadev/hikey_optee/optee_os/lib/libutee/tee_api.c:105
     a90:	f90027a5 	str	x5, [x29,#72]
     a94:	a9025bf5 	stp	x21, x22, [sp,#32]
     a98:	aa0303f5 	mov	x21, x3
     a9c:	aa0403f6 	mov	x22, x4
/home/rahulmahadev/hikey_optee/optee_os/lib/libutee/tee_api.c:110
     aa0:	97ffffb2 	bl	968 <__utee_from_param>
/home/rahulmahadev/hikey_optee/optee_os/lib/libutee/tee_api.c:111
     aa4:	f94027a4 	ldr	x4, [x29,#72]
     aa8:	aa1303e2 	mov	x2, x19
     aac:	2a1703e1 	mov	w1, w23
     ab0:	aa1403e0 	mov	x0, x20
     ab4:	910153a3 	add	x3, x29, #0x54
     ab8:	94002cf8 	bl	be98 <utee_open_ta_session>
     abc:	2a0003f4 	mov	w20, w0
/home/rahulmahadev/hikey_optee/optee_os/lib/libutee/tee_api.c:113
     ac0:	aa1303e2 	mov	x2, x19
     ac4:	d2800001 	mov	x1, #0x0                   	// #0
     ac8:	aa1503e0 	mov	x0, x21
     acc:	97ffffc7 	bl	9e8 <__utee_to_param>
/home/rahulmahadev/hikey_optee/optee_os/lib/libutee/tee_api.c:119
     ad0:	34000054 	cbz	w20, ad8 <TEE_OpenTASession+0x70>
/home/rahulmahadev/hikey_optee/optee_os/lib/libutee/tee_api.c:120
     ad4:	b90057bf 	str	wzr, [x29,#84]
/home/rahulmahadev/hikey_optee/optee_os/lib/libutee/tee_api.c:122
     ad8:	b94057a0 	ldr	w0, [x29,#84]
     adc:	f90002c0 	str	x0, [x22]
/home/rahulmahadev/hikey_optee/optee_os/lib/libutee/tee_api.c:124
     ae0:	2a1403e0 	mov	w0, w20
     ae4:	a9425bf5 	ldp	x21, x22, [sp,#32]
     ae8:	a94153f3 	ldp	x19, x20, [sp,#16]
     aec:	f9401bf7 	ldr	x23, [sp,#48]
     af0:	a8ca7bfd 	ldp	x29, x30, [sp],#160
     af4:	d65f03c0 	ret

0000000000000af8 <TEE_CloseTASession>:
TEE_CloseTASession():
/home/rahulmahadev/hikey_optee/optee_os/lib/libutee/tee_api.c:127
     af8:	a9be7bfd 	stp	x29, x30, [sp,#-32]!
     afc:	910003fd 	mov	x29, sp
     b00:	f9000bf3 	str	x19, [sp,#16]
/home/rahulmahadev/hikey_optee/optee_os/lib/libutee/tee_api.c:128
     b04:	b4000220 	cbz	x0, b48 <TEE_CloseTASession+0x50>
/home/rahulmahadev/hikey_optee/optee_os/lib/libutee/tee_api.c:129
     b08:	94002ce7 	bl	bea4 <utee_close_ta_session>
     b0c:	2a0003f3 	mov	w19, w0
/home/rahulmahadev/hikey_optee/optee_os/lib/libutee/tee_api.c:131
     b10:	340001c0 	cbz	w0, b48 <TEE_CloseTASession+0x50>
/home/rahulmahadev/hikey_optee/optee_os/lib/libutee/tee_api.c:132
     b14:	2a0003e5 	mov	w5, w0
     b18:	b0000064 	adrp	x4, d000 <PRIME_TABLE+0x388>
     b1c:	90000060 	adrp	x0, c000 <utee_authenc_update_aad>
     b20:	91235c84 	add	x4, x4, #0x8d7
     b24:	52800023 	mov	w3, #0x1                   	// #1
     b28:	52800022 	mov	w2, #0x1                   	// #1
     b2c:	52801081 	mov	w1, #0x84                  	// #132
     b30:	910cc000 	add	x0, x0, #0x330
     b34:	94001cf9 	bl	7f18 <trace_printf>
     b38:	2a1303e0 	mov	w0, w19
/home/rahulmahadev/hikey_optee/optee_os/lib/libutee/tee_api.c:134
     b3c:	f9400bf3 	ldr	x19, [sp,#16]
     b40:	a8c27bfd 	ldp	x29, x30, [sp],#32
/home/rahulmahadev/hikey_optee/optee_os/lib/libutee/tee_api.c:132
     b44:	14001215 	b	5398 <__TEE_Panic>
/home/rahulmahadev/hikey_optee/optee_os/lib/libutee/tee_api.c:134
     b48:	f9400bf3 	ldr	x19, [sp,#16]
     b4c:	a8c27bfd 	ldp	x29, x30, [sp],#32
     b50:	d65f03c0 	ret

0000000000000b54 <TEE_InvokeTACommand>:
TEE_InvokeTACommand():
/home/rahulmahadev/hikey_optee/optee_os/lib/libutee/tee_api.c:140
     b54:	a9b67bfd 	stp	x29, x30, [sp,#-160]!
     b58:	910003fd 	mov	x29, sp
     b5c:	a90153f3 	stp	x19, x20, [sp,#16]
/home/rahulmahadev/hikey_optee/optee_os/lib/libutee/tee_api.c:145
     b60:	910163b4 	add	x20, x29, #0x58
/home/rahulmahadev/hikey_optee/optee_os/lib/libutee/tee_api.c:140
     b64:	aa0003f3 	mov	x19, x0
     b68:	a9025bf5 	stp	x21, x22, [sp,#32]
     b6c:	f9001bf7 	str	x23, [sp,#48]
     b70:	2a0103f6 	mov	w22, w1
     b74:	2a0203f7 	mov	w23, w2
/home/rahulmahadev/hikey_optee/optee_os/lib/libutee/tee_api.c:145
     b78:	2a0303e1 	mov	w1, w3
     b7c:	aa0403e2 	mov	x2, x4
     b80:	aa1403e0 	mov	x0, x20
/home/rahulmahadev/hikey_optee/optee_os/lib/libutee/tee_api.c:140
     b84:	f90027a5 	str	x5, [x29,#72]
     b88:	aa0403f5 	mov	x21, x4
/home/rahulmahadev/hikey_optee/optee_os/lib/libutee/tee_api.c:145
     b8c:	97ffff77 	bl	968 <__utee_from_param>
/home/rahulmahadev/hikey_optee/optee_os/lib/libutee/tee_api.c:146
     b90:	910153a4 	add	x4, x29, #0x54
     b94:	aa1403e3 	mov	x3, x20
     b98:	2a1703e2 	mov	w2, w23
     b9c:	2a1603e1 	mov	w1, w22
     ba0:	aa1303e0 	mov	x0, x19
     ba4:	94002cc3 	bl	beb0 <utee_invoke_ta_command>
     ba8:	2a0003f3 	mov	w19, w0
/home/rahulmahadev/hikey_optee/optee_os/lib/libutee/tee_api.c:149
     bac:	aa1403e2 	mov	x2, x20
     bb0:	aa1503e0 	mov	x0, x21
     bb4:	d2800001 	mov	x1, #0x0                   	// #0
     bb8:	97ffff8c 	bl	9e8 <__utee_to_param>
/home/rahulmahadev/hikey_optee/optee_os/lib/libutee/tee_api.c:151
     bbc:	f94027a5 	ldr	x5, [x29,#72]
     bc0:	b94057a0 	ldr	w0, [x29,#84]
     bc4:	b4000045 	cbz	x5, bcc <TEE_InvokeTACommand+0x78>
/home/rahulmahadev/hikey_optee/optee_os/lib/libutee/tee_api.c:152
     bc8:	b90000a0 	str	w0, [x5]
/home/rahulmahadev/hikey_optee/optee_os/lib/libutee/tee_api.c:154
     bcc:	7100101f 	cmp	w0, #0x4
     bd0:	540002c0 	b.eq	c28 <TEE_InvokeTACommand+0xd4>
/home/rahulmahadev/hikey_optee/optee_os/lib/libutee/tee_api.c:158
     bd4:	1299fb60 	mov	w0, #0xffff3024            	// #-53212
     bd8:	6b00027f 	cmp	w19, w0
     bdc:	54000260 	b.eq	c28 <TEE_InvokeTACommand+0xd4>
/home/rahulmahadev/hikey_optee/optee_os/lib/libutee/tee_api.c:157
     be0:	6b1f027f 	cmp	w19, wzr
/home/rahulmahadev/hikey_optee/optee_os/lib/libutee/tee_api.c:158
     be4:	129ffe60 	mov	w0, #0xffff000c            	// #-65524
/home/rahulmahadev/hikey_optee/optee_os/lib/libutee/tee_api.c:157
     be8:	1a9f07e1 	cset	w1, ne
/home/rahulmahadev/hikey_optee/optee_os/lib/libutee/tee_api.c:158
     bec:	6b00027f 	cmp	w19, w0
     bf0:	1a9f07e0 	cset	w0, ne
     bf4:	6a00003f 	tst	w1, w0
     bf8:	54000180 	b.eq	c28 <TEE_InvokeTACommand+0xd4>
/home/rahulmahadev/hikey_optee/optee_os/lib/libutee/tee_api.c:160
     bfc:	b0000064 	adrp	x4, d000 <PRIME_TABLE+0x388>
     c00:	90000060 	adrp	x0, c000 <utee_authenc_update_aad>
     c04:	910e4000 	add	x0, x0, #0x390
     c08:	2a1303e5 	mov	w5, w19
     c0c:	91235c84 	add	x4, x4, #0x8d7
     c10:	52800023 	mov	w3, #0x1                   	// #1
     c14:	52800022 	mov	w2, #0x1                   	// #1
     c18:	52801401 	mov	w1, #0xa0                  	// #160
     c1c:	94001cbf 	bl	7f18 <trace_printf>
     c20:	2a1303e0 	mov	w0, w19
     c24:	940011dd 	bl	5398 <__TEE_Panic>
/home/rahulmahadev/hikey_optee/optee_os/lib/libutee/tee_api.c:163
     c28:	2a1303e0 	mov	w0, w19
     c2c:	f9401bf7 	ldr	x23, [sp,#48]
     c30:	a94153f3 	ldp	x19, x20, [sp,#16]
     c34:	a9425bf5 	ldp	x21, x22, [sp,#32]
     c38:	a8ca7bfd 	ldp	x29, x30, [sp],#160
     c3c:	d65f03c0 	ret

0000000000000c40 <TEE_GetCancellationFlag>:
TEE_GetCancellationFlag():
/home/rahulmahadev/hikey_optee/optee_os/lib/libutee/tee_api.c:168
     c40:	a9be7bfd 	stp	x29, x30, [sp,#-32]!
     c44:	910003fd 	mov	x29, sp
/home/rahulmahadev/hikey_optee/optee_os/lib/libutee/tee_api.c:170
     c48:	910073a0 	add	x0, x29, #0x1c
     c4c:	94002c9c 	bl	bebc <utee_get_cancellation_flag>
/home/rahulmahadev/hikey_optee/optee_os/lib/libutee/tee_api.c:172
     c50:	34000040 	cbz	w0, c58 <TEE_GetCancellationFlag+0x18>
/home/rahulmahadev/hikey_optee/optee_os/lib/libutee/tee_api.c:173
     c54:	b9001fbf 	str	wzr, [x29,#28]
/home/rahulmahadev/hikey_optee/optee_os/lib/libutee/tee_api.c:174
     c58:	b9401fa0 	ldr	w0, [x29,#28]
/home/rahulmahadev/hikey_optee/optee_os/lib/libutee/tee_api.c:175
     c5c:	a8c27bfd 	ldp	x29, x30, [sp],#32
/home/rahulmahadev/hikey_optee/optee_os/lib/libutee/tee_api.c:174
     c60:	6b1f001f 	cmp	w0, wzr
/home/rahulmahadev/hikey_optee/optee_os/lib/libutee/tee_api.c:175
     c64:	1a9f07e0 	cset	w0, ne
     c68:	d65f03c0 	ret

0000000000000c6c <TEE_UnmaskCancellation>:
TEE_UnmaskCancellation():
/home/rahulmahadev/hikey_optee/optee_os/lib/libutee/tee_api.c:178
     c6c:	a9bd7bfd 	stp	x29, x30, [sp,#-48]!
     c70:	910003fd 	mov	x29, sp
/home/rahulmahadev/hikey_optee/optee_os/lib/libutee/tee_api.c:180
     c74:	9100b3a0 	add	x0, x29, #0x2c
/home/rahulmahadev/hikey_optee/optee_os/lib/libutee/tee_api.c:178
     c78:	f9000bf3 	str	x19, [sp,#16]
/home/rahulmahadev/hikey_optee/optee_os/lib/libutee/tee_api.c:180
     c7c:	94002c96 	bl	bed4 <utee_unmask_cancellation>
     c80:	2a0003f3 	mov	w19, w0
/home/rahulmahadev/hikey_optee/optee_os/lib/libutee/tee_api.c:182
     c84:	34000180 	cbz	w0, cb4 <TEE_UnmaskCancellation+0x48>
/home/rahulmahadev/hikey_optee/optee_os/lib/libutee/tee_api.c:183
     c88:	2a0003e5 	mov	w5, w0
     c8c:	b0000064 	adrp	x4, d000 <PRIME_TABLE+0x388>
     c90:	90000060 	adrp	x0, c000 <utee_authenc_update_aad>
     c94:	91235c84 	add	x4, x4, #0x8d7
     c98:	910f4000 	add	x0, x0, #0x3d0
     c9c:	52800023 	mov	w3, #0x1                   	// #1
     ca0:	52800022 	mov	w2, #0x1                   	// #1
     ca4:	528016e1 	mov	w1, #0xb7                  	// #183
     ca8:	94001c9c 	bl	7f18 <trace_printf>
     cac:	2a1303e0 	mov	w0, w19
     cb0:	940011ba 	bl	5398 <__TEE_Panic>
/home/rahulmahadev/hikey_optee/optee_os/lib/libutee/tee_api.c:184
     cb4:	b9402fa0 	ldr	w0, [x29,#44]
/home/rahulmahadev/hikey_optee/optee_os/lib/libutee/tee_api.c:185
     cb8:	f9400bf3 	ldr	x19, [sp,#16]
/home/rahulmahadev/hikey_optee/optee_os/lib/libutee/tee_api.c:184
     cbc:	6b1f001f 	cmp	w0, wzr
/home/rahulmahadev/hikey_optee/optee_os/lib/libutee/tee_api.c:185
     cc0:	1a9f07e0 	cset	w0, ne
     cc4:	a8c37bfd 	ldp	x29, x30, [sp],#48
     cc8:	d65f03c0 	ret

0000000000000ccc <TEE_MaskCancellation>:
TEE_MaskCancellation():
/home/rahulmahadev/hikey_optee/optee_os/lib/libutee/tee_api.c:188
     ccc:	a9bd7bfd 	stp	x29, x30, [sp,#-48]!
     cd0:	910003fd 	mov	x29, sp
/home/rahulmahadev/hikey_optee/optee_os/lib/libutee/tee_api.c:190
     cd4:	9100b3a0 	add	x0, x29, #0x2c
/home/rahulmahadev/hikey_optee/optee_os/lib/libutee/tee_api.c:188
     cd8:	f9000bf3 	str	x19, [sp,#16]
/home/rahulmahadev/hikey_optee/optee_os/lib/libutee/tee_api.c:190
     cdc:	94002c81 	bl	bee0 <utee_mask_cancellation>
     ce0:	2a0003f3 	mov	w19, w0
/home/rahulmahadev/hikey_optee/optee_os/lib/libutee/tee_api.c:192
     ce4:	34000180 	cbz	w0, d14 <TEE_MaskCancellation+0x48>
/home/rahulmahadev/hikey_optee/optee_os/lib/libutee/tee_api.c:193
     ce8:	2a0003e5 	mov	w5, w0
     cec:	b0000064 	adrp	x4, d000 <PRIME_TABLE+0x388>
     cf0:	90000060 	adrp	x0, c000 <utee_authenc_update_aad>
     cf4:	91235c84 	add	x4, x4, #0x8d7
     cf8:	910ee000 	add	x0, x0, #0x3b8
     cfc:	52800023 	mov	w3, #0x1                   	// #1
     d00:	52800022 	mov	w2, #0x1                   	// #1
     d04:	52801821 	mov	w1, #0xc1                  	// #193
     d08:	94001c84 	bl	7f18 <trace_printf>
     d0c:	2a1303e0 	mov	w0, w19
     d10:	940011a2 	bl	5398 <__TEE_Panic>
/home/rahulmahadev/hikey_optee/optee_os/lib/libutee/tee_api.c:194
     d14:	b9402fa0 	ldr	w0, [x29,#44]
/home/rahulmahadev/hikey_optee/optee_os/lib/libutee/tee_api.c:195
     d18:	f9400bf3 	ldr	x19, [sp,#16]
/home/rahulmahadev/hikey_optee/optee_os/lib/libutee/tee_api.c:194
     d1c:	6b1f001f 	cmp	w0, wzr
/home/rahulmahadev/hikey_optee/optee_os/lib/libutee/tee_api.c:195
     d20:	1a9f07e0 	cset	w0, ne
     d24:	a8c37bfd 	ldp	x29, x30, [sp],#48
     d28:	d65f03c0 	ret

0000000000000d2c <TEE_CheckMemoryAccessRights>:
TEE_CheckMemoryAccessRights():
/home/rahulmahadev/hikey_optee/optee_os/lib/libutee/tee_api.c:204
     d2c:	34000062 	cbz	w2, d38 <TEE_CheckMemoryAccessRights+0xc>
/home/rahulmahadev/hikey_optee/optee_os/lib/libutee/tee_api.c:208
     d30:	2a0203e2 	mov	w2, w2
     d34:	14002c65 	b	bec8 <utee_check_access_rights>
/home/rahulmahadev/hikey_optee/optee_os/lib/libutee/tee_api.c:220
     d38:	52800000 	mov	w0, #0x0                   	// #0
     d3c:	d65f03c0 	ret

0000000000000d40 <TEE_SetInstanceData>:
TEE_SetInstanceData():
/home/rahulmahadev/hikey_optee/optee_os/lib/libutee/tee_api.c:224
     d40:	f00000a1 	adrp	x1, 17000 <ta_heap+0x7ec0>
     d44:	f900a020 	str	x0, [x1,#320]
/home/rahulmahadev/hikey_optee/optee_os/lib/libutee/tee_api.c:225
     d48:	d65f03c0 	ret

0000000000000d4c <TEE_GetInstanceData>:
TEE_GetInstanceData():
/home/rahulmahadev/hikey_optee/optee_os/lib/libutee/tee_api.c:230
     d4c:	f00000a0 	adrp	x0, 17000 <ta_heap+0x7ec0>
     d50:	f940a000 	ldr	x0, [x0,#320]
     d54:	d65f03c0 	ret

0000000000000d58 <TEE_MemMove>:
TEE_MemMove():
/home/rahulmahadev/hikey_optee/optee_os/lib/libutee/tee_api.c:234
     d58:	2a0203e2 	mov	w2, w2
     d5c:	14001919 	b	71c0 <memmove>

0000000000000d60 <TEE_MemCompare>:
TEE_MemCompare():
/home/rahulmahadev/hikey_optee/optee_os/lib/libutee/tee_api.c:239
     d60:	2a0203e2 	mov	w2, w2
     d64:	14001902 	b	716c <memcmp>

0000000000000d68 <TEE_MemFill>:
TEE_MemFill():
/home/rahulmahadev/hikey_optee/optee_os/lib/libutee/tee_api.c:244
     d68:	2a0203e2 	mov	w2, w2
     d6c:	14001929 	b	7210 <memset>

0000000000000d70 <TEE_GetSystemTime>:
TEE_GetSystemTime():
/home/rahulmahadev/hikey_optee/optee_os/lib/libutee/tee_api.c:250
     d70:	a9bf7bfd 	stp	x29, x30, [sp,#-16]!
/home/rahulmahadev/hikey_optee/optee_os/lib/libutee/tee_api.c:251
     d74:	aa0003e1 	mov	x1, x0
     d78:	d2800000 	mov	x0, #0x0                   	// #0
/home/rahulmahadev/hikey_optee/optee_os/lib/libutee/tee_api.c:250
     d7c:	910003fd 	mov	x29, sp
/home/rahulmahadev/hikey_optee/optee_os/lib/libutee/tee_api.c:251
     d80:	94002c5e 	bl	bef8 <utee_get_time>
/home/rahulmahadev/hikey_optee/optee_os/lib/libutee/tee_api.c:253
     d84:	340001a0 	cbz	w0, db8 <TEE_GetSystemTime+0x48>
/home/rahulmahadev/hikey_optee/optee_os/lib/libutee/tee_api.c:254
     d88:	b0000064 	adrp	x4, d000 <PRIME_TABLE+0x388>
     d8c:	90000060 	adrp	x0, c000 <utee_authenc_update_aad>
     d90:	52800005 	mov	w5, #0x0                   	// #0
     d94:	91235c84 	add	x4, x4, #0x8d7
     d98:	52800023 	mov	w3, #0x1                   	// #1
     d9c:	52800022 	mov	w2, #0x1                   	// #1
     da0:	52801fc1 	mov	w1, #0xfe                  	// #254
     da4:	910d2000 	add	x0, x0, #0x348
     da8:	94001c5c 	bl	7f18 <trace_printf>
/home/rahulmahadev/hikey_optee/optee_os/lib/libutee/tee_api.c:255
     dac:	a8c17bfd 	ldp	x29, x30, [sp],#16
/home/rahulmahadev/hikey_optee/optee_os/lib/libutee/tee_api.c:254
     db0:	52800000 	mov	w0, #0x0                   	// #0
     db4:	14001179 	b	5398 <__TEE_Panic>
/home/rahulmahadev/hikey_optee/optee_os/lib/libutee/tee_api.c:255
     db8:	a8c17bfd 	ldp	x29, x30, [sp],#16
     dbc:	d65f03c0 	ret

0000000000000dc0 <TEE_Wait>:
TEE_Wait():
/home/rahulmahadev/hikey_optee/optee_os/lib/libutee/tee_api.c:258
     dc0:	a9be7bfd 	stp	x29, x30, [sp,#-32]!
/home/rahulmahadev/hikey_optee/optee_os/lib/libutee/tee_api.c:259
     dc4:	2a0003e0 	mov	w0, w0
/home/rahulmahadev/hikey_optee/optee_os/lib/libutee/tee_api.c:258
     dc8:	910003fd 	mov	x29, sp
     dcc:	f9000bf3 	str	x19, [sp,#16]
/home/rahulmahadev/hikey_optee/optee_os/lib/libutee/tee_api.c:259
     dd0:	94002c47 	bl	beec <utee_wait>
     dd4:	2a0003f3 	mov	w19, w0
/home/rahulmahadev/hikey_optee/optee_os/lib/libutee/tee_api.c:261
     dd8:	129fffa0 	mov	w0, #0xffff0002            	// #-65534
     ddc:	6b00027f 	cmp	w19, w0
     de0:	540001a0 	b.eq	e14 <TEE_Wait+0x54>
     de4:	34000193 	cbz	w19, e14 <TEE_Wait+0x54>
/home/rahulmahadev/hikey_optee/optee_os/lib/libutee/tee_api.c:262
     de8:	b0000064 	adrp	x4, d000 <PRIME_TABLE+0x388>
     dec:	90000060 	adrp	x0, c000 <utee_authenc_update_aad>
     df0:	910fa000 	add	x0, x0, #0x3e8
     df4:	2a1303e5 	mov	w5, w19
     df8:	91235c84 	add	x4, x4, #0x8d7
     dfc:	52800023 	mov	w3, #0x1                   	// #1
     e00:	52800022 	mov	w2, #0x1                   	// #1
     e04:	528020c1 	mov	w1, #0x106                 	// #262
     e08:	94001c44 	bl	7f18 <trace_printf>
     e0c:	2a1303e0 	mov	w0, w19
     e10:	94001162 	bl	5398 <__TEE_Panic>
/home/rahulmahadev/hikey_optee/optee_os/lib/libutee/tee_api.c:265
     e14:	2a1303e0 	mov	w0, w19
     e18:	f9400bf3 	ldr	x19, [sp,#16]
     e1c:	a8c27bfd 	ldp	x29, x30, [sp],#32
     e20:	d65f03c0 	ret

0000000000000e24 <TEE_GetTAPersistentTime>:
TEE_GetTAPersistentTime():
/home/rahulmahadev/hikey_optee/optee_os/lib/libutee/tee_api.c:268
     e24:	a9be7bfd 	stp	x29, x30, [sp,#-32]!
/home/rahulmahadev/hikey_optee/optee_os/lib/libutee/tee_api.c:271
     e28:	aa0003e1 	mov	x1, x0
/home/rahulmahadev/hikey_optee/optee_os/lib/libutee/tee_api.c:268
     e2c:	910003fd 	mov	x29, sp
     e30:	a90153f3 	stp	x19, x20, [sp,#16]
     e34:	aa0003f4 	mov	x20, x0
/home/rahulmahadev/hikey_optee/optee_os/lib/libutee/tee_api.c:271
     e38:	d2800020 	mov	x0, #0x1                   	// #1
     e3c:	94002c2f 	bl	bef8 <utee_get_time>
/home/rahulmahadev/hikey_optee/optee_os/lib/libutee/tee_api.c:273
     e40:	6b1f001f 	cmp	w0, wzr
/home/rahulmahadev/hikey_optee/optee_os/lib/libutee/tee_api.c:271
     e44:	2a0003f3 	mov	w19, w0
/home/rahulmahadev/hikey_optee/optee_os/lib/libutee/tee_api.c:273
     e48:	1299fe00 	mov	w0, #0xffff300f            	// #-53233
     e4c:	1a9f07e1 	cset	w1, ne
     e50:	6b00027f 	cmp	w19, w0
     e54:	1a9f07e0 	cset	w0, ne
     e58:	34000080 	cbz	w0, e68 <TEE_GetTAPersistentTime+0x44>
     e5c:	340002c1 	cbz	w1, eb4 <TEE_GetTAPersistentTime+0x90>
/home/rahulmahadev/hikey_optee/optee_os/lib/libutee/tee_api.c:274
     e60:	b900029f 	str	wzr, [x20]
/home/rahulmahadev/hikey_optee/optee_os/lib/libutee/tee_api.c:275
     e64:	b900069f 	str	wzr, [x20,#4]
/home/rahulmahadev/hikey_optee/optee_os/lib/libutee/tee_api.c:278
     e68:	34000261 	cbz	w1, eb4 <TEE_GetTAPersistentTime+0x90>
/home/rahulmahadev/hikey_optee/optee_os/lib/libutee/tee_api.c:279
     e6c:	11402e61 	add	w1, w19, #0xb, lsl #12
/home/rahulmahadev/hikey_optee/optee_os/lib/libutee/tee_api.c:278
     e70:	7100043f 	cmp	w1, #0x1
     e74:	54000209 	b.ls	eb4 <TEE_GetTAPersistentTime+0x90>
/home/rahulmahadev/hikey_optee/optee_os/lib/libutee/tee_api.c:281
     e78:	129ffe61 	mov	w1, #0xffff000c            	// #-65524
     e7c:	6b01027f 	cmp	w19, w1
     e80:	540001a0 	b.eq	eb4 <TEE_GetTAPersistentTime+0x90>
     e84:	34000180 	cbz	w0, eb4 <TEE_GetTAPersistentTime+0x90>
/home/rahulmahadev/hikey_optee/optee_os/lib/libutee/tee_api.c:283
     e88:	b0000064 	adrp	x4, d000 <PRIME_TABLE+0x388>
     e8c:	90000060 	adrp	x0, c000 <utee_authenc_update_aad>
     e90:	910de000 	add	x0, x0, #0x378
     e94:	2a1303e5 	mov	w5, w19
     e98:	91235c84 	add	x4, x4, #0x8d7
     e9c:	52800023 	mov	w3, #0x1                   	// #1
     ea0:	52800022 	mov	w2, #0x1                   	// #1
     ea4:	52802361 	mov	w1, #0x11b                 	// #283
     ea8:	94001c1c 	bl	7f18 <trace_printf>
     eac:	2a1303e0 	mov	w0, w19
     eb0:	9400113a 	bl	5398 <__TEE_Panic>
/home/rahulmahadev/hikey_optee/optee_os/lib/libutee/tee_api.c:286
     eb4:	2a1303e0 	mov	w0, w19
     eb8:	a94153f3 	ldp	x19, x20, [sp,#16]
     ebc:	a8c27bfd 	ldp	x29, x30, [sp],#32
     ec0:	d65f03c0 	ret

0000000000000ec4 <TEE_SetTAPersistentTime>:
TEE_SetTAPersistentTime():
/home/rahulmahadev/hikey_optee/optee_os/lib/libutee/tee_api.c:289
     ec4:	a9be7bfd 	stp	x29, x30, [sp,#-32]!
     ec8:	910003fd 	mov	x29, sp
     ecc:	f9000bf3 	str	x19, [sp,#16]
/home/rahulmahadev/hikey_optee/optee_os/lib/libutee/tee_api.c:292
     ed0:	94002c0d 	bl	bf04 <utee_set_ta_time>
     ed4:	2a0003f3 	mov	w19, w0
/home/rahulmahadev/hikey_optee/optee_os/lib/libutee/tee_api.c:295
     ed8:	129ffe60 	mov	w0, #0xffff000c            	// #-65524
     edc:	6b00027f 	cmp	w19, w0
     ee0:	1a9f07e1 	cset	w1, ne
/home/rahulmahadev/hikey_optee/optee_os/lib/libutee/tee_api.c:294
     ee4:	6b1f027f 	cmp	w19, wzr
     ee8:	1a9f07e0 	cset	w0, ne
/home/rahulmahadev/hikey_optee/optee_os/lib/libutee/tee_api.c:295
     eec:	6a00003f 	tst	w1, w0
     ef0:	540001e0 	b.eq	f2c <TEE_SetTAPersistentTime+0x68>
     ef4:	1299f7c0 	mov	w0, #0xffff3041            	// #-53183
     ef8:	6b00027f 	cmp	w19, w0
     efc:	54000180 	b.eq	f2c <TEE_SetTAPersistentTime+0x68>
/home/rahulmahadev/hikey_optee/optee_os/lib/libutee/tee_api.c:297
     f00:	b0000064 	adrp	x4, d000 <PRIME_TABLE+0x388>
     f04:	90000060 	adrp	x0, c000 <utee_authenc_update_aad>
     f08:	910d8000 	add	x0, x0, #0x360
     f0c:	2a1303e5 	mov	w5, w19
     f10:	91235c84 	add	x4, x4, #0x8d7
     f14:	52800023 	mov	w3, #0x1                   	// #1
     f18:	52800022 	mov	w2, #0x1                   	// #1
     f1c:	52802521 	mov	w1, #0x129                 	// #297
     f20:	94001bfe 	bl	7f18 <trace_printf>
     f24:	2a1303e0 	mov	w0, w19
     f28:	9400111c 	bl	5398 <__TEE_Panic>
/home/rahulmahadev/hikey_optee/optee_os/lib/libutee/tee_api.c:300
     f2c:	2a1303e0 	mov	w0, w19
     f30:	f9400bf3 	ldr	x19, [sp,#16]
     f34:	a8c27bfd 	ldp	x29, x30, [sp],#32
     f38:	d65f03c0 	ret

0000000000000f3c <TEE_GetREETime>:
TEE_GetREETime():
/home/rahulmahadev/hikey_optee/optee_os/lib/libutee/tee_api.c:303
     f3c:	a9bf7bfd 	stp	x29, x30, [sp,#-16]!
/home/rahulmahadev/hikey_optee/optee_os/lib/libutee/tee_api.c:304
     f40:	aa0003e1 	mov	x1, x0
     f44:	d2800040 	mov	x0, #0x2                   	// #2
/home/rahulmahadev/hikey_optee/optee_os/lib/libutee/tee_api.c:303
     f48:	910003fd 	mov	x29, sp
/home/rahulmahadev/hikey_optee/optee_os/lib/libutee/tee_api.c:304
     f4c:	94002beb 	bl	bef8 <utee_get_time>
/home/rahulmahadev/hikey_optee/optee_os/lib/libutee/tee_api.c:306
     f50:	340001a0 	cbz	w0, f84 <TEE_GetREETime+0x48>
/home/rahulmahadev/hikey_optee/optee_os/lib/libutee/tee_api.c:307
     f54:	b0000064 	adrp	x4, d000 <PRIME_TABLE+0x388>
     f58:	90000060 	adrp	x0, c000 <utee_authenc_update_aad>
     f5c:	52800005 	mov	w5, #0x0                   	// #0
     f60:	91235c84 	add	x4, x4, #0x8d7
     f64:	52800023 	mov	w3, #0x1                   	// #1
     f68:	52800022 	mov	w2, #0x1                   	// #1
     f6c:	52802661 	mov	w1, #0x133                 	// #307
     f70:	910ea000 	add	x0, x0, #0x3a8
     f74:	94001be9 	bl	7f18 <trace_printf>
/home/rahulmahadev/hikey_optee/optee_os/lib/libutee/tee_api.c:308
     f78:	a8c17bfd 	ldp	x29, x30, [sp],#16
/home/rahulmahadev/hikey_optee/optee_os/lib/libutee/tee_api.c:307
     f7c:	52800000 	mov	w0, #0x0                   	// #0
     f80:	14001106 	b	5398 <__TEE_Panic>
/home/rahulmahadev/hikey_optee/optee_os/lib/libutee/tee_api.c:308
     f84:	a8c17bfd 	ldp	x29, x30, [sp],#16
     f88:	d65f03c0 	ret

0000000000000f8c <TEE_Malloc>:
TEE_Malloc():
/home/rahulmahadev/hikey_optee/optee_os/lib/libutee/tee_api.c:312
     f8c:	2a0003e0 	mov	w0, w0
     f90:	1400121c 	b	5800 <tee_user_mem_alloc>

0000000000000f94 <TEE_Realloc>:
TEE_Realloc():
/home/rahulmahadev/hikey_optee/optee_os/lib/libutee/tee_api.c:321
     f94:	2a0103e1 	mov	w1, w1
     f98:	140012bd 	b	5a8c <tee_user_mem_realloc>

0000000000000f9c <TEE_Free>:
TEE_Free():
/home/rahulmahadev/hikey_optee/optee_os/lib/libutee/tee_api.c:326
     f9c:	1400126a 	b	5944 <tee_user_mem_free>

0000000000000fa0 <TEE_CacheClean>:
TEE_CacheClean():
/home/rahulmahadev/hikey_optee/optee_os/lib/libutee/tee_api.c:332
     fa0:	d2800002 	mov	x2, #0x0                   	// #0
     fa4:	14002c80 	b	c1a4 <utee_cache_operation>

0000000000000fa8 <TEE_CacheFlush>:
TEE_CacheFlush():
/home/rahulmahadev/hikey_optee/optee_os/lib/libutee/tee_api.c:336
     fa8:	d2800022 	mov	x2, #0x1                   	// #1
     fac:	14002c7e 	b	c1a4 <utee_cache_operation>

0000000000000fb0 <TEE_CacheInvalidate>:
TEE_CacheInvalidate():
/home/rahulmahadev/hikey_optee/optee_os/lib/libutee/tee_api.c:341
     fb0:	d2800042 	mov	x2, #0x2                   	// #2
     fb4:	14002c7c 	b	c1a4 <utee_cache_operation>

0000000000000fb8 <__utee_from_attr>:
__utee_from_attr():
/home/rahulmahadev/hikey_optee/optee_os/lib/libutee/tee_api_objects.c:43
     fb8:	d2800104 	mov	x4, #0x8                   	// #8
     fbc:	52800305 	mov	w5, #0x18                  	// #24
     fc0:	91002023 	add	x3, x1, #0x8
     fc4:	9ba51042 	umaddl	x2, w2, w5, x4
     fc8:	8b020021 	add	x1, x1, x2
/home/rahulmahadev/hikey_optee/optee_os/lib/libutee/tee_api_objects.c:46 (discriminator 1)
     fcc:	eb01007f 	cmp	x3, x1
     fd0:	540001e0 	b.eq	100c <__utee_from_attr+0x54>
/home/rahulmahadev/hikey_optee/optee_os/lib/libutee/tee_api_objects.c:47
     fd4:	b85f8062 	ldr	w2, [x3,#-8]
     fd8:	b9001002 	str	w2, [x0,#16]
/home/rahulmahadev/hikey_optee/optee_os/lib/libutee/tee_api_objects.c:48
     fdc:	36e800a2 	tbz	w2, #29, ff0 <__utee_from_attr+0x38>
/home/rahulmahadev/hikey_optee/optee_os/lib/libutee/tee_api_objects.c:49
     fe0:	b9400062 	ldr	w2, [x3]
     fe4:	f9000002 	str	x2, [x0]
/home/rahulmahadev/hikey_optee/optee_os/lib/libutee/tee_api_objects.c:50
     fe8:	b9400462 	ldr	w2, [x3,#4]
     fec:	14000004 	b	ffc <__utee_from_attr+0x44>
/home/rahulmahadev/hikey_optee/optee_os/lib/libutee/tee_api_objects.c:52
     ff0:	f9400062 	ldr	x2, [x3]
     ff4:	f9000002 	str	x2, [x0]
/home/rahulmahadev/hikey_optee/optee_os/lib/libutee/tee_api_objects.c:53
     ff8:	b9400862 	ldr	w2, [x3,#8]
     ffc:	f9000402 	str	x2, [x0,#8]
    1000:	91006063 	add	x3, x3, #0x18
    1004:	91006000 	add	x0, x0, #0x18
    1008:	17fffff1 	b	fcc <__utee_from_attr+0x14>
/home/rahulmahadev/hikey_optee/optee_os/lib/libutee/tee_api_objects.c:56
    100c:	d65f03c0 	ret

0000000000001010 <TEE_GetObjectInfo>:
TEE_GetObjectInfo():
/home/rahulmahadev/hikey_optee/optee_os/lib/libutee/tee_api_objects.c:66
    1010:	a9be7bfd 	stp	x29, x30, [sp,#-32]!
    1014:	910003fd 	mov	x29, sp
    1018:	a90153f3 	stp	x19, x20, [sp,#16]
    101c:	aa0103f3 	mov	x19, x1
/home/rahulmahadev/hikey_optee/optee_os/lib/libutee/tee_api_objects.c:69
    1020:	94002bd7 	bl	bf7c <utee_cryp_obj_get_info>
    1024:	2a0003f4 	mov	w20, w0
/home/rahulmahadev/hikey_optee/optee_os/lib/libutee/tee_api_objects.c:71
    1028:	34000180 	cbz	w0, 1058 <TEE_GetObjectInfo+0x48>
/home/rahulmahadev/hikey_optee/optee_os/lib/libutee/tee_api_objects.c:72
    102c:	2a0003e5 	mov	w5, w0
    1030:	90000064 	adrp	x4, d000 <PRIME_TABLE+0x388>
    1034:	f0000040 	adrp	x0, c000 <utee_authenc_update_aad>
    1038:	91235c84 	add	x4, x4, #0x8d7
    103c:	91106000 	add	x0, x0, #0x418
    1040:	52800023 	mov	w3, #0x1                   	// #1
    1044:	52800022 	mov	w2, #0x1                   	// #1
    1048:	52800901 	mov	w1, #0x48                  	// #72
    104c:	94001bb3 	bl	7f18 <trace_printf>
    1050:	2a1403e0 	mov	w0, w20
    1054:	940010d1 	bl	5398 <__TEE_Panic>
/home/rahulmahadev/hikey_optee/optee_os/lib/libutee/tee_api_objects.c:74
    1058:	528017c0 	mov	w0, #0xbe                  	// #190
    105c:	b9400261 	ldr	w1, [x19]
    1060:	72b40000 	movk	w0, #0xa000, lsl #16
    1064:	6b00003f 	cmp	w1, w0
    1068:	540000e1 	b.ne	1084 <TEE_GetObjectInfo+0x74>
/home/rahulmahadev/hikey_optee/optee_os/lib/libutee/tee_api_objects.c:75
    106c:	b900067f 	str	wzr, [x19,#4]
/home/rahulmahadev/hikey_optee/optee_os/lib/libutee/tee_api_objects.c:76
    1070:	b9000a7f 	str	wzr, [x19,#8]
/home/rahulmahadev/hikey_optee/optee_os/lib/libutee/tee_api_objects.c:77
    1074:	b9000e7f 	str	wzr, [x19,#12]
/home/rahulmahadev/hikey_optee/optee_os/lib/libutee/tee_api_objects.c:78
    1078:	b900127f 	str	wzr, [x19,#16]
/home/rahulmahadev/hikey_optee/optee_os/lib/libutee/tee_api_objects.c:79
    107c:	b900167f 	str	wzr, [x19,#20]
/home/rahulmahadev/hikey_optee/optee_os/lib/libutee/tee_api_objects.c:80
    1080:	b9001a7f 	str	wzr, [x19,#24]
/home/rahulmahadev/hikey_optee/optee_os/lib/libutee/tee_api_objects.c:82
    1084:	a94153f3 	ldp	x19, x20, [sp,#16]
    1088:	a8c27bfd 	ldp	x29, x30, [sp],#32
    108c:	d65f03c0 	ret

0000000000001090 <TEE_GetObjectInfo1>:
TEE_GetObjectInfo1():
/home/rahulmahadev/hikey_optee/optee_os/lib/libutee/tee_api_objects.c:85
    1090:	a9be7bfd 	stp	x29, x30, [sp,#-32]!
    1094:	910003fd 	mov	x29, sp
    1098:	f9000bf3 	str	x19, [sp,#16]
/home/rahulmahadev/hikey_optee/optee_os/lib/libutee/tee_api_objects.c:88
    109c:	94002bb8 	bl	bf7c <utee_cryp_obj_get_info>
/home/rahulmahadev/hikey_optee/optee_os/lib/libutee/tee_api_objects.c:91
    10a0:	121e7801 	and	w1, w0, #0xfffffffd
/home/rahulmahadev/hikey_optee/optee_os/lib/libutee/tee_api_objects.c:88
    10a4:	2a0003f3 	mov	w19, w0
/home/rahulmahadev/hikey_optee/optee_os/lib/libutee/tee_api_objects.c:91
    10a8:	52800020 	mov	w0, #0x1                   	// #1
    10ac:	72be0200 	movk	w0, #0xf010, lsl #16
    10b0:	6b00003f 	cmp	w1, w0
    10b4:	540001a0 	b.eq	10e8 <TEE_GetObjectInfo1+0x58>
    10b8:	34000193 	cbz	w19, 10e8 <TEE_GetObjectInfo1+0x58>
/home/rahulmahadev/hikey_optee/optee_os/lib/libutee/tee_api_objects.c:93
    10bc:	90000064 	adrp	x4, d000 <PRIME_TABLE+0x388>
    10c0:	f0000040 	adrp	x0, c000 <utee_authenc_update_aad>
    10c4:	9110c000 	add	x0, x0, #0x430
    10c8:	2a1303e5 	mov	w5, w19
    10cc:	91235c84 	add	x4, x4, #0x8d7
    10d0:	52800023 	mov	w3, #0x1                   	// #1
    10d4:	52800022 	mov	w2, #0x1                   	// #1
    10d8:	52800ba1 	mov	w1, #0x5d                  	// #93
    10dc:	94001b8f 	bl	7f18 <trace_printf>
    10e0:	2a1303e0 	mov	w0, w19
    10e4:	940010ad 	bl	5398 <__TEE_Panic>
/home/rahulmahadev/hikey_optee/optee_os/lib/libutee/tee_api_objects.c:96
    10e8:	2a1303e0 	mov	w0, w19
    10ec:	f9400bf3 	ldr	x19, [sp,#16]
    10f0:	a8c27bfd 	ldp	x29, x30, [sp],#32
    10f4:	d65f03c0 	ret

00000000000010f8 <TEE_RestrictObjectUsage1>:
TEE_RestrictObjectUsage1():
/home/rahulmahadev/hikey_optee/optee_os/lib/libutee/tee_api_objects.c:120
    10f8:	a9be7bfd 	stp	x29, x30, [sp,#-32]!
/home/rahulmahadev/hikey_optee/optee_os/lib/libutee/tee_api_objects.c:123
    10fc:	2a0103e1 	mov	w1, w1
/home/rahulmahadev/hikey_optee/optee_os/lib/libutee/tee_api_objects.c:120
    1100:	910003fd 	mov	x29, sp
    1104:	f9000bf3 	str	x19, [sp,#16]
/home/rahulmahadev/hikey_optee/optee_os/lib/libutee/tee_api_objects.c:123
    1108:	94002ba0 	bl	bf88 <utee_cryp_obj_restrict_usage>
/home/rahulmahadev/hikey_optee/optee_os/lib/libutee/tee_api_objects.c:126
    110c:	121e7801 	and	w1, w0, #0xfffffffd
/home/rahulmahadev/hikey_optee/optee_os/lib/libutee/tee_api_objects.c:123
    1110:	2a0003f3 	mov	w19, w0
/home/rahulmahadev/hikey_optee/optee_os/lib/libutee/tee_api_objects.c:126
    1114:	52800020 	mov	w0, #0x1                   	// #1
    1118:	72be0200 	movk	w0, #0xf010, lsl #16
    111c:	6b00003f 	cmp	w1, w0
    1120:	540001a0 	b.eq	1154 <TEE_RestrictObjectUsage1+0x5c>
    1124:	34000193 	cbz	w19, 1154 <TEE_RestrictObjectUsage1+0x5c>
/home/rahulmahadev/hikey_optee/optee_os/lib/libutee/tee_api_objects.c:128
    1128:	90000064 	adrp	x4, d000 <PRIME_TABLE+0x388>
    112c:	f0000040 	adrp	x0, c000 <utee_authenc_update_aad>
    1130:	9112c000 	add	x0, x0, #0x4b0
    1134:	2a1303e5 	mov	w5, w19
    1138:	91235c84 	add	x4, x4, #0x8d7
    113c:	52800023 	mov	w3, #0x1                   	// #1
    1140:	52800022 	mov	w2, #0x1                   	// #1
    1144:	52801001 	mov	w1, #0x80                  	// #128
    1148:	94001b74 	bl	7f18 <trace_printf>
    114c:	2a1303e0 	mov	w0, w19
    1150:	94001092 	bl	5398 <__TEE_Panic>
/home/rahulmahadev/hikey_optee/optee_os/lib/libutee/tee_api_objects.c:131
    1154:	2a1303e0 	mov	w0, w19
    1158:	f9400bf3 	ldr	x19, [sp,#16]
    115c:	a8c27bfd 	ldp	x29, x30, [sp],#32
    1160:	d65f03c0 	ret

0000000000001164 <TEE_RestrictObjectUsage>:
TEE_RestrictObjectUsage():
/home/rahulmahadev/hikey_optee/optee_os/lib/libutee/tee_api_objects.c:105
    1164:	a9bc7bfd 	stp	x29, x30, [sp,#-64]!
    1168:	910003fd 	mov	x29, sp
    116c:	a90153f3 	stp	x19, x20, [sp,#16]
    1170:	2a0103f4 	mov	w20, w1
/home/rahulmahadev/hikey_optee/optee_os/lib/libutee/tee_api_objects.c:109
    1174:	910083a1 	add	x1, x29, #0x20
/home/rahulmahadev/hikey_optee/optee_os/lib/libutee/tee_api_objects.c:105
    1178:	aa0003f3 	mov	x19, x0
/home/rahulmahadev/hikey_optee/optee_os/lib/libutee/tee_api_objects.c:109
    117c:	94002b80 	bl	bf7c <utee_cryp_obj_get_info>
/home/rahulmahadev/hikey_optee/optee_os/lib/libutee/tee_api_objects.c:110
    1180:	528017c2 	mov	w2, #0xbe                  	// #190
    1184:	b94023a0 	ldr	w0, [x29,#32]
    1188:	72b40002 	movk	w2, #0xa000, lsl #16
    118c:	6b02001f 	cmp	w0, w2
    1190:	54000200 	b.eq	11d0 <TEE_RestrictObjectUsage+0x6c>
/home/rahulmahadev/hikey_optee/optee_os/lib/libutee/tee_api_objects.c:113
    1194:	2a1403e1 	mov	w1, w20
    1198:	aa1303e0 	mov	x0, x19
    119c:	97ffffd7 	bl	10f8 <TEE_RestrictObjectUsage1>
/home/rahulmahadev/hikey_optee/optee_os/lib/libutee/tee_api_objects.c:115
    11a0:	34000180 	cbz	w0, 11d0 <TEE_RestrictObjectUsage+0x6c>
/home/rahulmahadev/hikey_optee/optee_os/lib/libutee/tee_api_objects.c:116
    11a4:	90000064 	adrp	x4, d000 <PRIME_TABLE+0x388>
    11a8:	f0000040 	adrp	x0, c000 <utee_authenc_update_aad>
    11ac:	91116000 	add	x0, x0, #0x458
    11b0:	52800005 	mov	w5, #0x0                   	// #0
    11b4:	91235c84 	add	x4, x4, #0x8d7
    11b8:	52800023 	mov	w3, #0x1                   	// #1
    11bc:	52800022 	mov	w2, #0x1                   	// #1
    11c0:	52800e81 	mov	w1, #0x74                  	// #116
    11c4:	94001b55 	bl	7f18 <trace_printf>
    11c8:	52800000 	mov	w0, #0x0                   	// #0
    11cc:	94001073 	bl	5398 <__TEE_Panic>
/home/rahulmahadev/hikey_optee/optee_os/lib/libutee/tee_api_objects.c:117
    11d0:	a94153f3 	ldp	x19, x20, [sp,#16]
    11d4:	a8c47bfd 	ldp	x29, x30, [sp],#64
    11d8:	d65f03c0 	ret

00000000000011dc <TEE_GetObjectBufferAttribute>:
TEE_GetObjectBufferAttribute():
/home/rahulmahadev/hikey_optee/optee_os/lib/libutee/tee_api_objects.c:136
    11dc:	a9b97bfd 	stp	x29, x30, [sp,#-112]!
    11e0:	910003fd 	mov	x29, sp
    11e4:	a9025bf5 	stp	x21, x22, [sp,#32]
    11e8:	2a0103f5 	mov	w21, w1
/home/rahulmahadev/hikey_optee/optee_os/lib/libutee/tee_api_objects.c:141
    11ec:	910143a1 	add	x1, x29, #0x50
/home/rahulmahadev/hikey_optee/optee_os/lib/libutee/tee_api_objects.c:136
    11f0:	a90153f3 	stp	x19, x20, [sp,#16]
    11f4:	f9001fa2 	str	x2, [x29,#56]
    11f8:	aa0003f6 	mov	x22, x0
    11fc:	aa0303f4 	mov	x20, x3
/home/rahulmahadev/hikey_optee/optee_os/lib/libutee/tee_api_objects.c:141
    1200:	94002b5f 	bl	bf7c <utee_cryp_obj_get_info>
/home/rahulmahadev/hikey_optee/optee_os/lib/libutee/tee_api_objects.c:142
    1204:	f9401fa2 	ldr	x2, [x29,#56]
/home/rahulmahadev/hikey_optee/optee_os/lib/libutee/tee_api_objects.c:141
    1208:	2a0003f3 	mov	w19, w0
/home/rahulmahadev/hikey_optee/optee_os/lib/libutee/tee_api_objects.c:142
    120c:	35000180 	cbnz	w0, 123c <TEE_GetObjectBufferAttribute+0x60>
/home/rahulmahadev/hikey_optee/optee_os/lib/libutee/tee_api_objects.c:147
    1210:	129fff33 	mov	w19, #0xffff0006            	// #-65530
/home/rahulmahadev/hikey_optee/optee_os/lib/libutee/tee_api_objects.c:146
    1214:	37e80155 	tbnz	w21, #29, 123c <TEE_GetObjectBufferAttribute+0x60>
/home/rahulmahadev/hikey_optee/optee_os/lib/libutee/tee_api_objects.c:151
    1218:	9101c3a3 	add	x3, x29, #0x70
    121c:	b9400280 	ldr	w0, [x20]
/home/rahulmahadev/hikey_optee/optee_os/lib/libutee/tee_api_objects.c:152
    1220:	2a1503e1 	mov	w1, w21
/home/rahulmahadev/hikey_optee/optee_os/lib/libutee/tee_api_objects.c:151
    1224:	f81d8c60 	str	x0, [x3,#-40]!
/home/rahulmahadev/hikey_optee/optee_os/lib/libutee/tee_api_objects.c:152
    1228:	aa1603e0 	mov	x0, x22
    122c:	94002b5a 	bl	bf94 <utee_cryp_obj_get_attr>
    1230:	2a0003f3 	mov	w19, w0
/home/rahulmahadev/hikey_optee/optee_os/lib/libutee/tee_api_objects.c:154
    1234:	f94027a0 	ldr	x0, [x29,#72]
    1238:	b9000280 	str	w0, [x20]
/home/rahulmahadev/hikey_optee/optee_os/lib/libutee/tee_api_objects.c:157
    123c:	340002b3 	cbz	w19, 1290 <TEE_GetObjectBufferAttribute+0xb4>
/home/rahulmahadev/hikey_optee/optee_os/lib/libutee/tee_api_objects.c:158
    1240:	11403e60 	add	w0, w19, #0xf, lsl #12
    1244:	113fe000 	add	w0, w0, #0xff8
/home/rahulmahadev/hikey_optee/optee_os/lib/libutee/tee_api_objects.c:157
    1248:	721c781f 	tst	w0, #0xfffffff7
    124c:	54000220 	b.eq	1290 <TEE_GetObjectBufferAttribute+0xb4>
/home/rahulmahadev/hikey_optee/optee_os/lib/libutee/tee_api_objects.c:160
    1250:	52800021 	mov	w1, #0x1                   	// #1
    1254:	121e7a60 	and	w0, w19, #0xfffffffd
    1258:	72be0201 	movk	w1, #0xf010, lsl #16
    125c:	6b01001f 	cmp	w0, w1
    1260:	54000180 	b.eq	1290 <TEE_GetObjectBufferAttribute+0xb4>
/home/rahulmahadev/hikey_optee/optee_os/lib/libutee/tee_api_objects.c:162
    1264:	90000064 	adrp	x4, d000 <PRIME_TABLE+0x388>
    1268:	f0000040 	adrp	x0, c000 <utee_authenc_update_aad>
    126c:	9114e000 	add	x0, x0, #0x538
    1270:	52800005 	mov	w5, #0x0                   	// #0
    1274:	91235c84 	add	x4, x4, #0x8d7
    1278:	52800023 	mov	w3, #0x1                   	// #1
    127c:	52800022 	mov	w2, #0x1                   	// #1
    1280:	52801441 	mov	w1, #0xa2                  	// #162
    1284:	94001b25 	bl	7f18 <trace_printf>
    1288:	52800000 	mov	w0, #0x0                   	// #0
    128c:	94001043 	bl	5398 <__TEE_Panic>
/home/rahulmahadev/hikey_optee/optee_os/lib/libutee/tee_api_objects.c:165
    1290:	2a1303e0 	mov	w0, w19
    1294:	a94153f3 	ldp	x19, x20, [sp,#16]
    1298:	a9425bf5 	ldp	x21, x22, [sp,#32]
    129c:	a8c77bfd 	ldp	x29, x30, [sp],#112
    12a0:	d65f03c0 	ret

00000000000012a4 <TEE_GetObjectValueAttribute>:
TEE_GetObjectValueAttribute():
/home/rahulmahadev/hikey_optee/optee_os/lib/libutee/tee_api_objects.c:170
    12a4:	a9b97bfd 	stp	x29, x30, [sp,#-112]!
    12a8:	910003fd 	mov	x29, sp
    12ac:	a90153f3 	stp	x19, x20, [sp,#16]
    12b0:	2a0103f4 	mov	w20, w1
/home/rahulmahadev/hikey_optee/optee_os/lib/libutee/tee_api_objects.c:174
    12b4:	d2800101 	mov	x1, #0x8                   	// #8
    12b8:	f90027a1 	str	x1, [x29,#72]
/home/rahulmahadev/hikey_optee/optee_os/lib/libutee/tee_api_objects.c:176
    12bc:	910143a1 	add	x1, x29, #0x50
/home/rahulmahadev/hikey_optee/optee_os/lib/libutee/tee_api_objects.c:170
    12c0:	a9025bf5 	stp	x21, x22, [sp,#32]
    12c4:	f9001bf7 	str	x23, [sp,#48]
    12c8:	aa0203f6 	mov	x22, x2
    12cc:	aa0003f7 	mov	x23, x0
    12d0:	aa0303f5 	mov	x21, x3
/home/rahulmahadev/hikey_optee/optee_os/lib/libutee/tee_api_objects.c:176
    12d4:	94002b2a 	bl	bf7c <utee_cryp_obj_get_info>
    12d8:	2a0003f3 	mov	w19, w0
/home/rahulmahadev/hikey_optee/optee_os/lib/libutee/tee_api_objects.c:177
    12dc:	35000120 	cbnz	w0, 1300 <TEE_GetObjectValueAttribute+0x5c>
/home/rahulmahadev/hikey_optee/optee_os/lib/libutee/tee_api_objects.c:182
    12e0:	129fff33 	mov	w19, #0xffff0006            	// #-65530
/home/rahulmahadev/hikey_optee/optee_os/lib/libutee/tee_api_objects.c:181
    12e4:	36e800f4 	tbz	w20, #29, 1300 <TEE_GetObjectValueAttribute+0x5c>
/home/rahulmahadev/hikey_optee/optee_os/lib/libutee/tee_api_objects.c:186
    12e8:	910123a3 	add	x3, x29, #0x48
    12ec:	910103a2 	add	x2, x29, #0x40
    12f0:	2a1403e1 	mov	w1, w20
    12f4:	aa1703e0 	mov	x0, x23
    12f8:	94002b27 	bl	bf94 <utee_cryp_obj_get_attr>
    12fc:	2a0003f3 	mov	w19, w0
/home/rahulmahadev/hikey_optee/optee_os/lib/libutee/tee_api_objects.c:190
    1300:	34000293 	cbz	w19, 1350 <TEE_GetObjectValueAttribute+0xac>
    1304:	129ffee0 	mov	w0, #0xffff0008            	// #-65528
    1308:	6b00027f 	cmp	w19, w0
    130c:	54000220 	b.eq	1350 <TEE_GetObjectValueAttribute+0xac>
/home/rahulmahadev/hikey_optee/optee_os/lib/libutee/tee_api_objects.c:192
    1310:	52800021 	mov	w1, #0x1                   	// #1
    1314:	121e7a60 	and	w0, w19, #0xfffffffd
    1318:	72be0201 	movk	w1, #0xf010, lsl #16
    131c:	6b01001f 	cmp	w0, w1
    1320:	54000180 	b.eq	1350 <TEE_GetObjectValueAttribute+0xac>
/home/rahulmahadev/hikey_optee/optee_os/lib/libutee/tee_api_objects.c:194
    1324:	90000064 	adrp	x4, d000 <PRIME_TABLE+0x388>
    1328:	f0000040 	adrp	x0, c000 <utee_authenc_update_aad>
    132c:	910fe000 	add	x0, x0, #0x3f8
    1330:	52800005 	mov	w5, #0x0                   	// #0
    1334:	91235c84 	add	x4, x4, #0x8d7
    1338:	52800023 	mov	w3, #0x1                   	// #1
    133c:	52800022 	mov	w2, #0x1                   	// #1
    1340:	52801841 	mov	w1, #0xc2                  	// #194
    1344:	94001af5 	bl	7f18 <trace_printf>
    1348:	52800000 	mov	w0, #0x0                   	// #0
    134c:	94001013 	bl	5398 <__TEE_Panic>
/home/rahulmahadev/hikey_optee/optee_os/lib/libutee/tee_api_objects.c:196
    1350:	f94027a0 	ldr	x0, [x29,#72]
    1354:	f100201f 	cmp	x0, #0x8
    1358:	54000180 	b.eq	1388 <TEE_GetObjectValueAttribute+0xe4>
/home/rahulmahadev/hikey_optee/optee_os/lib/libutee/tee_api_objects.c:197
    135c:	90000064 	adrp	x4, d000 <PRIME_TABLE+0x388>
    1360:	f0000040 	adrp	x0, c000 <utee_authenc_update_aad>
    1364:	910fe000 	add	x0, x0, #0x3f8
    1368:	52800005 	mov	w5, #0x0                   	// #0
    136c:	91235c84 	add	x4, x4, #0x8d7
    1370:	52800023 	mov	w3, #0x1                   	// #1
    1374:	52800022 	mov	w2, #0x1                   	// #1
    1378:	528018a1 	mov	w1, #0xc5                  	// #197
    137c:	94001ae7 	bl	7f18 <trace_printf>
    1380:	52800000 	mov	w0, #0x0                   	// #0
    1384:	94001005 	bl	5398 <__TEE_Panic>
/home/rahulmahadev/hikey_optee/optee_os/lib/libutee/tee_api_objects.c:199
    1388:	b94043a0 	ldr	w0, [x29,#64]
    138c:	b90002c0 	str	w0, [x22]
/home/rahulmahadev/hikey_optee/optee_os/lib/libutee/tee_api_objects.c:200
    1390:	b94047a0 	ldr	w0, [x29,#68]
    1394:	b90002a0 	str	w0, [x21]
/home/rahulmahadev/hikey_optee/optee_os/lib/libutee/tee_api_objects.c:203
    1398:	2a1303e0 	mov	w0, w19
    139c:	a9425bf5 	ldp	x21, x22, [sp,#32]
    13a0:	a94153f3 	ldp	x19, x20, [sp,#16]
    13a4:	f9401bf7 	ldr	x23, [sp,#48]
    13a8:	a8c77bfd 	ldp	x29, x30, [sp],#112
    13ac:	d65f03c0 	ret

00000000000013b0 <TEE_CloseObject>:
TEE_CloseObject():
/home/rahulmahadev/hikey_optee/optee_os/lib/libutee/tee_api_objects.c:206
    13b0:	a9bf7bfd 	stp	x29, x30, [sp,#-16]!
    13b4:	910003fd 	mov	x29, sp
/home/rahulmahadev/hikey_optee/optee_os/lib/libutee/tee_api_objects.c:209
    13b8:	b40001e0 	cbz	x0, 13f4 <TEE_CloseObject+0x44>
/home/rahulmahadev/hikey_optee/optee_os/lib/libutee/tee_api_objects.c:212
    13bc:	94002afc 	bl	bfac <utee_cryp_obj_close>
/home/rahulmahadev/hikey_optee/optee_os/lib/libutee/tee_api_objects.c:213
    13c0:	340001a0 	cbz	w0, 13f4 <TEE_CloseObject+0x44>
/home/rahulmahadev/hikey_optee/optee_os/lib/libutee/tee_api_objects.c:214
    13c4:	90000064 	adrp	x4, d000 <PRIME_TABLE+0x388>
    13c8:	f0000040 	adrp	x0, c000 <utee_authenc_update_aad>
    13cc:	52800005 	mov	w5, #0x0                   	// #0
    13d0:	91235c84 	add	x4, x4, #0x8d7
    13d4:	52800023 	mov	w3, #0x1                   	// #1
    13d8:	52800022 	mov	w2, #0x1                   	// #1
    13dc:	52801ac1 	mov	w1, #0xd6                  	// #214
    13e0:	91112000 	add	x0, x0, #0x448
    13e4:	94001acd 	bl	7f18 <trace_printf>
/home/rahulmahadev/hikey_optee/optee_os/lib/libutee/tee_api_objects.c:215
    13e8:	a8c17bfd 	ldp	x29, x30, [sp],#16
/home/rahulmahadev/hikey_optee/optee_os/lib/libutee/tee_api_objects.c:214
    13ec:	52800000 	mov	w0, #0x0                   	// #0
    13f0:	14000fea 	b	5398 <__TEE_Panic>
/home/rahulmahadev/hikey_optee/optee_os/lib/libutee/tee_api_objects.c:215
    13f4:	a8c17bfd 	ldp	x29, x30, [sp],#16
    13f8:	d65f03c0 	ret

00000000000013fc <TEE_AllocateTransientObject>:
TEE_AllocateTransientObject():
/home/rahulmahadev/hikey_optee/optee_os/lib/libutee/tee_api_objects.c:222
    13fc:	a9bd7bfd 	stp	x29, x30, [sp,#-48]!
/home/rahulmahadev/hikey_optee/optee_os/lib/libutee/tee_api_objects.c:226
    1400:	2a0103e1 	mov	w1, w1
    1404:	2a0003e0 	mov	w0, w0
/home/rahulmahadev/hikey_optee/optee_os/lib/libutee/tee_api_objects.c:222
    1408:	910003fd 	mov	x29, sp
    140c:	a90153f3 	stp	x19, x20, [sp,#16]
    1410:	aa0203f4 	mov	x20, x2
/home/rahulmahadev/hikey_optee/optee_os/lib/libutee/tee_api_objects.c:226
    1414:	9100b3a2 	add	x2, x29, #0x2c
    1418:	94002ae2 	bl	bfa0 <utee_cryp_obj_alloc>
    141c:	2a0003f3 	mov	w19, w0
/home/rahulmahadev/hikey_optee/optee_os/lib/libutee/tee_api_objects.c:228
    1420:	129ffe60 	mov	w0, #0xffff000c            	// #-65524
    1424:	6b00027f 	cmp	w19, w0
    1428:	54000220 	b.eq	146c <TEE_AllocateTransientObject+0x70>
    142c:	34000213 	cbz	w19, 146c <TEE_AllocateTransientObject+0x70>
/home/rahulmahadev/hikey_optee/optee_os/lib/libutee/tee_api_objects.c:229
    1430:	129ffea0 	mov	w0, #0xffff000a            	// #-65526
    1434:	6b00027f 	cmp	w19, w0
    1438:	54000200 	b.eq	1478 <TEE_AllocateTransientObject+0x7c>
/home/rahulmahadev/hikey_optee/optee_os/lib/libutee/tee_api_objects.c:231
    143c:	90000064 	adrp	x4, d000 <PRIME_TABLE+0x388>
    1440:	f0000040 	adrp	x0, c000 <utee_authenc_update_aad>
    1444:	52800005 	mov	w5, #0x0                   	// #0
    1448:	91235c84 	add	x4, x4, #0x8d7
    144c:	52800023 	mov	w3, #0x1                   	// #1
    1450:	52800022 	mov	w2, #0x1                   	// #1
    1454:	52801ce1 	mov	w1, #0xe7                  	// #231
    1458:	91124000 	add	x0, x0, #0x490
    145c:	94001aaf 	bl	7f18 <trace_printf>
    1460:	52800000 	mov	w0, #0x0                   	// #0
    1464:	94000fcd 	bl	5398 <__TEE_Panic>
    1468:	14000004 	b	1478 <TEE_AllocateTransientObject+0x7c>
/home/rahulmahadev/hikey_optee/optee_os/lib/libutee/tee_api_objects.c:233
    146c:	35000073 	cbnz	w19, 1478 <TEE_AllocateTransientObject+0x7c>
/home/rahulmahadev/hikey_optee/optee_os/lib/libutee/tee_api_objects.c:234
    1470:	b9402fa0 	ldr	w0, [x29,#44]
    1474:	f9000280 	str	x0, [x20]
/home/rahulmahadev/hikey_optee/optee_os/lib/libutee/tee_api_objects.c:237
    1478:	2a1303e0 	mov	w0, w19
    147c:	a94153f3 	ldp	x19, x20, [sp,#16]
    1480:	a8c37bfd 	ldp	x29, x30, [sp],#48
    1484:	d65f03c0 	ret

0000000000001488 <TEE_FreeTransientObject>:
TEE_FreeTransientObject():
/home/rahulmahadev/hikey_optee/optee_os/lib/libutee/tee_api_objects.c:240
    1488:	a9bc7bfd 	stp	x29, x30, [sp,#-64]!
    148c:	910003fd 	mov	x29, sp
    1490:	f9000bf3 	str	x19, [sp,#16]
/home/rahulmahadev/hikey_optee/optee_os/lib/libutee/tee_api_objects.c:244
    1494:	b4000560 	cbz	x0, 1540 <TEE_FreeTransientObject+0xb8>
/home/rahulmahadev/hikey_optee/optee_os/lib/libutee/tee_api_objects.c:247
    1498:	910083a1 	add	x1, x29, #0x20
    149c:	aa0003f3 	mov	x19, x0
    14a0:	94002ab7 	bl	bf7c <utee_cryp_obj_get_info>
/home/rahulmahadev/hikey_optee/optee_os/lib/libutee/tee_api_objects.c:248
    14a4:	34000180 	cbz	w0, 14d4 <TEE_FreeTransientObject+0x4c>
/home/rahulmahadev/hikey_optee/optee_os/lib/libutee/tee_api_objects.c:249
    14a8:	90000064 	adrp	x4, d000 <PRIME_TABLE+0x388>
    14ac:	f0000040 	adrp	x0, c000 <utee_authenc_update_aad>
    14b0:	9113a000 	add	x0, x0, #0x4e8
    14b4:	52800005 	mov	w5, #0x0                   	// #0
    14b8:	91235c84 	add	x4, x4, #0x8d7
    14bc:	52800023 	mov	w3, #0x1                   	// #1
    14c0:	52800022 	mov	w2, #0x1                   	// #1
    14c4:	52801f21 	mov	w1, #0xf9                  	// #249
    14c8:	94001a94 	bl	7f18 <trace_printf>
    14cc:	52800000 	mov	w0, #0x0                   	// #0
    14d0:	94000fb2 	bl	5398 <__TEE_Panic>
/home/rahulmahadev/hikey_optee/optee_os/lib/libutee/tee_api_objects.c:251
    14d4:	b9403ba0 	ldr	w0, [x29,#56]
    14d8:	36800180 	tbz	w0, #16, 1508 <TEE_FreeTransientObject+0x80>
/home/rahulmahadev/hikey_optee/optee_os/lib/libutee/tee_api_objects.c:252
    14dc:	90000064 	adrp	x4, d000 <PRIME_TABLE+0x388>
    14e0:	f0000040 	adrp	x0, c000 <utee_authenc_update_aad>
    14e4:	9113a000 	add	x0, x0, #0x4e8
    14e8:	52800005 	mov	w5, #0x0                   	// #0
    14ec:	91235c84 	add	x4, x4, #0x8d7
    14f0:	52800023 	mov	w3, #0x1                   	// #1
    14f4:	52800022 	mov	w2, #0x1                   	// #1
    14f8:	52801f81 	mov	w1, #0xfc                  	// #252
    14fc:	94001a87 	bl	7f18 <trace_printf>
    1500:	52800000 	mov	w0, #0x0                   	// #0
    1504:	94000fa5 	bl	5398 <__TEE_Panic>
/home/rahulmahadev/hikey_optee/optee_os/lib/libutee/tee_api_objects.c:254
    1508:	aa1303e0 	mov	x0, x19
    150c:	94002aa8 	bl	bfac <utee_cryp_obj_close>
/home/rahulmahadev/hikey_optee/optee_os/lib/libutee/tee_api_objects.c:255
    1510:	34000180 	cbz	w0, 1540 <TEE_FreeTransientObject+0xb8>
/home/rahulmahadev/hikey_optee/optee_os/lib/libutee/tee_api_objects.c:256
    1514:	90000064 	adrp	x4, d000 <PRIME_TABLE+0x388>
    1518:	f0000040 	adrp	x0, c000 <utee_authenc_update_aad>
    151c:	9113a000 	add	x0, x0, #0x4e8
    1520:	52800005 	mov	w5, #0x0                   	// #0
    1524:	91235c84 	add	x4, x4, #0x8d7
    1528:	52800023 	mov	w3, #0x1                   	// #1
    152c:	52800022 	mov	w2, #0x1                   	// #1
    1530:	52802001 	mov	w1, #0x100                 	// #256
    1534:	94001a79 	bl	7f18 <trace_printf>
    1538:	52800000 	mov	w0, #0x0                   	// #0
    153c:	94000f97 	bl	5398 <__TEE_Panic>
/home/rahulmahadev/hikey_optee/optee_os/lib/libutee/tee_api_objects.c:257
    1540:	f9400bf3 	ldr	x19, [sp,#16]
    1544:	a8c47bfd 	ldp	x29, x30, [sp],#64
    1548:	d65f03c0 	ret

000000000000154c <TEE_ResetTransientObject>:
TEE_ResetTransientObject():
/home/rahulmahadev/hikey_optee/optee_os/lib/libutee/tee_api_objects.c:260
    154c:	a9bc7bfd 	stp	x29, x30, [sp,#-64]!
    1550:	910003fd 	mov	x29, sp
    1554:	f9000bf3 	str	x19, [sp,#16]
/home/rahulmahadev/hikey_optee/optee_os/lib/libutee/tee_api_objects.c:264
    1558:	b4000560 	cbz	x0, 1604 <TEE_ResetTransientObject+0xb8>
/home/rahulmahadev/hikey_optee/optee_os/lib/libutee/tee_api_objects.c:267
    155c:	910083a1 	add	x1, x29, #0x20
    1560:	aa0003f3 	mov	x19, x0
    1564:	94002a86 	bl	bf7c <utee_cryp_obj_get_info>
/home/rahulmahadev/hikey_optee/optee_os/lib/libutee/tee_api_objects.c:268
    1568:	34000180 	cbz	w0, 1598 <TEE_ResetTransientObject+0x4c>
/home/rahulmahadev/hikey_optee/optee_os/lib/libutee/tee_api_objects.c:269
    156c:	90000064 	adrp	x4, d000 <PRIME_TABLE+0x388>
    1570:	f0000040 	adrp	x0, c000 <utee_authenc_update_aad>
    1574:	91140000 	add	x0, x0, #0x500
    1578:	52800005 	mov	w5, #0x0                   	// #0
    157c:	91235c84 	add	x4, x4, #0x8d7
    1580:	52800023 	mov	w3, #0x1                   	// #1
    1584:	52800022 	mov	w2, #0x1                   	// #1
    1588:	528021a1 	mov	w1, #0x10d                 	// #269
    158c:	94001a63 	bl	7f18 <trace_printf>
    1590:	52800000 	mov	w0, #0x0                   	// #0
    1594:	94000f81 	bl	5398 <__TEE_Panic>
/home/rahulmahadev/hikey_optee/optee_os/lib/libutee/tee_api_objects.c:271
    1598:	b9403ba0 	ldr	w0, [x29,#56]
    159c:	36800180 	tbz	w0, #16, 15cc <TEE_ResetTransientObject+0x80>
/home/rahulmahadev/hikey_optee/optee_os/lib/libutee/tee_api_objects.c:272
    15a0:	90000064 	adrp	x4, d000 <PRIME_TABLE+0x388>
    15a4:	f0000040 	adrp	x0, c000 <utee_authenc_update_aad>
    15a8:	91140000 	add	x0, x0, #0x500
    15ac:	52800005 	mov	w5, #0x0                   	// #0
    15b0:	91235c84 	add	x4, x4, #0x8d7
    15b4:	52800023 	mov	w3, #0x1                   	// #1
    15b8:	52800022 	mov	w2, #0x1                   	// #1
    15bc:	52802201 	mov	w1, #0x110                 	// #272
    15c0:	94001a56 	bl	7f18 <trace_printf>
    15c4:	52800000 	mov	w0, #0x0                   	// #0
    15c8:	94000f74 	bl	5398 <__TEE_Panic>
/home/rahulmahadev/hikey_optee/optee_os/lib/libutee/tee_api_objects.c:274
    15cc:	aa1303e0 	mov	x0, x19
    15d0:	94002a7a 	bl	bfb8 <utee_cryp_obj_reset>
/home/rahulmahadev/hikey_optee/optee_os/lib/libutee/tee_api_objects.c:275
    15d4:	34000180 	cbz	w0, 1604 <TEE_ResetTransientObject+0xb8>
/home/rahulmahadev/hikey_optee/optee_os/lib/libutee/tee_api_objects.c:276
    15d8:	90000064 	adrp	x4, d000 <PRIME_TABLE+0x388>
    15dc:	f0000040 	adrp	x0, c000 <utee_authenc_update_aad>
    15e0:	91140000 	add	x0, x0, #0x500
    15e4:	52800005 	mov	w5, #0x0                   	// #0
    15e8:	91235c84 	add	x4, x4, #0x8d7
    15ec:	52800023 	mov	w3, #0x1                   	// #1
    15f0:	52800022 	mov	w2, #0x1                   	// #1
    15f4:	52802281 	mov	w1, #0x114                 	// #276
    15f8:	94001a48 	bl	7f18 <trace_printf>
    15fc:	52800000 	mov	w0, #0x0                   	// #0
    1600:	94000f66 	bl	5398 <__TEE_Panic>
/home/rahulmahadev/hikey_optee/optee_os/lib/libutee/tee_api_objects.c:277
    1604:	f9400bf3 	ldr	x19, [sp,#16]
    1608:	a8c47bfd 	ldp	x29, x30, [sp],#64
    160c:	d65f03c0 	ret

0000000000001610 <TEE_PopulateTransientObject>:
TEE_PopulateTransientObject():
/home/rahulmahadev/hikey_optee/optee_os/lib/libutee/tee_api_objects.c:282
    1610:	a9ba7bfd 	stp	x29, x30, [sp,#-96]!
/home/rahulmahadev/hikey_optee/optee_os/lib/libutee/tee_api_objects.c:285
    1614:	52800303 	mov	w3, #0x18                  	// #24
/home/rahulmahadev/hikey_optee/optee_os/lib/libutee/tee_api_objects.c:282
    1618:	910003fd 	mov	x29, sp
    161c:	a9025bf5 	stp	x21, x22, [sp,#32]
    1620:	2a0203f6 	mov	w22, w2
    1624:	f9001bf7 	str	x23, [sp,#48]
    1628:	aa0103f7 	mov	x23, x1
/home/rahulmahadev/hikey_optee/optee_os/lib/libutee/tee_api_objects.c:285
    162c:	910003e1 	mov	x1, sp
    1630:	9ba37ec3 	umull	x3, w22, w3
/home/rahulmahadev/hikey_optee/optee_os/lib/libutee/tee_api_objects.c:282
    1634:	a90153f3 	stp	x19, x20, [sp,#16]
/home/rahulmahadev/hikey_optee/optee_os/lib/libutee/tee_api_objects.c:285
    1638:	91005863 	add	x3, x3, #0x16
/home/rahulmahadev/hikey_optee/optee_os/lib/libutee/tee_api_objects.c:282
    163c:	aa0003f5 	mov	x21, x0
/home/rahulmahadev/hikey_optee/optee_os/lib/libutee/tee_api_objects.c:285
    1640:	927c8463 	and	x3, x3, #0x3ffffffff0
/home/rahulmahadev/hikey_optee/optee_os/lib/libutee/tee_api_objects.c:282
    1644:	aa1603f3 	mov	x19, x22
/home/rahulmahadev/hikey_optee/optee_os/lib/libutee/tee_api_objects.c:285
    1648:	cb23603f 	sub	sp, x1, x3
/home/rahulmahadev/hikey_optee/optee_os/lib/libutee/tee_api_objects.c:287
    164c:	910103a1 	add	x1, x29, #0x40
/home/rahulmahadev/hikey_optee/optee_os/lib/libutee/tee_api_objects.c:285
    1650:	910003f4 	mov	x20, sp
/home/rahulmahadev/hikey_optee/optee_os/lib/libutee/tee_api_objects.c:287
    1654:	94002a4a 	bl	bf7c <utee_cryp_obj_get_info>
/home/rahulmahadev/hikey_optee/optee_os/lib/libutee/tee_api_objects.c:288
    1658:	34000180 	cbz	w0, 1688 <TEE_PopulateTransientObject+0x78>
/home/rahulmahadev/hikey_optee/optee_os/lib/libutee/tee_api_objects.c:289
    165c:	90000064 	adrp	x4, d000 <PRIME_TABLE+0x388>
    1660:	f0000040 	adrp	x0, c000 <utee_authenc_update_aad>
    1664:	9115c000 	add	x0, x0, #0x570
    1668:	52800005 	mov	w5, #0x0                   	// #0
    166c:	91235c84 	add	x4, x4, #0x8d7
    1670:	52800023 	mov	w3, #0x1                   	// #1
    1674:	52800022 	mov	w2, #0x1                   	// #1
    1678:	52802421 	mov	w1, #0x121                 	// #289
    167c:	94001a27 	bl	7f18 <trace_printf>
    1680:	52800000 	mov	w0, #0x0                   	// #0
    1684:	94000f45 	bl	5398 <__TEE_Panic>
/home/rahulmahadev/hikey_optee/optee_os/lib/libutee/tee_api_objects.c:292
    1688:	b9405ba0 	ldr	w0, [x29,#88]
    168c:	36800180 	tbz	w0, #16, 16bc <TEE_PopulateTransientObject+0xac>
/home/rahulmahadev/hikey_optee/optee_os/lib/libutee/tee_api_objects.c:293
    1690:	90000064 	adrp	x4, d000 <PRIME_TABLE+0x388>
    1694:	f0000040 	adrp	x0, c000 <utee_authenc_update_aad>
    1698:	9115c000 	add	x0, x0, #0x570
    169c:	52800005 	mov	w5, #0x0                   	// #0
    16a0:	91235c84 	add	x4, x4, #0x8d7
    16a4:	52800023 	mov	w3, #0x1                   	// #1
    16a8:	52800022 	mov	w2, #0x1                   	// #1
    16ac:	528024a1 	mov	w1, #0x125                 	// #293
    16b0:	94001a1a 	bl	7f18 <trace_printf>
    16b4:	52800000 	mov	w0, #0x0                   	// #0
    16b8:	94000f38 	bl	5398 <__TEE_Panic>
/home/rahulmahadev/hikey_optee/optee_os/lib/libutee/tee_api_objects.c:296
    16bc:	b9405ba0 	ldr	w0, [x29,#88]
    16c0:	36880180 	tbz	w0, #17, 16f0 <TEE_PopulateTransientObject+0xe0>
/home/rahulmahadev/hikey_optee/optee_os/lib/libutee/tee_api_objects.c:297
    16c4:	90000064 	adrp	x4, d000 <PRIME_TABLE+0x388>
    16c8:	f0000040 	adrp	x0, c000 <utee_authenc_update_aad>
    16cc:	9115c000 	add	x0, x0, #0x570
    16d0:	52800005 	mov	w5, #0x0                   	// #0
    16d4:	91235c84 	add	x4, x4, #0x8d7
    16d8:	52800023 	mov	w3, #0x1                   	// #1
    16dc:	52800022 	mov	w2, #0x1                   	// #1
    16e0:	52802521 	mov	w1, #0x129                 	// #297
    16e4:	94001a0d 	bl	7f18 <trace_printf>
    16e8:	52800000 	mov	w0, #0x0                   	// #0
    16ec:	94000f2b 	bl	5398 <__TEE_Panic>
/home/rahulmahadev/hikey_optee/optee_os/lib/libutee/tee_api_objects.c:299
    16f0:	2a1303e2 	mov	w2, w19
    16f4:	aa1703e1 	mov	x1, x23
    16f8:	aa1403e0 	mov	x0, x20
    16fc:	97fffe2f 	bl	fb8 <__utee_from_attr>
/home/rahulmahadev/hikey_optee/optee_os/lib/libutee/tee_api_objects.c:300
    1700:	aa1603e2 	mov	x2, x22
    1704:	aa1403e1 	mov	x1, x20
    1708:	aa1503e0 	mov	x0, x21
    170c:	94002a2e 	bl	bfc4 <utee_cryp_obj_populate>
    1710:	2a0003f3 	mov	w19, w0
/home/rahulmahadev/hikey_optee/optee_os/lib/libutee/tee_api_objects.c:301
    1714:	129fff20 	mov	w0, #0xffff0006            	// #-65530
    1718:	6b00027f 	cmp	w19, w0
    171c:	540001a0 	b.eq	1750 <TEE_PopulateTransientObject+0x140>
    1720:	34000193 	cbz	w19, 1750 <TEE_PopulateTransientObject+0x140>
/home/rahulmahadev/hikey_optee/optee_os/lib/libutee/tee_api_objects.c:302
    1724:	90000064 	adrp	x4, d000 <PRIME_TABLE+0x388>
    1728:	f0000040 	adrp	x0, c000 <utee_authenc_update_aad>
    172c:	9115c000 	add	x0, x0, #0x570
    1730:	2a1303e5 	mov	w5, w19
    1734:	91235c84 	add	x4, x4, #0x8d7
    1738:	52800023 	mov	w3, #0x1                   	// #1
    173c:	52800022 	mov	w2, #0x1                   	// #1
    1740:	528025c1 	mov	w1, #0x12e                 	// #302
    1744:	940019f5 	bl	7f18 <trace_printf>
    1748:	2a1303e0 	mov	w0, w19
    174c:	94000f13 	bl	5398 <__TEE_Panic>
/home/rahulmahadev/hikey_optee/optee_os/lib/libutee/tee_api_objects.c:304
    1750:	910003bf 	mov	sp, x29
    1754:	2a1303e0 	mov	w0, w19
    1758:	a94153f3 	ldp	x19, x20, [sp,#16]
    175c:	a9425bf5 	ldp	x21, x22, [sp,#32]
    1760:	f9401bf7 	ldr	x23, [sp,#48]
    1764:	a8c67bfd 	ldp	x29, x30, [sp],#96
    1768:	d65f03c0 	ret

000000000000176c <TEE_InitRefAttribute>:
TEE_InitRefAttribute():
/home/rahulmahadev/hikey_optee/optee_os/lib/libutee/tee_api_objects.c:308
    176c:	a9bd7bfd 	stp	x29, x30, [sp,#-48]!
    1770:	910003fd 	mov	x29, sp
    1774:	a90153f3 	stp	x19, x20, [sp,#16]
    1778:	a9025bf5 	stp	x21, x22, [sp,#32]
    177c:	aa0003f3 	mov	x19, x0
    1780:	2a0103f4 	mov	w20, w1
    1784:	aa0203f6 	mov	x22, x2
    1788:	2a0303f5 	mov	w21, w3
/home/rahulmahadev/hikey_optee/optee_os/lib/libutee/tee_api_objects.c:309
    178c:	b5000180 	cbnz	x0, 17bc <TEE_InitRefAttribute+0x50>
/home/rahulmahadev/hikey_optee/optee_os/lib/libutee/tee_api_objects.c:310
    1790:	90000064 	adrp	x4, d000 <PRIME_TABLE+0x388>
    1794:	f0000040 	adrp	x0, c000 <utee_authenc_update_aad>
    1798:	91164000 	add	x0, x0, #0x590
    179c:	52800005 	mov	w5, #0x0                   	// #0
    17a0:	91235c84 	add	x4, x4, #0x8d7
    17a4:	52800023 	mov	w3, #0x1                   	// #1
    17a8:	52800022 	mov	w2, #0x1                   	// #1
    17ac:	528026c1 	mov	w1, #0x136                 	// #310
    17b0:	940019da 	bl	7f18 <trace_printf>
    17b4:	52800000 	mov	w0, #0x0                   	// #0
    17b8:	94000ef8 	bl	5398 <__TEE_Panic>
/home/rahulmahadev/hikey_optee/optee_os/lib/libutee/tee_api_objects.c:311
    17bc:	36e80194 	tbz	w20, #29, 17ec <TEE_InitRefAttribute+0x80>
/home/rahulmahadev/hikey_optee/optee_os/lib/libutee/tee_api_objects.c:312
    17c0:	90000064 	adrp	x4, d000 <PRIME_TABLE+0x388>
    17c4:	f0000040 	adrp	x0, c000 <utee_authenc_update_aad>
    17c8:	91164000 	add	x0, x0, #0x590
    17cc:	52800005 	mov	w5, #0x0                   	// #0
    17d0:	91235c84 	add	x4, x4, #0x8d7
    17d4:	52800023 	mov	w3, #0x1                   	// #1
    17d8:	52800022 	mov	w2, #0x1                   	// #1
    17dc:	52802701 	mov	w1, #0x138                 	// #312
    17e0:	940019ce 	bl	7f18 <trace_printf>
    17e4:	52800000 	mov	w0, #0x0                   	// #0
    17e8:	94000eec 	bl	5398 <__TEE_Panic>
/home/rahulmahadev/hikey_optee/optee_os/lib/libutee/tee_api_objects.c:314
    17ec:	f9000676 	str	x22, [x19,#8]
/home/rahulmahadev/hikey_optee/optee_os/lib/libutee/tee_api_objects.c:315
    17f0:	b9001275 	str	w21, [x19,#16]
/home/rahulmahadev/hikey_optee/optee_os/lib/libutee/tee_api_objects.c:313
    17f4:	b9000274 	str	w20, [x19]
/home/rahulmahadev/hikey_optee/optee_os/lib/libutee/tee_api_objects.c:316
    17f8:	a9425bf5 	ldp	x21, x22, [sp,#32]
    17fc:	a94153f3 	ldp	x19, x20, [sp,#16]
    1800:	a8c37bfd 	ldp	x29, x30, [sp],#48
    1804:	d65f03c0 	ret

0000000000001808 <TEE_InitValueAttribute>:
TEE_InitValueAttribute():
/home/rahulmahadev/hikey_optee/optee_os/lib/libutee/tee_api_objects.c:320
    1808:	a9bd7bfd 	stp	x29, x30, [sp,#-48]!
    180c:	910003fd 	mov	x29, sp
    1810:	a90153f3 	stp	x19, x20, [sp,#16]
    1814:	a9025bf5 	stp	x21, x22, [sp,#32]
    1818:	aa0003f3 	mov	x19, x0
    181c:	2a0103f4 	mov	w20, w1
    1820:	2a0203f6 	mov	w22, w2
    1824:	2a0303f5 	mov	w21, w3
/home/rahulmahadev/hikey_optee/optee_os/lib/libutee/tee_api_objects.c:321
    1828:	b5000180 	cbnz	x0, 1858 <TEE_InitValueAttribute+0x50>
/home/rahulmahadev/hikey_optee/optee_os/lib/libutee/tee_api_objects.c:322
    182c:	90000064 	adrp	x4, d000 <PRIME_TABLE+0x388>
    1830:	f0000040 	adrp	x0, c000 <utee_authenc_update_aad>
    1834:	91170000 	add	x0, x0, #0x5c0
    1838:	52800005 	mov	w5, #0x0                   	// #0
    183c:	91235c84 	add	x4, x4, #0x8d7
    1840:	52800023 	mov	w3, #0x1                   	// #1
    1844:	52800022 	mov	w2, #0x1                   	// #1
    1848:	52802841 	mov	w1, #0x142                 	// #322
    184c:	940019b3 	bl	7f18 <trace_printf>
    1850:	52800000 	mov	w0, #0x0                   	// #0
    1854:	94000ed1 	bl	5398 <__TEE_Panic>
/home/rahulmahadev/hikey_optee/optee_os/lib/libutee/tee_api_objects.c:323
    1858:	37e80194 	tbnz	w20, #29, 1888 <TEE_InitValueAttribute+0x80>
/home/rahulmahadev/hikey_optee/optee_os/lib/libutee/tee_api_objects.c:324
    185c:	90000064 	adrp	x4, d000 <PRIME_TABLE+0x388>
    1860:	f0000040 	adrp	x0, c000 <utee_authenc_update_aad>
    1864:	91170000 	add	x0, x0, #0x5c0
    1868:	52800005 	mov	w5, #0x0                   	// #0
    186c:	91235c84 	add	x4, x4, #0x8d7
    1870:	52800023 	mov	w3, #0x1                   	// #1
    1874:	52800022 	mov	w2, #0x1                   	// #1
    1878:	52802881 	mov	w1, #0x144                 	// #324
    187c:	940019a7 	bl	7f18 <trace_printf>
    1880:	52800000 	mov	w0, #0x0                   	// #0
    1884:	94000ec5 	bl	5398 <__TEE_Panic>
/home/rahulmahadev/hikey_optee/optee_os/lib/libutee/tee_api_objects.c:326
    1888:	b9000a76 	str	w22, [x19,#8]
/home/rahulmahadev/hikey_optee/optee_os/lib/libutee/tee_api_objects.c:327
    188c:	b9000e75 	str	w21, [x19,#12]
/home/rahulmahadev/hikey_optee/optee_os/lib/libutee/tee_api_objects.c:325
    1890:	b9000274 	str	w20, [x19]
/home/rahulmahadev/hikey_optee/optee_os/lib/libutee/tee_api_objects.c:328
    1894:	a9425bf5 	ldp	x21, x22, [sp,#32]
    1898:	a94153f3 	ldp	x19, x20, [sp,#16]
    189c:	a8c37bfd 	ldp	x29, x30, [sp],#48
    18a0:	d65f03c0 	ret

00000000000018a4 <TEE_CopyObjectAttributes1>:
TEE_CopyObjectAttributes1():
/home/rahulmahadev/hikey_optee/optee_os/lib/libutee/tee_api_objects.c:353
    18a4:	a9b97bfd 	stp	x29, x30, [sp,#-112]!
    18a8:	910003fd 	mov	x29, sp
    18ac:	a90153f3 	stp	x19, x20, [sp,#16]
    18b0:	aa0103f4 	mov	x20, x1
/home/rahulmahadev/hikey_optee/optee_os/lib/libutee/tee_api_objects.c:358
    18b4:	9100c3a1 	add	x1, x29, #0x30
/home/rahulmahadev/hikey_optee/optee_os/lib/libutee/tee_api_objects.c:353
    18b8:	f90013f5 	str	x21, [sp,#32]
    18bc:	aa0003f5 	mov	x21, x0
/home/rahulmahadev/hikey_optee/optee_os/lib/libutee/tee_api_objects.c:358
    18c0:	940029af 	bl	bf7c <utee_cryp_obj_get_info>
    18c4:	2a0003f3 	mov	w19, w0
/home/rahulmahadev/hikey_optee/optee_os/lib/libutee/tee_api_objects.c:359
    18c8:	35000620 	cbnz	w0, 198c <TEE_CopyObjectAttributes1+0xe8>
/home/rahulmahadev/hikey_optee/optee_os/lib/libutee/tee_api_objects.c:362
    18cc:	910143a1 	add	x1, x29, #0x50
    18d0:	aa1403e0 	mov	x0, x20
    18d4:	940029aa 	bl	bf7c <utee_cryp_obj_get_info>
    18d8:	2a0003f3 	mov	w19, w0
/home/rahulmahadev/hikey_optee/optee_os/lib/libutee/tee_api_objects.c:363
    18dc:	35000580 	cbnz	w0, 198c <TEE_CopyObjectAttributes1+0xe8>
/home/rahulmahadev/hikey_optee/optee_os/lib/libutee/tee_api_objects.c:366
    18e0:	b9406ba0 	ldr	w0, [x29,#104]
    18e4:	37880180 	tbnz	w0, #17, 1914 <TEE_CopyObjectAttributes1+0x70>
/home/rahulmahadev/hikey_optee/optee_os/lib/libutee/tee_api_objects.c:367
    18e8:	90000064 	adrp	x4, d000 <PRIME_TABLE+0x388>
    18ec:	f0000040 	adrp	x0, c000 <utee_authenc_update_aad>
    18f0:	91190000 	add	x0, x0, #0x640
    18f4:	52800005 	mov	w5, #0x0                   	// #0
    18f8:	91235c84 	add	x4, x4, #0x8d7
    18fc:	52800023 	mov	w3, #0x1                   	// #1
    1900:	52800022 	mov	w2, #0x1                   	// #1
    1904:	52802de1 	mov	w1, #0x16f                 	// #367
    1908:	94001984 	bl	7f18 <trace_printf>
    190c:	52800000 	mov	w0, #0x0                   	// #0
    1910:	94000ea2 	bl	5398 <__TEE_Panic>
/home/rahulmahadev/hikey_optee/optee_os/lib/libutee/tee_api_objects.c:369
    1914:	b9404ba0 	ldr	w0, [x29,#72]
    1918:	36800180 	tbz	w0, #16, 1948 <TEE_CopyObjectAttributes1+0xa4>
/home/rahulmahadev/hikey_optee/optee_os/lib/libutee/tee_api_objects.c:370
    191c:	90000064 	adrp	x4, d000 <PRIME_TABLE+0x388>
    1920:	f0000040 	adrp	x0, c000 <utee_authenc_update_aad>
    1924:	91190000 	add	x0, x0, #0x640
    1928:	52800005 	mov	w5, #0x0                   	// #0
    192c:	91235c84 	add	x4, x4, #0x8d7
    1930:	52800023 	mov	w3, #0x1                   	// #1
    1934:	52800022 	mov	w2, #0x1                   	// #1
    1938:	52802e41 	mov	w1, #0x172                 	// #370
    193c:	94001977 	bl	7f18 <trace_printf>
    1940:	52800000 	mov	w0, #0x0                   	// #0
    1944:	94000e95 	bl	5398 <__TEE_Panic>
/home/rahulmahadev/hikey_optee/optee_os/lib/libutee/tee_api_objects.c:372
    1948:	b9404ba0 	ldr	w0, [x29,#72]
    194c:	36880180 	tbz	w0, #17, 197c <TEE_CopyObjectAttributes1+0xd8>
/home/rahulmahadev/hikey_optee/optee_os/lib/libutee/tee_api_objects.c:373
    1950:	90000064 	adrp	x4, d000 <PRIME_TABLE+0x388>
    1954:	f0000040 	adrp	x0, c000 <utee_authenc_update_aad>
    1958:	91190000 	add	x0, x0, #0x640
    195c:	52800005 	mov	w5, #0x0                   	// #0
    1960:	91235c84 	add	x4, x4, #0x8d7
    1964:	52800023 	mov	w3, #0x1                   	// #1
    1968:	52800022 	mov	w2, #0x1                   	// #1
    196c:	52802ea1 	mov	w1, #0x175                 	// #373
    1970:	9400196a 	bl	7f18 <trace_printf>
    1974:	52800000 	mov	w0, #0x0                   	// #0
    1978:	94000e88 	bl	5398 <__TEE_Panic>
/home/rahulmahadev/hikey_optee/optee_os/lib/libutee/tee_api_objects.c:375
    197c:	aa1403e1 	mov	x1, x20
    1980:	aa1503e0 	mov	x0, x21
    1984:	94002993 	bl	bfd0 <utee_cryp_obj_copy>
    1988:	2a0003f3 	mov	w19, w0
/home/rahulmahadev/hikey_optee/optee_os/lib/libutee/tee_api_objects.c:380
    198c:	52800021 	mov	w1, #0x1                   	// #1
    1990:	121e7a60 	and	w0, w19, #0xfffffffd
    1994:	72be0201 	movk	w1, #0xf010, lsl #16
    1998:	6b01001f 	cmp	w0, w1
    199c:	540001a0 	b.eq	19d0 <TEE_CopyObjectAttributes1+0x12c>
    19a0:	34000193 	cbz	w19, 19d0 <TEE_CopyObjectAttributes1+0x12c>
/home/rahulmahadev/hikey_optee/optee_os/lib/libutee/tee_api_objects.c:382
    19a4:	90000064 	adrp	x4, d000 <PRIME_TABLE+0x388>
    19a8:	f0000040 	adrp	x0, c000 <utee_authenc_update_aad>
    19ac:	91190000 	add	x0, x0, #0x640
    19b0:	2a1303e5 	mov	w5, w19
    19b4:	91235c84 	add	x4, x4, #0x8d7
    19b8:	52800023 	mov	w3, #0x1                   	// #1
    19bc:	52800022 	mov	w2, #0x1                   	// #1
    19c0:	52802fc1 	mov	w1, #0x17e                 	// #382
    19c4:	94001955 	bl	7f18 <trace_printf>
    19c8:	2a1303e0 	mov	w0, w19
    19cc:	94000e73 	bl	5398 <__TEE_Panic>
/home/rahulmahadev/hikey_optee/optee_os/lib/libutee/tee_api_objects.c:385
    19d0:	2a1303e0 	mov	w0, w19
    19d4:	f94013f5 	ldr	x21, [sp,#32]
    19d8:	a94153f3 	ldp	x19, x20, [sp,#16]
    19dc:	a8c77bfd 	ldp	x29, x30, [sp],#112
    19e0:	d65f03c0 	ret

00000000000019e4 <TEE_CopyObjectAttributes>:
TEE_CopyObjectAttributes():
/home/rahulmahadev/hikey_optee/optee_os/lib/libutee/tee_api_objects.c:338
    19e4:	a9bc7bfd 	stp	x29, x30, [sp,#-64]!
    19e8:	910003fd 	mov	x29, sp
    19ec:	a90153f3 	stp	x19, x20, [sp,#16]
    19f0:	aa0103f3 	mov	x19, x1
    19f4:	aa0003f4 	mov	x20, x0
/home/rahulmahadev/hikey_optee/optee_os/lib/libutee/tee_api_objects.c:342
    19f8:	910083a1 	add	x1, x29, #0x20
    19fc:	aa1303e0 	mov	x0, x19
    1a00:	9400295f 	bl	bf7c <utee_cryp_obj_get_info>
/home/rahulmahadev/hikey_optee/optee_os/lib/libutee/tee_api_objects.c:343
    1a04:	528017c1 	mov	w1, #0xbe                  	// #190
    1a08:	b94023a0 	ldr	w0, [x29,#32]
    1a0c:	72b40001 	movk	w1, #0xa000, lsl #16
    1a10:	6b01001f 	cmp	w0, w1
    1a14:	54000200 	b.eq	1a54 <TEE_CopyObjectAttributes+0x70>
/home/rahulmahadev/hikey_optee/optee_os/lib/libutee/tee_api_objects.c:346
    1a18:	aa1303e1 	mov	x1, x19
    1a1c:	aa1403e0 	mov	x0, x20
    1a20:	97ffffa1 	bl	18a4 <TEE_CopyObjectAttributes1>
/home/rahulmahadev/hikey_optee/optee_os/lib/libutee/tee_api_objects.c:347
    1a24:	34000180 	cbz	w0, 1a54 <TEE_CopyObjectAttributes+0x70>
/home/rahulmahadev/hikey_optee/optee_os/lib/libutee/tee_api_objects.c:348
    1a28:	90000064 	adrp	x4, d000 <PRIME_TABLE+0x388>
    1a2c:	f0000040 	adrp	x0, c000 <utee_authenc_update_aad>
    1a30:	91176000 	add	x0, x0, #0x5d8
    1a34:	52800005 	mov	w5, #0x0                   	// #0
    1a38:	91235c84 	add	x4, x4, #0x8d7
    1a3c:	52800023 	mov	w3, #0x1                   	// #1
    1a40:	52800022 	mov	w2, #0x1                   	// #1
    1a44:	52802b81 	mov	w1, #0x15c                 	// #348
    1a48:	94001934 	bl	7f18 <trace_printf>
    1a4c:	52800000 	mov	w0, #0x0                   	// #0
    1a50:	94000e52 	bl	5398 <__TEE_Panic>
/home/rahulmahadev/hikey_optee/optee_os/lib/libutee/tee_api_objects.c:349
    1a54:	a94153f3 	ldp	x19, x20, [sp,#16]
    1a58:	a8c47bfd 	ldp	x29, x30, [sp],#64
    1a5c:	d65f03c0 	ret

0000000000001a60 <TEE_GenerateKey>:
TEE_GenerateKey():
/home/rahulmahadev/hikey_optee/optee_os/lib/libutee/tee_api_objects.c:391
    1a60:	52800304 	mov	w4, #0x18                  	// #24
/home/rahulmahadev/hikey_optee/optee_os/lib/libutee/tee_api_objects.c:389
    1a64:	a9bc7bfd 	stp	x29, x30, [sp,#-64]!
/home/rahulmahadev/hikey_optee/optee_os/lib/libutee/tee_api_objects.c:391
    1a68:	9ba47c64 	umull	x4, w3, w4
/home/rahulmahadev/hikey_optee/optee_os/lib/libutee/tee_api_objects.c:389
    1a6c:	910003fd 	mov	x29, sp
/home/rahulmahadev/hikey_optee/optee_os/lib/libutee/tee_api_objects.c:391
    1a70:	91005884 	add	x4, x4, #0x16
/home/rahulmahadev/hikey_optee/optee_os/lib/libutee/tee_api_objects.c:389
    1a74:	f90013f5 	str	x21, [sp,#32]
    1a78:	a90153f3 	stp	x19, x20, [sp,#16]
/home/rahulmahadev/hikey_optee/optee_os/lib/libutee/tee_api_objects.c:391
    1a7c:	927c8484 	and	x4, x4, #0x3ffffffff0
/home/rahulmahadev/hikey_optee/optee_os/lib/libutee/tee_api_objects.c:389
    1a80:	aa0003f4 	mov	x20, x0
/home/rahulmahadev/hikey_optee/optee_os/lib/libutee/tee_api_objects.c:391
    1a84:	910003e0 	mov	x0, sp
/home/rahulmahadev/hikey_optee/optee_os/lib/libutee/tee_api_objects.c:389
    1a88:	2a0103f5 	mov	w21, w1
/home/rahulmahadev/hikey_optee/optee_os/lib/libutee/tee_api_objects.c:391
    1a8c:	cb24601f 	sub	sp, x0, x4
/home/rahulmahadev/hikey_optee/optee_os/lib/libutee/tee_api_objects.c:389
    1a90:	aa0203e1 	mov	x1, x2
/home/rahulmahadev/hikey_optee/optee_os/lib/libutee/tee_api_objects.c:393
    1a94:	910003e0 	mov	x0, sp
    1a98:	2a0303e2 	mov	w2, w3
    1a9c:	b9003fa3 	str	w3, [x29,#60]
    1aa0:	97fffd46 	bl	fb8 <__utee_from_attr>
/home/rahulmahadev/hikey_optee/optee_os/lib/libutee/tee_api_objects.c:394
    1aa4:	b9403fa3 	ldr	w3, [x29,#60]
    1aa8:	910003e2 	mov	x2, sp
    1aac:	2a1503e1 	mov	w1, w21
    1ab0:	aa1403e0 	mov	x0, x20
    1ab4:	2a0303e3 	mov	w3, w3
    1ab8:	9400298b 	bl	c0e4 <utee_cryp_obj_generate_key>
    1abc:	2a0003f3 	mov	w19, w0
/home/rahulmahadev/hikey_optee/optee_os/lib/libutee/tee_api_objects.c:397
    1ac0:	129fff20 	mov	w0, #0xffff0006            	// #-65530
    1ac4:	6b00027f 	cmp	w19, w0
    1ac8:	540001a0 	b.eq	1afc <TEE_GenerateKey+0x9c>
    1acc:	34000193 	cbz	w19, 1afc <TEE_GenerateKey+0x9c>
/home/rahulmahadev/hikey_optee/optee_os/lib/libutee/tee_api_objects.c:398
    1ad0:	90000064 	adrp	x4, d000 <PRIME_TABLE+0x388>
    1ad4:	f0000040 	adrp	x0, c000 <utee_authenc_update_aad>
    1ad8:	91198000 	add	x0, x0, #0x660
    1adc:	52800005 	mov	w5, #0x0                   	// #0
    1ae0:	91235c84 	add	x4, x4, #0x8d7
    1ae4:	52800023 	mov	w3, #0x1                   	// #1
    1ae8:	52800022 	mov	w2, #0x1                   	// #1
    1aec:	528031c1 	mov	w1, #0x18e                 	// #398
    1af0:	9400190a 	bl	7f18 <trace_printf>
    1af4:	52800000 	mov	w0, #0x0                   	// #0
    1af8:	94000e28 	bl	5398 <__TEE_Panic>
/home/rahulmahadev/hikey_optee/optee_os/lib/libutee/tee_api_objects.c:401
    1afc:	910003bf 	mov	sp, x29
    1b00:	2a1303e0 	mov	w0, w19
    1b04:	a94153f3 	ldp	x19, x20, [sp,#16]
    1b08:	f94013f5 	ldr	x21, [sp,#32]
    1b0c:	a8c47bfd 	ldp	x29, x30, [sp],#64
    1b10:	d65f03c0 	ret

0000000000001b14 <TEE_OpenPersistentObject>:
TEE_OpenPersistentObject():
/home/rahulmahadev/hikey_optee/optee_os/lib/libutee/tee_api_objects.c:408
    1b14:	a9bd7bfd 	stp	x29, x30, [sp,#-48]!
/home/rahulmahadev/hikey_optee/optee_os/lib/libutee/tee_api_objects.c:417
    1b18:	7100041f 	cmp	w0, #0x1
/home/rahulmahadev/hikey_optee/optee_os/lib/libutee/tee_api_objects.c:408
    1b1c:	910003fd 	mov	x29, sp
    1b20:	a90153f3 	stp	x19, x20, [sp,#16]
    1b24:	aa0403f4 	mov	x20, x4
/home/rahulmahadev/hikey_optee/optee_os/lib/libutee/tee_api_objects.c:417
    1b28:	540001e1 	b.ne	1b64 <TEE_OpenPersistentObject+0x50>
    1b2c:	b40001c1 	cbz	x1, 1b64 <TEE_OpenPersistentObject+0x50>
/home/rahulmahadev/hikey_optee/optee_os/lib/libutee/tee_api_objects.c:427
    1b30:	7101005f 	cmp	w2, #0x40
    1b34:	540001c8 	b.hi	1b6c <TEE_OpenPersistentObject+0x58>
    1b38:	b40001a4 	cbz	x4, 1b6c <TEE_OpenPersistentObject+0x58>
/home/rahulmahadev/hikey_optee/optee_os/lib/libutee/tee_api_objects.c:432
    1b3c:	9100b3a4 	add	x4, x29, #0x2c
    1b40:	2a0303e3 	mov	w3, w3
    1b44:	2a0203e2 	mov	w2, w2
    1b48:	d2800020 	mov	x0, #0x1                   	// #1
    1b4c:	9400293f 	bl	c048 <utee_storage_obj_open>
    1b50:	2a0003f3 	mov	w19, w0
/home/rahulmahadev/hikey_optee/optee_os/lib/libutee/tee_api_objects.c:434
    1b54:	350000e0 	cbnz	w0, 1b70 <TEE_OpenPersistentObject+0x5c>
/home/rahulmahadev/hikey_optee/optee_os/lib/libutee/tee_api_objects.c:435
    1b58:	b9402fa0 	ldr	w0, [x29,#44]
    1b5c:	f9000280 	str	x0, [x20]
    1b60:	14000004 	b	1b70 <TEE_OpenPersistentObject+0x5c>
/home/rahulmahadev/hikey_optee/optee_os/lib/libutee/tee_api_objects.c:418
    1b64:	129ffef3 	mov	w19, #0xffff0008            	// #-65528
    1b68:	14000002 	b	1b70 <TEE_OpenPersistentObject+0x5c>
/home/rahulmahadev/hikey_optee/optee_os/lib/libutee/tee_api_objects.c:428
    1b6c:	129fff33 	mov	w19, #0xffff0006            	// #-65530
/home/rahulmahadev/hikey_optee/optee_os/lib/libutee/tee_api_objects.c:438
    1b70:	34000313 	cbz	w19, 1bd0 <TEE_OpenPersistentObject+0xbc>
/home/rahulmahadev/hikey_optee/optee_os/lib/libutee/tee_api_objects.c:439
    1b74:	121d7a60 	and	w0, w19, #0xfffffffb
/home/rahulmahadev/hikey_optee/optee_os/lib/libutee/tee_api_objects.c:438
    1b78:	129ffee1 	mov	w1, #0xffff0008            	// #-65528
    1b7c:	6b01001f 	cmp	w0, w1
    1b80:	54000280 	b.eq	1bd0 <TEE_OpenPersistentObject+0xbc>
/home/rahulmahadev/hikey_optee/optee_os/lib/libutee/tee_api_objects.c:440
    1b84:	129fff80 	mov	w0, #0xffff0003            	// #-65533
    1b88:	6b00027f 	cmp	w19, w0
    1b8c:	54000220 	b.eq	1bd0 <TEE_OpenPersistentObject+0xbc>
/home/rahulmahadev/hikey_optee/optee_os/lib/libutee/tee_api_objects.c:442
    1b90:	52800021 	mov	w1, #0x1                   	// #1
    1b94:	121e7a60 	and	w0, w19, #0xfffffffd
    1b98:	72be0201 	movk	w1, #0xf010, lsl #16
    1b9c:	6b01001f 	cmp	w0, w1
    1ba0:	54000180 	b.eq	1bd0 <TEE_OpenPersistentObject+0xbc>
/home/rahulmahadev/hikey_optee/optee_os/lib/libutee/tee_api_objects.c:444
    1ba4:	90000064 	adrp	x4, d000 <PRIME_TABLE+0x388>
    1ba8:	f0000040 	adrp	x0, c000 <utee_authenc_update_aad>
    1bac:	911c2000 	add	x0, x0, #0x708
    1bb0:	52800005 	mov	w5, #0x0                   	// #0
    1bb4:	91235c84 	add	x4, x4, #0x8d7
    1bb8:	52800023 	mov	w3, #0x1                   	// #1
    1bbc:	52800022 	mov	w2, #0x1                   	// #1
    1bc0:	52803781 	mov	w1, #0x1bc                 	// #444
    1bc4:	940018d5 	bl	7f18 <trace_printf>
    1bc8:	52800000 	mov	w0, #0x0                   	// #0
    1bcc:	94000df3 	bl	5398 <__TEE_Panic>
/home/rahulmahadev/hikey_optee/optee_os/lib/libutee/tee_api_objects.c:447
    1bd0:	2a1303e0 	mov	w0, w19
    1bd4:	a94153f3 	ldp	x19, x20, [sp,#16]
    1bd8:	a8c37bfd 	ldp	x29, x30, [sp],#48
    1bdc:	d65f03c0 	ret

0000000000001be0 <TEE_CreatePersistentObject>:
TEE_CreatePersistentObject():
/home/rahulmahadev/hikey_optee/optee_os/lib/libutee/tee_api_objects.c:455
    1be0:	a9bd7bfd 	stp	x29, x30, [sp,#-48]!
/home/rahulmahadev/hikey_optee/optee_os/lib/libutee/tee_api_objects.c:464
    1be4:	7100041f 	cmp	w0, #0x1
/home/rahulmahadev/hikey_optee/optee_os/lib/libutee/tee_api_objects.c:455
    1be8:	910003fd 	mov	x29, sp
    1bec:	f9000bf3 	str	x19, [sp,#16]
    1bf0:	aa0703f3 	mov	x19, x7
/home/rahulmahadev/hikey_optee/optee_os/lib/libutee/tee_api_objects.c:464
    1bf4:	540001e1 	b.ne	1c30 <TEE_CreatePersistentObject+0x50>
    1bf8:	b40001c1 	cbz	x1, 1c30 <TEE_CreatePersistentObject+0x50>
/home/rahulmahadev/hikey_optee/optee_os/lib/libutee/tee_api_objects.c:474
    1bfc:	7101005f 	cmp	w2, #0x40
    1c00:	540001c8 	b.hi	1c38 <TEE_CreatePersistentObject+0x58>
    1c04:	b40001a7 	cbz	x7, 1c38 <TEE_CreatePersistentObject+0x58>
/home/rahulmahadev/hikey_optee/optee_os/lib/libutee/tee_api_objects.c:479
    1c08:	9100b3a7 	add	x7, x29, #0x2c
    1c0c:	2a0603e6 	mov	w6, w6
    1c10:	2a0303e3 	mov	w3, w3
    1c14:	2a0203e2 	mov	w2, w2
    1c18:	d2800020 	mov	x0, #0x1                   	// #1
    1c1c:	9400290e 	bl	c054 <utee_storage_obj_create>
/home/rahulmahadev/hikey_optee/optee_os/lib/libutee/tee_api_objects.c:482
    1c20:	350000e0 	cbnz	w0, 1c3c <TEE_CreatePersistentObject+0x5c>
/home/rahulmahadev/hikey_optee/optee_os/lib/libutee/tee_api_objects.c:483
    1c24:	b9402fa0 	ldr	w0, [x29,#44]
    1c28:	f9000260 	str	x0, [x19]
    1c2c:	1400001e 	b	1ca4 <TEE_CreatePersistentObject+0xc4>
/home/rahulmahadev/hikey_optee/optee_os/lib/libutee/tee_api_objects.c:465
    1c30:	129ffee0 	mov	w0, #0xffff0008            	// #-65528
    1c34:	14000002 	b	1c3c <TEE_CreatePersistentObject+0x5c>
/home/rahulmahadev/hikey_optee/optee_os/lib/libutee/tee_api_objects.c:475
    1c38:	129fff20 	mov	w0, #0xffff0006            	// #-65530
/home/rahulmahadev/hikey_optee/optee_os/lib/libutee/tee_api_objects.c:487
    1c3c:	121d7801 	and	w1, w0, #0xfffffffb
    1c40:	129ffee2 	mov	w2, #0xffff0008            	// #-65528
    1c44:	6b02003f 	cmp	w1, w2
    1c48:	54000300 	b.eq	1ca8 <TEE_CreatePersistentObject+0xc8>
    1c4c:	129fff81 	mov	w1, #0xffff0003            	// #-65533
    1c50:	6b01001f 	cmp	w0, w1
    1c54:	540002a0 	b.eq	1ca8 <TEE_CreatePersistentObject+0xc8>
/home/rahulmahadev/hikey_optee/optee_os/lib/libutee/tee_api_objects.c:489
    1c58:	1299f7c1 	mov	w1, #0xffff3041            	// #-53183
    1c5c:	6b01001f 	cmp	w0, w1
    1c60:	54000240 	b.eq	1ca8 <TEE_CreatePersistentObject+0xc8>
/home/rahulmahadev/hikey_optee/optee_os/lib/libutee/tee_api_objects.c:491
    1c64:	52800022 	mov	w2, #0x1                   	// #1
    1c68:	121e7801 	and	w1, w0, #0xfffffffd
    1c6c:	72be0202 	movk	w2, #0xf010, lsl #16
    1c70:	6b02003f 	cmp	w1, w2
    1c74:	540001a0 	b.eq	1ca8 <TEE_CreatePersistentObject+0xc8>
/home/rahulmahadev/hikey_optee/optee_os/lib/libutee/tee_api_objects.c:494
    1c78:	90000064 	adrp	x4, d000 <PRIME_TABLE+0x388>
    1c7c:	f0000040 	adrp	x0, c000 <utee_authenc_update_aad>
    1c80:	91188000 	add	x0, x0, #0x620
    1c84:	52800005 	mov	w5, #0x0                   	// #0
    1c88:	91235c84 	add	x4, x4, #0x8d7
    1c8c:	52800023 	mov	w3, #0x1                   	// #1
    1c90:	52800022 	mov	w2, #0x1                   	// #1
    1c94:	52803dc1 	mov	w1, #0x1ee                 	// #494
    1c98:	940018a0 	bl	7f18 <trace_printf>
    1c9c:	52800000 	mov	w0, #0x0                   	// #0
    1ca0:	94000dbe 	bl	5398 <__TEE_Panic>
/home/rahulmahadev/hikey_optee/optee_os/lib/libutee/tee_api_objects.c:496
    1ca4:	52800000 	mov	w0, #0x0                   	// #0
/home/rahulmahadev/hikey_optee/optee_os/lib/libutee/tee_api_objects.c:497
    1ca8:	f9400bf3 	ldr	x19, [sp,#16]
    1cac:	a8c37bfd 	ldp	x29, x30, [sp],#48
    1cb0:	d65f03c0 	ret

0000000000001cb4 <TEE_CloseAndDeletePersistentObject1>:
TEE_CloseAndDeletePersistentObject1():
/home/rahulmahadev/hikey_optee/optee_os/lib/libutee/tee_api_objects.c:519
    1cb4:	a9be7bfd 	stp	x29, x30, [sp,#-32]!
    1cb8:	910003fd 	mov	x29, sp
    1cbc:	f9000bf3 	str	x19, [sp,#16]
/home/rahulmahadev/hikey_optee/optee_os/lib/libutee/tee_api_objects.c:522
    1cc0:	b4000280 	cbz	x0, 1d10 <TEE_CloseAndDeletePersistentObject1+0x5c>
/home/rahulmahadev/hikey_optee/optee_os/lib/libutee/tee_api_objects.c:525
    1cc4:	940028e7 	bl	c060 <utee_storage_obj_del>
    1cc8:	2a0003f3 	mov	w19, w0
/home/rahulmahadev/hikey_optee/optee_os/lib/libutee/tee_api_objects.c:527
    1ccc:	52800060 	mov	w0, #0x3                   	// #3
    1cd0:	72be0200 	movk	w0, #0xf010, lsl #16
    1cd4:	6b00027f 	cmp	w19, w0
    1cd8:	54000220 	b.eq	1d1c <TEE_CloseAndDeletePersistentObject1+0x68>
    1cdc:	34000213 	cbz	w19, 1d1c <TEE_CloseAndDeletePersistentObject1+0x68>
/home/rahulmahadev/hikey_optee/optee_os/lib/libutee/tee_api_objects.c:528
    1ce0:	90000064 	adrp	x4, d000 <PRIME_TABLE+0x388>
    1ce4:	f0000040 	adrp	x0, c000 <utee_authenc_update_aad>
    1ce8:	52800005 	mov	w5, #0x0                   	// #0
    1cec:	91235c84 	add	x4, x4, #0x8d7
    1cf0:	52800023 	mov	w3, #0x1                   	// #1
    1cf4:	52800022 	mov	w2, #0x1                   	// #1
    1cf8:	52804201 	mov	w1, #0x210                 	// #528
    1cfc:	9119c000 	add	x0, x0, #0x670
    1d00:	94001886 	bl	7f18 <trace_printf>
    1d04:	52800000 	mov	w0, #0x0                   	// #0
    1d08:	94000da4 	bl	5398 <__TEE_Panic>
    1d0c:	14000004 	b	1d1c <TEE_CloseAndDeletePersistentObject1+0x68>
/home/rahulmahadev/hikey_optee/optee_os/lib/libutee/tee_api_objects.c:523
    1d10:	52800060 	mov	w0, #0x3                   	// #3
    1d14:	72be0200 	movk	w0, #0xf010, lsl #16
    1d18:	14000002 	b	1d20 <TEE_CloseAndDeletePersistentObject1+0x6c>
/home/rahulmahadev/hikey_optee/optee_os/lib/libutee/tee_api_objects.c:525
    1d1c:	2a1303e0 	mov	w0, w19
/home/rahulmahadev/hikey_optee/optee_os/lib/libutee/tee_api_objects.c:531
    1d20:	f9400bf3 	ldr	x19, [sp,#16]
    1d24:	a8c27bfd 	ldp	x29, x30, [sp],#32
    1d28:	d65f03c0 	ret

0000000000001d2c <TEE_CloseAndDeletePersistentObject>:
TEE_CloseAndDeletePersistentObject():
/home/rahulmahadev/hikey_optee/optee_os/lib/libutee/tee_api_objects.c:506
    1d2c:	a9bf7bfd 	stp	x29, x30, [sp,#-16]!
    1d30:	910003fd 	mov	x29, sp
/home/rahulmahadev/hikey_optee/optee_os/lib/libutee/tee_api_objects.c:509
    1d34:	b40001e0 	cbz	x0, 1d70 <TEE_CloseAndDeletePersistentObject+0x44>
/home/rahulmahadev/hikey_optee/optee_os/lib/libutee/tee_api_objects.c:512
    1d38:	97ffffdf 	bl	1cb4 <TEE_CloseAndDeletePersistentObject1>
/home/rahulmahadev/hikey_optee/optee_os/lib/libutee/tee_api_objects.c:514
    1d3c:	340001a0 	cbz	w0, 1d70 <TEE_CloseAndDeletePersistentObject+0x44>
/home/rahulmahadev/hikey_optee/optee_os/lib/libutee/tee_api_objects.c:515
    1d40:	90000064 	adrp	x4, d000 <PRIME_TABLE+0x388>
    1d44:	f0000040 	adrp	x0, c000 <utee_authenc_update_aad>
    1d48:	52800005 	mov	w5, #0x0                   	// #0
    1d4c:	91235c84 	add	x4, x4, #0x8d7
    1d50:	52800023 	mov	w3, #0x1                   	// #1
    1d54:	52800022 	mov	w2, #0x1                   	// #1
    1d58:	52804061 	mov	w1, #0x203                 	// #515
    1d5c:	911a6000 	add	x0, x0, #0x698
    1d60:	9400186e 	bl	7f18 <trace_printf>
/home/rahulmahadev/hikey_optee/optee_os/lib/libutee/tee_api_objects.c:516
    1d64:	a8c17bfd 	ldp	x29, x30, [sp],#16
/home/rahulmahadev/hikey_optee/optee_os/lib/libutee/tee_api_objects.c:515
    1d68:	52800000 	mov	w0, #0x0                   	// #0
    1d6c:	14000d8b 	b	5398 <__TEE_Panic>
/home/rahulmahadev/hikey_optee/optee_os/lib/libutee/tee_api_objects.c:516
    1d70:	a8c17bfd 	ldp	x29, x30, [sp],#16
    1d74:	d65f03c0 	ret

0000000000001d78 <TEE_RenamePersistentObject>:
TEE_RenamePersistentObject():
/home/rahulmahadev/hikey_optee/optee_os/lib/libutee/tee_api_objects.c:537
    1d78:	a9be7bfd 	stp	x29, x30, [sp,#-32]!
    1d7c:	910003fd 	mov	x29, sp
    1d80:	f9000bf3 	str	x19, [sp,#16]
/home/rahulmahadev/hikey_optee/optee_os/lib/libutee/tee_api_objects.c:541
    1d84:	129ffef3 	mov	w19, #0xffff0008            	// #-65528
/home/rahulmahadev/hikey_optee/optee_os/lib/libutee/tee_api_objects.c:540
    1d88:	b4000120 	cbz	x0, 1dac <TEE_RenamePersistentObject+0x34>
/home/rahulmahadev/hikey_optee/optee_os/lib/libutee/tee_api_objects.c:550
    1d8c:	b40000e1 	cbz	x1, 1da8 <TEE_RenamePersistentObject+0x30>
    1d90:	7101005f 	cmp	w2, #0x40
    1d94:	540000a8 	b.hi	1da8 <TEE_RenamePersistentObject+0x30>
/home/rahulmahadev/hikey_optee/optee_os/lib/libutee/tee_api_objects.c:555
    1d98:	2a0203e2 	mov	w2, w2
    1d9c:	940028b4 	bl	c06c <utee_storage_obj_rename>
    1da0:	2a0003f3 	mov	w19, w0
    1da4:	14000002 	b	1dac <TEE_RenamePersistentObject+0x34>
/home/rahulmahadev/hikey_optee/optee_os/lib/libutee/tee_api_objects.c:551
    1da8:	129fff33 	mov	w19, #0xffff0006            	// #-65530
/home/rahulmahadev/hikey_optee/optee_os/lib/libutee/tee_api_objects.c:559
    1dac:	34000293 	cbz	w19, 1dfc <TEE_RenamePersistentObject+0x84>
    1db0:	129fff80 	mov	w0, #0xffff0003            	// #-65533
    1db4:	6b00027f 	cmp	w19, w0
    1db8:	54000220 	b.eq	1dfc <TEE_RenamePersistentObject+0x84>
/home/rahulmahadev/hikey_optee/optee_os/lib/libutee/tee_api_objects.c:561
    1dbc:	52800021 	mov	w1, #0x1                   	// #1
    1dc0:	121e7a60 	and	w0, w19, #0xfffffffd
    1dc4:	72be0201 	movk	w1, #0xf010, lsl #16
    1dc8:	6b01001f 	cmp	w0, w1
    1dcc:	54000180 	b.eq	1dfc <TEE_RenamePersistentObject+0x84>
/home/rahulmahadev/hikey_optee/optee_os/lib/libutee/tee_api_objects.c:563
    1dd0:	90000064 	adrp	x4, d000 <PRIME_TABLE+0x388>
    1dd4:	f0000040 	adrp	x0, c000 <utee_authenc_update_aad>
    1dd8:	911b0000 	add	x0, x0, #0x6c0
    1ddc:	52800005 	mov	w5, #0x0                   	// #0
    1de0:	91235c84 	add	x4, x4, #0x8d7
    1de4:	52800023 	mov	w3, #0x1                   	// #1
    1de8:	52800022 	mov	w2, #0x1                   	// #1
    1dec:	52804661 	mov	w1, #0x233                 	// #563
    1df0:	9400184a 	bl	7f18 <trace_printf>
    1df4:	52800000 	mov	w0, #0x0                   	// #0
    1df8:	94000d68 	bl	5398 <__TEE_Panic>
/home/rahulmahadev/hikey_optee/optee_os/lib/libutee/tee_api_objects.c:566
    1dfc:	2a1303e0 	mov	w0, w19
    1e00:	f9400bf3 	ldr	x19, [sp,#16]
    1e04:	a8c27bfd 	ldp	x29, x30, [sp],#32
    1e08:	d65f03c0 	ret

0000000000001e0c <TEE_AllocatePersistentObjectEnumerator>:
TEE_AllocatePersistentObjectEnumerator():
/home/rahulmahadev/hikey_optee/optee_os/lib/libutee/tee_api_objects.c:570
    1e0c:	a9bd7bfd 	stp	x29, x30, [sp,#-48]!
    1e10:	910003fd 	mov	x29, sp
    1e14:	a90153f3 	stp	x19, x20, [sp,#16]
/home/rahulmahadev/hikey_optee/optee_os/lib/libutee/tee_api_objects.c:575
    1e18:	129fff33 	mov	w19, #0xffff0006            	// #-65530
/home/rahulmahadev/hikey_optee/optee_os/lib/libutee/tee_api_objects.c:574
    1e1c:	b4000300 	cbz	x0, 1e7c <TEE_AllocatePersistentObjectEnumerator+0x70>
    1e20:	aa0003f4 	mov	x20, x0
/home/rahulmahadev/hikey_optee/optee_os/lib/libutee/tee_api_objects.c:577
    1e24:	9100b3a0 	add	x0, x29, #0x2c
    1e28:	94002894 	bl	c078 <utee_storage_alloc_enum>
    1e2c:	2a0003f3 	mov	w19, w0
/home/rahulmahadev/hikey_optee/optee_os/lib/libutee/tee_api_objects.c:579
    1e30:	34000040 	cbz	w0, 1e38 <TEE_AllocatePersistentObjectEnumerator+0x2c>
/home/rahulmahadev/hikey_optee/optee_os/lib/libutee/tee_api_objects.c:580
    1e34:	b9002fbf 	str	wzr, [x29,#44]
/home/rahulmahadev/hikey_optee/optee_os/lib/libutee/tee_api_objects.c:582
    1e38:	b9402fa0 	ldr	w0, [x29,#44]
    1e3c:	f9000280 	str	x0, [x20]
/home/rahulmahadev/hikey_optee/optee_os/lib/libutee/tee_api_objects.c:584
    1e40:	129fff80 	mov	w0, #0xffff0003            	// #-65533
    1e44:	6b00027f 	cmp	w19, w0
    1e48:	540001a0 	b.eq	1e7c <TEE_AllocatePersistentObjectEnumerator+0x70>
    1e4c:	34000193 	cbz	w19, 1e7c <TEE_AllocatePersistentObjectEnumerator+0x70>
/home/rahulmahadev/hikey_optee/optee_os/lib/libutee/tee_api_objects.c:586
    1e50:	90000064 	adrp	x4, d000 <PRIME_TABLE+0x388>
    1e54:	f0000040 	adrp	x0, c000 <utee_authenc_update_aad>
    1e58:	911b8000 	add	x0, x0, #0x6e0
    1e5c:	52800005 	mov	w5, #0x0                   	// #0
    1e60:	91235c84 	add	x4, x4, #0x8d7
    1e64:	52800023 	mov	w3, #0x1                   	// #1
    1e68:	52800022 	mov	w2, #0x1                   	// #1
    1e6c:	52804941 	mov	w1, #0x24a                 	// #586
    1e70:	9400182a 	bl	7f18 <trace_printf>
    1e74:	52800000 	mov	w0, #0x0                   	// #0
    1e78:	94000d48 	bl	5398 <__TEE_Panic>
/home/rahulmahadev/hikey_optee/optee_os/lib/libutee/tee_api_objects.c:589
    1e7c:	2a1303e0 	mov	w0, w19
    1e80:	a94153f3 	ldp	x19, x20, [sp,#16]
    1e84:	a8c37bfd 	ldp	x29, x30, [sp],#48
    1e88:	d65f03c0 	ret

0000000000001e8c <TEE_FreePersistentObjectEnumerator>:
TEE_FreePersistentObjectEnumerator():
/home/rahulmahadev/hikey_optee/optee_os/lib/libutee/tee_api_objects.c:592
    1e8c:	a9bf7bfd 	stp	x29, x30, [sp,#-16]!
    1e90:	910003fd 	mov	x29, sp
/home/rahulmahadev/hikey_optee/optee_os/lib/libutee/tee_api_objects.c:595
    1e94:	b40001e0 	cbz	x0, 1ed0 <TEE_FreePersistentObjectEnumerator+0x44>
/home/rahulmahadev/hikey_optee/optee_os/lib/libutee/tee_api_objects.c:598
    1e98:	9400287b 	bl	c084 <utee_storage_free_enum>
/home/rahulmahadev/hikey_optee/optee_os/lib/libutee/tee_api_objects.c:600
    1e9c:	340001a0 	cbz	w0, 1ed0 <TEE_FreePersistentObjectEnumerator+0x44>
/home/rahulmahadev/hikey_optee/optee_os/lib/libutee/tee_api_objects.c:601
    1ea0:	90000064 	adrp	x4, d000 <PRIME_TABLE+0x388>
    1ea4:	f0000040 	adrp	x0, c000 <utee_authenc_update_aad>
    1ea8:	52800005 	mov	w5, #0x0                   	// #0
    1eac:	91235c84 	add	x4, x4, #0x8d7
    1eb0:	52800023 	mov	w3, #0x1                   	// #1
    1eb4:	52800022 	mov	w2, #0x1                   	// #1
    1eb8:	52804b21 	mov	w1, #0x259                 	// #601
    1ebc:	911ca000 	add	x0, x0, #0x728
    1ec0:	94001816 	bl	7f18 <trace_printf>
/home/rahulmahadev/hikey_optee/optee_os/lib/libutee/tee_api_objects.c:602
    1ec4:	a8c17bfd 	ldp	x29, x30, [sp],#16
/home/rahulmahadev/hikey_optee/optee_os/lib/libutee/tee_api_objects.c:601
    1ec8:	52800000 	mov	w0, #0x0                   	// #0
    1ecc:	14000d33 	b	5398 <__TEE_Panic>
/home/rahulmahadev/hikey_optee/optee_os/lib/libutee/tee_api_objects.c:602
    1ed0:	a8c17bfd 	ldp	x29, x30, [sp],#16
    1ed4:	d65f03c0 	ret

0000000000001ed8 <TEE_ResetPersistentObjectEnumerator>:
TEE_ResetPersistentObjectEnumerator():
/home/rahulmahadev/hikey_optee/optee_os/lib/libutee/tee_api_objects.c:605
    1ed8:	a9bf7bfd 	stp	x29, x30, [sp,#-16]!
    1edc:	910003fd 	mov	x29, sp
/home/rahulmahadev/hikey_optee/optee_os/lib/libutee/tee_api_objects.c:608
    1ee0:	b40001e0 	cbz	x0, 1f1c <TEE_ResetPersistentObjectEnumerator+0x44>
/home/rahulmahadev/hikey_optee/optee_os/lib/libutee/tee_api_objects.c:611
    1ee4:	9400286b 	bl	c090 <utee_storage_reset_enum>
/home/rahulmahadev/hikey_optee/optee_os/lib/libutee/tee_api_objects.c:613
    1ee8:	340001a0 	cbz	w0, 1f1c <TEE_ResetPersistentObjectEnumerator+0x44>
/home/rahulmahadev/hikey_optee/optee_os/lib/libutee/tee_api_objects.c:614
    1eec:	90000064 	adrp	x4, d000 <PRIME_TABLE+0x388>
    1ef0:	f0000040 	adrp	x0, c000 <utee_authenc_update_aad>
    1ef4:	52800005 	mov	w5, #0x0                   	// #0
    1ef8:	91235c84 	add	x4, x4, #0x8d7
    1efc:	52800023 	mov	w3, #0x1                   	// #1
    1f00:	52800022 	mov	w2, #0x1                   	// #1
    1f04:	52804cc1 	mov	w1, #0x266                 	// #614
    1f08:	911d4000 	add	x0, x0, #0x750
    1f0c:	94001803 	bl	7f18 <trace_printf>
/home/rahulmahadev/hikey_optee/optee_os/lib/libutee/tee_api_objects.c:615
    1f10:	a8c17bfd 	ldp	x29, x30, [sp],#16
/home/rahulmahadev/hikey_optee/optee_os/lib/libutee/tee_api_objects.c:614
    1f14:	52800000 	mov	w0, #0x0                   	// #0
    1f18:	14000d20 	b	5398 <__TEE_Panic>
/home/rahulmahadev/hikey_optee/optee_os/lib/libutee/tee_api_objects.c:615
    1f1c:	a8c17bfd 	ldp	x29, x30, [sp],#16
    1f20:	d65f03c0 	ret

0000000000001f24 <TEE_StartPersistentObjectEnumerator>:
TEE_StartPersistentObjectEnumerator():
/home/rahulmahadev/hikey_optee/optee_os/lib/libutee/tee_api_objects.c:620
    1f24:	a9bd7bfd 	stp	x29, x30, [sp,#-48]!
/home/rahulmahadev/hikey_optee/optee_os/lib/libutee/tee_api_objects.c:623
    1f28:	7100043f 	cmp	w1, #0x1
/home/rahulmahadev/hikey_optee/optee_os/lib/libutee/tee_api_objects.c:620
    1f2c:	910003fd 	mov	x29, sp
    1f30:	f9000bf3 	str	x19, [sp,#16]
/home/rahulmahadev/hikey_optee/optee_os/lib/libutee/tee_api_objects.c:624
    1f34:	129ffef3 	mov	w19, #0xffff0008            	// #-65528
/home/rahulmahadev/hikey_optee/optee_os/lib/libutee/tee_api_objects.c:623
    1f38:	54000341 	b.ne	1fa0 <TEE_StartPersistentObjectEnumerator+0x7c>
    1f3c:	b9002fa1 	str	w1, [x29,#44]
/home/rahulmahadev/hikey_optee/optee_os/lib/libutee/tee_api_objects.c:626
    1f40:	d2800021 	mov	x1, #0x1                   	// #1
    1f44:	94002856 	bl	c09c <utee_storage_start_enum>
/home/rahulmahadev/hikey_optee/optee_os/lib/libutee/tee_api_objects.c:629
    1f48:	340002a0 	cbz	w0, 1f9c <TEE_StartPersistentObjectEnumerator+0x78>
    1f4c:	6b13001f 	cmp	w0, w19
    1f50:	54000260 	b.eq	1f9c <TEE_StartPersistentObjectEnumerator+0x78>
/home/rahulmahadev/hikey_optee/optee_os/lib/libutee/tee_api_objects.c:631
    1f54:	b9402fa2 	ldr	w2, [x29,#44]
    1f58:	121e7803 	and	w3, w0, #0xfffffffd
    1f5c:	2a0003f3 	mov	w19, w0
    1f60:	2a0203e1 	mov	w1, w2
    1f64:	72be0201 	movk	w1, #0xf010, lsl #16
    1f68:	6b01007f 	cmp	w3, w1
    1f6c:	540001a0 	b.eq	1fa0 <TEE_StartPersistentObjectEnumerator+0x7c>
/home/rahulmahadev/hikey_optee/optee_os/lib/libutee/tee_api_objects.c:633
    1f70:	90000064 	adrp	x4, d000 <PRIME_TABLE+0x388>
    1f74:	f0000040 	adrp	x0, c000 <utee_authenc_update_aad>
    1f78:	52800005 	mov	w5, #0x0                   	// #0
    1f7c:	91235c84 	add	x4, x4, #0x8d7
    1f80:	2a0203e3 	mov	w3, w2
    1f84:	52804f21 	mov	w1, #0x279                 	// #633
    1f88:	9117e000 	add	x0, x0, #0x5f8
    1f8c:	940017e3 	bl	7f18 <trace_printf>
    1f90:	52800000 	mov	w0, #0x0                   	// #0
    1f94:	94000d01 	bl	5398 <__TEE_Panic>
    1f98:	14000002 	b	1fa0 <TEE_StartPersistentObjectEnumerator+0x7c>
/home/rahulmahadev/hikey_optee/optee_os/lib/libutee/tee_api_objects.c:626
    1f9c:	2a0003f3 	mov	w19, w0
/home/rahulmahadev/hikey_optee/optee_os/lib/libutee/tee_api_objects.c:636
    1fa0:	2a1303e0 	mov	w0, w19
    1fa4:	f9400bf3 	ldr	x19, [sp,#16]
    1fa8:	a8c37bfd 	ldp	x29, x30, [sp],#48
    1fac:	d65f03c0 	ret

0000000000001fb0 <TEE_GetNextPersistentObject>:
TEE_GetNextPersistentObject():
/home/rahulmahadev/hikey_optee/optee_os/lib/libutee/tee_api_objects.c:641
    1fb0:	a9bd7bfd 	stp	x29, x30, [sp,#-48]!
    1fb4:	910003fd 	mov	x29, sp
    1fb8:	a90153f3 	stp	x19, x20, [sp,#16]
    1fbc:	aa0303f4 	mov	x20, x3
/home/rahulmahadev/hikey_optee/optee_os/lib/libutee/tee_api_objects.c:650
    1fc0:	b4000142 	cbz	x2, 1fe8 <TEE_GetNextPersistentObject+0x38>
    1fc4:	b4000123 	cbz	x3, 1fe8 <TEE_GetNextPersistentObject+0x38>
/home/rahulmahadev/hikey_optee/optee_os/lib/libutee/tee_api_objects.c:655
    1fc8:	b9400064 	ldr	w4, [x3]
    1fcc:	9100c3a3 	add	x3, x29, #0x30
    1fd0:	f81f8c64 	str	x4, [x3,#-8]!
/home/rahulmahadev/hikey_optee/optee_os/lib/libutee/tee_api_objects.c:656
    1fd4:	94002835 	bl	c0a8 <utee_storage_next_enum>
    1fd8:	2a0003f3 	mov	w19, w0
/home/rahulmahadev/hikey_optee/optee_os/lib/libutee/tee_api_objects.c:658
    1fdc:	f94017a0 	ldr	x0, [x29,#40]
    1fe0:	b9000280 	str	w0, [x20]
    1fe4:	14000002 	b	1fec <TEE_GetNextPersistentObject+0x3c>
/home/rahulmahadev/hikey_optee/optee_os/lib/libutee/tee_api_objects.c:651
    1fe8:	129fff33 	mov	w19, #0xffff0006            	// #-65530
/home/rahulmahadev/hikey_optee/optee_os/lib/libutee/tee_api_objects.c:661
    1fec:	34000293 	cbz	w19, 203c <TEE_GetNextPersistentObject+0x8c>
    1ff0:	129ffee0 	mov	w0, #0xffff0008            	// #-65528
    1ff4:	6b00027f 	cmp	w19, w0
    1ff8:	54000220 	b.eq	203c <TEE_GetNextPersistentObject+0x8c>
/home/rahulmahadev/hikey_optee/optee_os/lib/libutee/tee_api_objects.c:663
    1ffc:	52800021 	mov	w1, #0x1                   	// #1
    2000:	121e7a60 	and	w0, w19, #0xfffffffd
    2004:	72be0201 	movk	w1, #0xf010, lsl #16
    2008:	6b01001f 	cmp	w0, w1
    200c:	54000180 	b.eq	203c <TEE_GetNextPersistentObject+0x8c>
/home/rahulmahadev/hikey_optee/optee_os/lib/libutee/tee_api_objects.c:665
    2010:	f0000044 	adrp	x4, d000 <PRIME_TABLE+0x388>
    2014:	d0000040 	adrp	x0, c000 <utee_authenc_update_aad>
    2018:	9111c000 	add	x0, x0, #0x470
    201c:	52800005 	mov	w5, #0x0                   	// #0
    2020:	91235c84 	add	x4, x4, #0x8d7
    2024:	52800023 	mov	w3, #0x1                   	// #1
    2028:	52800022 	mov	w2, #0x1                   	// #1
    202c:	52805321 	mov	w1, #0x299                 	// #665
    2030:	940017ba 	bl	7f18 <trace_printf>
    2034:	52800000 	mov	w0, #0x0                   	// #0
    2038:	94000cd8 	bl	5398 <__TEE_Panic>
/home/rahulmahadev/hikey_optee/optee_os/lib/libutee/tee_api_objects.c:668
    203c:	2a1303e0 	mov	w0, w19
    2040:	a94153f3 	ldp	x19, x20, [sp,#16]
    2044:	a8c37bfd 	ldp	x29, x30, [sp],#48
    2048:	d65f03c0 	ret

000000000000204c <TEE_ReadObjectData>:
TEE_ReadObjectData():
/home/rahulmahadev/hikey_optee/optee_os/lib/libutee/tee_api_objects.c:674
    204c:	a9bd7bfd 	stp	x29, x30, [sp,#-48]!
    2050:	910003fd 	mov	x29, sp
    2054:	a90153f3 	stp	x19, x20, [sp,#16]
    2058:	aa0303f4 	mov	x20, x3
/home/rahulmahadev/hikey_optee/optee_os/lib/libutee/tee_api_objects.c:679
    205c:	129fff33 	mov	w19, #0xffff0006            	// #-65530
/home/rahulmahadev/hikey_optee/optee_os/lib/libutee/tee_api_objects.c:678
    2060:	b4000120 	cbz	x0, 2084 <TEE_ReadObjectData+0x38>
/home/rahulmahadev/hikey_optee/optee_os/lib/libutee/tee_api_objects.c:683
    2064:	b9400064 	ldr	w4, [x3]
    2068:	9100c3a3 	add	x3, x29, #0x30
/home/rahulmahadev/hikey_optee/optee_os/lib/libutee/tee_api_objects.c:684
    206c:	2a0203e2 	mov	w2, w2
/home/rahulmahadev/hikey_optee/optee_os/lib/libutee/tee_api_objects.c:683
    2070:	f81f8c64 	str	x4, [x3,#-8]!
/home/rahulmahadev/hikey_optee/optee_os/lib/libutee/tee_api_objects.c:684
    2074:	94002810 	bl	c0b4 <utee_storage_obj_read>
    2078:	2a0003f3 	mov	w19, w0
/home/rahulmahadev/hikey_optee/optee_os/lib/libutee/tee_api_objects.c:686
    207c:	f94017a0 	ldr	x0, [x29,#40]
    2080:	b9000280 	str	w0, [x20]
/home/rahulmahadev/hikey_optee/optee_os/lib/libutee/tee_api_objects.c:690
    2084:	52800021 	mov	w1, #0x1                   	// #1
    2088:	121e7a60 	and	w0, w19, #0xfffffffd
    208c:	72be0201 	movk	w1, #0xf010, lsl #16
    2090:	6b01001f 	cmp	w0, w1
    2094:	540001a0 	b.eq	20c8 <TEE_ReadObjectData+0x7c>
    2098:	34000193 	cbz	w19, 20c8 <TEE_ReadObjectData+0x7c>
/home/rahulmahadev/hikey_optee/optee_os/lib/libutee/tee_api_objects.c:692
    209c:	f0000044 	adrp	x4, d000 <PRIME_TABLE+0x388>
    20a0:	d0000040 	adrp	x0, c000 <utee_authenc_update_aad>
    20a4:	91134000 	add	x0, x0, #0x4d0
    20a8:	52800005 	mov	w5, #0x0                   	// #0
    20ac:	91235c84 	add	x4, x4, #0x8d7
    20b0:	52800023 	mov	w3, #0x1                   	// #1
    20b4:	52800022 	mov	w2, #0x1                   	// #1
    20b8:	52805681 	mov	w1, #0x2b4                 	// #692
    20bc:	94001797 	bl	7f18 <trace_printf>
    20c0:	52800000 	mov	w0, #0x0                   	// #0
    20c4:	94000cb5 	bl	5398 <__TEE_Panic>
/home/rahulmahadev/hikey_optee/optee_os/lib/libutee/tee_api_objects.c:695
    20c8:	2a1303e0 	mov	w0, w19
    20cc:	a94153f3 	ldp	x19, x20, [sp,#16]
    20d0:	a8c37bfd 	ldp	x29, x30, [sp],#48
    20d4:	d65f03c0 	ret

00000000000020d8 <TEE_WriteObjectData>:
TEE_WriteObjectData():
/home/rahulmahadev/hikey_optee/optee_os/lib/libutee/tee_api_objects.c:699
    20d8:	a9be7bfd 	stp	x29, x30, [sp,#-32]!
    20dc:	910003fd 	mov	x29, sp
    20e0:	f9000bf3 	str	x19, [sp,#16]
/home/rahulmahadev/hikey_optee/optee_os/lib/libutee/tee_api_objects.c:703
    20e4:	129fff33 	mov	w19, #0xffff0006            	// #-65530
/home/rahulmahadev/hikey_optee/optee_os/lib/libutee/tee_api_objects.c:702
    20e8:	b4000080 	cbz	x0, 20f8 <TEE_WriteObjectData+0x20>
/home/rahulmahadev/hikey_optee/optee_os/lib/libutee/tee_api_objects.c:712
    20ec:	2a0203e2 	mov	w2, w2
    20f0:	940027f4 	bl	c0c0 <utee_storage_obj_write>
    20f4:	2a0003f3 	mov	w19, w0
/home/rahulmahadev/hikey_optee/optee_os/lib/libutee/tee_api_objects.c:715
    20f8:	340002f3 	cbz	w19, 2154 <TEE_WriteObjectData+0x7c>
    20fc:	1299f7c0 	mov	w0, #0xffff3041            	// #-53183
    2100:	6b00027f 	cmp	w19, w0
    2104:	54000280 	b.eq	2154 <TEE_WriteObjectData+0x7c>
/home/rahulmahadev/hikey_optee/optee_os/lib/libutee/tee_api_objects.c:718
    2108:	1299fe00 	mov	w0, #0xffff300f            	// #-53233
    210c:	6b00027f 	cmp	w19, w0
    2110:	54000220 	b.eq	2154 <TEE_WriteObjectData+0x7c>
    2114:	52800021 	mov	w1, #0x1                   	// #1
    2118:	121e7a60 	and	w0, w19, #0xfffffffd
    211c:	72be0201 	movk	w1, #0xf010, lsl #16
    2120:	6b01001f 	cmp	w0, w1
    2124:	54000180 	b.eq	2154 <TEE_WriteObjectData+0x7c>
/home/rahulmahadev/hikey_optee/optee_os/lib/libutee/tee_api_objects.c:720
    2128:	f0000044 	adrp	x4, d000 <PRIME_TABLE+0x388>
    212c:	d0000040 	adrp	x0, c000 <utee_authenc_update_aad>
    2130:	91148000 	add	x0, x0, #0x520
    2134:	52800005 	mov	w5, #0x0                   	// #0
    2138:	91235c84 	add	x4, x4, #0x8d7
    213c:	52800023 	mov	w3, #0x1                   	// #1
    2140:	52800022 	mov	w2, #0x1                   	// #1
    2144:	52805a01 	mov	w1, #0x2d0                 	// #720
    2148:	94001774 	bl	7f18 <trace_printf>
    214c:	52800000 	mov	w0, #0x0                   	// #0
    2150:	94000c92 	bl	5398 <__TEE_Panic>
/home/rahulmahadev/hikey_optee/optee_os/lib/libutee/tee_api_objects.c:723
    2154:	2a1303e0 	mov	w0, w19
    2158:	f9400bf3 	ldr	x19, [sp,#16]
    215c:	a8c27bfd 	ldp	x29, x30, [sp],#32
    2160:	d65f03c0 	ret

0000000000002164 <TEE_TruncateObjectData>:
TEE_TruncateObjectData():
/home/rahulmahadev/hikey_optee/optee_os/lib/libutee/tee_api_objects.c:726
    2164:	a9be7bfd 	stp	x29, x30, [sp,#-32]!
    2168:	910003fd 	mov	x29, sp
    216c:	f9000bf3 	str	x19, [sp,#16]
/home/rahulmahadev/hikey_optee/optee_os/lib/libutee/tee_api_objects.c:730
    2170:	129fff33 	mov	w19, #0xffff0006            	// #-65530
/home/rahulmahadev/hikey_optee/optee_os/lib/libutee/tee_api_objects.c:729
    2174:	b4000080 	cbz	x0, 2184 <TEE_TruncateObjectData+0x20>
/home/rahulmahadev/hikey_optee/optee_os/lib/libutee/tee_api_objects.c:734
    2178:	2a0103e1 	mov	w1, w1
    217c:	940027d4 	bl	c0cc <utee_storage_obj_trunc>
    2180:	2a0003f3 	mov	w19, w0
/home/rahulmahadev/hikey_optee/optee_os/lib/libutee/tee_api_objects.c:737
    2184:	34000293 	cbz	w19, 21d4 <TEE_TruncateObjectData+0x70>
    2188:	1299f7c0 	mov	w0, #0xffff3041            	// #-53183
    218c:	6b00027f 	cmp	w19, w0
    2190:	54000220 	b.eq	21d4 <TEE_TruncateObjectData+0x70>
/home/rahulmahadev/hikey_optee/optee_os/lib/libutee/tee_api_objects.c:739
    2194:	52800021 	mov	w1, #0x1                   	// #1
    2198:	121e7a60 	and	w0, w19, #0xfffffffd
    219c:	72be0201 	movk	w1, #0xf010, lsl #16
    21a0:	6b01001f 	cmp	w0, w1
    21a4:	54000180 	b.eq	21d4 <TEE_TruncateObjectData+0x70>
/home/rahulmahadev/hikey_optee/optee_os/lib/libutee/tee_api_objects.c:741
    21a8:	f0000044 	adrp	x4, d000 <PRIME_TABLE+0x388>
    21ac:	d0000040 	adrp	x0, c000 <utee_authenc_update_aad>
    21b0:	91156000 	add	x0, x0, #0x558
    21b4:	52800005 	mov	w5, #0x0                   	// #0
    21b8:	91235c84 	add	x4, x4, #0x8d7
    21bc:	52800023 	mov	w3, #0x1                   	// #1
    21c0:	52800022 	mov	w2, #0x1                   	// #1
    21c4:	52805ca1 	mov	w1, #0x2e5                 	// #741
    21c8:	94001754 	bl	7f18 <trace_printf>
    21cc:	52800000 	mov	w0, #0x0                   	// #0
    21d0:	94000c72 	bl	5398 <__TEE_Panic>
/home/rahulmahadev/hikey_optee/optee_os/lib/libutee/tee_api_objects.c:744
    21d4:	2a1303e0 	mov	w0, w19
    21d8:	f9400bf3 	ldr	x19, [sp,#16]
    21dc:	a8c27bfd 	ldp	x29, x30, [sp],#32
    21e0:	d65f03c0 	ret

00000000000021e4 <TEE_SeekObjectData>:
TEE_SeekObjectData():
/home/rahulmahadev/hikey_optee/optee_os/lib/libutee/tee_api_objects.c:748
    21e4:	a9ba7bfd 	stp	x29, x30, [sp,#-96]!
    21e8:	910003fd 	mov	x29, sp
    21ec:	a90153f3 	stp	x19, x20, [sp,#16]
    21f0:	f90013f5 	str	x21, [sp,#32]
    21f4:	2a0103f4 	mov	w20, w1
    21f8:	b9003fa2 	str	w2, [x29,#60]
    21fc:	aa0003f5 	mov	x21, x0
/home/rahulmahadev/hikey_optee/optee_os/lib/libutee/tee_api_objects.c:753
    2200:	129fff33 	mov	w19, #0xffff0006            	// #-65530
/home/rahulmahadev/hikey_optee/optee_os/lib/libutee/tee_api_objects.c:752
    2204:	b40003c0 	cbz	x0, 227c <TEE_SeekObjectData+0x98>
/home/rahulmahadev/hikey_optee/optee_os/lib/libutee/tee_api_objects.c:757
    2208:	910103a1 	add	x1, x29, #0x40
    220c:	9400275c 	bl	bf7c <utee_cryp_obj_get_info>
    2210:	2a0003f3 	mov	w19, w0
/home/rahulmahadev/hikey_optee/optee_os/lib/libutee/tee_api_objects.c:758
    2214:	b9403fa2 	ldr	w2, [x29,#60]
    2218:	35000320 	cbnz	w0, 227c <TEE_SeekObjectData+0x98>
/home/rahulmahadev/hikey_optee/optee_os/lib/libutee/tee_api_objects.c:761
    221c:	7100045f 	cmp	w2, #0x1
    2220:	540000a0 	b.eq	2234 <TEE_SeekObjectData+0x50>
    2224:	340001e2 	cbz	w2, 2260 <TEE_SeekObjectData+0x7c>
    2228:	7100085f 	cmp	w2, #0x2
    222c:	540000c0 	b.eq	2244 <TEE_SeekObjectData+0x60>
    2230:	14000012 	b	2278 <TEE_SeekObjectData+0x94>
/home/rahulmahadev/hikey_optee/optee_os/lib/libutee/tee_api_objects.c:769
    2234:	6b1f029f 	cmp	w20, wzr
/home/rahulmahadev/hikey_optee/optee_os/lib/libutee/tee_api_objects.c:772
    2238:	b94057a0 	ldr	w0, [x29,#84]
/home/rahulmahadev/hikey_optee/optee_os/lib/libutee/tee_api_objects.c:769
    223c:	540000ac 	b.gt	2250 <TEE_SeekObjectData+0x6c>
    2240:	14000008 	b	2260 <TEE_SeekObjectData+0x7c>
/home/rahulmahadev/hikey_optee/optee_os/lib/libutee/tee_api_objects.c:779
    2244:	6b1f029f 	cmp	w20, wzr
    2248:	540000cd 	b.le	2260 <TEE_SeekObjectData+0x7c>
/home/rahulmahadev/hikey_optee/optee_os/lib/libutee/tee_api_objects.c:781 (discriminator 1)
    224c:	b94053a0 	ldr	w0, [x29,#80]
    2250:	0b000281 	add	w1, w20, w0
/home/rahulmahadev/hikey_optee/optee_os/lib/libutee/tee_api_objects.c:774 (discriminator 1)
    2254:	1299fe13 	mov	w19, #0xffff300f            	// #-53233
/home/rahulmahadev/hikey_optee/optee_os/lib/libutee/tee_api_objects.c:779 (discriminator 1)
    2258:	6b00003f 	cmp	w1, w0
    225c:	54000103 	b.cc	227c <TEE_SeekObjectData+0x98>
/home/rahulmahadev/hikey_optee/optee_os/lib/libutee/tee_api_objects.c:791
    2260:	2a0203e2 	mov	w2, w2
    2264:	93407e81 	sxtw	x1, w20
    2268:	aa1503e0 	mov	x0, x21
    226c:	9400279b 	bl	c0d8 <utee_storage_obj_seek>
    2270:	2a0003f3 	mov	w19, w0
    2274:	14000002 	b	227c <TEE_SeekObjectData+0x98>
/home/rahulmahadev/hikey_optee/optee_os/lib/libutee/tee_api_objects.c:787
    2278:	129ffef3 	mov	w19, #0xffff0008            	// #-65528
/home/rahulmahadev/hikey_optee/optee_os/lib/libutee/tee_api_objects.c:794
    227c:	34000293 	cbz	w19, 22cc <TEE_SeekObjectData+0xe8>
    2280:	1299fe00 	mov	w0, #0xffff300f            	// #-53233
    2284:	6b00027f 	cmp	w19, w0
    2288:	54000220 	b.eq	22cc <TEE_SeekObjectData+0xe8>
/home/rahulmahadev/hikey_optee/optee_os/lib/libutee/tee_api_objects.c:796
    228c:	52800021 	mov	w1, #0x1                   	// #1
    2290:	121e7a60 	and	w0, w19, #0xfffffffd
    2294:	72be0201 	movk	w1, #0xf010, lsl #16
    2298:	6b01001f 	cmp	w0, w1
    229c:	54000180 	b.eq	22cc <TEE_SeekObjectData+0xe8>
/home/rahulmahadev/hikey_optee/optee_os/lib/libutee/tee_api_objects.c:798
    22a0:	f0000044 	adrp	x4, d000 <PRIME_TABLE+0x388>
    22a4:	d0000040 	adrp	x0, c000 <utee_authenc_update_aad>
    22a8:	9116a000 	add	x0, x0, #0x5a8
    22ac:	52800005 	mov	w5, #0x0                   	// #0
    22b0:	91235c84 	add	x4, x4, #0x8d7
    22b4:	52800023 	mov	w3, #0x1                   	// #1
    22b8:	52800022 	mov	w2, #0x1                   	// #1
    22bc:	528063c1 	mov	w1, #0x31e                 	// #798
    22c0:	94001716 	bl	7f18 <trace_printf>
    22c4:	52800000 	mov	w0, #0x0                   	// #0
    22c8:	94000c34 	bl	5398 <__TEE_Panic>
/home/rahulmahadev/hikey_optee/optee_os/lib/libutee/tee_api_objects.c:801
    22cc:	2a1303e0 	mov	w0, w19
    22d0:	f94013f5 	ldr	x21, [sp,#32]
    22d4:	a94153f3 	ldp	x19, x20, [sp,#16]
    22d8:	a8c67bfd 	ldp	x29, x30, [sp],#96
    22dc:	d65f03c0 	ret

00000000000022e0 <init_hash_operation>:
init_hash_operation():
/home/rahulmahadev/hikey_optee/optee_os/lib/libutee/tee_api_operations.c:766
    22e0:	a9be7bfd 	stp	x29, x30, [sp,#-32]!
/home/rahulmahadev/hikey_optee/optee_os/lib/libutee/tee_api_operations.c:773
    22e4:	2a0203e2 	mov	w2, w2
/home/rahulmahadev/hikey_optee/optee_os/lib/libutee/tee_api_operations.c:766
    22e8:	910003fd 	mov	x29, sp
    22ec:	a90153f3 	stp	x19, x20, [sp,#16]
    22f0:	aa0003f3 	mov	x19, x0
/home/rahulmahadev/hikey_optee/optee_os/lib/libutee/tee_api_operations.c:773
    22f4:	b9405800 	ldr	w0, [x0,#88]
    22f8:	9400270f 	bl	bf34 <utee_hash_init>
    22fc:	2a0003f4 	mov	w20, w0
/home/rahulmahadev/hikey_optee/optee_os/lib/libutee/tee_api_operations.c:774
    2300:	34000180 	cbz	w0, 2330 <init_hash_operation+0x50>
/home/rahulmahadev/hikey_optee/optee_os/lib/libutee/tee_api_operations.c:775
    2304:	2a0003e5 	mov	w5, w0
    2308:	f0000044 	adrp	x4, d000 <PRIME_TABLE+0x388>
    230c:	d0000040 	adrp	x0, c000 <utee_authenc_update_aad>
    2310:	91235c84 	add	x4, x4, #0x8d7
    2314:	91216000 	add	x0, x0, #0x858
    2318:	52800023 	mov	w3, #0x1                   	// #1
    231c:	52800022 	mov	w2, #0x1                   	// #1
    2320:	528060e1 	mov	w1, #0x307                 	// #775
    2324:	940016fd 	bl	7f18 <trace_printf>
    2328:	2a1403e0 	mov	w0, w20
    232c:	94000c1b 	bl	5398 <__TEE_Panic>
/home/rahulmahadev/hikey_optee/optee_os/lib/libutee/tee_api_operations.c:777
    2330:	b9401e60 	ldr	w0, [x19,#28]
/home/rahulmahadev/hikey_optee/optee_os/lib/libutee/tee_api_operations.c:776
    2334:	f9002a7f 	str	xzr, [x19,#80]
/home/rahulmahadev/hikey_optee/optee_os/lib/libutee/tee_api_operations.c:777
    2338:	320f0000 	orr	w0, w0, #0x20000
    233c:	b9001e60 	str	w0, [x19,#28]
/home/rahulmahadev/hikey_optee/optee_os/lib/libutee/tee_api_operations.c:778
    2340:	a94153f3 	ldp	x19, x20, [sp,#16]
    2344:	a8c27bfd 	ldp	x29, x30, [sp],#32
    2348:	d65f03c0 	ret

000000000000234c <tee_buffer_update>:
tee_buffer_update():
/home/rahulmahadev/hikey_optee/optee_os/lib/libutee/tee_api_operations.c:865
    234c:	a9b87bfd 	stp	x29, x30, [sp,#-128]!
    2350:	910003fd 	mov	x29, sp
    2354:	a90153f3 	stp	x19, x20, [sp,#16]
    2358:	aa0003f3 	mov	x19, x0
    235c:	aa0303f4 	mov	x20, x3
    2360:	a90363f7 	stp	x23, x24, [sp,#48]
    2364:	a90573fb 	stp	x27, x28, [sp,#80]
/home/rahulmahadev/hikey_optee/optee_os/lib/libutee/tee_api_operations.c:877
    2368:	39410260 	ldrb	w0, [x19,#64]
/home/rahulmahadev/hikey_optee/optee_os/lib/libutee/tee_api_operations.c:865
    236c:	aa0403f7 	mov	x23, x4
    2370:	a9025bf5 	stp	x21, x22, [sp,#32]
    2374:	a9046bf9 	stp	x25, x26, [sp,#64]
    2378:	f90037a5 	str	x5, [x29,#104]
    237c:	aa0103fa 	mov	x26, x1
    2380:	aa0203f6 	mov	x22, x2
/home/rahulmahadev/hikey_optee/optee_os/lib/libutee/tee_api_operations.c:870
    2384:	f94000b8 	ldr	x24, [x5]
/home/rahulmahadev/hikey_optee/optee_os/lib/libutee/tee_api_operations.c:878
    2388:	f940267b 	ldr	x27, [x19,#72]
/home/rahulmahadev/hikey_optee/optee_os/lib/libutee/tee_api_operations.c:882
    238c:	d280001c 	mov	x28, #0x0                   	// #0
/home/rahulmahadev/hikey_optee/optee_os/lib/libutee/tee_api_operations.c:877
    2390:	34000060 	cbz	w0, 239c <tee_buffer_update+0x50>
/home/rahulmahadev/hikey_optee/optee_os/lib/libutee/tee_api_operations.c:878
    2394:	d37ffb7b 	lsl	x27, x27, #1
/home/rahulmahadev/hikey_optee/optee_os/lib/libutee/tee_api_operations.c:879
    2398:	d280003c 	mov	x28, #0x1                   	// #1
/home/rahulmahadev/hikey_optee/optee_os/lib/libutee/tee_api_operations.c:885
    239c:	f9402a60 	ldr	x0, [x19,#80]
    23a0:	b4000340 	cbz	x0, 2408 <tee_buffer_update+0xbc>
/home/rahulmahadev/hikey_optee/optee_os/lib/libutee/tee_api_operations.c:887
    23a4:	f9402675 	ldr	x21, [x19,#72]
    23a8:	eb15001f 	cmp	x0, x21
    23ac:	540000a2 	b.cs	23c0 <tee_buffer_update+0x74>
/home/rahulmahadev/hikey_optee/optee_os/lib/libutee/tee_api_operations.c:888
    23b0:	cb0002b5 	sub	x21, x21, x0
    23b4:	eb15029f 	cmp	x20, x21
    23b8:	9a959295 	csel	x21, x20, x21, ls
    23bc:	14000004 	b	23cc <tee_buffer_update+0x80>
/home/rahulmahadev/hikey_optee/optee_os/lib/libutee/tee_api_operations.c:890
    23c0:	cb000375 	sub	x21, x27, x0
    23c4:	eb1402bf 	cmp	x21, x20
    23c8:	9a9492b5 	csel	x21, x21, x20, ls
/home/rahulmahadev/hikey_optee/optee_os/lib/libutee/tee_api_operations.c:891
    23cc:	f9401e63 	ldr	x3, [x19,#56]
    23d0:	aa1503e2 	mov	x2, x21
    23d4:	aa1603e1 	mov	x1, x22
/home/rahulmahadev/hikey_optee/optee_os/lib/libutee/tee_api_operations.c:871
    23d8:	d2800019 	mov	x25, #0x0                   	// #0
/home/rahulmahadev/hikey_optee/optee_os/lib/libutee/tee_api_operations.c:891
    23dc:	8b000060 	add	x0, x3, x0
    23e0:	94001370 	bl	71a0 <memcpy>
/home/rahulmahadev/hikey_optee/optee_os/lib/libutee/tee_api_operations.c:892
    23e4:	f9402a60 	ldr	x0, [x19,#80]
/home/rahulmahadev/hikey_optee/optee_os/lib/libutee/tee_api_operations.c:895
    23e8:	f9402662 	ldr	x2, [x19,#72]
/home/rahulmahadev/hikey_optee/optee_os/lib/libutee/tee_api_operations.c:892
    23ec:	8b0002a0 	add	x0, x21, x0
    23f0:	f9002a60 	str	x0, [x19,#80]
/home/rahulmahadev/hikey_optee/optee_os/lib/libutee/tee_api_operations.c:895
    23f4:	9ac20801 	udiv	x1, x0, x2
    23f8:	9b028020 	msub	x0, x1, x2, x0
    23fc:	b5000b60 	cbnz	x0, 2568 <tee_buffer_update+0x21c>
/home/rahulmahadev/hikey_optee/optee_os/lib/libutee/tee_api_operations.c:893
    2400:	8b1502d6 	add	x22, x22, x21
/home/rahulmahadev/hikey_optee/optee_os/lib/libutee/tee_api_operations.c:894
    2404:	cb150294 	sub	x20, x20, x21
/home/rahulmahadev/hikey_optee/optee_os/lib/libutee/tee_api_operations.c:900
    2408:	f9402a61 	ldr	x1, [x19,#80]
    240c:	8b1b039c 	add	x28, x28, x27
    2410:	b40005a1 	cbz	x1, 24c4 <tee_buffer_update+0x178>
/home/rahulmahadev/hikey_optee/optee_os/lib/libutee/tee_api_operations.c:901 (discriminator 1)
    2414:	8b010282 	add	x2, x20, x1
/home/rahulmahadev/hikey_optee/optee_os/lib/libutee/tee_api_operations.c:871 (discriminator 1)
    2418:	d2800019 	mov	x25, #0x0                   	// #0
/home/rahulmahadev/hikey_optee/optee_os/lib/libutee/tee_api_operations.c:900 (discriminator 1)
    241c:	eb1c005f 	cmp	x2, x28
    2420:	54000543 	b.cc	24c8 <tee_buffer_update+0x17c>
/home/rahulmahadev/hikey_optee/optee_os/lib/libutee/tee_api_operations.c:902
    2424:	f9402660 	ldr	x0, [x19,#72]
/home/rahulmahadev/hikey_optee/optee_os/lib/libutee/tee_api_operations.c:905
    2428:	910203a4 	add	x4, x29, #0x80
/home/rahulmahadev/hikey_optee/optee_os/lib/libutee/tee_api_operations.c:906
    242c:	aa1703e3 	mov	x3, x23
    2430:	d1000415 	sub	x21, x0, #0x1
/home/rahulmahadev/hikey_optee/optee_os/lib/libutee/tee_api_operations.c:902
    2434:	cb0003e0 	neg	x0, x0
    2438:	cb1b02b5 	sub	x21, x21, x27
/home/rahulmahadev/hikey_optee/optee_os/lib/libutee/tee_api_operations.c:905
    243c:	f81f8c98 	str	x24, [x4,#-8]!
/home/rahulmahadev/hikey_optee/optee_os/lib/libutee/tee_api_operations.c:902
    2440:	8b0202b5 	add	x21, x21, x2
    2444:	8a0002b5 	and	x21, x21, x0
/home/rahulmahadev/hikey_optee/optee_os/lib/libutee/tee_api_operations.c:906
    2448:	b9405a60 	ldr	w0, [x19,#88]
/home/rahulmahadev/hikey_optee/optee_os/lib/libutee/tee_api_operations.c:904
    244c:	eb0102bf 	cmp	x21, x1
    2450:	9a8192b5 	csel	x21, x21, x1, ls
/home/rahulmahadev/hikey_optee/optee_os/lib/libutee/tee_api_operations.c:906
    2454:	f9401e61 	ldr	x1, [x19,#56]
    2458:	aa1503e2 	mov	x2, x21
    245c:	d63f0340 	blr	x26
    2460:	2a0003f9 	mov	w25, w0
/home/rahulmahadev/hikey_optee/optee_os/lib/libutee/tee_api_operations.c:907
    2464:	34000180 	cbz	w0, 2494 <tee_buffer_update+0x148>
/home/rahulmahadev/hikey_optee/optee_os/lib/libutee/tee_api_operations.c:908
    2468:	2a0003e5 	mov	w5, w0
    246c:	f0000044 	adrp	x4, d000 <PRIME_TABLE+0x388>
    2470:	d0000040 	adrp	x0, c000 <utee_authenc_update_aad>
    2474:	91235c84 	add	x4, x4, #0x8d7
    2478:	91244000 	add	x0, x0, #0x910
    247c:	52800023 	mov	w3, #0x1                   	// #1
    2480:	52800022 	mov	w2, #0x1                   	// #1
    2484:	52807181 	mov	w1, #0x38c                 	// #908
    2488:	940016a4 	bl	7f18 <trace_printf>
    248c:	2a1903e0 	mov	w0, w25
    2490:	94000bc2 	bl	5398 <__TEE_Panic>
/home/rahulmahadev/hikey_optee/optee_os/lib/libutee/tee_api_operations.c:912
    2494:	f9402a60 	ldr	x0, [x19,#80]
/home/rahulmahadev/hikey_optee/optee_os/lib/libutee/tee_api_operations.c:909
    2498:	f9403fb9 	ldr	x25, [x29,#120]
/home/rahulmahadev/hikey_optee/optee_os/lib/libutee/tee_api_operations.c:912
    249c:	cb150000 	sub	x0, x0, x21
    24a0:	f9002a60 	str	x0, [x19,#80]
/home/rahulmahadev/hikey_optee/optee_os/lib/libutee/tee_api_operations.c:909
    24a4:	8b1902f7 	add	x23, x23, x25
/home/rahulmahadev/hikey_optee/optee_os/lib/libutee/tee_api_operations.c:910
    24a8:	cb190318 	sub	x24, x24, x25
/home/rahulmahadev/hikey_optee/optee_os/lib/libutee/tee_api_operations.c:913
    24ac:	b40000e0 	cbz	x0, 24c8 <tee_buffer_update+0x17c>
/home/rahulmahadev/hikey_optee/optee_os/lib/libutee/tee_api_operations.c:917
    24b0:	f9401e60 	ldr	x0, [x19,#56]
    24b4:	cb150362 	sub	x2, x27, x21
    24b8:	8b150001 	add	x1, x0, x21
    24bc:	94001339 	bl	71a0 <memcpy>
    24c0:	14000021 	b	2544 <tee_buffer_update+0x1f8>
/home/rahulmahadev/hikey_optee/optee_os/lib/libutee/tee_api_operations.c:871
    24c4:	d2800019 	mov	x25, #0x0                   	// #0
/home/rahulmahadev/hikey_optee/optee_os/lib/libutee/tee_api_operations.c:924
    24c8:	eb1c029f 	cmp	x20, x28
    24cc:	540003c3 	b.cc	2544 <tee_buffer_update+0x1f8>
/home/rahulmahadev/hikey_optee/optee_os/lib/libutee/tee_api_operations.c:926
    24d0:	f9402660 	ldr	x0, [x19,#72]
/home/rahulmahadev/hikey_optee/optee_os/lib/libutee/tee_api_operations.c:928
    24d4:	910203a4 	add	x4, x29, #0x80
/home/rahulmahadev/hikey_optee/optee_os/lib/libutee/tee_api_operations.c:929
    24d8:	aa1703e3 	mov	x3, x23
    24dc:	aa1603e1 	mov	x1, x22
    24e0:	cb1b001b 	sub	x27, x0, x27
/home/rahulmahadev/hikey_optee/optee_os/lib/libutee/tee_api_operations.c:926
    24e4:	cb0003e0 	neg	x0, x0
    24e8:	8b14037b 	add	x27, x27, x20
/home/rahulmahadev/hikey_optee/optee_os/lib/libutee/tee_api_operations.c:928
    24ec:	f81f8c98 	str	x24, [x4,#-8]!
/home/rahulmahadev/hikey_optee/optee_os/lib/libutee/tee_api_operations.c:926
    24f0:	8a00037b 	and	x27, x27, x0
/home/rahulmahadev/hikey_optee/optee_os/lib/libutee/tee_api_operations.c:929
    24f4:	b9405a60 	ldr	w0, [x19,#88]
    24f8:	aa1b03e2 	mov	x2, x27
    24fc:	d63f0340 	blr	x26
    2500:	2a0003f5 	mov	w21, w0
/home/rahulmahadev/hikey_optee/optee_os/lib/libutee/tee_api_operations.c:930
    2504:	34000180 	cbz	w0, 2534 <tee_buffer_update+0x1e8>
/home/rahulmahadev/hikey_optee/optee_os/lib/libutee/tee_api_operations.c:931
    2508:	2a0003e5 	mov	w5, w0
    250c:	f0000044 	adrp	x4, d000 <PRIME_TABLE+0x388>
    2510:	d0000040 	adrp	x0, c000 <utee_authenc_update_aad>
    2514:	91235c84 	add	x4, x4, #0x8d7
    2518:	91244000 	add	x0, x0, #0x910
    251c:	52800023 	mov	w3, #0x1                   	// #1
    2520:	52800022 	mov	w2, #0x1                   	// #1
    2524:	52807461 	mov	w1, #0x3a3                 	// #931
    2528:	9400167c 	bl	7f18 <trace_printf>
    252c:	2a1503e0 	mov	w0, w21
    2530:	94000b9a 	bl	5398 <__TEE_Panic>
/home/rahulmahadev/hikey_optee/optee_os/lib/libutee/tee_api_operations.c:936
    2534:	f9403fa0 	ldr	x0, [x29,#120]
/home/rahulmahadev/hikey_optee/optee_os/lib/libutee/tee_api_operations.c:932
    2538:	8b1b02d6 	add	x22, x22, x27
/home/rahulmahadev/hikey_optee/optee_os/lib/libutee/tee_api_operations.c:933
    253c:	cb1b0294 	sub	x20, x20, x27
/home/rahulmahadev/hikey_optee/optee_os/lib/libutee/tee_api_operations.c:936
    2540:	8b000339 	add	x25, x25, x0
/home/rahulmahadev/hikey_optee/optee_os/lib/libutee/tee_api_operations.c:940
    2544:	f9401e63 	ldr	x3, [x19,#56]
    2548:	aa1403e2 	mov	x2, x20
    254c:	f9402a60 	ldr	x0, [x19,#80]
    2550:	aa1603e1 	mov	x1, x22
    2554:	8b000060 	add	x0, x3, x0
    2558:	94001312 	bl	71a0 <memcpy>
/home/rahulmahadev/hikey_optee/optee_os/lib/libutee/tee_api_operations.c:941
    255c:	f9402a60 	ldr	x0, [x19,#80]
    2560:	8b140014 	add	x20, x0, x20
    2564:	f9002a74 	str	x20, [x19,#80]
/home/rahulmahadev/hikey_optee/optee_os/lib/libutee/tee_api_operations.c:944
    2568:	f94037a0 	ldr	x0, [x29,#104]
/home/rahulmahadev/hikey_optee/optee_os/lib/libutee/tee_api_operations.c:946
    256c:	a94153f3 	ldp	x19, x20, [sp,#16]
    2570:	a9425bf5 	ldp	x21, x22, [sp,#32]
/home/rahulmahadev/hikey_optee/optee_os/lib/libutee/tee_api_operations.c:944
    2574:	f9000019 	str	x25, [x0]
/home/rahulmahadev/hikey_optee/optee_os/lib/libutee/tee_api_operations.c:946
    2578:	52800000 	mov	w0, #0x0                   	// #0
    257c:	a94363f7 	ldp	x23, x24, [sp,#48]
    2580:	a9446bf9 	ldp	x25, x26, [sp,#64]
    2584:	a94573fb 	ldp	x27, x28, [sp,#80]
    2588:	a8c87bfd 	ldp	x29, x30, [sp],#128
    258c:	d65f03c0 	ret

0000000000002590 <TEE_FreeOperation>:
TEE_FreeOperation():
/home/rahulmahadev/hikey_optee/optee_os/lib/libutee/tee_api_operations.c:365
    2590:	a9be7bfd 	stp	x29, x30, [sp,#-32]!
    2594:	910003fd 	mov	x29, sp
    2598:	f9000bf3 	str	x19, [sp,#16]
    259c:	aa0003f3 	mov	x19, x0
/home/rahulmahadev/hikey_optee/optee_os/lib/libutee/tee_api_operations.c:368
    25a0:	b5000180 	cbnz	x0, 25d0 <TEE_FreeOperation+0x40>
/home/rahulmahadev/hikey_optee/optee_os/lib/libutee/tee_api_operations.c:369
    25a4:	f0000044 	adrp	x4, d000 <PRIME_TABLE+0x388>
    25a8:	d0000040 	adrp	x0, c000 <utee_authenc_update_aad>
    25ac:	91260000 	add	x0, x0, #0x980
    25b0:	52800005 	mov	w5, #0x0                   	// #0
    25b4:	91235c84 	add	x4, x4, #0x8d7
    25b8:	52800023 	mov	w3, #0x1                   	// #1
    25bc:	52800022 	mov	w2, #0x1                   	// #1
    25c0:	52802e21 	mov	w1, #0x171                 	// #369
    25c4:	94001655 	bl	7f18 <trace_printf>
    25c8:	52800000 	mov	w0, #0x0                   	// #0
    25cc:	94000b73 	bl	5398 <__TEE_Panic>
/home/rahulmahadev/hikey_optee/optee_os/lib/libutee/tee_api_operations.c:376
    25d0:	b9405a60 	ldr	w0, [x19,#88]
    25d4:	94002655 	bl	bf28 <utee_cryp_state_free>
/home/rahulmahadev/hikey_optee/optee_os/lib/libutee/tee_api_operations.c:377
    25d8:	34000180 	cbz	w0, 2608 <TEE_FreeOperation+0x78>
/home/rahulmahadev/hikey_optee/optee_os/lib/libutee/tee_api_operations.c:378
    25dc:	f0000044 	adrp	x4, d000 <PRIME_TABLE+0x388>
    25e0:	d0000040 	adrp	x0, c000 <utee_authenc_update_aad>
    25e4:	91260000 	add	x0, x0, #0x980
    25e8:	52800005 	mov	w5, #0x0                   	// #0
    25ec:	91235c84 	add	x4, x4, #0x8d7
    25f0:	52800023 	mov	w3, #0x1                   	// #1
    25f4:	52800022 	mov	w2, #0x1                   	// #1
    25f8:	52802f41 	mov	w1, #0x17a                 	// #378
    25fc:	94001647 	bl	7f18 <trace_printf>
    2600:	52800000 	mov	w0, #0x0                   	// #0
    2604:	94000b65 	bl	5398 <__TEE_Panic>
/home/rahulmahadev/hikey_optee/optee_os/lib/libutee/tee_api_operations.c:380
    2608:	f9401e60 	ldr	x0, [x19,#56]
    260c:	97fffa64 	bl	f9c <TEE_Free>
/home/rahulmahadev/hikey_optee/optee_os/lib/libutee/tee_api_operations.c:381
    2610:	aa1303e0 	mov	x0, x19
/home/rahulmahadev/hikey_optee/optee_os/lib/libutee/tee_api_operations.c:382
    2614:	f9400bf3 	ldr	x19, [sp,#16]
    2618:	a8c27bfd 	ldp	x29, x30, [sp],#32
/home/rahulmahadev/hikey_optee/optee_os/lib/libutee/tee_api_operations.c:381
    261c:	17fffa60 	b	f9c <TEE_Free>

0000000000002620 <TEE_AllocateOperation>:
TEE_AllocateOperation():
/home/rahulmahadev/hikey_optee/optee_os/lib/libutee/tee_api_operations.c:59
    2620:	a9b97bfd 	stp	x29, x30, [sp,#-112]!
    2624:	910003fd 	mov	x29, sp
    2628:	a90153f3 	stp	x19, x20, [sp,#16]
    262c:	a9025bf5 	stp	x21, x22, [sp,#32]
    2630:	a90363f7 	stp	x23, x24, [sp,#48]
    2634:	a9046bf9 	stp	x25, x26, [sp,#64]
    2638:	a90573fb 	stp	x27, x28, [sp,#80]
    263c:	aa0003f9 	mov	x25, x0
    2640:	2a0103f3 	mov	w19, w1
    2644:	2a0203f7 	mov	w23, w2
    2648:	2a0303f6 	mov	w22, w3
/home/rahulmahadev/hikey_optee/optee_os/lib/libutee/tee_api_operations.c:68
    264c:	b5000180 	cbnz	x0, 267c <TEE_AllocateOperation+0x5c>
/home/rahulmahadev/hikey_optee/optee_os/lib/libutee/tee_api_operations.c:69
    2650:	f0000044 	adrp	x4, d000 <PRIME_TABLE+0x388>
    2654:	d0000040 	adrp	x0, c000 <utee_authenc_update_aad>
    2658:	91200000 	add	x0, x0, #0x800
    265c:	52800005 	mov	w5, #0x0                   	// #0
    2660:	91235c84 	add	x4, x4, #0x8d7
    2664:	52800023 	mov	w3, #0x1                   	// #1
    2668:	52800022 	mov	w2, #0x1                   	// #1
    266c:	528008a1 	mov	w1, #0x45                  	// #69
    2670:	9400162a 	bl	7f18 <trace_printf>
    2674:	52800000 	mov	w0, #0x0                   	// #0
    2678:	94000b48 	bl	5398 <__TEE_Panic>
/home/rahulmahadev/hikey_optee/optee_os/lib/libutee/tee_api_operations.c:71
    267c:	52808200 	mov	w0, #0x410                 	// #1040
    2680:	72a20000 	movk	w0, #0x1000, lsl #16
    2684:	6b00027f 	cmp	w19, w0
    2688:	54002fa0 	b.eq	2c7c <TEE_AllocateOperation+0x65c>
/home/rahulmahadev/hikey_optee/optee_os/lib/libutee/tee_api_operations.c:75
    268c:	52882620 	mov	w0, #0x4131                	// #16689
    2690:	72ae0000 	movk	w0, #0x7000, lsl #16
    2694:	6b00027f 	cmp	w19, w0
    2698:	54000960 	b.eq	27c4 <TEE_AllocateOperation+0x1a4>
    269c:	52882620 	mov	w0, #0x4131                	// #16689
    26a0:	72ae0000 	movk	w0, #0x7000, lsl #16
    26a4:	6b00027f 	cmp	w19, w0
    26a8:	540003a8 	b.hi	271c <TEE_AllocateOperation+0xfc>
    26ac:	52842620 	mov	w0, #0x2131                	// #8497
    26b0:	72ae0000 	movk	w0, #0x7000, lsl #16
    26b4:	6b00027f 	cmp	w19, w0
    26b8:	54000720 	b.eq	279c <TEE_AllocateOperation+0x17c>
    26bc:	52842620 	mov	w0, #0x2131                	// #8497
    26c0:	72ae0000 	movk	w0, #0x7000, lsl #16
    26c4:	6b00027f 	cmp	w19, w0
    26c8:	54000148 	b.hi	26f0 <TEE_AllocateOperation+0xd0>
    26cc:	52820820 	mov	w0, #0x1041                	// #4161
    26d0:	72ae0000 	movk	w0, #0x7000, lsl #16
    26d4:	6b00027f 	cmp	w19, w0
    26d8:	54000800 	b.eq	27d8 <TEE_AllocateOperation+0x1b8>
    26dc:	52840820 	mov	w0, #0x2041                	// #8257
    26e0:	72ae0000 	movk	w0, #0x7000, lsl #16
    26e4:	6b00027f 	cmp	w19, w0
    26e8:	540007e0 	b.eq	27e4 <TEE_AllocateOperation+0x1c4>
    26ec:	14000047 	b	2808 <TEE_AllocateOperation+0x1e8>
    26f0:	52862620 	mov	w0, #0x3131                	// #12593
    26f4:	72ae0000 	movk	w0, #0x7000, lsl #16
    26f8:	6b00027f 	cmp	w19, w0
    26fc:	540005e0 	b.eq	27b8 <TEE_AllocateOperation+0x198>
    2700:	52880820 	mov	w0, #0x4041                	// #16449
    2704:	72ae0000 	movk	w0, #0x7000, lsl #16
    2708:	6b00027f 	cmp	w19, w0
    270c:	54000720 	b.eq	27f0 <TEE_AllocateOperation+0x1d0>
    2710:	52860820 	mov	w0, #0x3041                	// #12353
    2714:	72ae0000 	movk	w0, #0x7000, lsl #16
    2718:	1400001c 	b	2788 <TEE_AllocateOperation+0x168>
    271c:	52840840 	mov	w0, #0x2042                	// #8258
    2720:	72b00000 	movk	w0, #0x8000, lsl #16
    2724:	6b00027f 	cmp	w19, w0
    2728:	540005e0 	b.eq	27e4 <TEE_AllocateOperation+0x1c4>
    272c:	52840840 	mov	w0, #0x2042                	// #8258
    2730:	72b00000 	movk	w0, #0x8000, lsl #16
    2734:	6b00027f 	cmp	w19, w0
    2738:	54000148 	b.hi	2760 <TEE_AllocateOperation+0x140>
    273c:	528a0820 	mov	w0, #0x5041                	// #20545
    2740:	72ae0000 	movk	w0, #0x7000, lsl #16
    2744:	6b00027f 	cmp	w19, w0
    2748:	540005a0 	b.eq	27fc <TEE_AllocateOperation+0x1dc>
    274c:	52820840 	mov	w0, #0x1042                	// #4162
    2750:	72b00000 	movk	w0, #0x8000, lsl #16
    2754:	6b00027f 	cmp	w19, w0
    2758:	54000400 	b.eq	27d8 <TEE_AllocateOperation+0x1b8>
    275c:	1400002b 	b	2808 <TEE_AllocateOperation+0x1e8>
    2760:	52880840 	mov	w0, #0x4042                	// #16450
    2764:	72b00000 	movk	w0, #0x8000, lsl #16
    2768:	6b00027f 	cmp	w19, w0
    276c:	54000420 	b.eq	27f0 <TEE_AllocateOperation+0x1d0>
    2770:	528a0840 	mov	w0, #0x5042                	// #20546
    2774:	72b00000 	movk	w0, #0x8000, lsl #16
    2778:	6b00027f 	cmp	w19, w0
    277c:	54000400 	b.eq	27fc <TEE_AllocateOperation+0x1dc>
    2780:	52860840 	mov	w0, #0x3042                	// #12354
    2784:	72b00000 	movk	w0, #0x8000, lsl #16
    2788:	6b00027f 	cmp	w19, w0
    278c:	540003e1 	b.ne	2808 <TEE_AllocateOperation+0x1e8>
/home/rahulmahadev/hikey_optee/optee_os/lib/libutee/tee_api_operations.c:80
    2790:	129ffea4 	mov	w4, #0xffff000a            	// #-65526
/home/rahulmahadev/hikey_optee/optee_os/lib/libutee/tee_api_operations.c:109
    2794:	710402df 	cmp	w22, #0x100
    2798:	1400001b 	b	2804 <TEE_AllocateOperation+0x1e4>
/home/rahulmahadev/hikey_optee/optee_os/lib/libutee/tee_api_operations.c:79
    279c:	510802c0 	sub	w0, w22, #0x200
/home/rahulmahadev/hikey_optee/optee_os/lib/libutee/tee_api_operations.c:80
    27a0:	129ffea4 	mov	w4, #0xffff000a            	// #-65526
/home/rahulmahadev/hikey_optee/optee_os/lib/libutee/tee_api_operations.c:79
    27a4:	7108001f 	cmp	w0, #0x200
    27a8:	54003e88 	b.hi	2f78 <TEE_AllocateOperation+0x958>
/home/rahulmahadev/hikey_optee/optee_os/lib/libutee/tee_api_operations.c:81
    27ac:	120016c0 	and	w0, w22, #0x3f
    27b0:	35003e40 	cbnz	w0, 2f78 <TEE_AllocateOperation+0x958>
    27b4:	14000144 	b	2cc4 <TEE_AllocateOperation+0x6a4>
/home/rahulmahadev/hikey_optee/optee_os/lib/libutee/tee_api_operations.c:80
    27b8:	129ffea4 	mov	w4, #0xffff000a            	// #-65526
/home/rahulmahadev/hikey_optee/optee_os/lib/libutee/tee_api_operations.c:86
    27bc:	712002df 	cmp	w22, #0x800
    27c0:	14000004 	b	27d0 <TEE_AllocateOperation+0x1b0>
/home/rahulmahadev/hikey_optee/optee_os/lib/libutee/tee_api_operations.c:91
    27c4:	12157ac0 	and	w0, w22, #0xfffffbff
/home/rahulmahadev/hikey_optee/optee_os/lib/libutee/tee_api_operations.c:80
    27c8:	129ffea4 	mov	w4, #0xffff000a            	// #-65526
/home/rahulmahadev/hikey_optee/optee_os/lib/libutee/tee_api_operations.c:91
    27cc:	7120001f 	cmp	w0, #0x800
    27d0:	54003d41 	b.ne	2f78 <TEE_AllocateOperation+0x958>
    27d4:	1400013c 	b	2cc4 <TEE_AllocateOperation+0x6a4>
/home/rahulmahadev/hikey_optee/optee_os/lib/libutee/tee_api_operations.c:80
    27d8:	129ffea4 	mov	w4, #0xffff000a            	// #-65526
/home/rahulmahadev/hikey_optee/optee_os/lib/libutee/tee_api_operations.c:97
    27dc:	710302df 	cmp	w22, #0xc0
    27e0:	14000009 	b	2804 <TEE_AllocateOperation+0x1e4>
/home/rahulmahadev/hikey_optee/optee_os/lib/libutee/tee_api_operations.c:80
    27e4:	129ffea4 	mov	w4, #0xffff000a            	// #-65526
/home/rahulmahadev/hikey_optee/optee_os/lib/libutee/tee_api_operations.c:103
    27e8:	710382df 	cmp	w22, #0xe0
    27ec:	14000006 	b	2804 <TEE_AllocateOperation+0x1e4>
/home/rahulmahadev/hikey_optee/optee_os/lib/libutee/tee_api_operations.c:80
    27f0:	129ffea4 	mov	w4, #0xffff000a            	// #-65526
/home/rahulmahadev/hikey_optee/optee_os/lib/libutee/tee_api_operations.c:115
    27f4:	710602df 	cmp	w22, #0x180
    27f8:	14000003 	b	2804 <TEE_AllocateOperation+0x1e4>
/home/rahulmahadev/hikey_optee/optee_os/lib/libutee/tee_api_operations.c:80
    27fc:	129ffea4 	mov	w4, #0xffff000a            	// #-65526
/home/rahulmahadev/hikey_optee/optee_os/lib/libutee/tee_api_operations.c:121
    2800:	710826df 	cmp	w22, #0x209
    2804:	54003ba1 	b.ne	2f78 <TEE_AllocateOperation+0x958>
/home/rahulmahadev/hikey_optee/optee_os/lib/libutee/tee_api_operations.c:130
    2808:	52842620 	mov	w0, #0x2131                	// #8497
    280c:	72ae0000 	movk	w0, #0x7000, lsl #16
    2810:	6b00027f 	cmp	w19, w0
    2814:	54002580 	b.eq	2cc4 <TEE_AllocateOperation+0x6a4>
    2818:	52842620 	mov	w0, #0x2131                	// #8497
    281c:	72ae0000 	movk	w0, #0x7000, lsl #16
    2820:	6b00027f 	cmp	w19, w0
    2824:	540010e8 	b.hi	2a40 <TEE_AllocateOperation+0x420>
    2828:	5280a260 	mov	w0, #0x513                 	// #1299
    282c:	72a60000 	movk	w0, #0x3000, lsl #16
    2830:	6b00027f 	cmp	w19, w0
    2834:	54002940 	b.eq	2d5c <TEE_AllocateOperation+0x73c>
    2838:	5280a260 	mov	w0, #0x513                 	// #1299
    283c:	72a60000 	movk	w0, #0x3000, lsl #16
    2840:	6b00027f 	cmp	w19, w0
    2844:	540007a8 	b.hi	2938 <TEE_AllocateOperation+0x318>
    2848:	52806200 	mov	w0, #0x310                 	// #784
    284c:	72a20000 	movk	w0, #0x1000, lsl #16
    2850:	6b00027f 	cmp	w19, w0
    2854:	54002180 	b.eq	2c84 <TEE_AllocateOperation+0x664>
    2858:	52806200 	mov	w0, #0x310                 	// #784
    285c:	72a20000 	movk	w0, #0x1000, lsl #16
    2860:	6b00027f 	cmp	w19, w0
    2864:	52802220 	mov	w0, #0x111                 	// #273
    2868:	54000368 	b.hi	28d4 <TEE_AllocateOperation+0x2b4>
    286c:	72a20000 	movk	w0, #0x1000, lsl #16
    2870:	6b00027f 	cmp	w19, w0
    2874:	540001e8 	b.hi	28b0 <TEE_AllocateOperation+0x290>
    2878:	52802200 	mov	w0, #0x110                 	// #272
    287c:	72a20000 	movk	w0, #0x1000, lsl #16
    2880:	6b00027f 	cmp	w19, w0
    2884:	54002062 	b.cs	2c90 <TEE_AllocateOperation+0x670>
    2888:	52800200 	mov	w0, #0x10                  	// #16
    288c:	72a20000 	movk	w0, #0x1000, lsl #16
    2890:	6b00027f 	cmp	w19, w0
    2894:	54003343 	b.cc	2efc <TEE_AllocateOperation+0x8dc>
    2898:	52800220 	mov	w0, #0x11                  	// #17
    289c:	72a20000 	movk	w0, #0x1000, lsl #16
    28a0:	6b00027f 	cmp	w19, w0
    28a4:	54001f69 	b.ls	2c90 <TEE_AllocateOperation+0x670>
    28a8:	52800260 	mov	w0, #0x13                  	// #19
    28ac:	14000006 	b	28c4 <TEE_AllocateOperation+0x2a4>
    28b0:	52802260 	mov	w0, #0x113                 	// #275
    28b4:	72a20000 	movk	w0, #0x1000, lsl #16
    28b8:	6b00027f 	cmp	w19, w0
    28bc:	54001ea0 	b.eq	2c90 <TEE_AllocateOperation+0x670>
    28c0:	52804200 	mov	w0, #0x210                 	// #528
    28c4:	72a20000 	movk	w0, #0x1000, lsl #16
    28c8:	6b00027f 	cmp	w19, w0
    28cc:	54001e20 	b.eq	2c90 <TEE_AllocateOperation+0x670>
    28d0:	1400018b 	b	2efc <TEE_AllocateOperation+0x8dc>
    28d4:	72a60000 	movk	w0, #0x3000, lsl #16
    28d8:	6b00027f 	cmp	w19, w0
    28dc:	54000128 	b.hi	2900 <TEE_AllocateOperation+0x2e0>
    28e0:	52802200 	mov	w0, #0x110                 	// #272
    28e4:	72a60000 	movk	w0, #0x3000, lsl #16
    28e8:	6b00027f 	cmp	w19, w0
    28ec:	54002382 	b.cs	2d5c <TEE_AllocateOperation+0x73c>
    28f0:	12a60000 	mov	w0, #0xcfffffff            	// #-805306369
    28f4:	0b000260 	add	w0, w19, w0
    28f8:	7100141f 	cmp	w0, #0x5
    28fc:	1400000d 	b	2930 <TEE_AllocateOperation+0x310>
    2900:	52802260 	mov	w0, #0x113                 	// #275
    2904:	72a60000 	movk	w0, #0x3000, lsl #16
    2908:	6b00027f 	cmp	w19, w0
    290c:	54002280 	b.eq	2d5c <TEE_AllocateOperation+0x73c>
    2910:	52802260 	mov	w0, #0x113                 	// #275
    2914:	72a60000 	movk	w0, #0x3000, lsl #16
    2918:	6b00027f 	cmp	w19, w0
    291c:	54002f03 	b.cc	2efc <TEE_AllocateOperation+0x8dc>
    2920:	529f5e00 	mov	w0, #0xfaf0                	// #64240
    2924:	72b9ffe0 	movk	w0, #0xcfff, lsl #16
    2928:	0b000260 	add	w0, w19, w0
    292c:	7100041f 	cmp	w0, #0x1
    2930:	54002169 	b.ls	2d5c <TEE_AllocateOperation+0x73c>
    2934:	14000172 	b	2efc <TEE_AllocateOperation+0x8dc>
    2938:	52804600 	mov	w0, #0x230                 	// #560
    293c:	72ac0420 	movk	w0, #0x6021, lsl #16
    2940:	6b00027f 	cmp	w19, w0
    2944:	54001d00 	b.eq	2ce4 <TEE_AllocateOperation+0x6c4>
    2948:	52804600 	mov	w0, #0x230                 	// #560
    294c:	72ac0420 	movk	w0, #0x6021, lsl #16
    2950:	6b00027f 	cmp	w19, w0
    2954:	54000388 	b.hi	29c4 <TEE_AllocateOperation+0x3a4>
    2958:	528000c0 	mov	w0, #0x6                   	// #6
    295c:	72aa0000 	movk	w0, #0x5000, lsl #16
    2960:	6b00027f 	cmp	w19, w0
    2964:	54000228 	b.hi	29a8 <TEE_AllocateOperation+0x388>
    2968:	52aa0000 	mov	w0, #0x50000000            	// #1342177280
    296c:	6b00027f 	cmp	w19, w0
    2970:	54001e48 	b.hi	2d38 <TEE_AllocateOperation+0x718>
    2974:	5280e200 	mov	w0, #0x710                 	// #1808
    2978:	72a80000 	movk	w0, #0x4000, lsl #16
    297c:	6b00027f 	cmp	w19, w0
    2980:	54001880 	b.eq	2c90 <TEE_AllocateOperation+0x670>
    2984:	52810200 	mov	w0, #0x810                 	// #2064
    2988:	72a80000 	movk	w0, #0x4000, lsl #16
    298c:	6b00027f 	cmp	w19, w0
    2990:	54001800 	b.eq	2c90 <TEE_AllocateOperation+0x670>
    2994:	5280c200 	mov	w0, #0x610                 	// #1552
    2998:	72a60000 	movk	w0, #0x3000, lsl #16
    299c:	6b00027f 	cmp	w19, w0
    29a0:	54002ae1 	b.ne	2efc <TEE_AllocateOperation+0x8dc>
    29a4:	140000ee 	b	2d5c <TEE_AllocateOperation+0x73c>
    29a8:	52800600 	mov	w0, #0x30                  	// #48
    29ac:	72ac0000 	movk	w0, #0x6000, lsl #16
    29b0:	6b00027f 	cmp	w19, w0
    29b4:	54001a60 	b.eq	2d00 <TEE_AllocateOperation+0x6e0>
    29b8:	52802600 	mov	w0, #0x130                 	// #304
    29bc:	72ac0000 	movk	w0, #0x6000, lsl #16
    29c0:	14000013 	b	2a0c <TEE_AllocateOperation+0x3ec>
    29c4:	52804600 	mov	w0, #0x230                 	// #560
    29c8:	72ac0c20 	movk	w0, #0x6061, lsl #16
    29cc:	6b00027f 	cmp	w19, w0
    29d0:	540018a0 	b.eq	2ce4 <TEE_AllocateOperation+0x6c4>
    29d4:	52804600 	mov	w0, #0x230                 	// #560
    29d8:	72ac0c20 	movk	w0, #0x6061, lsl #16
    29dc:	6b00027f 	cmp	w19, w0
    29e0:	540001c8 	b.hi	2a18 <TEE_AllocateOperation+0x3f8>
    29e4:	52804600 	mov	w0, #0x230                 	// #560
    29e8:	72ac0820 	movk	w0, #0x6041, lsl #16
    29ec:	6b00027f 	cmp	w19, w0
    29f0:	540017a0 	b.eq	2ce4 <TEE_AllocateOperation+0x6c4>
    29f4:	52804600 	mov	w0, #0x230                 	// #560
    29f8:	72ac0a20 	movk	w0, #0x6051, lsl #16
    29fc:	6b00027f 	cmp	w19, w0
    2a00:	54001720 	b.eq	2ce4 <TEE_AllocateOperation+0x6c4>
    2a04:	52804600 	mov	w0, #0x230                 	// #560
    2a08:	72ac0620 	movk	w0, #0x6031, lsl #16
    2a0c:	6b00027f 	cmp	w19, w0
    2a10:	540016a0 	b.eq	2ce4 <TEE_AllocateOperation+0x6c4>
    2a14:	1400013a 	b	2efc <TEE_AllocateOperation+0x8dc>
    2a18:	52830600 	mov	w0, #0x1830                	// #6192
    2a1c:	72ae0000 	movk	w0, #0x7000, lsl #16
    2a20:	6b00027f 	cmp	w19, w0
    2a24:	54001500 	b.eq	2cc4 <TEE_AllocateOperation+0x6a4>
    2a28:	52840820 	mov	w0, #0x2041                	// #8257
    2a2c:	72ae0000 	movk	w0, #0x7000, lsl #16
    2a30:	6b00027f 	cmp	w19, w0
    2a34:	54001480 	b.eq	2cc4 <TEE_AllocateOperation+0x6a4>
    2a38:	52820820 	mov	w0, #0x1041                	// #4161
    2a3c:	1400002c 	b	2aec <TEE_AllocateOperation+0x4cc>
    2a40:	52800640 	mov	w0, #0x32                  	// #50
    2a44:	72b00000 	movk	w0, #0x8000, lsl #16
    2a48:	6b00027f 	cmp	w19, w0
    2a4c:	54001680 	b.eq	2d1c <TEE_AllocateOperation+0x6fc>
    2a50:	52800640 	mov	w0, #0x32                  	// #50
    2a54:	72b00000 	movk	w0, #0x8000, lsl #16
    2a58:	6b00027f 	cmp	w19, w0
    2a5c:	540008a8 	b.hi	2b70 <TEE_AllocateOperation+0x550>
    2a60:	528a0820 	mov	w0, #0x5041                	// #20545
    2a64:	72ae0000 	movk	w0, #0x7000, lsl #16
    2a68:	6b00027f 	cmp	w19, w0
    2a6c:	540012c0 	b.eq	2cc4 <TEE_AllocateOperation+0x6a4>
    2a70:	528a0820 	mov	w0, #0x5041                	// #20545
    2a74:	72ae0000 	movk	w0, #0x7000, lsl #16
    2a78:	6b00027f 	cmp	w19, w0
    2a7c:	540003c8 	b.hi	2af4 <TEE_AllocateOperation+0x4d4>
    2a80:	52870600 	mov	w0, #0x3830                	// #14384
    2a84:	72ae0000 	movk	w0, #0x7000, lsl #16
    2a88:	6b00027f 	cmp	w19, w0
    2a8c:	540011c0 	b.eq	2cc4 <TEE_AllocateOperation+0x6a4>
    2a90:	52870600 	mov	w0, #0x3830                	// #14384
    2a94:	72ae0000 	movk	w0, #0x7000, lsl #16
    2a98:	6b00027f 	cmp	w19, w0
    2a9c:	54000168 	b.hi	2ac8 <TEE_AllocateOperation+0x4a8>
    2aa0:	52860820 	mov	w0, #0x3041                	// #12353
    2aa4:	72ae0000 	movk	w0, #0x7000, lsl #16
    2aa8:	6b00027f 	cmp	w19, w0
    2aac:	540010c0 	b.eq	2cc4 <TEE_AllocateOperation+0x6a4>
    2ab0:	52862620 	mov	w0, #0x3131                	// #12593
    2ab4:	72ae0000 	movk	w0, #0x7000, lsl #16
    2ab8:	6b00027f 	cmp	w19, w0
    2abc:	54001040 	b.eq	2cc4 <TEE_AllocateOperation+0x6a4>
    2ac0:	52850600 	mov	w0, #0x2830                	// #10288
    2ac4:	1400000a 	b	2aec <TEE_AllocateOperation+0x4cc>
    2ac8:	52882620 	mov	w0, #0x4131                	// #16689
    2acc:	72ae0000 	movk	w0, #0x7000, lsl #16
    2ad0:	6b00027f 	cmp	w19, w0
    2ad4:	54000f80 	b.eq	2cc4 <TEE_AllocateOperation+0x6a4>
    2ad8:	52890600 	mov	w0, #0x4830                	// #18480
    2adc:	72ae0000 	movk	w0, #0x7000, lsl #16
    2ae0:	6b00027f 	cmp	w19, w0
    2ae4:	54000f00 	b.eq	2cc4 <TEE_AllocateOperation+0x6a4>
    2ae8:	52880820 	mov	w0, #0x4041                	// #16449
    2aec:	72ae0000 	movk	w0, #0x7000, lsl #16
    2af0:	1400001d 	b	2b64 <TEE_AllocateOperation+0x544>
    2af4:	52872600 	mov	w0, #0x3930                	// #14640
    2af8:	72ae0620 	movk	w0, #0x7031, lsl #16
    2afc:	6b00027f 	cmp	w19, w0
    2b00:	54000e20 	b.eq	2cc4 <TEE_AllocateOperation+0x6a4>
    2b04:	52872600 	mov	w0, #0x3930                	// #14640
    2b08:	72ae0620 	movk	w0, #0x7031, lsl #16
    2b0c:	6b00027f 	cmp	w19, w0
    2b10:	54000168 	b.hi	2b3c <TEE_AllocateOperation+0x51c>
    2b14:	528d0600 	mov	w0, #0x6830                	// #26672
    2b18:	72ae0000 	movk	w0, #0x7000, lsl #16
    2b1c:	6b00027f 	cmp	w19, w0
    2b20:	54000d20 	b.eq	2cc4 <TEE_AllocateOperation+0x6a4>
    2b24:	52852600 	mov	w0, #0x2930                	// #10544
    2b28:	72ae0420 	movk	w0, #0x7021, lsl #16
    2b2c:	6b00027f 	cmp	w19, w0
    2b30:	54000ca0 	b.eq	2cc4 <TEE_AllocateOperation+0x6a4>
    2b34:	528b0600 	mov	w0, #0x5830                	// #22576
    2b38:	17ffffed 	b	2aec <TEE_AllocateOperation+0x4cc>
    2b3c:	528b2600 	mov	w0, #0x5930                	// #22832
    2b40:	72ae0a20 	movk	w0, #0x7051, lsl #16
    2b44:	6b00027f 	cmp	w19, w0
    2b48:	54000be0 	b.eq	2cc4 <TEE_AllocateOperation+0x6a4>
    2b4c:	528d2600 	mov	w0, #0x6930                	// #26928
    2b50:	72ae0c20 	movk	w0, #0x7061, lsl #16
    2b54:	6b00027f 	cmp	w19, w0
    2b58:	54000b60 	b.eq	2cc4 <TEE_AllocateOperation+0x6a4>
    2b5c:	52892600 	mov	w0, #0x4930                	// #18736
    2b60:	72ae0820 	movk	w0, #0x7041, lsl #16
    2b64:	6b00027f 	cmp	w19, w0
    2b68:	54001ca1 	b.ne	2efc <TEE_AllocateOperation+0x8dc>
    2b6c:	14000056 	b	2cc4 <TEE_AllocateOperation+0x6a4>
    2b70:	52861820 	mov	w0, #0x30c1                	// #12481
    2b74:	72b00000 	movk	w0, #0x8000, lsl #16
    2b78:	6b00027f 	cmp	w19, w0
    2b7c:	54000408 	b.hi	2bfc <TEE_AllocateOperation+0x5dc>
    2b80:	52861800 	mov	w0, #0x30c0                	// #12480
    2b84:	72b00000 	movk	w0, #0x8000, lsl #16
    2b88:	6b00027f 	cmp	w19, w0
    2b8c:	54000c82 	b.cs	2d1c <TEE_AllocateOperation+0x6fc>
    2b90:	52840840 	mov	w0, #0x2042                	// #8258
    2b94:	72b00000 	movk	w0, #0x8000, lsl #16
    2b98:	6b00027f 	cmp	w19, w0
    2b9c:	54000c00 	b.eq	2d1c <TEE_AllocateOperation+0x6fc>
    2ba0:	52840840 	mov	w0, #0x2042                	// #8258
    2ba4:	72b00000 	movk	w0, #0x8000, lsl #16
    2ba8:	6b00027f 	cmp	w19, w0
    2bac:	540000e8 	b.hi	2bc8 <TEE_AllocateOperation+0x5a8>
    2bb0:	52820840 	mov	w0, #0x1042                	// #4162
    2bb4:	72b00000 	movk	w0, #0x8000, lsl #16
    2bb8:	6b00027f 	cmp	w19, w0
    2bbc:	54000b00 	b.eq	2d1c <TEE_AllocateOperation+0x6fc>
    2bc0:	52821800 	mov	w0, #0x10c0                	// #4288
    2bc4:	1400000a 	b	2bec <TEE_AllocateOperation+0x5cc>
    2bc8:	52841800 	mov	w0, #0x20c0                	// #8384
    2bcc:	72b00000 	movk	w0, #0x8000, lsl #16
    2bd0:	6b00027f 	cmp	w19, w0
    2bd4:	54001943 	b.cc	2efc <TEE_AllocateOperation+0x8dc>
    2bd8:	52841840 	mov	w0, #0x20c2                	// #8386
    2bdc:	72b00000 	movk	w0, #0x8000, lsl #16
    2be0:	6b00027f 	cmp	w19, w0
    2be4:	540009c9 	b.ls	2d1c <TEE_AllocateOperation+0x6fc>
    2be8:	52860840 	mov	w0, #0x3042                	// #12354
    2bec:	72b00000 	movk	w0, #0x8000, lsl #16
    2bf0:	6b00027f 	cmp	w19, w0
    2bf4:	54000940 	b.eq	2d1c <TEE_AllocateOperation+0x6fc>
    2bf8:	140000c1 	b	2efc <TEE_AllocateOperation+0x8dc>
    2bfc:	528a0840 	mov	w0, #0x5042                	// #20546
    2c00:	72b00000 	movk	w0, #0x8000, lsl #16
    2c04:	6b00027f 	cmp	w19, w0
    2c08:	540008a0 	b.eq	2d1c <TEE_AllocateOperation+0x6fc>
    2c0c:	528a0840 	mov	w0, #0x5042                	// #20546
    2c10:	72b00000 	movk	w0, #0x8000, lsl #16
    2c14:	6b00027f 	cmp	w19, w0
    2c18:	54000168 	b.hi	2c44 <TEE_AllocateOperation+0x624>
    2c1c:	52880840 	mov	w0, #0x4042                	// #16450
    2c20:	72b00000 	movk	w0, #0x8000, lsl #16
    2c24:	6b00027f 	cmp	w19, w0
    2c28:	540007a0 	b.eq	2d1c <TEE_AllocateOperation+0x6fc>
    2c2c:	52880840 	mov	w0, #0x4042                	// #16450
    2c30:	72b00000 	movk	w0, #0x8000, lsl #16
    2c34:	6b00027f 	cmp	w19, w0
    2c38:	54001623 	b.cc	2efc <TEE_AllocateOperation+0x8dc>
    2c3c:	5297e800 	mov	w0, #0xbf40                	// #48960
    2c40:	1400000a 	b	2c68 <TEE_AllocateOperation+0x648>
    2c44:	528a1800 	mov	w0, #0x50c0                	// #20672
    2c48:	72b00000 	movk	w0, #0x8000, lsl #16
    2c4c:	6b00027f 	cmp	w19, w0
    2c50:	54001563 	b.cc	2efc <TEE_AllocateOperation+0x8dc>
    2c54:	528a1820 	mov	w0, #0x50c1                	// #20673
    2c58:	72b00000 	movk	w0, #0x8000, lsl #16
    2c5c:	6b00027f 	cmp	w19, w0
    2c60:	540005e9 	b.ls	2d1c <TEE_AllocateOperation+0x6fc>
    2c64:	5293e800 	mov	w0, #0x9f40                	// #40768
    2c68:	72afffe0 	movk	w0, #0x7fff, lsl #16
    2c6c:	0b000260 	add	w0, w19, w0
    2c70:	7100041f 	cmp	w0, #0x1
    2c74:	54000549 	b.ls	2d1c <TEE_AllocateOperation+0x6fc>
    2c78:	140000a1 	b	2efc <TEE_AllocateOperation+0x8dc>
/home/rahulmahadev/hikey_optee/optee_os/lib/libutee/tee_api_operations.c:72
    2c7c:	52a0011a 	mov	w26, #0x80000               	// #524288
    2c80:	14000002 	b	2c88 <TEE_AllocateOperation+0x668>
/home/rahulmahadev/hikey_optee/optee_os/lib/libutee/tee_api_operations.c:130
    2c84:	5280001a 	mov	w26, #0x0                   	// #0
/home/rahulmahadev/hikey_optee/optee_os/lib/libutee/tee_api_operations.c:133
    2c88:	52800038 	mov	w24, #0x1                   	// #1
    2c8c:	14000003 	b	2c98 <TEE_AllocateOperation+0x678>
/home/rahulmahadev/hikey_optee/optee_os/lib/libutee/tee_api_operations.c:130
    2c90:	5280001a 	mov	w26, #0x0                   	// #0
/home/rahulmahadev/hikey_optee/optee_os/lib/libutee/tee_api_operations.c:66
    2c94:	52800018 	mov	w24, #0x0                   	// #0
/home/rahulmahadev/hikey_optee/optee_os/lib/libutee/tee_api_operations.c:143
    2c98:	12001e60 	and	w0, w19, #0xff
/home/rahulmahadev/hikey_optee/optee_os/lib/libutee/tee_api_operations.c:146
    2c9c:	d2800114 	mov	x20, #0x8                   	// #8
    2ca0:	7100401f 	cmp	w0, #0x10
    2ca4:	d2800203 	mov	x3, #0x10                  	// #16
    2ca8:	9a940074 	csel	x20, x3, x20, eq
/home/rahulmahadev/hikey_optee/optee_os/lib/libutee/tee_api_operations.c:148
    2cac:	34000677 	cbz	w23, 2d78 <TEE_AllocateOperation+0x758>
/home/rahulmahadev/hikey_optee/optee_os/lib/libutee/tee_api_operations.c:150
    2cb0:	710006ff 	cmp	w23, #0x1
    2cb4:	54001241 	b.ne	2efc <TEE_AllocateOperation+0x8dc>
/home/rahulmahadev/hikey_optee/optee_os/lib/libutee/tee_api_operations.c:65
    2cb8:	5280001c 	mov	w28, #0x0                   	// #0
/home/rahulmahadev/hikey_optee/optee_os/lib/libutee/tee_api_operations.c:151
    2cbc:	52800082 	mov	w2, #0x4                   	// #4
    2cc0:	1400003e 	b	2db8 <TEE_AllocateOperation+0x798>
/home/rahulmahadev/hikey_optee/optee_os/lib/libutee/tee_api_operations.c:175
    2cc4:	71000aff 	cmp	w23, #0x2
    2cc8:	540005e0 	b.eq	2d84 <TEE_AllocateOperation+0x764>
/home/rahulmahadev/hikey_optee/optee_os/lib/libutee/tee_api_operations.c:178
    2ccc:	71000eff 	cmp	w23, #0x3
    2cd0:	54001161 	b.ne	2efc <TEE_AllocateOperation+0x8dc>
/home/rahulmahadev/hikey_optee/optee_os/lib/libutee/tee_api_operations.c:66
    2cd4:	52800018 	mov	w24, #0x0                   	// #0
/home/rahulmahadev/hikey_optee/optee_os/lib/libutee/tee_api_operations.c:65
    2cd8:	5280001c 	mov	w28, #0x0                   	// #0
/home/rahulmahadev/hikey_optee/optee_os/lib/libutee/tee_api_operations.c:179
    2cdc:	52800402 	mov	w2, #0x20                  	// #32
    2ce0:	14000034 	b	2db0 <TEE_AllocateOperation+0x790>
/home/rahulmahadev/hikey_optee/optee_os/lib/libutee/tee_api_operations.c:191
    2ce4:	34000597 	cbz	w23, 2d94 <TEE_AllocateOperation+0x774>
/home/rahulmahadev/hikey_optee/optee_os/lib/libutee/tee_api_operations.c:193
    2ce8:	710006ff 	cmp	w23, #0x1
    2cec:	54001081 	b.ne	2efc <TEE_AllocateOperation+0x8dc>
/home/rahulmahadev/hikey_optee/optee_os/lib/libutee/tee_api_operations.c:66
    2cf0:	52800018 	mov	w24, #0x0                   	// #0
/home/rahulmahadev/hikey_optee/optee_os/lib/libutee/tee_api_operations.c:194
    2cf4:	2a1703fc 	mov	w28, w23
/home/rahulmahadev/hikey_optee/optee_os/lib/libutee/tee_api_operations.c:195
    2cf8:	52800082 	mov	w2, #0x4                   	// #4
    2cfc:	1400002d 	b	2db0 <TEE_AllocateOperation+0x790>
/home/rahulmahadev/hikey_optee/optee_os/lib/libutee/tee_api_operations.c:202
    2d00:	34000537 	cbz	w23, 2da4 <TEE_AllocateOperation+0x784>
/home/rahulmahadev/hikey_optee/optee_os/lib/libutee/tee_api_operations.c:204
    2d04:	710006ff 	cmp	w23, #0x1
    2d08:	54000fa1 	b.ne	2efc <TEE_AllocateOperation+0x8dc>
/home/rahulmahadev/hikey_optee/optee_os/lib/libutee/tee_api_operations.c:66
    2d0c:	52800018 	mov	w24, #0x0                   	// #0
/home/rahulmahadev/hikey_optee/optee_os/lib/libutee/tee_api_operations.c:205
    2d10:	5280003c 	mov	w28, #0x1                   	// #1
/home/rahulmahadev/hikey_optee/optee_os/lib/libutee/tee_api_operations.c:206
    2d14:	52800282 	mov	w2, #0x14                  	// #20
    2d18:	14000026 	b	2db0 <TEE_AllocateOperation+0x790>
/home/rahulmahadev/hikey_optee/optee_os/lib/libutee/tee_api_operations.c:230
    2d1c:	71001aff 	cmp	w23, #0x6
/home/rahulmahadev/hikey_optee/optee_os/lib/libutee/tee_api_operations.c:80
    2d20:	129ffea4 	mov	w4, #0xffff000a            	// #-65526
/home/rahulmahadev/hikey_optee/optee_os/lib/libutee/tee_api_operations.c:230
    2d24:	540012a1 	b.ne	2f78 <TEE_AllocateOperation+0x958>
/home/rahulmahadev/hikey_optee/optee_os/lib/libutee/tee_api_operations.c:66
    2d28:	52800018 	mov	w24, #0x0                   	// #0
/home/rahulmahadev/hikey_optee/optee_os/lib/libutee/tee_api_operations.c:232
    2d2c:	5280003c 	mov	w28, #0x1                   	// #1
/home/rahulmahadev/hikey_optee/optee_os/lib/libutee/tee_api_operations.c:233
    2d30:	52800802 	mov	w2, #0x40                  	// #64
    2d34:	1400001f 	b	2db0 <TEE_AllocateOperation+0x790>
/home/rahulmahadev/hikey_optee/optee_os/lib/libutee/tee_api_operations.c:242
    2d38:	710016ff 	cmp	w23, #0x5
/home/rahulmahadev/hikey_optee/optee_os/lib/libutee/tee_api_operations.c:80
    2d3c:	129ffea4 	mov	w4, #0xffff000a            	// #-65526
/home/rahulmahadev/hikey_optee/optee_os/lib/libutee/tee_api_operations.c:242
    2d40:	540011c1 	b.ne	2f78 <TEE_AllocateOperation+0x958>
/home/rahulmahadev/hikey_optee/optee_os/lib/libutee/tee_api_operations.c:66
    2d44:	52800018 	mov	w24, #0x0                   	// #0
/home/rahulmahadev/hikey_optee/optee_os/lib/libutee/tee_api_operations.c:65
    2d48:	5280001c 	mov	w28, #0x0                   	// #0
/home/rahulmahadev/hikey_optee/optee_os/lib/libutee/tee_api_operations.c:246
    2d4c:	52800002 	mov	w2, #0x0                   	// #0
/home/rahulmahadev/hikey_optee/optee_os/lib/libutee/tee_api_operations.c:63
    2d50:	d2800034 	mov	x20, #0x1                   	// #1
/home/rahulmahadev/hikey_optee/optee_os/lib/libutee/tee_api_operations.c:245
    2d54:	52a0009a 	mov	w26, #0x40000               	// #262144
    2d58:	14000018 	b	2db8 <TEE_AllocateOperation+0x798>
/home/rahulmahadev/hikey_optee/optee_os/lib/libutee/tee_api_operations.c:262
    2d5c:	710012ff 	cmp	w23, #0x4
/home/rahulmahadev/hikey_optee/optee_os/lib/libutee/tee_api_operations.c:80
    2d60:	129ffea4 	mov	w4, #0xffff000a            	// #-65526
/home/rahulmahadev/hikey_optee/optee_os/lib/libutee/tee_api_operations.c:262
    2d64:	540010a1 	b.ne	2f78 <TEE_AllocateOperation+0x958>
/home/rahulmahadev/hikey_optee/optee_os/lib/libutee/tee_api_operations.c:66
    2d68:	52800018 	mov	w24, #0x0                   	// #0
/home/rahulmahadev/hikey_optee/optee_os/lib/libutee/tee_api_operations.c:65
    2d6c:	5280001c 	mov	w28, #0x0                   	// #0
/home/rahulmahadev/hikey_optee/optee_os/lib/libutee/tee_api_operations.c:264
    2d70:	52800102 	mov	w2, #0x8                   	// #8
    2d74:	1400000f 	b	2db0 <TEE_AllocateOperation+0x790>
/home/rahulmahadev/hikey_optee/optee_os/lib/libutee/tee_api_operations.c:65
    2d78:	5280001c 	mov	w28, #0x0                   	// #0
/home/rahulmahadev/hikey_optee/optee_os/lib/libutee/tee_api_operations.c:149
    2d7c:	52800042 	mov	w2, #0x2                   	// #2
    2d80:	1400000e 	b	2db8 <TEE_AllocateOperation+0x798>
/home/rahulmahadev/hikey_optee/optee_os/lib/libutee/tee_api_operations.c:66
    2d84:	52800018 	mov	w24, #0x0                   	// #0
/home/rahulmahadev/hikey_optee/optee_os/lib/libutee/tee_api_operations.c:176
    2d88:	5280003c 	mov	w28, #0x1                   	// #1
/home/rahulmahadev/hikey_optee/optee_os/lib/libutee/tee_api_operations.c:177
    2d8c:	52800202 	mov	w2, #0x10                  	// #16
    2d90:	14000008 	b	2db0 <TEE_AllocateOperation+0x790>
/home/rahulmahadev/hikey_optee/optee_os/lib/libutee/tee_api_operations.c:66
    2d94:	52800018 	mov	w24, #0x0                   	// #0
/home/rahulmahadev/hikey_optee/optee_os/lib/libutee/tee_api_operations.c:65
    2d98:	5280001c 	mov	w28, #0x0                   	// #0
/home/rahulmahadev/hikey_optee/optee_os/lib/libutee/tee_api_operations.c:192
    2d9c:	52800042 	mov	w2, #0x2                   	// #2
    2da0:	14000004 	b	2db0 <TEE_AllocateOperation+0x790>
/home/rahulmahadev/hikey_optee/optee_os/lib/libutee/tee_api_operations.c:66
    2da4:	52800018 	mov	w24, #0x0                   	// #0
/home/rahulmahadev/hikey_optee/optee_os/lib/libutee/tee_api_operations.c:65
    2da8:	5280001c 	mov	w28, #0x0                   	// #0
/home/rahulmahadev/hikey_optee/optee_os/lib/libutee/tee_api_operations.c:203
    2dac:	52800442 	mov	w2, #0x22                  	// #34
/home/rahulmahadev/hikey_optee/optee_os/lib/libutee/tee_api_operations.c:63
    2db0:	d2800034 	mov	x20, #0x1                   	// #1
    2db4:	5280001a 	mov	w26, #0x0                   	// #0
/home/rahulmahadev/hikey_optee/optee_os/lib/libutee/tee_api_operations.c:271
    2db8:	52800001 	mov	w1, #0x0                   	// #0
    2dbc:	52800c00 	mov	w0, #0x60                  	// #96
    2dc0:	b9006fa2 	str	w2, [x29,#108]
    2dc4:	97fff872 	bl	f8c <TEE_Malloc>
    2dc8:	aa0003f5 	mov	x21, x0
/home/rahulmahadev/hikey_optee/optee_os/lib/libutee/tee_api_operations.c:273
    2dcc:	129ffe64 	mov	w4, #0xffff000c            	// #-65524
/home/rahulmahadev/hikey_optee/optee_os/lib/libutee/tee_api_operations.c:272
    2dd0:	b4000d40 	cbz	x0, 2f78 <TEE_AllocateOperation+0x958>
/home/rahulmahadev/hikey_optee/optee_os/lib/libutee/tee_api_operations.c:279
    2dd4:	b9406fa2 	ldr	w2, [x29,#108]
/home/rahulmahadev/hikey_optee/optee_os/lib/libutee/tee_api_operations.c:276
    2dd8:	531c7e7b 	lsr	w27, w19, #28
/home/rahulmahadev/hikey_optee/optee_os/lib/libutee/tee_api_operations.c:275
    2ddc:	b9000013 	str	w19, [x0]
/home/rahulmahadev/hikey_optee/optee_os/lib/libutee/tee_api_operations.c:282
    2de0:	f100069f 	cmp	x20, #0x1
/home/rahulmahadev/hikey_optee/optee_os/lib/libutee/tee_api_operations.c:276
    2de4:	b900041b 	str	w27, [x0,#4]
/home/rahulmahadev/hikey_optee/optee_os/lib/libutee/tee_api_operations.c:277
    2de8:	b9000817 	str	w23, [x0,#8]
/home/rahulmahadev/hikey_optee/optee_os/lib/libutee/tee_api_operations.c:278
    2dec:	b9001016 	str	w22, [x0,#16]
/home/rahulmahadev/hikey_optee/optee_os/lib/libutee/tee_api_operations.c:279
    2df0:	b9001802 	str	w2, [x0,#24]
/home/rahulmahadev/hikey_optee/optee_os/lib/libutee/tee_api_operations.c:280
    2df4:	b9001c1a 	str	w26, [x0,#28]
/home/rahulmahadev/hikey_optee/optee_os/lib/libutee/tee_api_operations.c:282
    2df8:	540000c1 	b.ne	2e10 <TEE_AllocateOperation+0x7f0>
/home/rahulmahadev/hikey_optee/optee_os/lib/libutee/tee_api_operations.c:295
    2dfc:	f90026b4 	str	x20, [x21,#72]
/home/rahulmahadev/hikey_optee/optee_os/lib/libutee/tee_api_operations.c:298
    2e00:	7100177f 	cmp	w27, #0x5
/home/rahulmahadev/hikey_optee/optee_os/lib/libutee/tee_api_operations.c:296
    2e04:	390102b8 	strb	w24, [x21,#64]
/home/rahulmahadev/hikey_optee/optee_os/lib/libutee/tee_api_operations.c:298
    2e08:	54000161 	b.ne	2e34 <TEE_AllocateOperation+0x814>
    2e0c:	1400001d 	b	2e80 <TEE_AllocateOperation+0x860>
/home/rahulmahadev/hikey_optee/optee_os/lib/libutee/tee_api_operations.c:286
    2e10:	6b1f031f 	cmp	w24, wzr
    2e14:	d37ffa80 	lsl	x0, x20, #1
/home/rahulmahadev/hikey_optee/optee_os/lib/libutee/tee_api_operations.c:288
    2e18:	52b00001 	mov	w1, #0x80000000            	// #-2147483648
    2e1c:	9a941000 	csel	x0, x0, x20, ne
    2e20:	97fff85b 	bl	f8c <TEE_Malloc>
    2e24:	f9001ea0 	str	x0, [x21,#56]
/home/rahulmahadev/hikey_optee/optee_os/lib/libutee/tee_api_operations.c:290
    2e28:	b5fffea0 	cbnz	x0, 2dfc <TEE_AllocateOperation+0x7dc>
/home/rahulmahadev/hikey_optee/optee_os/lib/libutee/tee_api_operations.c:291
    2e2c:	129ffe74 	mov	w20, #0xffff000c            	// #-65524
    2e30:	14000035 	b	2f04 <TEE_AllocateOperation+0x8e4>
/home/rahulmahadev/hikey_optee/optee_os/lib/libutee/tee_api_operations.c:300
    2e34:	6b1f039f 	cmp	w28, wzr
    2e38:	52b40001 	mov	w1, #0xa0000000            	// #-1610612736
    2e3c:	52b42000 	mov	w0, #0xa1000000            	// #-1593835520
    2e40:	12001e78 	and	w24, w19, #0xff
    2e44:	1a811000 	csel	w0, w0, w1, ne
/home/rahulmahadev/hikey_optee/optee_os/lib/libutee/tee_api_operations.c:308
    2e48:	53017ec1 	lsr	w1, w22, #1
/home/rahulmahadev/hikey_optee/optee_os/lib/libutee/tee_api_operations.c:300
    2e4c:	2a180018 	orr	w24, w0, w24
/home/rahulmahadev/hikey_optee/optee_os/lib/libutee/tee_api_operations.c:307
    2e50:	b9401ea0 	ldr	w0, [x21,#28]
/home/rahulmahadev/hikey_optee/optee_os/lib/libutee/tee_api_operations.c:310
    2e54:	910082a2 	add	x2, x21, #0x20
/home/rahulmahadev/hikey_optee/optee_os/lib/libutee/tee_api_operations.c:307
    2e58:	120d0000 	and	w0, w0, #0x80000
/home/rahulmahadev/hikey_optee/optee_os/lib/libutee/tee_api_operations.c:308
    2e5c:	6b1f001f 	cmp	w0, wzr
/home/rahulmahadev/hikey_optee/optee_os/lib/libutee/tee_api_operations.c:310
    2e60:	2a1803e0 	mov	w0, w24
/home/rahulmahadev/hikey_optee/optee_os/lib/libutee/tee_api_operations.c:308
    2e64:	1a961036 	csel	w22, w1, w22, ne
/home/rahulmahadev/hikey_optee/optee_os/lib/libutee/tee_api_operations.c:310
    2e68:	2a1603e1 	mov	w1, w22
    2e6c:	97fff964 	bl	13fc <TEE_AllocateTransientObject>
    2e70:	2a0003f4 	mov	w20, w0
/home/rahulmahadev/hikey_optee/optee_os/lib/libutee/tee_api_operations.c:311
    2e74:	35000480 	cbnz	w0, 2f04 <TEE_AllocateOperation+0x8e4>
/home/rahulmahadev/hikey_optee/optee_os/lib/libutee/tee_api_operations.c:314
    2e78:	b9401ea0 	ldr	w0, [x21,#28]
    2e7c:	37980140 	tbnz	w0, #19, 2ea4 <TEE_AllocateOperation+0x884>
/home/rahulmahadev/hikey_optee/optee_os/lib/libutee/tee_api_operations.c:322
    2e80:	f94016a3 	ldr	x3, [x21,#40]
    2e84:	910162a4 	add	x4, x21, #0x58
    2e88:	f94012a2 	ldr	x2, [x21,#32]
    2e8c:	2a1703e1 	mov	w1, w23
    2e90:	2a1303e0 	mov	w0, w19
    2e94:	9400241f 	bl	bf10 <utee_cryp_state_alloc>
    2e98:	2a0003f4 	mov	w20, w0
/home/rahulmahadev/hikey_optee/optee_os/lib/libutee/tee_api_operations.c:324
    2e9c:	35000340 	cbnz	w0, 2f04 <TEE_AllocateOperation+0x8e4>
    2ea0:	14000008 	b	2ec0 <TEE_AllocateOperation+0x8a0>
/home/rahulmahadev/hikey_optee/optee_os/lib/libutee/tee_api_operations.c:315
    2ea4:	9100a2a2 	add	x2, x21, #0x28
    2ea8:	2a1603e1 	mov	w1, w22
    2eac:	2a1803e0 	mov	w0, w24
    2eb0:	97fff953 	bl	13fc <TEE_AllocateTransientObject>
    2eb4:	2a0003f4 	mov	w20, w0
/home/rahulmahadev/hikey_optee/optee_os/lib/libutee/tee_api_operations.c:317
    2eb8:	35000260 	cbnz	w0, 2f04 <TEE_AllocateOperation+0x8e4>
    2ebc:	17fffff1 	b	2e80 <TEE_AllocateOperation+0x860>
/home/rahulmahadev/hikey_optee/optee_os/lib/libutee/tee_api_operations.c:332
    2ec0:	7100177f 	cmp	w27, #0x5
    2ec4:	54000141 	b.ne	2eec <TEE_AllocateOperation+0x8cc>
/home/rahulmahadev/hikey_optee/optee_os/lib/libutee/tee_api_operations.c:333
    2ec8:	b9405aa0 	ldr	w0, [x21,#88]
    2ecc:	d2800002 	mov	x2, #0x0                   	// #0
    2ed0:	d2800001 	mov	x1, #0x0                   	// #0
    2ed4:	94002418 	bl	bf34 <utee_hash_init>
    2ed8:	2a0003f4 	mov	w20, w0
/home/rahulmahadev/hikey_optee/optee_os/lib/libutee/tee_api_operations.c:334
    2edc:	35000140 	cbnz	w0, 2f04 <TEE_AllocateOperation+0x8e4>
/home/rahulmahadev/hikey_optee/optee_os/lib/libutee/tee_api_operations.c:337
    2ee0:	b9401ea0 	ldr	w0, [x21,#28]
    2ee4:	320f0000 	orr	w0, w0, #0x20000
    2ee8:	b9001ea0 	str	w0, [x21,#28]
/home/rahulmahadev/hikey_optee/optee_os/lib/libutee/tee_api_operations.c:340
    2eec:	b90032bf 	str	wzr, [x21,#48]
/home/rahulmahadev/hikey_optee/optee_os/lib/libutee/tee_api_operations.c:342
    2ef0:	52800004 	mov	w4, #0x0                   	// #0
    2ef4:	f9000335 	str	x21, [x25]
    2ef8:	14000020 	b	2f78 <TEE_AllocateOperation+0x958>
/home/rahulmahadev/hikey_optee/optee_os/lib/libutee/tee_api_operations.c:268
    2efc:	129ffea4 	mov	w4, #0xffff000a            	// #-65526
    2f00:	1400001e 	b	2f78 <TEE_AllocateOperation+0x958>
/home/rahulmahadev/hikey_optee/optee_os/lib/libutee/tee_api_operations.c:347
    2f04:	11403e80 	add	w0, w20, #0xf, lsl #12
    2f08:	113fd800 	add	w0, w0, #0xff6
/home/rahulmahadev/hikey_optee/optee_os/lib/libutee/tee_api_operations.c:346
    2f0c:	721e781f 	tst	w0, #0xfffffffd
    2f10:	54000180 	b.eq	2f40 <TEE_AllocateOperation+0x920>
/home/rahulmahadev/hikey_optee/optee_os/lib/libutee/tee_api_operations.c:348
    2f14:	f0000044 	adrp	x4, d000 <PRIME_TABLE+0x388>
    2f18:	d0000040 	adrp	x0, c000 <utee_authenc_update_aad>
    2f1c:	91200000 	add	x0, x0, #0x800
    2f20:	52800005 	mov	w5, #0x0                   	// #0
    2f24:	91235c84 	add	x4, x4, #0x8d7
    2f28:	52800023 	mov	w3, #0x1                   	// #1
    2f2c:	52800022 	mov	w2, #0x1                   	// #1
    2f30:	52802b81 	mov	w1, #0x15c                 	// #348
    2f34:	940013f9 	bl	7f18 <trace_printf>
    2f38:	52800000 	mov	w0, #0x0                   	// #0
    2f3c:	94000917 	bl	5398 <__TEE_Panic>
/home/rahulmahadev/hikey_optee/optee_os/lib/libutee/tee_api_operations.c:350
    2f40:	b9405aa0 	ldr	w0, [x21,#88]
    2f44:	34000080 	cbz	w0, 2f54 <TEE_AllocateOperation+0x934>
/home/rahulmahadev/hikey_optee/optee_os/lib/libutee/tee_api_operations.c:351
    2f48:	aa1503e0 	mov	x0, x21
    2f4c:	97fffd91 	bl	2590 <TEE_FreeOperation>
    2f50:	14000009 	b	2f74 <TEE_AllocateOperation+0x954>
/home/rahulmahadev/hikey_optee/optee_os/lib/libutee/tee_api_operations.c:353
    2f54:	f9401ea0 	ldr	x0, [x21,#56]
    2f58:	97fff811 	bl	f9c <TEE_Free>
/home/rahulmahadev/hikey_optee/optee_os/lib/libutee/tee_api_operations.c:354
    2f5c:	f94012a0 	ldr	x0, [x21,#32]
    2f60:	97fff94a 	bl	1488 <TEE_FreeTransientObject>
/home/rahulmahadev/hikey_optee/optee_os/lib/libutee/tee_api_operations.c:355
    2f64:	f94016a0 	ldr	x0, [x21,#40]
    2f68:	97fff948 	bl	1488 <TEE_FreeTransientObject>
/home/rahulmahadev/hikey_optee/optee_os/lib/libutee/tee_api_operations.c:356
    2f6c:	aa1503e0 	mov	x0, x21
    2f70:	97fff80b 	bl	f9c <TEE_Free>
    2f74:	2a1403e4 	mov	w4, w20
/home/rahulmahadev/hikey_optee/optee_os/lib/libutee/tee_api_operations.c:362
    2f78:	2a0403e0 	mov	w0, w4
    2f7c:	a94153f3 	ldp	x19, x20, [sp,#16]
    2f80:	a9425bf5 	ldp	x21, x22, [sp,#32]
    2f84:	a94363f7 	ldp	x23, x24, [sp,#48]
    2f88:	a9446bf9 	ldp	x25, x26, [sp,#64]
    2f8c:	a94573fb 	ldp	x27, x28, [sp,#80]
    2f90:	a8c77bfd 	ldp	x29, x30, [sp],#112
    2f94:	d65f03c0 	ret

0000000000002f98 <TEE_GetOperationInfo>:
TEE_GetOperationInfo():
/home/rahulmahadev/hikey_optee/optee_os/lib/libutee/tee_api_operations.c:386
    2f98:	a9be7bfd 	stp	x29, x30, [sp,#-32]!
    2f9c:	910003fd 	mov	x29, sp
    2fa0:	a90153f3 	stp	x19, x20, [sp,#16]
    2fa4:	aa0003f4 	mov	x20, x0
    2fa8:	aa0103f3 	mov	x19, x1
/home/rahulmahadev/hikey_optee/optee_os/lib/libutee/tee_api_operations.c:387
    2fac:	b5000180 	cbnz	x0, 2fdc <TEE_GetOperationInfo+0x44>
/home/rahulmahadev/hikey_optee/optee_os/lib/libutee/tee_api_operations.c:388
    2fb0:	f0000044 	adrp	x4, d000 <PRIME_TABLE+0x388>
    2fb4:	d0000040 	adrp	x0, c000 <utee_authenc_update_aad>
    2fb8:	9126c000 	add	x0, x0, #0x9b0
    2fbc:	52800005 	mov	w5, #0x0                   	// #0
    2fc0:	91235c84 	add	x4, x4, #0x8d7
    2fc4:	52800023 	mov	w3, #0x1                   	// #1
    2fc8:	52800022 	mov	w2, #0x1                   	// #1
    2fcc:	52803081 	mov	w1, #0x184                 	// #388
    2fd0:	940013d2 	bl	7f18 <trace_printf>
    2fd4:	52800000 	mov	w0, #0x0                   	// #0
    2fd8:	940008f0 	bl	5398 <__TEE_Panic>
/home/rahulmahadev/hikey_optee/optee_os/lib/libutee/tee_api_operations.c:390
    2fdc:	b5000193 	cbnz	x19, 300c <TEE_GetOperationInfo+0x74>
/home/rahulmahadev/hikey_optee/optee_os/lib/libutee/tee_api_operations.c:391
    2fe0:	f0000044 	adrp	x4, d000 <PRIME_TABLE+0x388>
    2fe4:	d0000040 	adrp	x0, c000 <utee_authenc_update_aad>
    2fe8:	9126c000 	add	x0, x0, #0x9b0
    2fec:	52800005 	mov	w5, #0x0                   	// #0
    2ff0:	91235c84 	add	x4, x4, #0x8d7
    2ff4:	52800023 	mov	w3, #0x1                   	// #1
    2ff8:	52800022 	mov	w2, #0x1                   	// #1
    2ffc:	528030e1 	mov	w1, #0x187                 	// #391
    3000:	940013c6 	bl	7f18 <trace_printf>
    3004:	52800000 	mov	w0, #0x0                   	// #0
    3008:	940008e4 	bl	5398 <__TEE_Panic>
/home/rahulmahadev/hikey_optee/optee_os/lib/libutee/tee_api_operations.c:393
    300c:	aa1403e1 	mov	x1, x20
    3010:	d2800402 	mov	x2, #0x20                  	// #32
    3014:	aa1303e0 	mov	x0, x19
    3018:	94001062 	bl	71a0 <memcpy>
/home/rahulmahadev/hikey_optee/optee_os/lib/libutee/tee_api_operations.c:394
    301c:	a94153f3 	ldp	x19, x20, [sp,#16]
    3020:	a8c27bfd 	ldp	x29, x30, [sp],#32
    3024:	d65f03c0 	ret

0000000000003028 <TEE_GetOperationInfoMultiple>:
TEE_GetOperationInfoMultiple():
/home/rahulmahadev/hikey_optee/optee_os/lib/libutee/tee_api_operations.c:399
    3028:	a9b97bfd 	stp	x29, x30, [sp,#-112]!
/home/rahulmahadev/hikey_optee/optee_os/lib/libutee/tee_api_operations.c:411
    302c:	eb1f003f 	cmp	x1, xzr
/home/rahulmahadev/hikey_optee/optee_os/lib/libutee/tee_api_operations.c:399
    3030:	910003fd 	mov	x29, sp
    3034:	a90153f3 	stp	x19, x20, [sp,#16]
    3038:	aa0103f3 	mov	x19, x1
/home/rahulmahadev/hikey_optee/optee_os/lib/libutee/tee_api_operations.c:411
    303c:	1a9f17e1 	cset	w1, eq
/home/rahulmahadev/hikey_optee/optee_os/lib/libutee/tee_api_operations.c:416
    3040:	eb1f005f 	cmp	x2, xzr
/home/rahulmahadev/hikey_optee/optee_os/lib/libutee/tee_api_operations.c:399
    3044:	aa0003f4 	mov	x20, x0
/home/rahulmahadev/hikey_optee/optee_os/lib/libutee/tee_api_operations.c:416
    3048:	1a9f17e0 	cset	w0, eq
/home/rahulmahadev/hikey_optee/optee_os/lib/libutee/tee_api_operations.c:399
    304c:	a9025bf5 	stp	x21, x22, [sp,#32]
/home/rahulmahadev/hikey_optee/optee_os/lib/libutee/tee_api_operations.c:416
    3050:	2a000020 	orr	w0, w1, w0
    3054:	35000840 	cbnz	w0, 315c <TEE_GetOperationInfoMultiple+0x134>
    3058:	b4000834 	cbz	x20, 315c <TEE_GetOperationInfoMultiple+0x134>
/home/rahulmahadev/hikey_optee/optee_os/lib/libutee/tee_api_operations.c:421
    305c:	b9400056 	ldr	w22, [x2]
/home/rahulmahadev/hikey_optee/optee_os/lib/libutee/tee_api_operations.c:417
    3060:	129fff35 	mov	w21, #0xffff0006            	// #-65530
/home/rahulmahadev/hikey_optee/optee_os/lib/libutee/tee_api_operations.c:421
    3064:	d10082d6 	sub	x22, x22, #0x20
    3068:	d343fed6 	lsr	x22, x22, #3
/home/rahulmahadev/hikey_optee/optee_os/lib/libutee/tee_api_operations.c:424
    306c:	71000adf 	cmp	w22, #0x2
    3070:	54000788 	b.hi	3160 <TEE_GetOperationInfoMultiple+0x138>
/home/rahulmahadev/hikey_optee/optee_os/lib/libutee/tee_api_operations.c:431
    3074:	54000080 	b.eq	3084 <TEE_GetOperationInfoMultiple+0x5c>
/home/rahulmahadev/hikey_optee/optee_os/lib/libutee/tee_api_operations.c:430
    3078:	b9401e80 	ldr	w0, [x20,#28]
/home/rahulmahadev/hikey_optee/optee_os/lib/libutee/tee_api_operations.c:433
    307c:	129ffdf5 	mov	w21, #0xffff0010            	// #-65520
/home/rahulmahadev/hikey_optee/optee_os/lib/libutee/tee_api_operations.c:431
    3080:	37980700 	tbnz	w0, #19, 3160 <TEE_GetOperationInfoMultiple+0x138>
    3084:	91008260 	add	x0, x19, #0x20
    3088:	d2800001 	mov	x1, #0x0                   	// #0
/home/rahulmahadev/hikey_optee/optee_os/lib/libutee/tee_api_operations.c:438
    308c:	92407ec2 	and	x2, x22, #0xffffffff
/home/rahulmahadev/hikey_optee/optee_os/lib/libutee/tee_api_operations.c:438 (discriminator 1)
    3090:	eb02003f 	cmp	x1, x2
    3094:	540000c2 	b.cs	30ac <TEE_GetOperationInfoMultiple+0x84>
/home/rahulmahadev/hikey_optee/optee_os/lib/libutee/tee_api_operations.c:439 (discriminator 3)
    3098:	b900001f 	str	wzr, [x0]
/home/rahulmahadev/hikey_optee/optee_os/lib/libutee/tee_api_operations.c:438 (discriminator 3)
    309c:	91000421 	add	x1, x1, #0x1
/home/rahulmahadev/hikey_optee/optee_os/lib/libutee/tee_api_operations.c:440 (discriminator 3)
    30a0:	b900041f 	str	wzr, [x0,#4]
    30a4:	91002000 	add	x0, x0, #0x8
    30a8:	17fffffa 	b	3090 <TEE_GetOperationInfoMultiple+0x68>
/home/rahulmahadev/hikey_optee/optee_os/lib/libutee/tee_api_operations.c:443
    30ac:	71000adf 	cmp	w22, #0x2
    30b0:	54000161 	b.ne	30dc <TEE_GetOperationInfoMultiple+0xb4>
/home/rahulmahadev/hikey_optee/optee_os/lib/libutee/tee_api_operations.c:444
    30b4:	f9401680 	ldr	x0, [x20,#40]
    30b8:	910143a1 	add	x1, x29, #0x50
    30bc:	97fff7f5 	bl	1090 <TEE_GetObjectInfo1>
    30c0:	2a0003f5 	mov	w21, w0
/home/rahulmahadev/hikey_optee/optee_os/lib/libutee/tee_api_operations.c:446
    30c4:	350004e0 	cbnz	w0, 3160 <TEE_GetOperationInfoMultiple+0x138>
/home/rahulmahadev/hikey_optee/optee_os/lib/libutee/tee_api_operations.c:449
    30c8:	b94057a0 	ldr	w0, [x29,#84]
    30cc:	b9002a60 	str	w0, [x19,#40]
/home/rahulmahadev/hikey_optee/optee_os/lib/libutee/tee_api_operations.c:451
    30d0:	b9401a80 	ldr	w0, [x20,#24]
    30d4:	b9002e60 	str	w0, [x19,#44]
    30d8:	14000002 	b	30e0 <TEE_GetOperationInfoMultiple+0xb8>
/home/rahulmahadev/hikey_optee/optee_os/lib/libutee/tee_api_operations.c:455
    30dc:	340001f6 	cbz	w22, 3118 <TEE_GetOperationInfoMultiple+0xf0>
/home/rahulmahadev/hikey_optee/optee_os/lib/libutee/tee_api_operations.c:456
    30e0:	f9401280 	ldr	x0, [x20,#32]
    30e4:	9100c3a1 	add	x1, x29, #0x30
    30e8:	97fff7ea 	bl	1090 <TEE_GetObjectInfo1>
    30ec:	2a0003f5 	mov	w21, w0
/home/rahulmahadev/hikey_optee/optee_os/lib/libutee/tee_api_operations.c:458
    30f0:	340000c0 	cbz	w0, 3108 <TEE_GetOperationInfoMultiple+0xe0>
/home/rahulmahadev/hikey_optee/optee_os/lib/libutee/tee_api_operations.c:459
    30f4:	71000adf 	cmp	w22, #0x2
    30f8:	54000341 	b.ne	3160 <TEE_GetOperationInfoMultiple+0x138>
/home/rahulmahadev/hikey_optee/optee_os/lib/libutee/tee_api_operations.c:461
    30fc:	b9002a7f 	str	wzr, [x19,#40]
/home/rahulmahadev/hikey_optee/optee_os/lib/libutee/tee_api_operations.c:463
    3100:	b9002e7f 	str	wzr, [x19,#44]
    3104:	14000017 	b	3160 <TEE_GetOperationInfoMultiple+0x138>
/home/rahulmahadev/hikey_optee/optee_os/lib/libutee/tee_api_operations.c:468
    3108:	b94037a0 	ldr	w0, [x29,#52]
    310c:	b9002260 	str	w0, [x19,#32]
/home/rahulmahadev/hikey_optee/optee_os/lib/libutee/tee_api_operations.c:470
    3110:	b9401a80 	ldr	w0, [x20,#24]
    3114:	b9002660 	str	w0, [x19,#36]
/home/rahulmahadev/hikey_optee/optee_os/lib/libutee/tee_api_operations.c:475
    3118:	b9400280 	ldr	w0, [x20]
/home/rahulmahadev/hikey_optee/optee_os/lib/libutee/tee_api_operations.c:482
    311c:	52800015 	mov	w21, #0x0                   	// #0
/home/rahulmahadev/hikey_optee/optee_os/lib/libutee/tee_api_operations.c:475
    3120:	b9000260 	str	w0, [x19]
/home/rahulmahadev/hikey_optee/optee_os/lib/libutee/tee_api_operations.c:476
    3124:	b9400680 	ldr	w0, [x20,#4]
    3128:	b9000660 	str	w0, [x19,#4]
/home/rahulmahadev/hikey_optee/optee_os/lib/libutee/tee_api_operations.c:477
    312c:	b9400a80 	ldr	w0, [x20,#8]
    3130:	b9000a60 	str	w0, [x19,#8]
/home/rahulmahadev/hikey_optee/optee_os/lib/libutee/tee_api_operations.c:478
    3134:	b9400e80 	ldr	w0, [x20,#12]
    3138:	b9000e60 	str	w0, [x19,#12]
/home/rahulmahadev/hikey_optee/optee_os/lib/libutee/tee_api_operations.c:479
    313c:	b9401280 	ldr	w0, [x20,#16]
    3140:	b9001260 	str	w0, [x19,#16]
/home/rahulmahadev/hikey_optee/optee_os/lib/libutee/tee_api_operations.c:480
    3144:	b9401e80 	ldr	w0, [x20,#28]
    3148:	b9001660 	str	w0, [x19,#20]
/home/rahulmahadev/hikey_optee/optee_os/lib/libutee/tee_api_operations.c:481
    314c:	b9403280 	ldr	w0, [x20,#48]
    3150:	b9001a60 	str	w0, [x19,#24]
/home/rahulmahadev/hikey_optee/optee_os/lib/libutee/tee_api_operations.c:482
    3154:	b9001e76 	str	w22, [x19,#28]
    3158:	14000002 	b	3160 <TEE_GetOperationInfoMultiple+0x138>
/home/rahulmahadev/hikey_optee/optee_os/lib/libutee/tee_api_operations.c:417
    315c:	129fff35 	mov	w21, #0xffff0006            	// #-65530
/home/rahulmahadev/hikey_optee/optee_os/lib/libutee/tee_api_operations.c:485
    3160:	129ffde0 	mov	w0, #0xffff0010            	// #-65520
    3164:	6b0002bf 	cmp	w21, w0
    3168:	540001a0 	b.eq	319c <TEE_GetOperationInfoMultiple+0x174>
    316c:	34000195 	cbz	w21, 319c <TEE_GetOperationInfoMultiple+0x174>
/home/rahulmahadev/hikey_optee/optee_os/lib/libutee/tee_api_operations.c:487
    3170:	d0000044 	adrp	x4, d000 <PRIME_TABLE+0x388>
    3174:	b0000040 	adrp	x0, c000 <utee_authenc_update_aad>
    3178:	91282000 	add	x0, x0, #0xa08
    317c:	52800005 	mov	w5, #0x0                   	// #0
    3180:	91235c84 	add	x4, x4, #0x8d7
    3184:	52800023 	mov	w3, #0x1                   	// #1
    3188:	52800022 	mov	w2, #0x1                   	// #1
    318c:	52803ce1 	mov	w1, #0x1e7                 	// #487
    3190:	94001362 	bl	7f18 <trace_printf>
    3194:	52800000 	mov	w0, #0x0                   	// #0
    3198:	94000880 	bl	5398 <__TEE_Panic>
/home/rahulmahadev/hikey_optee/optee_os/lib/libutee/tee_api_operations.c:490
    319c:	2a1503e0 	mov	w0, w21
    31a0:	a94153f3 	ldp	x19, x20, [sp,#16]
    31a4:	a9425bf5 	ldp	x21, x22, [sp,#32]
    31a8:	a8c77bfd 	ldp	x29, x30, [sp],#112
    31ac:	d65f03c0 	ret

00000000000031b0 <TEE_ResetOperation>:
TEE_ResetOperation():
/home/rahulmahadev/hikey_optee/optee_os/lib/libutee/tee_api_operations.c:493
    31b0:	a9be7bfd 	stp	x29, x30, [sp,#-32]!
    31b4:	910003fd 	mov	x29, sp
    31b8:	a90153f3 	stp	x19, x20, [sp,#16]
    31bc:	aa0003f3 	mov	x19, x0
/home/rahulmahadev/hikey_optee/optee_os/lib/libutee/tee_api_operations.c:496
    31c0:	b5000180 	cbnz	x0, 31f0 <TEE_ResetOperation+0x40>
/home/rahulmahadev/hikey_optee/optee_os/lib/libutee/tee_api_operations.c:497
    31c4:	d0000044 	adrp	x4, d000 <PRIME_TABLE+0x388>
    31c8:	b0000040 	adrp	x0, c000 <utee_authenc_update_aad>
    31cc:	911e4000 	add	x0, x0, #0x790
    31d0:	52800005 	mov	w5, #0x0                   	// #0
    31d4:	91235c84 	add	x4, x4, #0x8d7
    31d8:	52800023 	mov	w3, #0x1                   	// #1
    31dc:	52800022 	mov	w2, #0x1                   	// #1
    31e0:	52803e21 	mov	w1, #0x1f1                 	// #497
    31e4:	9400134d 	bl	7f18 <trace_printf>
    31e8:	52800000 	mov	w0, #0x0                   	// #0
    31ec:	9400086b 	bl	5398 <__TEE_Panic>
/home/rahulmahadev/hikey_optee/optee_os/lib/libutee/tee_api_operations.c:499
    31f0:	b9401e60 	ldr	w0, [x19,#28]
    31f4:	37900180 	tbnz	w0, #18, 3224 <TEE_ResetOperation+0x74>
/home/rahulmahadev/hikey_optee/optee_os/lib/libutee/tee_api_operations.c:500
    31f8:	d0000044 	adrp	x4, d000 <PRIME_TABLE+0x388>
    31fc:	b0000040 	adrp	x0, c000 <utee_authenc_update_aad>
    3200:	911e4000 	add	x0, x0, #0x790
    3204:	52800005 	mov	w5, #0x0                   	// #0
    3208:	91235c84 	add	x4, x4, #0x8d7
    320c:	52800023 	mov	w3, #0x1                   	// #1
    3210:	52800022 	mov	w2, #0x1                   	// #1
    3214:	52803e81 	mov	w1, #0x1f4                 	// #500
    3218:	94001340 	bl	7f18 <trace_printf>
    321c:	52800000 	mov	w0, #0x0                   	// #0
    3220:	9400085e 	bl	5398 <__TEE_Panic>
/home/rahulmahadev/hikey_optee/optee_os/lib/libutee/tee_api_operations.c:504
    3224:	b9400660 	ldr	w0, [x19,#4]
/home/rahulmahadev/hikey_optee/optee_os/lib/libutee/tee_api_operations.c:502
    3228:	b900327f 	str	wzr, [x19,#48]
/home/rahulmahadev/hikey_optee/optee_os/lib/libutee/tee_api_operations.c:504
    322c:	7100141f 	cmp	w0, #0x5
    3230:	540002a1 	b.ne	3284 <TEE_ResetOperation+0xd4>
/home/rahulmahadev/hikey_optee/optee_os/lib/libutee/tee_api_operations.c:505
    3234:	b9405a60 	ldr	w0, [x19,#88]
    3238:	d2800002 	mov	x2, #0x0                   	// #0
    323c:	d2800001 	mov	x1, #0x0                   	// #0
    3240:	9400233d 	bl	bf34 <utee_hash_init>
    3244:	2a0003f4 	mov	w20, w0
/home/rahulmahadev/hikey_optee/optee_os/lib/libutee/tee_api_operations.c:506
    3248:	34000180 	cbz	w0, 3278 <TEE_ResetOperation+0xc8>
/home/rahulmahadev/hikey_optee/optee_os/lib/libutee/tee_api_operations.c:507
    324c:	2a0003e5 	mov	w5, w0
    3250:	d0000044 	adrp	x4, d000 <PRIME_TABLE+0x388>
    3254:	b0000040 	adrp	x0, c000 <utee_authenc_update_aad>
    3258:	91235c84 	add	x4, x4, #0x8d7
    325c:	911e4000 	add	x0, x0, #0x790
    3260:	52800023 	mov	w3, #0x1                   	// #1
    3264:	52800022 	mov	w2, #0x1                   	// #1
    3268:	52803f61 	mov	w1, #0x1fb                 	// #507
    326c:	9400132b 	bl	7f18 <trace_printf>
    3270:	2a1403e0 	mov	w0, w20
    3274:	94000849 	bl	5398 <__TEE_Panic>
/home/rahulmahadev/hikey_optee/optee_os/lib/libutee/tee_api_operations.c:508
    3278:	b9401e60 	ldr	w0, [x19,#28]
    327c:	320f0000 	orr	w0, w0, #0x20000
    3280:	14000003 	b	328c <TEE_ResetOperation+0xdc>
/home/rahulmahadev/hikey_optee/optee_os/lib/libutee/tee_api_operations.c:510
    3284:	b9401e60 	ldr	w0, [x19,#28]
    3288:	120e7800 	and	w0, w0, #0xfffdffff
    328c:	b9001e60 	str	w0, [x19,#28]
/home/rahulmahadev/hikey_optee/optee_os/lib/libutee/tee_api_operations.c:512
    3290:	a94153f3 	ldp	x19, x20, [sp,#16]
    3294:	a8c27bfd 	ldp	x29, x30, [sp],#32
    3298:	d65f03c0 	ret

000000000000329c <TEE_SetOperationKey>:
TEE_SetOperationKey():
/home/rahulmahadev/hikey_optee/optee_os/lib/libutee/tee_api_operations.c:516
    329c:	a9bb7bfd 	stp	x29, x30, [sp,#-80]!
    32a0:	910003fd 	mov	x29, sp
    32a4:	a90153f3 	stp	x19, x20, [sp,#16]
    32a8:	a9025bf5 	stp	x21, x22, [sp,#32]
    32ac:	aa0003f3 	mov	x19, x0
    32b0:	aa0103f5 	mov	x21, x1
/home/rahulmahadev/hikey_optee/optee_os/lib/libutee/tee_api_operations.c:521
    32b4:	b40000c0 	cbz	x0, 32cc <TEE_SetOperationKey+0x30>
/home/rahulmahadev/hikey_optee/optee_os/lib/libutee/tee_api_operations.c:526
    32b8:	b9403000 	ldr	w0, [x0,#48]
    32bc:	35000080 	cbnz	w0, 32cc <TEE_SetOperationKey+0x30>
/home/rahulmahadev/hikey_optee/optee_os/lib/libutee/tee_api_operations.c:531
    32c0:	b50000a1 	cbnz	x1, 32d4 <TEE_SetOperationKey+0x38>
/home/rahulmahadev/hikey_optee/optee_os/lib/libutee/tee_api_operations.c:533
    32c4:	f9401260 	ldr	x0, [x19,#32]
    32c8:	97fff8a1 	bl	154c <TEE_ResetTransientObject>
/home/rahulmahadev/hikey_optee/optee_os/lib/libutee/tee_api_operations.c:534
    32cc:	129fff34 	mov	w20, #0xffff0006            	// #-65530
/home/rahulmahadev/hikey_optee/optee_os/lib/libutee/tee_api_operations.c:535
    32d0:	14000022 	b	3358 <TEE_SetOperationKey+0xbc>
/home/rahulmahadev/hikey_optee/optee_os/lib/libutee/tee_api_operations.c:539
    32d4:	b9400660 	ldr	w0, [x19,#4]
    32d8:	7100141f 	cmp	w0, #0x5
    32dc:	54ffff80 	b.eq	32cc <TEE_SetOperationKey+0x30>
/home/rahulmahadev/hikey_optee/optee_os/lib/libutee/tee_api_operations.c:545
    32e0:	b9401e60 	ldr	w0, [x19,#28]
    32e4:	379fff40 	tbnz	w0, #19, 32cc <TEE_SetOperationKey+0x30>
/home/rahulmahadev/hikey_optee/optee_os/lib/libutee/tee_api_operations.c:551
    32e8:	9100c3a1 	add	x1, x29, #0x30
    32ec:	aa1503e0 	mov	x0, x21
    32f0:	97fff768 	bl	1090 <TEE_GetObjectInfo1>
    32f4:	2a0003f4 	mov	w20, w0
/home/rahulmahadev/hikey_optee/optee_os/lib/libutee/tee_api_operations.c:553
    32f8:	35000300 	cbnz	w0, 3358 <TEE_SetOperationKey+0xbc>
/home/rahulmahadev/hikey_optee/optee_os/lib/libutee/tee_api_operations.c:557
    32fc:	b9401a61 	ldr	w1, [x19,#24]
    3300:	b9403fa0 	ldr	w0, [x29,#60]
    3304:	0a000020 	and	w0, w1, w0
    3308:	6b01001f 	cmp	w0, w1
    330c:	54fffe01 	b.ne	32cc <TEE_SetOperationKey+0x30>
/home/rahulmahadev/hikey_optee/optee_os/lib/libutee/tee_api_operations.c:563
    3310:	b94037b6 	ldr	w22, [x29,#52]
    3314:	b9401260 	ldr	w0, [x19,#16]
    3318:	6b16001f 	cmp	w0, w22
    331c:	54fffd83 	b.cc	32cc <TEE_SetOperationKey+0x30>
/home/rahulmahadev/hikey_optee/optee_os/lib/libutee/tee_api_operations.c:570
    3320:	f9401260 	ldr	x0, [x19,#32]
    3324:	97fff88a 	bl	154c <TEE_ResetTransientObject>
/home/rahulmahadev/hikey_optee/optee_os/lib/libutee/tee_api_operations.c:571
    3328:	b9401e60 	ldr	w0, [x19,#28]
/home/rahulmahadev/hikey_optee/optee_os/lib/libutee/tee_api_operations.c:573
    332c:	aa1503e1 	mov	x1, x21
/home/rahulmahadev/hikey_optee/optee_os/lib/libutee/tee_api_operations.c:571
    3330:	120d7800 	and	w0, w0, #0xfffbffff
    3334:	b9001e60 	str	w0, [x19,#28]
/home/rahulmahadev/hikey_optee/optee_os/lib/libutee/tee_api_operations.c:573
    3338:	f9401260 	ldr	x0, [x19,#32]
    333c:	97fff95a 	bl	18a4 <TEE_CopyObjectAttributes1>
    3340:	2a0003f4 	mov	w20, w0
/home/rahulmahadev/hikey_optee/optee_os/lib/libutee/tee_api_operations.c:574
    3344:	350000a0 	cbnz	w0, 3358 <TEE_SetOperationKey+0xbc>
/home/rahulmahadev/hikey_optee/optee_os/lib/libutee/tee_api_operations.c:577
    3348:	b9401e60 	ldr	w0, [x19,#28]
/home/rahulmahadev/hikey_optee/optee_os/lib/libutee/tee_api_operations.c:579
    334c:	b9001676 	str	w22, [x19,#20]
/home/rahulmahadev/hikey_optee/optee_os/lib/libutee/tee_api_operations.c:577
    3350:	320e0000 	orr	w0, w0, #0x40000
    3354:	b9001e60 	str	w0, [x19,#28]
/home/rahulmahadev/hikey_optee/optee_os/lib/libutee/tee_api_operations.c:583
    3358:	52800021 	mov	w1, #0x1                   	// #1
    335c:	121e7a80 	and	w0, w20, #0xfffffffd
    3360:	72be0201 	movk	w1, #0xf010, lsl #16
    3364:	6b01001f 	cmp	w0, w1
    3368:	540001a0 	b.eq	339c <TEE_SetOperationKey+0x100>
    336c:	34000194 	cbz	w20, 339c <TEE_SetOperationKey+0x100>
/home/rahulmahadev/hikey_optee/optee_os/lib/libutee/tee_api_operations.c:585
    3370:	d0000044 	adrp	x4, d000 <PRIME_TABLE+0x388>
    3374:	b0000040 	adrp	x0, c000 <utee_authenc_update_aad>
    3378:	911f4000 	add	x0, x0, #0x7d0
    337c:	52800005 	mov	w5, #0x0                   	// #0
    3380:	91235c84 	add	x4, x4, #0x8d7
    3384:	52800023 	mov	w3, #0x1                   	// #1
    3388:	52800022 	mov	w2, #0x1                   	// #1
    338c:	52804921 	mov	w1, #0x249                 	// #585
    3390:	940012e2 	bl	7f18 <trace_printf>
    3394:	52800000 	mov	w0, #0x0                   	// #0
    3398:	94000800 	bl	5398 <__TEE_Panic>
/home/rahulmahadev/hikey_optee/optee_os/lib/libutee/tee_api_operations.c:588
    339c:	2a1403e0 	mov	w0, w20
    33a0:	a94153f3 	ldp	x19, x20, [sp,#16]
    33a4:	a9425bf5 	ldp	x21, x22, [sp,#32]
    33a8:	a8c57bfd 	ldp	x29, x30, [sp],#80
    33ac:	d65f03c0 	ret

00000000000033b0 <TEE_SetOperationKey2>:
TEE_SetOperationKey2():
/home/rahulmahadev/hikey_optee/optee_os/lib/libutee/tee_api_operations.c:592
    33b0:	a9b87bfd 	stp	x29, x30, [sp,#-128]!
    33b4:	910003fd 	mov	x29, sp
    33b8:	a9025bf5 	stp	x21, x22, [sp,#32]
    33bc:	a90153f3 	stp	x19, x20, [sp,#16]
    33c0:	f9001bf7 	str	x23, [sp,#48]
    33c4:	aa0003f3 	mov	x19, x0
    33c8:	aa0103f6 	mov	x22, x1
    33cc:	aa0203f5 	mov	x21, x2
/home/rahulmahadev/hikey_optee/optee_os/lib/libutee/tee_api_operations.c:598
    33d0:	b40001e0 	cbz	x0, 340c <TEE_SetOperationKey2+0x5c>
/home/rahulmahadev/hikey_optee/optee_os/lib/libutee/tee_api_operations.c:603
    33d4:	b9403000 	ldr	w0, [x0,#48]
    33d8:	350001a0 	cbnz	w0, 340c <TEE_SetOperationKey2+0x5c>
/home/rahulmahadev/hikey_optee/optee_os/lib/libutee/tee_api_operations.c:612
    33dc:	eb1f003f 	cmp	x1, xzr
    33e0:	1a9f17e0 	cset	w0, eq
    33e4:	eb1f005f 	cmp	x2, xzr
    33e8:	1a9f17f4 	cset	w20, eq
    33ec:	35000060 	cbnz	w0, 33f8 <TEE_SetOperationKey2+0x48>
    33f0:	34000134 	cbz	w20, 3414 <TEE_SetOperationKey2+0x64>
    33f4:	14000003 	b	3400 <TEE_SetOperationKey2+0x50>
/home/rahulmahadev/hikey_optee/optee_os/lib/libutee/tee_api_operations.c:615
    33f8:	f9401260 	ldr	x0, [x19,#32]
    33fc:	97fff854 	bl	154c <TEE_ResetTransientObject>
/home/rahulmahadev/hikey_optee/optee_os/lib/libutee/tee_api_operations.c:617
    3400:	34000074 	cbz	w20, 340c <TEE_SetOperationKey2+0x5c>
/home/rahulmahadev/hikey_optee/optee_os/lib/libutee/tee_api_operations.c:618
    3404:	f9401660 	ldr	x0, [x19,#40]
    3408:	97fff851 	bl	154c <TEE_ResetTransientObject>
/home/rahulmahadev/hikey_optee/optee_os/lib/libutee/tee_api_operations.c:619
    340c:	129fff34 	mov	w20, #0xffff0006            	// #-65530
    3410:	14000043 	b	351c <TEE_SetOperationKey2+0x16c>
/home/rahulmahadev/hikey_optee/optee_os/lib/libutee/tee_api_operations.c:624
    3414:	b9400660 	ldr	w0, [x19,#4]
    3418:	7100141f 	cmp	w0, #0x5
    341c:	54ffff80 	b.eq	340c <TEE_SetOperationKey2+0x5c>
/home/rahulmahadev/hikey_optee/optee_os/lib/libutee/tee_api_operations.c:630
    3420:	b9401e60 	ldr	w0, [x19,#28]
    3424:	369fff40 	tbz	w0, #19, 340c <TEE_SetOperationKey2+0x5c>
/home/rahulmahadev/hikey_optee/optee_os/lib/libutee/tee_api_operations.c:636
    3428:	910103a1 	add	x1, x29, #0x40
    342c:	aa1603e0 	mov	x0, x22
    3430:	97fff718 	bl	1090 <TEE_GetObjectInfo1>
    3434:	2a0003f4 	mov	w20, w0
/home/rahulmahadev/hikey_optee/optee_os/lib/libutee/tee_api_operations.c:638
    3438:	35000720 	cbnz	w0, 351c <TEE_SetOperationKey2+0x16c>
/home/rahulmahadev/hikey_optee/optee_os/lib/libutee/tee_api_operations.c:642
    343c:	b9401a61 	ldr	w1, [x19,#24]
    3440:	b9404fa0 	ldr	w0, [x29,#76]
    3444:	0a000020 	and	w0, w1, w0
    3448:	6b01001f 	cmp	w0, w1
    344c:	54fffe01 	b.ne	340c <TEE_SetOperationKey2+0x5c>
/home/rahulmahadev/hikey_optee/optee_os/lib/libutee/tee_api_operations.c:648
    3450:	910183a1 	add	x1, x29, #0x60
    3454:	aa1503e0 	mov	x0, x21
    3458:	97fff70e 	bl	1090 <TEE_GetObjectInfo1>
    345c:	2a0003f4 	mov	w20, w0
/home/rahulmahadev/hikey_optee/optee_os/lib/libutee/tee_api_operations.c:650
    3460:	34000100 	cbz	w0, 3480 <TEE_SetOperationKey2+0xd0>
/home/rahulmahadev/hikey_optee/optee_os/lib/libutee/tee_api_operations.c:651
    3464:	52800020 	mov	w0, #0x1                   	// #1
    3468:	72be0200 	movk	w0, #0xf010, lsl #16
    346c:	6b00029f 	cmp	w20, w0
    3470:	54000561 	b.ne	351c <TEE_SetOperationKey2+0x16c>
/home/rahulmahadev/hikey_optee/optee_os/lib/libutee/tee_api_operations.c:652
    3474:	52800054 	mov	w20, #0x2                   	// #2
    3478:	72be0214 	movk	w20, #0xf010, lsl #16
    347c:	14000028 	b	351c <TEE_SetOperationKey2+0x16c>
/home/rahulmahadev/hikey_optee/optee_os/lib/libutee/tee_api_operations.c:657
    3480:	b9401a61 	ldr	w1, [x19,#24]
    3484:	b9406fa0 	ldr	w0, [x29,#108]
    3488:	0a000020 	and	w0, w1, w0
    348c:	6b01001f 	cmp	w0, w1
    3490:	54fffbe1 	b.ne	340c <TEE_SetOperationKey2+0x5c>
/home/rahulmahadev/hikey_optee/optee_os/lib/libutee/tee_api_operations.c:667
    3494:	52808200 	mov	w0, #0x410                 	// #1040
    3498:	b9400261 	ldr	w1, [x19]
    349c:	72a20000 	movk	w0, #0x1000, lsl #16
    34a0:	6b00003f 	cmp	w1, w0
    34a4:	540000a1 	b.ne	34b8 <TEE_SetOperationKey2+0x108>
/home/rahulmahadev/hikey_optee/optee_os/lib/libutee/tee_api_operations.c:667 (discriminator 1)
    34a8:	b94067a0 	ldr	w0, [x29,#100]
    34ac:	b94047a1 	ldr	w1, [x29,#68]
    34b0:	6b00003f 	cmp	w1, w0
    34b4:	54fffac1 	b.ne	340c <TEE_SetOperationKey2+0x5c>
/home/rahulmahadev/hikey_optee/optee_os/lib/libutee/tee_api_operations.c:674
    34b8:	b94047b7 	ldr	w23, [x29,#68]
    34bc:	b9401260 	ldr	w0, [x19,#16]
    34c0:	6b17001f 	cmp	w0, w23
    34c4:	54fffa43 	b.cc	340c <TEE_SetOperationKey2+0x5c>
/home/rahulmahadev/hikey_optee/optee_os/lib/libutee/tee_api_operations.c:685
    34c8:	f9401260 	ldr	x0, [x19,#32]
    34cc:	97fff820 	bl	154c <TEE_ResetTransientObject>
/home/rahulmahadev/hikey_optee/optee_os/lib/libutee/tee_api_operations.c:686
    34d0:	f9401660 	ldr	x0, [x19,#40]
    34d4:	97fff81e 	bl	154c <TEE_ResetTransientObject>
/home/rahulmahadev/hikey_optee/optee_os/lib/libutee/tee_api_operations.c:687
    34d8:	b9401e60 	ldr	w0, [x19,#28]
/home/rahulmahadev/hikey_optee/optee_os/lib/libutee/tee_api_operations.c:689
    34dc:	aa1603e1 	mov	x1, x22
/home/rahulmahadev/hikey_optee/optee_os/lib/libutee/tee_api_operations.c:687
    34e0:	120d7800 	and	w0, w0, #0xfffbffff
    34e4:	b9001e60 	str	w0, [x19,#28]
/home/rahulmahadev/hikey_optee/optee_os/lib/libutee/tee_api_operations.c:689
    34e8:	f9401260 	ldr	x0, [x19,#32]
    34ec:	97fff8ee 	bl	18a4 <TEE_CopyObjectAttributes1>
    34f0:	2a0003f4 	mov	w20, w0
/home/rahulmahadev/hikey_optee/optee_os/lib/libutee/tee_api_operations.c:690
    34f4:	35000140 	cbnz	w0, 351c <TEE_SetOperationKey2+0x16c>
/home/rahulmahadev/hikey_optee/optee_os/lib/libutee/tee_api_operations.c:693
    34f8:	f9401660 	ldr	x0, [x19,#40]
    34fc:	aa1503e1 	mov	x1, x21
    3500:	97fff8e9 	bl	18a4 <TEE_CopyObjectAttributes1>
    3504:	2a0003f4 	mov	w20, w0
/home/rahulmahadev/hikey_optee/optee_os/lib/libutee/tee_api_operations.c:694
    3508:	35fffae0 	cbnz	w0, 3464 <TEE_SetOperationKey2+0xb4>
/home/rahulmahadev/hikey_optee/optee_os/lib/libutee/tee_api_operations.c:700
    350c:	b9401e60 	ldr	w0, [x19,#28]
/home/rahulmahadev/hikey_optee/optee_os/lib/libutee/tee_api_operations.c:702
    3510:	b9001677 	str	w23, [x19,#20]
/home/rahulmahadev/hikey_optee/optee_os/lib/libutee/tee_api_operations.c:700
    3514:	320e0000 	orr	w0, w0, #0x40000
    3518:	b9001e60 	str	w0, [x19,#28]
/home/rahulmahadev/hikey_optee/optee_os/lib/libutee/tee_api_operations.c:706
    351c:	12be0200 	mov	w0, #0xfefffff             	// #267386879
    3520:	0b000280 	add	w0, w20, w0
/home/rahulmahadev/hikey_optee/optee_os/lib/libutee/tee_api_operations.c:705
    3524:	71000c1f 	cmp	w0, #0x3
    3528:	540001a9 	b.ls	355c <TEE_SetOperationKey2+0x1ac>
    352c:	34000194 	cbz	w20, 355c <TEE_SetOperationKey2+0x1ac>
/home/rahulmahadev/hikey_optee/optee_os/lib/libutee/tee_api_operations.c:710
    3530:	d0000044 	adrp	x4, d000 <PRIME_TABLE+0x388>
    3534:	b0000040 	adrp	x0, c000 <utee_authenc_update_aad>
    3538:	911ee000 	add	x0, x0, #0x7b8
    353c:	52800005 	mov	w5, #0x0                   	// #0
    3540:	91235c84 	add	x4, x4, #0x8d7
    3544:	52800023 	mov	w3, #0x1                   	// #1
    3548:	52800022 	mov	w2, #0x1                   	// #1
    354c:	528058c1 	mov	w1, #0x2c6                 	// #710
    3550:	94001272 	bl	7f18 <trace_printf>
    3554:	52800000 	mov	w0, #0x0                   	// #0
    3558:	94000790 	bl	5398 <__TEE_Panic>
/home/rahulmahadev/hikey_optee/optee_os/lib/libutee/tee_api_operations.c:713
    355c:	2a1403e0 	mov	w0, w20
    3560:	f9401bf7 	ldr	x23, [sp,#48]
    3564:	a94153f3 	ldp	x19, x20, [sp,#16]
    3568:	a9425bf5 	ldp	x21, x22, [sp,#32]
    356c:	a8c87bfd 	ldp	x29, x30, [sp],#128
    3570:	d65f03c0 	ret

0000000000003574 <TEE_CopyOperation>:
TEE_CopyOperation():
/home/rahulmahadev/hikey_optee/optee_os/lib/libutee/tee_api_operations.c:716
    3574:	a9be7bfd 	stp	x29, x30, [sp,#-32]!
    3578:	910003fd 	mov	x29, sp
    357c:	a90153f3 	stp	x19, x20, [sp,#16]
    3580:	aa0003f4 	mov	x20, x0
    3584:	aa0103f3 	mov	x19, x1
/home/rahulmahadev/hikey_optee/optee_os/lib/libutee/tee_api_operations.c:719
    3588:	b4000040 	cbz	x0, 3590 <TEE_CopyOperation+0x1c>
    358c:	b5000181 	cbnz	x1, 35bc <TEE_CopyOperation+0x48>
/home/rahulmahadev/hikey_optee/optee_os/lib/libutee/tee_api_operations.c:720
    3590:	d0000044 	adrp	x4, d000 <PRIME_TABLE+0x388>
    3594:	b0000040 	adrp	x0, c000 <utee_authenc_update_aad>
    3598:	91210000 	add	x0, x0, #0x840
    359c:	52800005 	mov	w5, #0x0                   	// #0
    35a0:	91235c84 	add	x4, x4, #0x8d7
    35a4:	52800023 	mov	w3, #0x1                   	// #1
    35a8:	52800022 	mov	w2, #0x1                   	// #1
    35ac:	52805a01 	mov	w1, #0x2d0                 	// #720
    35b0:	9400125a 	bl	7f18 <trace_printf>
    35b4:	52800000 	mov	w0, #0x0                   	// #0
    35b8:	94000778 	bl	5398 <__TEE_Panic>
/home/rahulmahadev/hikey_optee/optee_os/lib/libutee/tee_api_operations.c:721
    35bc:	b9400281 	ldr	w1, [x20]
    35c0:	b9400260 	ldr	w0, [x19]
    35c4:	6b00003f 	cmp	w1, w0
    35c8:	54000180 	b.eq	35f8 <TEE_CopyOperation+0x84>
/home/rahulmahadev/hikey_optee/optee_os/lib/libutee/tee_api_operations.c:722
    35cc:	d0000044 	adrp	x4, d000 <PRIME_TABLE+0x388>
    35d0:	b0000040 	adrp	x0, c000 <utee_authenc_update_aad>
    35d4:	91210000 	add	x0, x0, #0x840
    35d8:	52800005 	mov	w5, #0x0                   	// #0
    35dc:	91235c84 	add	x4, x4, #0x8d7
    35e0:	52800023 	mov	w3, #0x1                   	// #1
    35e4:	52800022 	mov	w2, #0x1                   	// #1
    35e8:	52805a41 	mov	w1, #0x2d2                 	// #722
    35ec:	9400124b 	bl	7f18 <trace_printf>
    35f0:	52800000 	mov	w0, #0x0                   	// #0
    35f4:	94000769 	bl	5398 <__TEE_Panic>
/home/rahulmahadev/hikey_optee/optee_os/lib/libutee/tee_api_operations.c:723
    35f8:	b9400660 	ldr	w0, [x19,#4]
    35fc:	7100141f 	cmp	w0, #0x5
    3600:	540001c0 	b.eq	3638 <TEE_CopyOperation+0xc4>
/home/rahulmahadev/hikey_optee/optee_os/lib/libutee/tee_api_operations.c:727
    3604:	b9401e60 	ldr	w0, [x19,#28]
    3608:	36900080 	tbz	w0, #18, 3618 <TEE_CopyOperation+0xa4>
/home/rahulmahadev/hikey_optee/optee_os/lib/libutee/tee_api_operations.c:728
    360c:	f9401261 	ldr	x1, [x19,#32]
/home/rahulmahadev/hikey_optee/optee_os/lib/libutee/tee_api_operations.c:729
    3610:	f9401662 	ldr	x2, [x19,#40]
    3614:	14000003 	b	3620 <TEE_CopyOperation+0xac>
/home/rahulmahadev/hikey_optee/optee_os/lib/libutee/tee_api_operations.c:725
    3618:	d2800002 	mov	x2, #0x0                   	// #0
/home/rahulmahadev/hikey_optee/optee_os/lib/libutee/tee_api_operations.c:724
    361c:	d2800001 	mov	x1, #0x0                   	// #0
/home/rahulmahadev/hikey_optee/optee_os/lib/libutee/tee_api_operations.c:732
    3620:	37980080 	tbnz	w0, #19, 3630 <TEE_CopyOperation+0xbc>
/home/rahulmahadev/hikey_optee/optee_os/lib/libutee/tee_api_operations.c:734
    3624:	aa1403e0 	mov	x0, x20
    3628:	97ffff1d 	bl	329c <TEE_SetOperationKey>
    362c:	14000003 	b	3638 <TEE_CopyOperation+0xc4>
/home/rahulmahadev/hikey_optee/optee_os/lib/libutee/tee_api_operations.c:736
    3630:	aa1403e0 	mov	x0, x20
    3634:	97ffff5f 	bl	33b0 <TEE_SetOperationKey2>
/home/rahulmahadev/hikey_optee/optee_os/lib/libutee/tee_api_operations.c:739
    3638:	b9401e60 	ldr	w0, [x19,#28]
    363c:	b9001e80 	str	w0, [x20,#28]
/home/rahulmahadev/hikey_optee/optee_os/lib/libutee/tee_api_operations.c:740
    3640:	b9401660 	ldr	w0, [x19,#20]
    3644:	b9001680 	str	w0, [x20,#20]
/home/rahulmahadev/hikey_optee/optee_os/lib/libutee/tee_api_operations.c:741
    3648:	b9403260 	ldr	w0, [x19,#48]
    364c:	b9003280 	str	w0, [x20,#48]
/home/rahulmahadev/hikey_optee/optee_os/lib/libutee/tee_api_operations.c:743
    3650:	39410281 	ldrb	w1, [x20,#64]
    3654:	39410260 	ldrb	w0, [x19,#64]
    3658:	6b00003f 	cmp	w1, w0
    365c:	540000a1 	b.ne	3670 <TEE_CopyOperation+0xfc>
/home/rahulmahadev/hikey_optee/optee_os/lib/libutee/tee_api_operations.c:743 (discriminator 1)
    3660:	f9402681 	ldr	x1, [x20,#72]
    3664:	f9402660 	ldr	x0, [x19,#72]
    3668:	eb00003f 	cmp	x1, x0
    366c:	54000180 	b.eq	369c <TEE_CopyOperation+0x128>
/home/rahulmahadev/hikey_optee/optee_os/lib/libutee/tee_api_operations.c:745
    3670:	d0000044 	adrp	x4, d000 <PRIME_TABLE+0x388>
    3674:	b0000040 	adrp	x0, c000 <utee_authenc_update_aad>
    3678:	91210000 	add	x0, x0, #0x840
    367c:	52800005 	mov	w5, #0x0                   	// #0
    3680:	91235c84 	add	x4, x4, #0x8d7
    3684:	52800023 	mov	w3, #0x1                   	// #1
    3688:	52800022 	mov	w2, #0x1                   	// #1
    368c:	52805d21 	mov	w1, #0x2e9                 	// #745
    3690:	94001222 	bl	7f18 <trace_printf>
    3694:	52800000 	mov	w0, #0x0                   	// #0
    3698:	94000740 	bl	5398 <__TEE_Panic>
/home/rahulmahadev/hikey_optee/optee_os/lib/libutee/tee_api_operations.c:747
    369c:	f9401e80 	ldr	x0, [x20,#56]
    36a0:	b40002a0 	cbz	x0, 36f4 <TEE_CopyOperation+0x180>
/home/rahulmahadev/hikey_optee/optee_os/lib/libutee/tee_api_operations.c:748
    36a4:	f9401e60 	ldr	x0, [x19,#56]
    36a8:	b5000180 	cbnz	x0, 36d8 <TEE_CopyOperation+0x164>
/home/rahulmahadev/hikey_optee/optee_os/lib/libutee/tee_api_operations.c:749
    36ac:	d0000044 	adrp	x4, d000 <PRIME_TABLE+0x388>
    36b0:	b0000040 	adrp	x0, c000 <utee_authenc_update_aad>
    36b4:	91210000 	add	x0, x0, #0x840
    36b8:	52800005 	mov	w5, #0x0                   	// #0
    36bc:	91235c84 	add	x4, x4, #0x8d7
    36c0:	52800023 	mov	w3, #0x1                   	// #1
    36c4:	52800022 	mov	w2, #0x1                   	// #1
    36c8:	52805da1 	mov	w1, #0x2ed                 	// #749
    36cc:	94001213 	bl	7f18 <trace_printf>
    36d0:	52800000 	mov	w0, #0x0                   	// #0
    36d4:	94000731 	bl	5398 <__TEE_Panic>
/home/rahulmahadev/hikey_optee/optee_os/lib/libutee/tee_api_operations.c:751
    36d8:	f9402a62 	ldr	x2, [x19,#80]
    36dc:	f9401e61 	ldr	x1, [x19,#56]
    36e0:	f9401e80 	ldr	x0, [x20,#56]
    36e4:	94000eaf 	bl	71a0 <memcpy>
/home/rahulmahadev/hikey_optee/optee_os/lib/libutee/tee_api_operations.c:752
    36e8:	f9402a60 	ldr	x0, [x19,#80]
    36ec:	f9002a80 	str	x0, [x20,#80]
    36f0:	1400000e 	b	3728 <TEE_CopyOperation+0x1b4>
/home/rahulmahadev/hikey_optee/optee_os/lib/libutee/tee_api_operations.c:753
    36f4:	f9401e60 	ldr	x0, [x19,#56]
    36f8:	b4000180 	cbz	x0, 3728 <TEE_CopyOperation+0x1b4>
/home/rahulmahadev/hikey_optee/optee_os/lib/libutee/tee_api_operations.c:754
    36fc:	d0000044 	adrp	x4, d000 <PRIME_TABLE+0x388>
    3700:	b0000040 	adrp	x0, c000 <utee_authenc_update_aad>
    3704:	91210000 	add	x0, x0, #0x840
    3708:	52800005 	mov	w5, #0x0                   	// #0
    370c:	91235c84 	add	x4, x4, #0x8d7
    3710:	52800023 	mov	w3, #0x1                   	// #1
    3714:	52800022 	mov	w2, #0x1                   	// #1
    3718:	52805e41 	mov	w1, #0x2f2                 	// #754
    371c:	940011ff 	bl	7f18 <trace_printf>
    3720:	52800000 	mov	w0, #0x0                   	// #0
    3724:	9400071d 	bl	5398 <__TEE_Panic>
/home/rahulmahadev/hikey_optee/optee_os/lib/libutee/tee_api_operations.c:757
    3728:	b9405a61 	ldr	w1, [x19,#88]
    372c:	b9405a80 	ldr	w0, [x20,#88]
    3730:	940021fb 	bl	bf1c <utee_cryp_state_copy>
    3734:	2a0003f3 	mov	w19, w0
/home/rahulmahadev/hikey_optee/optee_os/lib/libutee/tee_api_operations.c:758
    3738:	340001c0 	cbz	w0, 3770 <TEE_CopyOperation+0x1fc>
/home/rahulmahadev/hikey_optee/optee_os/lib/libutee/tee_api_operations.c:759
    373c:	2a0003e5 	mov	w5, w0
    3740:	d0000044 	adrp	x4, d000 <PRIME_TABLE+0x388>
    3744:	b0000040 	adrp	x0, c000 <utee_authenc_update_aad>
    3748:	91235c84 	add	x4, x4, #0x8d7
    374c:	52800023 	mov	w3, #0x1                   	// #1
    3750:	52800022 	mov	w2, #0x1                   	// #1
    3754:	52805ee1 	mov	w1, #0x2f7                 	// #759
    3758:	91210000 	add	x0, x0, #0x840
    375c:	940011ef 	bl	7f18 <trace_printf>
    3760:	2a1303e0 	mov	w0, w19
/home/rahulmahadev/hikey_optee/optee_os/lib/libutee/tee_api_operations.c:760
    3764:	a94153f3 	ldp	x19, x20, [sp,#16]
    3768:	a8c27bfd 	ldp	x29, x30, [sp],#32
/home/rahulmahadev/hikey_optee/optee_os/lib/libutee/tee_api_operations.c:759
    376c:	1400070b 	b	5398 <__TEE_Panic>
/home/rahulmahadev/hikey_optee/optee_os/lib/libutee/tee_api_operations.c:760
    3770:	a94153f3 	ldp	x19, x20, [sp,#16]
    3774:	a8c27bfd 	ldp	x29, x30, [sp],#32
    3778:	d65f03c0 	ret

000000000000377c <TEE_DigestUpdate>:
TEE_DigestUpdate():
/home/rahulmahadev/hikey_optee/optee_os/lib/libutee/tee_api_operations.c:782
    377c:	a9bd7bfd 	stp	x29, x30, [sp,#-48]!
    3780:	910003fd 	mov	x29, sp
    3784:	a9025bf5 	stp	x21, x22, [sp,#32]
    3788:	a90153f3 	stp	x19, x20, [sp,#16]
    378c:	aa0103f5 	mov	x21, x1
    3790:	aa0003f3 	mov	x19, x0
    3794:	2a0203f6 	mov	w22, w2
/home/rahulmahadev/hikey_optee/optee_os/lib/libutee/tee_api_operations.c:785
    3798:	b4000080 	cbz	x0, 37a8 <TEE_DigestUpdate+0x2c>
/home/rahulmahadev/hikey_optee/optee_os/lib/libutee/tee_api_operations.c:785 (discriminator 1)
    379c:	b9400400 	ldr	w0, [x0,#4]
    37a0:	7100141f 	cmp	w0, #0x5
    37a4:	54000180 	b.eq	37d4 <TEE_DigestUpdate+0x58>
/home/rahulmahadev/hikey_optee/optee_os/lib/libutee/tee_api_operations.c:787
    37a8:	d0000044 	adrp	x4, d000 <PRIME_TABLE+0x388>
    37ac:	b0000040 	adrp	x0, c000 <utee_authenc_update_aad>
    37b0:	91224000 	add	x0, x0, #0x890
    37b4:	52800005 	mov	w5, #0x0                   	// #0
    37b8:	91235c84 	add	x4, x4, #0x8d7
    37bc:	52800023 	mov	w3, #0x1                   	// #1
    37c0:	52800022 	mov	w2, #0x1                   	// #1
    37c4:	52806261 	mov	w1, #0x313                 	// #787
    37c8:	940011d4 	bl	7f18 <trace_printf>
    37cc:	52800000 	mov	w0, #0x0                   	// #0
    37d0:	940006f2 	bl	5398 <__TEE_Panic>
/home/rahulmahadev/hikey_optee/optee_os/lib/libutee/tee_api_operations.c:791
    37d4:	b9405a60 	ldr	w0, [x19,#88]
/home/rahulmahadev/hikey_optee/optee_os/lib/libutee/tee_api_operations.c:789
    37d8:	52800034 	mov	w20, #0x1                   	// #1
/home/rahulmahadev/hikey_optee/optee_os/lib/libutee/tee_api_operations.c:791
    37dc:	2a1603e2 	mov	w2, w22
/home/rahulmahadev/hikey_optee/optee_os/lib/libutee/tee_api_operations.c:789
    37e0:	b9003274 	str	w20, [x19,#48]
/home/rahulmahadev/hikey_optee/optee_os/lib/libutee/tee_api_operations.c:791
    37e4:	aa1503e1 	mov	x1, x21
    37e8:	940021d6 	bl	bf40 <utee_hash_update>
    37ec:	2a0003f3 	mov	w19, w0
/home/rahulmahadev/hikey_optee/optee_os/lib/libutee/tee_api_operations.c:792
    37f0:	340001e0 	cbz	w0, 382c <TEE_DigestUpdate+0xb0>
/home/rahulmahadev/hikey_optee/optee_os/lib/libutee/tee_api_operations.c:793
    37f4:	2a0003e5 	mov	w5, w0
    37f8:	d0000044 	adrp	x4, d000 <PRIME_TABLE+0x388>
    37fc:	b0000040 	adrp	x0, c000 <utee_authenc_update_aad>
    3800:	2a1403e3 	mov	w3, w20
    3804:	2a1403e2 	mov	w2, w20
    3808:	91235c84 	add	x4, x4, #0x8d7
    380c:	52806321 	mov	w1, #0x319                 	// #793
    3810:	91224000 	add	x0, x0, #0x890
    3814:	940011c1 	bl	7f18 <trace_printf>
    3818:	2a1303e0 	mov	w0, w19
/home/rahulmahadev/hikey_optee/optee_os/lib/libutee/tee_api_operations.c:794
    381c:	a9425bf5 	ldp	x21, x22, [sp,#32]
    3820:	a94153f3 	ldp	x19, x20, [sp,#16]
    3824:	a8c37bfd 	ldp	x29, x30, [sp],#48
/home/rahulmahadev/hikey_optee/optee_os/lib/libutee/tee_api_operations.c:793
    3828:	140006dc 	b	5398 <__TEE_Panic>
/home/rahulmahadev/hikey_optee/optee_os/lib/libutee/tee_api_operations.c:794
    382c:	a94153f3 	ldp	x19, x20, [sp,#16]
    3830:	a9425bf5 	ldp	x21, x22, [sp,#32]
    3834:	a8c37bfd 	ldp	x29, x30, [sp],#48
    3838:	d65f03c0 	ret

000000000000383c <TEE_DigestDoFinal>:
TEE_DigestDoFinal():
/home/rahulmahadev/hikey_optee/optee_os/lib/libutee/tee_api_operations.c:798
    383c:	a9bc7bfd 	stp	x29, x30, [sp,#-64]!
    3840:	910003fd 	mov	x29, sp
    3844:	a90153f3 	stp	x19, x20, [sp,#16]
    3848:	f90013f5 	str	x21, [sp,#32]
    384c:	aa0003f4 	mov	x20, x0
    3850:	aa0403f5 	mov	x21, x4
/home/rahulmahadev/hikey_optee/optee_os/lib/libutee/tee_api_operations.c:807
    3854:	129fff33 	mov	w19, #0xffff0006            	// #-65530
/home/rahulmahadev/hikey_optee/optee_os/lib/libutee/tee_api_operations.c:802
    3858:	b4000340 	cbz	x0, 38c0 <TEE_DigestDoFinal+0x84>
/home/rahulmahadev/hikey_optee/optee_os/lib/libutee/tee_api_operations.c:802 (discriminator 1)
    385c:	b5000041 	cbnz	x1, 3864 <TEE_DigestDoFinal+0x28>
    3860:	35000302 	cbnz	w2, 38c0 <TEE_DigestDoFinal+0x84>
/home/rahulmahadev/hikey_optee/optee_os/lib/libutee/tee_api_operations.c:804
    3864:	b40002c3 	cbz	x3, 38bc <TEE_DigestDoFinal+0x80>
    3868:	b40002b5 	cbz	x21, 38bc <TEE_DigestDoFinal+0x80>
/home/rahulmahadev/hikey_optee/optee_os/lib/libutee/tee_api_operations.c:805
    386c:	b9400680 	ldr	w0, [x20,#4]
/home/rahulmahadev/hikey_optee/optee_os/lib/libutee/tee_api_operations.c:807
    3870:	129fff33 	mov	w19, #0xffff0006            	// #-65530
/home/rahulmahadev/hikey_optee/optee_os/lib/libutee/tee_api_operations.c:805
    3874:	7100141f 	cmp	w0, #0x5
    3878:	54000241 	b.ne	38c0 <TEE_DigestDoFinal+0x84>
/home/rahulmahadev/hikey_optee/optee_os/lib/libutee/tee_api_operations.c:811
    387c:	910103a4 	add	x4, x29, #0x40
    3880:	b94002a0 	ldr	w0, [x21]
/home/rahulmahadev/hikey_optee/optee_os/lib/libutee/tee_api_operations.c:812
    3884:	2a0203e2 	mov	w2, w2
/home/rahulmahadev/hikey_optee/optee_os/lib/libutee/tee_api_operations.c:811
    3888:	f81f8c80 	str	x0, [x4,#-8]!
/home/rahulmahadev/hikey_optee/optee_os/lib/libutee/tee_api_operations.c:812
    388c:	b9405a80 	ldr	w0, [x20,#88]
    3890:	940021af 	bl	bf4c <utee_hash_final>
    3894:	2a0003f3 	mov	w19, w0
/home/rahulmahadev/hikey_optee/optee_os/lib/libutee/tee_api_operations.c:813
    3898:	f9401fa0 	ldr	x0, [x29,#56]
    389c:	b90002a0 	str	w0, [x21]
/home/rahulmahadev/hikey_optee/optee_os/lib/libutee/tee_api_operations.c:814
    38a0:	35000113 	cbnz	w19, 38c0 <TEE_DigestDoFinal+0x84>
/home/rahulmahadev/hikey_optee/optee_os/lib/libutee/tee_api_operations.c:818
    38a4:	52800002 	mov	w2, #0x0                   	// #0
    38a8:	d2800001 	mov	x1, #0x0                   	// #0
    38ac:	aa1403e0 	mov	x0, x20
    38b0:	97fffa8c 	bl	22e0 <init_hash_operation>
/home/rahulmahadev/hikey_optee/optee_os/lib/libutee/tee_api_operations.c:820
    38b4:	b900329f 	str	wzr, [x20,#48]
    38b8:	14000002 	b	38c0 <TEE_DigestDoFinal+0x84>
/home/rahulmahadev/hikey_optee/optee_os/lib/libutee/tee_api_operations.c:807
    38bc:	129fff33 	mov	w19, #0xffff0006            	// #-65530
/home/rahulmahadev/hikey_optee/optee_os/lib/libutee/tee_api_operations.c:823
    38c0:	129ffde0 	mov	w0, #0xffff0010            	// #-65520
    38c4:	6b00027f 	cmp	w19, w0
    38c8:	540001a0 	b.eq	38fc <TEE_DigestDoFinal+0xc0>
    38cc:	34000193 	cbz	w19, 38fc <TEE_DigestDoFinal+0xc0>
/home/rahulmahadev/hikey_optee/optee_os/lib/libutee/tee_api_operations.c:825
    38d0:	d0000044 	adrp	x4, d000 <PRIME_TABLE+0x388>
    38d4:	b0000040 	adrp	x0, c000 <utee_authenc_update_aad>
    38d8:	911fa000 	add	x0, x0, #0x7e8
    38dc:	52800005 	mov	w5, #0x0                   	// #0
    38e0:	91235c84 	add	x4, x4, #0x8d7
    38e4:	52800023 	mov	w3, #0x1                   	// #1
    38e8:	52800022 	mov	w2, #0x1                   	// #1
    38ec:	52806721 	mov	w1, #0x339                 	// #825
    38f0:	9400118a 	bl	7f18 <trace_printf>
    38f4:	52800000 	mov	w0, #0x0                   	// #0
    38f8:	940006a8 	bl	5398 <__TEE_Panic>
/home/rahulmahadev/hikey_optee/optee_os/lib/libutee/tee_api_operations.c:828
    38fc:	2a1303e0 	mov	w0, w19
    3900:	f94013f5 	ldr	x21, [sp,#32]
    3904:	a94153f3 	ldp	x19, x20, [sp,#16]
    3908:	a8c47bfd 	ldp	x29, x30, [sp],#64
    390c:	d65f03c0 	ret

0000000000003910 <TEE_CipherInit>:
TEE_CipherInit():
/home/rahulmahadev/hikey_optee/optee_os/lib/libutee/tee_api_operations.c:833
    3910:	a9bd7bfd 	stp	x29, x30, [sp,#-48]!
    3914:	910003fd 	mov	x29, sp
    3918:	a90153f3 	stp	x19, x20, [sp,#16]
    391c:	a9025bf5 	stp	x21, x22, [sp,#32]
    3920:	aa0003f3 	mov	x19, x0
    3924:	aa0103f4 	mov	x20, x1
    3928:	2a0203f6 	mov	w22, w2
/home/rahulmahadev/hikey_optee/optee_os/lib/libutee/tee_api_operations.c:836
    392c:	b5000180 	cbnz	x0, 395c <TEE_CipherInit+0x4c>
/home/rahulmahadev/hikey_optee/optee_os/lib/libutee/tee_api_operations.c:837
    3930:	d0000044 	adrp	x4, d000 <PRIME_TABLE+0x388>
    3934:	b0000040 	adrp	x0, c000 <utee_authenc_update_aad>
    3938:	9120c000 	add	x0, x0, #0x830
    393c:	52800005 	mov	w5, #0x0                   	// #0
    3940:	91235c84 	add	x4, x4, #0x8d7
    3944:	52800023 	mov	w3, #0x1                   	// #1
    3948:	52800022 	mov	w2, #0x1                   	// #1
    394c:	528068a1 	mov	w1, #0x345                 	// #837
    3950:	94001172 	bl	7f18 <trace_printf>
    3954:	52800000 	mov	w0, #0x0                   	// #0
    3958:	94000690 	bl	5398 <__TEE_Panic>
/home/rahulmahadev/hikey_optee/optee_os/lib/libutee/tee_api_operations.c:839
    395c:	b9400660 	ldr	w0, [x19,#4]
    3960:	7100041f 	cmp	w0, #0x1
    3964:	54000180 	b.eq	3994 <TEE_CipherInit+0x84>
/home/rahulmahadev/hikey_optee/optee_os/lib/libutee/tee_api_operations.c:840
    3968:	d0000044 	adrp	x4, d000 <PRIME_TABLE+0x388>
    396c:	b0000040 	adrp	x0, c000 <utee_authenc_update_aad>
    3970:	9120c000 	add	x0, x0, #0x830
    3974:	52800005 	mov	w5, #0x0                   	// #0
    3978:	91235c84 	add	x4, x4, #0x8d7
    397c:	52800023 	mov	w3, #0x1                   	// #1
    3980:	52800022 	mov	w2, #0x1                   	// #1
    3984:	52806901 	mov	w1, #0x348                 	// #840
    3988:	94001164 	bl	7f18 <trace_printf>
    398c:	52800000 	mov	w0, #0x0                   	// #0
    3990:	94000682 	bl	5398 <__TEE_Panic>
/home/rahulmahadev/hikey_optee/optee_os/lib/libutee/tee_api_operations.c:842
    3994:	b9401e60 	ldr	w0, [x19,#28]
    3998:	36900060 	tbz	w0, #18, 39a4 <TEE_CipherInit+0x94>
/home/rahulmahadev/hikey_optee/optee_os/lib/libutee/tee_api_operations.c:842 (discriminator 1)
    399c:	f9401260 	ldr	x0, [x19,#32]
    39a0:	b5000180 	cbnz	x0, 39d0 <TEE_CipherInit+0xc0>
/home/rahulmahadev/hikey_optee/optee_os/lib/libutee/tee_api_operations.c:844
    39a4:	d0000044 	adrp	x4, d000 <PRIME_TABLE+0x388>
    39a8:	b0000040 	adrp	x0, c000 <utee_authenc_update_aad>
    39ac:	9120c000 	add	x0, x0, #0x830
    39b0:	52800005 	mov	w5, #0x0                   	// #0
    39b4:	91235c84 	add	x4, x4, #0x8d7
    39b8:	52800023 	mov	w3, #0x1                   	// #1
    39bc:	52800022 	mov	w2, #0x1                   	// #1
    39c0:	52806981 	mov	w1, #0x34c                 	// #844
    39c4:	94001155 	bl	7f18 <trace_printf>
    39c8:	52800000 	mov	w0, #0x0                   	// #0
    39cc:	94000673 	bl	5398 <__TEE_Panic>
/home/rahulmahadev/hikey_optee/optee_os/lib/libutee/tee_api_operations.c:846
    39d0:	b9403260 	ldr	w0, [x19,#48]
    39d4:	34000060 	cbz	w0, 39e0 <TEE_CipherInit+0xd0>
/home/rahulmahadev/hikey_optee/optee_os/lib/libutee/tee_api_operations.c:847
    39d8:	aa1303e0 	mov	x0, x19
    39dc:	97fffdf5 	bl	31b0 <TEE_ResetOperation>
/home/rahulmahadev/hikey_optee/optee_os/lib/libutee/tee_api_operations.c:851
    39e0:	b9405a60 	ldr	w0, [x19,#88]
    39e4:	aa1403e1 	mov	x1, x20
/home/rahulmahadev/hikey_optee/optee_os/lib/libutee/tee_api_operations.c:849
    39e8:	52800035 	mov	w21, #0x1                   	// #1
/home/rahulmahadev/hikey_optee/optee_os/lib/libutee/tee_api_operations.c:851
    39ec:	2a1603e2 	mov	w2, w22
/home/rahulmahadev/hikey_optee/optee_os/lib/libutee/tee_api_operations.c:849
    39f0:	b9003275 	str	w21, [x19,#48]
/home/rahulmahadev/hikey_optee/optee_os/lib/libutee/tee_api_operations.c:851
    39f4:	94002159 	bl	bf58 <utee_cipher_init>
    39f8:	2a0003f4 	mov	w20, w0
/home/rahulmahadev/hikey_optee/optee_os/lib/libutee/tee_api_operations.c:852
    39fc:	34000180 	cbz	w0, 3a2c <TEE_CipherInit+0x11c>
/home/rahulmahadev/hikey_optee/optee_os/lib/libutee/tee_api_operations.c:853
    3a00:	2a0003e5 	mov	w5, w0
    3a04:	d0000044 	adrp	x4, d000 <PRIME_TABLE+0x388>
    3a08:	b0000040 	adrp	x0, c000 <utee_authenc_update_aad>
    3a0c:	91235c84 	add	x4, x4, #0x8d7
    3a10:	9120c000 	add	x0, x0, #0x830
    3a14:	2a1503e3 	mov	w3, w21
    3a18:	2a1503e2 	mov	w2, w21
    3a1c:	52806aa1 	mov	w1, #0x355                 	// #853
    3a20:	9400113e 	bl	7f18 <trace_printf>
    3a24:	2a1403e0 	mov	w0, w20
    3a28:	9400065c 	bl	5398 <__TEE_Panic>
/home/rahulmahadev/hikey_optee/optee_os/lib/libutee/tee_api_operations.c:856
    3a2c:	b9401e60 	ldr	w0, [x19,#28]
/home/rahulmahadev/hikey_optee/optee_os/lib/libutee/tee_api_operations.c:855
    3a30:	f9002a7f 	str	xzr, [x19,#80]
/home/rahulmahadev/hikey_optee/optee_os/lib/libutee/tee_api_operations.c:856
    3a34:	320f0000 	orr	w0, w0, #0x20000
    3a38:	b9001e60 	str	w0, [x19,#28]
/home/rahulmahadev/hikey_optee/optee_os/lib/libutee/tee_api_operations.c:857
    3a3c:	a9425bf5 	ldp	x21, x22, [sp,#32]
    3a40:	a94153f3 	ldp	x19, x20, [sp,#16]
    3a44:	a8c37bfd 	ldp	x29, x30, [sp],#48
    3a48:	d65f03c0 	ret

0000000000003a4c <TEE_CipherUpdate>:
TEE_CipherUpdate():
/home/rahulmahadev/hikey_optee/optee_os/lib/libutee/tee_api_operations.c:950
    3a4c:	a9bd7bfd 	stp	x29, x30, [sp,#-48]!
    3a50:	aa0303e7 	mov	x7, x3
    3a54:	910003fd 	mov	x29, sp
    3a58:	a90153f3 	stp	x19, x20, [sp,#16]
    3a5c:	aa0403f4 	mov	x20, x4
/home/rahulmahadev/hikey_optee/optee_os/lib/libutee/tee_api_operations.c:959
    3a60:	129fff33 	mov	w19, #0xffff0006            	// #-65530
/home/rahulmahadev/hikey_optee/optee_os/lib/libutee/tee_api_operations.c:955
    3a64:	b4000640 	cbz	x0, 3b2c <TEE_CipherUpdate+0xe0>
/home/rahulmahadev/hikey_optee/optee_os/lib/libutee/tee_api_operations.c:956 (discriminator 1)
    3a68:	b4000604 	cbz	x4, 3b28 <TEE_CipherUpdate+0xdc>
    3a6c:	eb1f003f 	cmp	x1, xzr
    3a70:	1a9f17e4 	cset	w4, eq
    3a74:	6b1f005f 	cmp	w2, wzr
    3a78:	1a9f07e3 	cset	w3, ne
    3a7c:	6a03009f 	tst	w4, w3
    3a80:	54000541 	b.ne	3b28 <TEE_CipherUpdate+0xdc>
/home/rahulmahadev/hikey_optee/optee_os/lib/libutee/tee_api_operations.c:957
    3a84:	b5000067 	cbnz	x7, 3a90 <TEE_CipherUpdate+0x44>
/home/rahulmahadev/hikey_optee/optee_os/lib/libutee/tee_api_operations.c:958
    3a88:	b9400283 	ldr	w3, [x20]
    3a8c:	35000503 	cbnz	w3, 3b2c <TEE_CipherUpdate+0xe0>
/home/rahulmahadev/hikey_optee/optee_os/lib/libutee/tee_api_operations.c:963
    3a90:	b9400403 	ldr	w3, [x0,#4]
/home/rahulmahadev/hikey_optee/optee_os/lib/libutee/tee_api_operations.c:959
    3a94:	129fff33 	mov	w19, #0xffff0006            	// #-65530
/home/rahulmahadev/hikey_optee/optee_os/lib/libutee/tee_api_operations.c:963
    3a98:	7100047f 	cmp	w3, #0x1
    3a9c:	54000481 	b.ne	3b2c <TEE_CipherUpdate+0xe0>
/home/rahulmahadev/hikey_optee/optee_os/lib/libutee/tee_api_operations.c:968
    3aa0:	b9401c03 	ldr	w3, [x0,#28]
    3aa4:	36880443 	tbz	w3, #17, 3b2c <TEE_CipherUpdate+0xe0>
/home/rahulmahadev/hikey_optee/optee_os/lib/libutee/tee_api_operations.c:973
    3aa8:	b9403003 	ldr	w3, [x0,#48]
    3aac:	7100047f 	cmp	w3, #0x1
    3ab0:	540003e1 	b.ne	3b2c <TEE_CipherUpdate+0xe0>
/home/rahulmahadev/hikey_optee/optee_os/lib/libutee/tee_api_operations.c:979
    3ab4:	f9402805 	ldr	x5, [x0,#80]
    3ab8:	2a0203e3 	mov	w3, w2
    3abc:	f9402406 	ldr	x6, [x0,#72]
    3ac0:	8b050065 	add	x5, x3, x5
/home/rahulmahadev/hikey_optee/optee_os/lib/libutee/tee_api_operations.c:981
    3ac4:	39410002 	ldrb	w2, [x0,#64]
/home/rahulmahadev/hikey_optee/optee_os/lib/libutee/tee_api_operations.c:979
    3ac8:	9ac608a5 	udiv	x5, x5, x6
    3acc:	9b067ca5 	mul	x5, x5, x6
/home/rahulmahadev/hikey_optee/optee_os/lib/libutee/tee_api_operations.c:981
    3ad0:	340000a2 	cbz	w2, 3ae4 <TEE_CipherUpdate+0x98>
/home/rahulmahadev/hikey_optee/optee_os/lib/libutee/tee_api_operations.c:982
    3ad4:	d37ff8c6 	lsl	x6, x6, #1
/home/rahulmahadev/hikey_optee/optee_os/lib/libutee/tee_api_operations.c:983
    3ad8:	cb0600a2 	sub	x2, x5, x6
    3adc:	eb0600bf 	cmp	x5, x6
    3ae0:	9a9f8045 	csel	x5, x2, xzr, hi
/home/rahulmahadev/hikey_optee/optee_os/lib/libutee/tee_api_operations.c:992
    3ae4:	b9400282 	ldr	w2, [x20]
    3ae8:	eb05005f 	cmp	x2, x5
    3aec:	54000082 	b.cs	3afc <TEE_CipherUpdate+0xb0>
/home/rahulmahadev/hikey_optee/optee_os/lib/libutee/tee_api_operations.c:993
    3af0:	b9000285 	str	w5, [x20]
/home/rahulmahadev/hikey_optee/optee_os/lib/libutee/tee_api_operations.c:994
    3af4:	129ffdf3 	mov	w19, #0xffff0010            	// #-65520
/home/rahulmahadev/hikey_optee/optee_os/lib/libutee/tee_api_operations.c:995
    3af8:	1400000d 	b	3b2c <TEE_CipherUpdate+0xe0>
/home/rahulmahadev/hikey_optee/optee_os/lib/libutee/tee_api_operations.c:998
    3afc:	9100c3a5 	add	x5, x29, #0x30
/home/rahulmahadev/hikey_optee/optee_os/lib/libutee/tee_api_operations.c:999
    3b00:	aa0703e4 	mov	x4, x7
/home/rahulmahadev/hikey_optee/optee_os/lib/libutee/tee_api_operations.c:998
    3b04:	f81f8ca2 	str	x2, [x5,#-8]!
/home/rahulmahadev/hikey_optee/optee_os/lib/libutee/tee_api_operations.c:999
    3b08:	aa0103e2 	mov	x2, x1
    3b0c:	f0000041 	adrp	x1, e000 <__compound_literal.2+0x72a>
    3b10:	f940bc21 	ldr	x1, [x1,#376]
    3b14:	97fffa0e 	bl	234c <tee_buffer_update>
    3b18:	2a0003f3 	mov	w19, w0
/home/rahulmahadev/hikey_optee/optee_os/lib/libutee/tee_api_operations.c:1001
    3b1c:	f94017a0 	ldr	x0, [x29,#40]
    3b20:	b9000280 	str	w0, [x20]
    3b24:	14000002 	b	3b2c <TEE_CipherUpdate+0xe0>
/home/rahulmahadev/hikey_optee/optee_os/lib/libutee/tee_api_operations.c:959
    3b28:	129fff33 	mov	w19, #0xffff0006            	// #-65530
/home/rahulmahadev/hikey_optee/optee_os/lib/libutee/tee_api_operations.c:1004
    3b2c:	129ffde0 	mov	w0, #0xffff0010            	// #-65520
    3b30:	6b00027f 	cmp	w19, w0
    3b34:	540001a0 	b.eq	3b68 <TEE_CipherUpdate+0x11c>
    3b38:	34000193 	cbz	w19, 3b68 <TEE_CipherUpdate+0x11c>
/home/rahulmahadev/hikey_optee/optee_os/lib/libutee/tee_api_operations.c:1006
    3b3c:	d0000044 	adrp	x4, d000 <PRIME_TABLE+0x388>
    3b40:	b0000040 	adrp	x0, c000 <utee_authenc_update_aad>
    3b44:	9125a000 	add	x0, x0, #0x968
    3b48:	52800005 	mov	w5, #0x0                   	// #0
    3b4c:	91235c84 	add	x4, x4, #0x8d7
    3b50:	52800023 	mov	w3, #0x1                   	// #1
    3b54:	52800022 	mov	w2, #0x1                   	// #1
    3b58:	52807dc1 	mov	w1, #0x3ee                 	// #1006
    3b5c:	940010ef 	bl	7f18 <trace_printf>
    3b60:	52800000 	mov	w0, #0x0                   	// #0
    3b64:	9400060d 	bl	5398 <__TEE_Panic>
/home/rahulmahadev/hikey_optee/optee_os/lib/libutee/tee_api_operations.c:1009
    3b68:	2a1303e0 	mov	w0, w19
    3b6c:	a94153f3 	ldp	x19, x20, [sp,#16]
    3b70:	a8c37bfd 	ldp	x29, x30, [sp],#48
    3b74:	d65f03c0 	ret

0000000000003b78 <TEE_CipherDoFinal>:
TEE_CipherDoFinal():
/home/rahulmahadev/hikey_optee/optee_os/lib/libutee/tee_api_operations.c:1014
    3b78:	a9bb7bfd 	stp	x29, x30, [sp,#-80]!
    3b7c:	910003fd 	mov	x29, sp
    3b80:	a90153f3 	stp	x19, x20, [sp,#16]
    3b84:	a9025bf5 	stp	x21, x22, [sp,#32]
    3b88:	a90363f7 	stp	x23, x24, [sp,#48]
    3b8c:	aa0003f3 	mov	x19, x0
    3b90:	aa0303f8 	mov	x24, x3
    3b94:	2a0203e0 	mov	w0, w2
    3b98:	aa0403f5 	mov	x21, x4
/home/rahulmahadev/hikey_optee/optee_os/lib/libutee/tee_api_operations.c:1025
    3b9c:	129fff34 	mov	w20, #0xffff0006            	// #-65530
/home/rahulmahadev/hikey_optee/optee_os/lib/libutee/tee_api_operations.c:1021
    3ba0:	b40009f3 	cbz	x19, 3cdc <TEE_CipherDoFinal+0x164>
/home/rahulmahadev/hikey_optee/optee_os/lib/libutee/tee_api_operations.c:1022 (discriminator 1)
    3ba4:	b40009a4 	cbz	x4, 3cd8 <TEE_CipherDoFinal+0x160>
    3ba8:	eb1f003f 	cmp	x1, xzr
    3bac:	1a9f17e3 	cset	w3, eq
    3bb0:	6b1f005f 	cmp	w2, wzr
    3bb4:	1a9f07e2 	cset	w2, ne
    3bb8:	6a02007f 	tst	w3, w2
    3bbc:	540008e1 	b.ne	3cd8 <TEE_CipherDoFinal+0x160>
/home/rahulmahadev/hikey_optee/optee_os/lib/libutee/tee_api_operations.c:1023
    3bc0:	b5000078 	cbnz	x24, 3bcc <TEE_CipherDoFinal+0x54>
/home/rahulmahadev/hikey_optee/optee_os/lib/libutee/tee_api_operations.c:1024
    3bc4:	b9400082 	ldr	w2, [x4]
    3bc8:	350008a2 	cbnz	w2, 3cdc <TEE_CipherDoFinal+0x164>
/home/rahulmahadev/hikey_optee/optee_os/lib/libutee/tee_api_operations.c:1029
    3bcc:	b9400662 	ldr	w2, [x19,#4]
/home/rahulmahadev/hikey_optee/optee_os/lib/libutee/tee_api_operations.c:1025
    3bd0:	129fff34 	mov	w20, #0xffff0006            	// #-65530
/home/rahulmahadev/hikey_optee/optee_os/lib/libutee/tee_api_operations.c:1029
    3bd4:	7100045f 	cmp	w2, #0x1
    3bd8:	54000821 	b.ne	3cdc <TEE_CipherDoFinal+0x164>
/home/rahulmahadev/hikey_optee/optee_os/lib/libutee/tee_api_operations.c:1034
    3bdc:	b9401e62 	ldr	w2, [x19,#28]
    3be0:	368807e2 	tbz	w2, #17, 3cdc <TEE_CipherDoFinal+0x164>
/home/rahulmahadev/hikey_optee/optee_os/lib/libutee/tee_api_operations.c:1039
    3be4:	b9403262 	ldr	w2, [x19,#48]
    3be8:	7100045f 	cmp	w2, #0x1
    3bec:	54000781 	b.ne	3cdc <TEE_CipherDoFinal+0x164>
/home/rahulmahadev/hikey_optee/optee_os/lib/libutee/tee_api_operations.c:1048
    3bf0:	b9400265 	ldr	w5, [x19]
    3bf4:	529ffe06 	mov	w6, #0xfff0                	// #65520
    3bf8:	72bdffe6 	movk	w6, #0xefff, lsl #16
    3bfc:	121778a5 	and	w5, w5, #0xfffffeff
    3c00:	0b0600a6 	add	w6, w5, w6
/home/rahulmahadev/hikey_optee/optee_os/lib/libutee/tee_api_operations.c:1052
    3c04:	710004df 	cmp	w6, #0x1
    3c08:	540000a9 	b.ls	3c1c <TEE_CipherDoFinal+0xa4>
/home/rahulmahadev/hikey_optee/optee_os/lib/libutee/tee_api_operations.c:1051
    3c0c:	52800262 	mov	w2, #0x13                  	// #19
    3c10:	72a20002 	movk	w2, #0x1000, lsl #16
/home/rahulmahadev/hikey_optee/optee_os/lib/libutee/tee_api_operations.c:1052
    3c14:	6b0200bf 	cmp	w5, w2
    3c18:	54000101 	b.ne	3c38 <TEE_CipherDoFinal+0xc0>
/home/rahulmahadev/hikey_optee/optee_os/lib/libutee/tee_api_operations.c:1054
    3c1c:	f9402662 	ldr	x2, [x19,#72]
/home/rahulmahadev/hikey_optee/optee_os/lib/libutee/tee_api_operations.c:1025
    3c20:	129fff34 	mov	w20, #0xffff0006            	// #-65530
/home/rahulmahadev/hikey_optee/optee_os/lib/libutee/tee_api_operations.c:1054
    3c24:	f9402a65 	ldr	x5, [x19,#80]
    3c28:	8b2040a5 	add	x5, x5, w0, uxtw
    3c2c:	9ac208a3 	udiv	x3, x5, x2
    3c30:	9b029465 	msub	x5, x3, x2, x5
    3c34:	b5000545 	cbnz	x5, 3cdc <TEE_CipherDoFinal+0x164>
/home/rahulmahadev/hikey_optee/optee_os/lib/libutee/tee_api_operations.c:1067
    3c38:	b94002a2 	ldr	w2, [x21]
/home/rahulmahadev/hikey_optee/optee_os/lib/libutee/tee_api_operations.c:1066
    3c3c:	f9402a65 	ldr	x5, [x19,#80]
    3c40:	8b2040a5 	add	x5, x5, w0, uxtw
/home/rahulmahadev/hikey_optee/optee_os/lib/libutee/tee_api_operations.c:1067
    3c44:	eb05005f 	cmp	x2, x5
    3c48:	54000082 	b.cs	3c58 <TEE_CipherDoFinal+0xe0>
/home/rahulmahadev/hikey_optee/optee_os/lib/libutee/tee_api_operations.c:1068
    3c4c:	b90002a5 	str	w5, [x21]
/home/rahulmahadev/hikey_optee/optee_os/lib/libutee/tee_api_operations.c:1069
    3c50:	129ffdf4 	mov	w20, #0xffff0010            	// #-65520
/home/rahulmahadev/hikey_optee/optee_os/lib/libutee/tee_api_operations.c:1070
    3c54:	14000022 	b	3cdc <TEE_CipherDoFinal+0x164>
/home/rahulmahadev/hikey_optee/optee_os/lib/libutee/tee_api_operations.c:1073
    3c58:	910143b6 	add	x22, x29, #0x50
/home/rahulmahadev/hikey_optee/optee_os/lib/libutee/tee_api_operations.c:1074
    3c5c:	2a0003e3 	mov	w3, w0
    3c60:	aa1803e4 	mov	x4, x24
    3c64:	aa1303e0 	mov	x0, x19
/home/rahulmahadev/hikey_optee/optee_os/lib/libutee/tee_api_operations.c:1073
    3c68:	f81f8ec2 	str	x2, [x22,#-8]!
/home/rahulmahadev/hikey_optee/optee_os/lib/libutee/tee_api_operations.c:1074
    3c6c:	aa0103e2 	mov	x2, x1
    3c70:	f0000041 	adrp	x1, e000 <__compound_literal.2+0x72a>
    3c74:	aa1603e5 	mov	x5, x22
    3c78:	f940bc21 	ldr	x1, [x1,#376]
    3c7c:	97fff9b4 	bl	234c <tee_buffer_update>
    3c80:	2a0003f4 	mov	w20, w0
/home/rahulmahadev/hikey_optee/optee_os/lib/libutee/tee_api_operations.c:1076
    3c84:	350002c0 	cbnz	w0, 3cdc <TEE_CipherDoFinal+0x164>
/home/rahulmahadev/hikey_optee/optee_os/lib/libutee/tee_api_operations.c:1079
    3c88:	f94027b7 	ldr	x23, [x29,#72]
/home/rahulmahadev/hikey_optee/optee_os/lib/libutee/tee_api_operations.c:1083
    3c8c:	aa1603e4 	mov	x4, x22
/home/rahulmahadev/hikey_optee/optee_os/lib/libutee/tee_api_operations.c:1082
    3c90:	b94002a0 	ldr	w0, [x21]
/home/rahulmahadev/hikey_optee/optee_os/lib/libutee/tee_api_operations.c:1083
    3c94:	f9402a62 	ldr	x2, [x19,#80]
    3c98:	8b170303 	add	x3, x24, x23
/home/rahulmahadev/hikey_optee/optee_os/lib/libutee/tee_api_operations.c:1082
    3c9c:	cb170000 	sub	x0, x0, x23
/home/rahulmahadev/hikey_optee/optee_os/lib/libutee/tee_api_operations.c:1083
    3ca0:	f9401e61 	ldr	x1, [x19,#56]
/home/rahulmahadev/hikey_optee/optee_os/lib/libutee/tee_api_operations.c:1082
    3ca4:	f90027a0 	str	x0, [x29,#72]
/home/rahulmahadev/hikey_optee/optee_os/lib/libutee/tee_api_operations.c:1083
    3ca8:	b9405a60 	ldr	w0, [x19,#88]
    3cac:	940020b1 	bl	bf70 <utee_cipher_final>
    3cb0:	2a0003f4 	mov	w20, w0
/home/rahulmahadev/hikey_optee/optee_os/lib/libutee/tee_api_operations.c:1085
    3cb4:	35000140 	cbnz	w0, 3cdc <TEE_CipherDoFinal+0x164>
/home/rahulmahadev/hikey_optee/optee_os/lib/libutee/tee_api_operations.c:1088
    3cb8:	f94027a0 	ldr	x0, [x29,#72]
    3cbc:	8b0002e0 	add	x0, x23, x0
/home/rahulmahadev/hikey_optee/optee_os/lib/libutee/tee_api_operations.c:1089
    3cc0:	b90002a0 	str	w0, [x21]
/home/rahulmahadev/hikey_optee/optee_os/lib/libutee/tee_api_operations.c:1093
    3cc4:	b900327f 	str	wzr, [x19,#48]
/home/rahulmahadev/hikey_optee/optee_os/lib/libutee/tee_api_operations.c:1091
    3cc8:	b9401e60 	ldr	w0, [x19,#28]
    3ccc:	120e7800 	and	w0, w0, #0xfffdffff
    3cd0:	b9001e60 	str	w0, [x19,#28]
    3cd4:	14000002 	b	3cdc <TEE_CipherDoFinal+0x164>
/home/rahulmahadev/hikey_optee/optee_os/lib/libutee/tee_api_operations.c:1025
    3cd8:	129fff34 	mov	w20, #0xffff0006            	// #-65530
/home/rahulmahadev/hikey_optee/optee_os/lib/libutee/tee_api_operations.c:1096
    3cdc:	129ffde0 	mov	w0, #0xffff0010            	// #-65520
    3ce0:	6b00029f 	cmp	w20, w0
    3ce4:	540001a0 	b.eq	3d18 <TEE_CipherDoFinal+0x1a0>
    3ce8:	34000194 	cbz	w20, 3d18 <TEE_CipherDoFinal+0x1a0>
/home/rahulmahadev/hikey_optee/optee_os/lib/libutee/tee_api_operations.c:1098
    3cec:	d0000044 	adrp	x4, d000 <PRIME_TABLE+0x388>
    3cf0:	b0000040 	adrp	x0, c000 <utee_authenc_update_aad>
    3cf4:	91266000 	add	x0, x0, #0x998
    3cf8:	52800005 	mov	w5, #0x0                   	// #0
    3cfc:	91235c84 	add	x4, x4, #0x8d7
    3d00:	52800023 	mov	w3, #0x1                   	// #1
    3d04:	52800022 	mov	w2, #0x1                   	// #1
    3d08:	52808941 	mov	w1, #0x44a                 	// #1098
    3d0c:	94001083 	bl	7f18 <trace_printf>
    3d10:	52800000 	mov	w0, #0x0                   	// #0
    3d14:	940005a1 	bl	5398 <__TEE_Panic>
/home/rahulmahadev/hikey_optee/optee_os/lib/libutee/tee_api_operations.c:1101
    3d18:	2a1403e0 	mov	w0, w20
    3d1c:	a94153f3 	ldp	x19, x20, [sp,#16]
    3d20:	a9425bf5 	ldp	x21, x22, [sp,#32]
    3d24:	a94363f7 	ldp	x23, x24, [sp,#48]
    3d28:	a8c57bfd 	ldp	x29, x30, [sp],#80
    3d2c:	d65f03c0 	ret

0000000000003d30 <TEE_MACInit>:
TEE_MACInit():
/home/rahulmahadev/hikey_optee/optee_os/lib/libutee/tee_api_operations.c:1106
    3d30:	a9bd7bfd 	stp	x29, x30, [sp,#-48]!
    3d34:	910003fd 	mov	x29, sp
    3d38:	a90153f3 	stp	x19, x20, [sp,#16]
    3d3c:	f90013f5 	str	x21, [sp,#32]
    3d40:	aa0003f3 	mov	x19, x0
    3d44:	aa0103f4 	mov	x20, x1
    3d48:	2a0203f5 	mov	w21, w2
/home/rahulmahadev/hikey_optee/optee_os/lib/libutee/tee_api_operations.c:1107
    3d4c:	b5000180 	cbnz	x0, 3d7c <TEE_MACInit+0x4c>
/home/rahulmahadev/hikey_optee/optee_os/lib/libutee/tee_api_operations.c:1108
    3d50:	d0000044 	adrp	x4, d000 <PRIME_TABLE+0x388>
    3d54:	b0000040 	adrp	x0, c000 <utee_authenc_update_aad>
    3d58:	91272000 	add	x0, x0, #0x9c8
    3d5c:	52800005 	mov	w5, #0x0                   	// #0
    3d60:	91235c84 	add	x4, x4, #0x8d7
    3d64:	52800023 	mov	w3, #0x1                   	// #1
    3d68:	52800022 	mov	w2, #0x1                   	// #1
    3d6c:	52808a81 	mov	w1, #0x454                 	// #1108
    3d70:	9400106a 	bl	7f18 <trace_printf>
    3d74:	52800000 	mov	w0, #0x0                   	// #0
    3d78:	94000588 	bl	5398 <__TEE_Panic>
/home/rahulmahadev/hikey_optee/optee_os/lib/libutee/tee_api_operations.c:1110
    3d7c:	b9400660 	ldr	w0, [x19,#4]
    3d80:	71000c1f 	cmp	w0, #0x3
    3d84:	54000180 	b.eq	3db4 <TEE_MACInit+0x84>
/home/rahulmahadev/hikey_optee/optee_os/lib/libutee/tee_api_operations.c:1111
    3d88:	d0000044 	adrp	x4, d000 <PRIME_TABLE+0x388>
    3d8c:	b0000040 	adrp	x0, c000 <utee_authenc_update_aad>
    3d90:	91272000 	add	x0, x0, #0x9c8
    3d94:	52800005 	mov	w5, #0x0                   	// #0
    3d98:	91235c84 	add	x4, x4, #0x8d7
    3d9c:	52800023 	mov	w3, #0x1                   	// #1
    3da0:	52800022 	mov	w2, #0x1                   	// #1
    3da4:	52808ae1 	mov	w1, #0x457                 	// #1111
    3da8:	9400105c 	bl	7f18 <trace_printf>
    3dac:	52800000 	mov	w0, #0x0                   	// #0
    3db0:	9400057a 	bl	5398 <__TEE_Panic>
/home/rahulmahadev/hikey_optee/optee_os/lib/libutee/tee_api_operations.c:1113
    3db4:	b9401e60 	ldr	w0, [x19,#28]
    3db8:	36900060 	tbz	w0, #18, 3dc4 <TEE_MACInit+0x94>
/home/rahulmahadev/hikey_optee/optee_os/lib/libutee/tee_api_operations.c:1113 (discriminator 1)
    3dbc:	f9401260 	ldr	x0, [x19,#32]
    3dc0:	b5000180 	cbnz	x0, 3df0 <TEE_MACInit+0xc0>
/home/rahulmahadev/hikey_optee/optee_os/lib/libutee/tee_api_operations.c:1115
    3dc4:	d0000044 	adrp	x4, d000 <PRIME_TABLE+0x388>
    3dc8:	b0000040 	adrp	x0, c000 <utee_authenc_update_aad>
    3dcc:	91272000 	add	x0, x0, #0x9c8
    3dd0:	52800005 	mov	w5, #0x0                   	// #0
    3dd4:	91235c84 	add	x4, x4, #0x8d7
    3dd8:	52800023 	mov	w3, #0x1                   	// #1
    3ddc:	52800022 	mov	w2, #0x1                   	// #1
    3de0:	52808b61 	mov	w1, #0x45b                 	// #1115
    3de4:	9400104d 	bl	7f18 <trace_printf>
    3de8:	52800000 	mov	w0, #0x0                   	// #0
    3dec:	9400056b 	bl	5398 <__TEE_Panic>
/home/rahulmahadev/hikey_optee/optee_os/lib/libutee/tee_api_operations.c:1117
    3df0:	b9403260 	ldr	w0, [x19,#48]
    3df4:	34000060 	cbz	w0, 3e00 <TEE_MACInit+0xd0>
/home/rahulmahadev/hikey_optee/optee_os/lib/libutee/tee_api_operations.c:1118
    3df8:	aa1303e0 	mov	x0, x19
    3dfc:	97fffced 	bl	31b0 <TEE_ResetOperation>
/home/rahulmahadev/hikey_optee/optee_os/lib/libutee/tee_api_operations.c:1120
    3e00:	52800020 	mov	w0, #0x1                   	// #1
/home/rahulmahadev/hikey_optee/optee_os/lib/libutee/tee_api_operations.c:1122
    3e04:	2a1503e2 	mov	w2, w21
/home/rahulmahadev/hikey_optee/optee_os/lib/libutee/tee_api_operations.c:1120
    3e08:	b9003260 	str	w0, [x19,#48]
/home/rahulmahadev/hikey_optee/optee_os/lib/libutee/tee_api_operations.c:1122
    3e0c:	aa1403e1 	mov	x1, x20
    3e10:	aa1303e0 	mov	x0, x19
/home/rahulmahadev/hikey_optee/optee_os/lib/libutee/tee_api_operations.c:1123
    3e14:	f94013f5 	ldr	x21, [sp,#32]
    3e18:	a94153f3 	ldp	x19, x20, [sp,#16]
    3e1c:	a8c37bfd 	ldp	x29, x30, [sp],#48
/home/rahulmahadev/hikey_optee/optee_os/lib/libutee/tee_api_operations.c:1122
    3e20:	17fff930 	b	22e0 <init_hash_operation>

0000000000003e24 <TEE_MACUpdate>:
TEE_MACUpdate():
/home/rahulmahadev/hikey_optee/optee_os/lib/libutee/tee_api_operations.c:1127
    3e24:	a9bd7bfd 	stp	x29, x30, [sp,#-48]!
    3e28:	910003fd 	mov	x29, sp
    3e2c:	a90153f3 	stp	x19, x20, [sp,#16]
    3e30:	f90013f5 	str	x21, [sp,#32]
    3e34:	aa0003f3 	mov	x19, x0
    3e38:	aa0103f4 	mov	x20, x1
    3e3c:	2a0203f5 	mov	w21, w2
/home/rahulmahadev/hikey_optee/optee_os/lib/libutee/tee_api_operations.c:1130
    3e40:	b4000060 	cbz	x0, 3e4c <TEE_MACUpdate+0x28>
/home/rahulmahadev/hikey_optee/optee_os/lib/libutee/tee_api_operations.c:1130 (discriminator 1)
    3e44:	b50001a1 	cbnz	x1, 3e78 <TEE_MACUpdate+0x54>
    3e48:	34000182 	cbz	w2, 3e78 <TEE_MACUpdate+0x54>
/home/rahulmahadev/hikey_optee/optee_os/lib/libutee/tee_api_operations.c:1131
    3e4c:	d0000044 	adrp	x4, d000 <PRIME_TABLE+0x388>
    3e50:	b0000040 	adrp	x0, c000 <utee_authenc_update_aad>
    3e54:	9127a000 	add	x0, x0, #0x9e8
    3e58:	52800005 	mov	w5, #0x0                   	// #0
    3e5c:	91235c84 	add	x4, x4, #0x8d7
    3e60:	52800023 	mov	w3, #0x1                   	// #1
    3e64:	52800022 	mov	w2, #0x1                   	// #1
    3e68:	52808d61 	mov	w1, #0x46b                 	// #1131
    3e6c:	9400102b 	bl	7f18 <trace_printf>
    3e70:	52800000 	mov	w0, #0x0                   	// #0
    3e74:	94000549 	bl	5398 <__TEE_Panic>
/home/rahulmahadev/hikey_optee/optee_os/lib/libutee/tee_api_operations.c:1133
    3e78:	b9400660 	ldr	w0, [x19,#4]
    3e7c:	71000c1f 	cmp	w0, #0x3
    3e80:	54000180 	b.eq	3eb0 <TEE_MACUpdate+0x8c>
/home/rahulmahadev/hikey_optee/optee_os/lib/libutee/tee_api_operations.c:1134
    3e84:	d0000044 	adrp	x4, d000 <PRIME_TABLE+0x388>
    3e88:	b0000040 	adrp	x0, c000 <utee_authenc_update_aad>
    3e8c:	9127a000 	add	x0, x0, #0x9e8
    3e90:	52800005 	mov	w5, #0x0                   	// #0
    3e94:	91235c84 	add	x4, x4, #0x8d7
    3e98:	52800023 	mov	w3, #0x1                   	// #1
    3e9c:	52800022 	mov	w2, #0x1                   	// #1
    3ea0:	52808dc1 	mov	w1, #0x46e                 	// #1134
    3ea4:	9400101d 	bl	7f18 <trace_printf>
    3ea8:	52800000 	mov	w0, #0x0                   	// #0
    3eac:	9400053b 	bl	5398 <__TEE_Panic>
/home/rahulmahadev/hikey_optee/optee_os/lib/libutee/tee_api_operations.c:1136
    3eb0:	b9401e60 	ldr	w0, [x19,#28]
    3eb4:	37880180 	tbnz	w0, #17, 3ee4 <TEE_MACUpdate+0xc0>
/home/rahulmahadev/hikey_optee/optee_os/lib/libutee/tee_api_operations.c:1137
    3eb8:	d0000044 	adrp	x4, d000 <PRIME_TABLE+0x388>
    3ebc:	b0000040 	adrp	x0, c000 <utee_authenc_update_aad>
    3ec0:	9127a000 	add	x0, x0, #0x9e8
    3ec4:	52800005 	mov	w5, #0x0                   	// #0
    3ec8:	91235c84 	add	x4, x4, #0x8d7
    3ecc:	52800023 	mov	w3, #0x1                   	// #1
    3ed0:	52800022 	mov	w2, #0x1                   	// #1
    3ed4:	52808e21 	mov	w1, #0x471                 	// #1137
    3ed8:	94001010 	bl	7f18 <trace_printf>
    3edc:	52800000 	mov	w0, #0x0                   	// #0
    3ee0:	9400052e 	bl	5398 <__TEE_Panic>
/home/rahulmahadev/hikey_optee/optee_os/lib/libutee/tee_api_operations.c:1139
    3ee4:	b9403260 	ldr	w0, [x19,#48]
    3ee8:	7100041f 	cmp	w0, #0x1
    3eec:	54000180 	b.eq	3f1c <TEE_MACUpdate+0xf8>
/home/rahulmahadev/hikey_optee/optee_os/lib/libutee/tee_api_operations.c:1140
    3ef0:	d0000044 	adrp	x4, d000 <PRIME_TABLE+0x388>
    3ef4:	b0000040 	adrp	x0, c000 <utee_authenc_update_aad>
    3ef8:	9127a000 	add	x0, x0, #0x9e8
    3efc:	52800005 	mov	w5, #0x0                   	// #0
    3f00:	91235c84 	add	x4, x4, #0x8d7
    3f04:	52800023 	mov	w3, #0x1                   	// #1
    3f08:	52800022 	mov	w2, #0x1                   	// #1
    3f0c:	52808e81 	mov	w1, #0x474                 	// #1140
    3f10:	94001002 	bl	7f18 <trace_printf>
    3f14:	52800000 	mov	w0, #0x0                   	// #0
    3f18:	94000520 	bl	5398 <__TEE_Panic>
/home/rahulmahadev/hikey_optee/optee_os/lib/libutee/tee_api_operations.c:1142
    3f1c:	b9405a60 	ldr	w0, [x19,#88]
    3f20:	2a1503e2 	mov	w2, w21
    3f24:	aa1403e1 	mov	x1, x20
    3f28:	94002006 	bl	bf40 <utee_hash_update>
    3f2c:	2a0003f3 	mov	w19, w0
/home/rahulmahadev/hikey_optee/optee_os/lib/libutee/tee_api_operations.c:1143
    3f30:	340001e0 	cbz	w0, 3f6c <TEE_MACUpdate+0x148>
/home/rahulmahadev/hikey_optee/optee_os/lib/libutee/tee_api_operations.c:1144
    3f34:	2a0003e5 	mov	w5, w0
    3f38:	d0000044 	adrp	x4, d000 <PRIME_TABLE+0x388>
    3f3c:	b0000040 	adrp	x0, c000 <utee_authenc_update_aad>
    3f40:	91235c84 	add	x4, x4, #0x8d7
    3f44:	52800023 	mov	w3, #0x1                   	// #1
    3f48:	52800022 	mov	w2, #0x1                   	// #1
    3f4c:	52808f01 	mov	w1, #0x478                 	// #1144
    3f50:	9127a000 	add	x0, x0, #0x9e8
    3f54:	94000ff1 	bl	7f18 <trace_printf>
/home/rahulmahadev/hikey_optee/optee_os/lib/libutee/tee_api_operations.c:1145
    3f58:	f94013f5 	ldr	x21, [sp,#32]
/home/rahulmahadev/hikey_optee/optee_os/lib/libutee/tee_api_operations.c:1144
    3f5c:	2a1303e0 	mov	w0, w19
/home/rahulmahadev/hikey_optee/optee_os/lib/libutee/tee_api_operations.c:1145
    3f60:	a94153f3 	ldp	x19, x20, [sp,#16]
    3f64:	a8c37bfd 	ldp	x29, x30, [sp],#48
/home/rahulmahadev/hikey_optee/optee_os/lib/libutee/tee_api_operations.c:1144
    3f68:	1400050c 	b	5398 <__TEE_Panic>
/home/rahulmahadev/hikey_optee/optee_os/lib/libutee/tee_api_operations.c:1145
    3f6c:	a94153f3 	ldp	x19, x20, [sp,#16]
    3f70:	f94013f5 	ldr	x21, [sp,#32]
    3f74:	a8c37bfd 	ldp	x29, x30, [sp],#48
    3f78:	d65f03c0 	ret

0000000000003f7c <TEE_MACComputeFinal>:
TEE_MACComputeFinal():
/home/rahulmahadev/hikey_optee/optee_os/lib/libutee/tee_api_operations.c:1150
    3f7c:	a9bc7bfd 	stp	x29, x30, [sp,#-64]!
    3f80:	910003fd 	mov	x29, sp
    3f84:	a90153f3 	stp	x19, x20, [sp,#16]
    3f88:	f90013f5 	str	x21, [sp,#32]
    3f8c:	aa0003f4 	mov	x20, x0
    3f90:	aa0403f5 	mov	x21, x4
/home/rahulmahadev/hikey_optee/optee_os/lib/libutee/tee_api_operations.c:1158
    3f94:	129fff33 	mov	w19, #0xffff0006            	// #-65530
/home/rahulmahadev/hikey_optee/optee_os/lib/libutee/tee_api_operations.c:1154
    3f98:	b40003c0 	cbz	x0, 4010 <TEE_MACComputeFinal+0x94>
/home/rahulmahadev/hikey_optee/optee_os/lib/libutee/tee_api_operations.c:1154 (discriminator 1)
    3f9c:	b5000041 	cbnz	x1, 3fa4 <TEE_MACComputeFinal+0x28>
    3fa0:	35000382 	cbnz	w2, 4010 <TEE_MACComputeFinal+0x94>
/home/rahulmahadev/hikey_optee/optee_os/lib/libutee/tee_api_operations.c:1156
    3fa4:	b4000343 	cbz	x3, 400c <TEE_MACComputeFinal+0x90>
    3fa8:	b4000335 	cbz	x21, 400c <TEE_MACComputeFinal+0x90>
/home/rahulmahadev/hikey_optee/optee_os/lib/libutee/tee_api_operations.c:1162
    3fac:	b9400680 	ldr	w0, [x20,#4]
/home/rahulmahadev/hikey_optee/optee_os/lib/libutee/tee_api_operations.c:1158
    3fb0:	129fff33 	mov	w19, #0xffff0006            	// #-65530
/home/rahulmahadev/hikey_optee/optee_os/lib/libutee/tee_api_operations.c:1162
    3fb4:	71000c1f 	cmp	w0, #0x3
    3fb8:	540002c1 	b.ne	4010 <TEE_MACComputeFinal+0x94>
/home/rahulmahadev/hikey_optee/optee_os/lib/libutee/tee_api_operations.c:1167
    3fbc:	b9401e80 	ldr	w0, [x20,#28]
    3fc0:	36880280 	tbz	w0, #17, 4010 <TEE_MACComputeFinal+0x94>
/home/rahulmahadev/hikey_optee/optee_os/lib/libutee/tee_api_operations.c:1172
    3fc4:	b9403280 	ldr	w0, [x20,#48]
    3fc8:	7100041f 	cmp	w0, #0x1
    3fcc:	54000221 	b.ne	4010 <TEE_MACComputeFinal+0x94>
/home/rahulmahadev/hikey_optee/optee_os/lib/libutee/tee_api_operations.c:1177
    3fd0:	910103a4 	add	x4, x29, #0x40
    3fd4:	b94002a0 	ldr	w0, [x21]
/home/rahulmahadev/hikey_optee/optee_os/lib/libutee/tee_api_operations.c:1178
    3fd8:	2a0203e2 	mov	w2, w2
/home/rahulmahadev/hikey_optee/optee_os/lib/libutee/tee_api_operations.c:1177
    3fdc:	f81f8c80 	str	x0, [x4,#-8]!
/home/rahulmahadev/hikey_optee/optee_os/lib/libutee/tee_api_operations.c:1178
    3fe0:	b9405a80 	ldr	w0, [x20,#88]
    3fe4:	94001fda 	bl	bf4c <utee_hash_final>
    3fe8:	2a0003f3 	mov	w19, w0
/home/rahulmahadev/hikey_optee/optee_os/lib/libutee/tee_api_operations.c:1179
    3fec:	f9401fa0 	ldr	x0, [x29,#56]
    3ff0:	b90002a0 	str	w0, [x21]
/home/rahulmahadev/hikey_optee/optee_os/lib/libutee/tee_api_operations.c:1180
    3ff4:	350000f3 	cbnz	w19, 4010 <TEE_MACComputeFinal+0x94>
/home/rahulmahadev/hikey_optee/optee_os/lib/libutee/tee_api_operations.c:1183
    3ff8:	b9401e80 	ldr	w0, [x20,#28]
/home/rahulmahadev/hikey_optee/optee_os/lib/libutee/tee_api_operations.c:1185
    3ffc:	b900329f 	str	wzr, [x20,#48]
/home/rahulmahadev/hikey_optee/optee_os/lib/libutee/tee_api_operations.c:1183
    4000:	120e7800 	and	w0, w0, #0xfffdffff
    4004:	b9001e80 	str	w0, [x20,#28]
    4008:	14000002 	b	4010 <TEE_MACComputeFinal+0x94>
/home/rahulmahadev/hikey_optee/optee_os/lib/libutee/tee_api_operations.c:1158
    400c:	129fff33 	mov	w19, #0xffff0006            	// #-65530
/home/rahulmahadev/hikey_optee/optee_os/lib/libutee/tee_api_operations.c:1188
    4010:	129ffde0 	mov	w0, #0xffff0010            	// #-65520
    4014:	6b00027f 	cmp	w19, w0
    4018:	540001a0 	b.eq	404c <TEE_MACComputeFinal+0xd0>
    401c:	34000193 	cbz	w19, 404c <TEE_MACComputeFinal+0xd0>
/home/rahulmahadev/hikey_optee/optee_os/lib/libutee/tee_api_operations.c:1190
    4020:	b0000044 	adrp	x4, d000 <PRIME_TABLE+0x388>
    4024:	90000040 	adrp	x0, c000 <utee_authenc_update_aad>
    4028:	911de000 	add	x0, x0, #0x778
    402c:	2a1303e5 	mov	w5, w19
    4030:	91235c84 	add	x4, x4, #0x8d7
    4034:	52800023 	mov	w3, #0x1                   	// #1
    4038:	52800022 	mov	w2, #0x1                   	// #1
    403c:	528094c1 	mov	w1, #0x4a6                 	// #1190
    4040:	94000fb6 	bl	7f18 <trace_printf>
    4044:	2a1303e0 	mov	w0, w19
    4048:	940004d4 	bl	5398 <__TEE_Panic>
/home/rahulmahadev/hikey_optee/optee_os/lib/libutee/tee_api_operations.c:1193
    404c:	2a1303e0 	mov	w0, w19
    4050:	f94013f5 	ldr	x21, [sp,#32]
    4054:	a94153f3 	ldp	x19, x20, [sp,#16]
    4058:	a8c47bfd 	ldp	x29, x30, [sp],#64
    405c:	d65f03c0 	ret

0000000000004060 <TEE_MACCompareFinal>:
TEE_MACCompareFinal():
/home/rahulmahadev/hikey_optee/optee_os/lib/libutee/tee_api_operations.c:1198
    4060:	a9b77bfd 	stp	x29, x30, [sp,#-144]!
    4064:	910003fd 	mov	x29, sp
    4068:	a9025bf5 	stp	x21, x22, [sp,#32]
    406c:	aa0303f6 	mov	x22, x3
/home/rahulmahadev/hikey_optee/optee_os/lib/libutee/tee_api_operations.c:1201
    4070:	52800803 	mov	w3, #0x40                  	// #64
    4074:	b9004fa3 	str	w3, [x29,#76]
/home/rahulmahadev/hikey_optee/optee_os/lib/libutee/tee_api_operations.c:1203
    4078:	b9400403 	ldr	w3, [x0,#4]
/home/rahulmahadev/hikey_optee/optee_os/lib/libutee/tee_api_operations.c:1198
    407c:	a90153f3 	stp	x19, x20, [sp,#16]
    4080:	f9001bf7 	str	x23, [sp,#48]
/home/rahulmahadev/hikey_optee/optee_os/lib/libutee/tee_api_operations.c:1203
    4084:	71000c7f 	cmp	w3, #0x3
/home/rahulmahadev/hikey_optee/optee_os/lib/libutee/tee_api_operations.c:1198
    4088:	aa0003f4 	mov	x20, x0
    408c:	2a0403f7 	mov	w23, w4
/home/rahulmahadev/hikey_optee/optee_os/lib/libutee/tee_api_operations.c:1204
    4090:	129fff33 	mov	w19, #0xffff0006            	// #-65530
/home/rahulmahadev/hikey_optee/optee_os/lib/libutee/tee_api_operations.c:1203
    4094:	540002e1 	b.ne	40f0 <TEE_MACCompareFinal+0x90>
/home/rahulmahadev/hikey_optee/optee_os/lib/libutee/tee_api_operations.c:1208
    4098:	b9401c03 	ldr	w3, [x0,#28]
    409c:	368802a3 	tbz	w3, #17, 40f0 <TEE_MACCompareFinal+0x90>
/home/rahulmahadev/hikey_optee/optee_os/lib/libutee/tee_api_operations.c:1213
    40a0:	b9403003 	ldr	w3, [x0,#48]
    40a4:	7100047f 	cmp	w3, #0x1
    40a8:	54000241 	b.ne	40f0 <TEE_MACCompareFinal+0x90>
/home/rahulmahadev/hikey_optee/optee_os/lib/libutee/tee_api_operations.c:1218
    40ac:	910143b5 	add	x21, x29, #0x50
    40b0:	910133a4 	add	x4, x29, #0x4c
    40b4:	aa1503e3 	mov	x3, x21
    40b8:	97ffffb1 	bl	3f7c <TEE_MACComputeFinal>
    40bc:	2a0003f3 	mov	w19, w0
/home/rahulmahadev/hikey_optee/optee_os/lib/libutee/tee_api_operations.c:1220
    40c0:	35000180 	cbnz	w0, 40f0 <TEE_MACCompareFinal+0x90>
/home/rahulmahadev/hikey_optee/optee_os/lib/libutee/tee_api_operations.c:1223
    40c4:	b9404fa2 	ldr	w2, [x29,#76]
    40c8:	6b17005f 	cmp	w2, w23
    40cc:	54000060 	b.eq	40d8 <TEE_MACCompareFinal+0x78>
/home/rahulmahadev/hikey_optee/optee_os/lib/libutee/tee_api_operations.c:1224
    40d0:	1299f1d3 	mov	w19, #0xffff3071            	// #-53135
    40d4:	14000007 	b	40f0 <TEE_MACCompareFinal+0x90>
/home/rahulmahadev/hikey_optee/optee_os/lib/libutee/tee_api_operations.c:1228
    40d8:	2a0203e2 	mov	w2, w2
    40dc:	aa1503e1 	mov	x1, x21
    40e0:	aa1603e0 	mov	x0, x22
    40e4:	94000f71 	bl	7ea8 <buf_compare_ct>
    40e8:	35ffff40 	cbnz	w0, 40d0 <TEE_MACCompareFinal+0x70>
/home/rahulmahadev/hikey_optee/optee_os/lib/libutee/tee_api_operations.c:1233
    40ec:	b900329f 	str	wzr, [x20,#48]
/home/rahulmahadev/hikey_optee/optee_os/lib/libutee/tee_api_operations.c:1236
    40f0:	1299f1c0 	mov	w0, #0xffff3071            	// #-53135
    40f4:	6b00027f 	cmp	w19, w0
    40f8:	540001a0 	b.eq	412c <TEE_MACCompareFinal+0xcc>
    40fc:	34000193 	cbz	w19, 412c <TEE_MACCompareFinal+0xcc>
/home/rahulmahadev/hikey_optee/optee_os/lib/libutee/tee_api_operations.c:1238
    4100:	b0000044 	adrp	x4, d000 <PRIME_TABLE+0x388>
    4104:	90000040 	adrp	x0, c000 <utee_authenc_update_aad>
    4108:	91236000 	add	x0, x0, #0x8d8
    410c:	2a1303e5 	mov	w5, w19
    4110:	91235c84 	add	x4, x4, #0x8d7
    4114:	52800023 	mov	w3, #0x1                   	// #1
    4118:	52800022 	mov	w2, #0x1                   	// #1
    411c:	52809ac1 	mov	w1, #0x4d6                 	// #1238
    4120:	94000f7e 	bl	7f18 <trace_printf>
    4124:	2a1303e0 	mov	w0, w19
    4128:	9400049c 	bl	5398 <__TEE_Panic>
/home/rahulmahadev/hikey_optee/optee_os/lib/libutee/tee_api_operations.c:1241
    412c:	2a1303e0 	mov	w0, w19
    4130:	f9401bf7 	ldr	x23, [sp,#48]
    4134:	a94153f3 	ldp	x19, x20, [sp,#16]
    4138:	a9425bf5 	ldp	x21, x22, [sp,#32]
    413c:	a8c97bfd 	ldp	x29, x30, [sp],#144
    4140:	d65f03c0 	ret

0000000000004144 <TEE_AEInit>:
TEE_AEInit():
/home/rahulmahadev/hikey_optee/optee_os/lib/libutee/tee_api_operations.c:1248
    4144:	a9bd7bfd 	stp	x29, x30, [sp,#-48]!
    4148:	910003fd 	mov	x29, sp
    414c:	a90153f3 	stp	x19, x20, [sp,#16]
    4150:	f90013f5 	str	x21, [sp,#32]
    4154:	aa0003f4 	mov	x20, x0
/home/rahulmahadev/hikey_optee/optee_os/lib/libutee/tee_api_operations.c:1251
    4158:	b4000420 	cbz	x0, 41dc <TEE_AEInit+0x98>
    415c:	b4000401 	cbz	x1, 41dc <TEE_AEInit+0x98>
/home/rahulmahadev/hikey_optee/optee_os/lib/libutee/tee_api_operations.c:1256
    4160:	b9400400 	ldr	w0, [x0,#4]
/home/rahulmahadev/hikey_optee/optee_os/lib/libutee/tee_api_operations.c:1252
    4164:	129fff33 	mov	w19, #0xffff0006            	// #-65530
/home/rahulmahadev/hikey_optee/optee_os/lib/libutee/tee_api_operations.c:1256
    4168:	7100101f 	cmp	w0, #0x4
    416c:	540003a1 	b.ne	41e0 <TEE_AEInit+0x9c>
/home/rahulmahadev/hikey_optee/optee_os/lib/libutee/tee_api_operations.c:1261
    4170:	b9403280 	ldr	w0, [x20,#48]
    4174:	35000360 	cbnz	w0, 41e0 <TEE_AEInit+0x9c>
/home/rahulmahadev/hikey_optee/optee_os/lib/libutee/tee_api_operations.c:1272
    4178:	52810200 	mov	w0, #0x810                 	// #2064
    417c:	b9400286 	ldr	w6, [x20]
    4180:	72a80000 	movk	w0, #0x4000, lsl #16
    4184:	6b0000df 	cmp	w6, w0
    4188:	540000e1 	b.ne	41a4 <TEE_AEInit+0x60>
/home/rahulmahadev/hikey_optee/optee_os/lib/libutee/tee_api_operations.c:1276
    418c:	51018060 	sub	w0, w3, #0x60
/home/rahulmahadev/hikey_optee/optee_os/lib/libutee/tee_api_operations.c:1277
    4190:	129ffeb3 	mov	w19, #0xffff000a            	// #-65526
/home/rahulmahadev/hikey_optee/optee_os/lib/libutee/tee_api_operations.c:1276
    4194:	7100801f 	cmp	w0, #0x20
    4198:	54000248 	b.hi	41e0 <TEE_AEInit+0x9c>
/home/rahulmahadev/hikey_optee/optee_os/lib/libutee/tee_api_operations.c:1276 (discriminator 1)
    419c:	12000860 	and	w0, w3, #0x7
    41a0:	35000200 	cbnz	w0, 41e0 <TEE_AEInit+0x9c>
/home/rahulmahadev/hikey_optee/optee_os/lib/libutee/tee_api_operations.c:1282
    41a4:	b9405a80 	ldr	w0, [x20,#88]
/home/rahulmahadev/hikey_optee/optee_os/lib/libutee/tee_api_operations.c:1283
    41a8:	53037c63 	lsr	w3, w3, #3
/home/rahulmahadev/hikey_optee/optee_os/lib/libutee/tee_api_operations.c:1282
    41ac:	2a0503e5 	mov	w5, w5
    41b0:	2a0403e4 	mov	w4, w4
    41b4:	2a0203e2 	mov	w2, w2
/home/rahulmahadev/hikey_optee/optee_os/lib/libutee/tee_api_operations.c:1283
    41b8:	aa0303f5 	mov	x21, x3
/home/rahulmahadev/hikey_optee/optee_os/lib/libutee/tee_api_operations.c:1282
    41bc:	94001f8e 	bl	bff4 <utee_authenc_init>
    41c0:	2a0003f3 	mov	w19, w0
/home/rahulmahadev/hikey_optee/optee_os/lib/libutee/tee_api_operations.c:1284
    41c4:	350000e0 	cbnz	w0, 41e0 <TEE_AEInit+0x9c>
/home/rahulmahadev/hikey_optee/optee_os/lib/libutee/tee_api_operations.c:1288
    41c8:	b9401e80 	ldr	w0, [x20,#28]
/home/rahulmahadev/hikey_optee/optee_os/lib/libutee/tee_api_operations.c:1287
    41cc:	b9005e95 	str	w21, [x20,#92]
/home/rahulmahadev/hikey_optee/optee_os/lib/libutee/tee_api_operations.c:1288
    41d0:	320f0000 	orr	w0, w0, #0x20000
    41d4:	b9001e80 	str	w0, [x20,#28]
    41d8:	14000002 	b	41e0 <TEE_AEInit+0x9c>
/home/rahulmahadev/hikey_optee/optee_os/lib/libutee/tee_api_operations.c:1252
    41dc:	129fff33 	mov	w19, #0xffff0006            	// #-65530
/home/rahulmahadev/hikey_optee/optee_os/lib/libutee/tee_api_operations.c:1291
    41e0:	129ffea0 	mov	w0, #0xffff000a            	// #-65526
    41e4:	6b00027f 	cmp	w19, w0
    41e8:	540001a0 	b.eq	421c <TEE_AEInit+0xd8>
    41ec:	34000193 	cbz	w19, 421c <TEE_AEInit+0xd8>
/home/rahulmahadev/hikey_optee/optee_os/lib/libutee/tee_api_operations.c:1293
    41f0:	b0000044 	adrp	x4, d000 <PRIME_TABLE+0x388>
    41f4:	90000040 	adrp	x0, c000 <utee_authenc_update_aad>
    41f8:	91276000 	add	x0, x0, #0x9d8
    41fc:	2a1303e5 	mov	w5, w19
    4200:	91235c84 	add	x4, x4, #0x8d7
    4204:	52800023 	mov	w3, #0x1                   	// #1
    4208:	52800022 	mov	w2, #0x1                   	// #1
    420c:	5280a1a1 	mov	w1, #0x50d                 	// #1293
    4210:	94000f42 	bl	7f18 <trace_printf>
    4214:	2a1303e0 	mov	w0, w19
    4218:	94000460 	bl	5398 <__TEE_Panic>
/home/rahulmahadev/hikey_optee/optee_os/lib/libutee/tee_api_operations.c:1296
    421c:	2a1303e0 	mov	w0, w19
    4220:	f94013f5 	ldr	x21, [sp,#32]
    4224:	a94153f3 	ldp	x19, x20, [sp,#16]
    4228:	a8c37bfd 	ldp	x29, x30, [sp],#48
    422c:	d65f03c0 	ret

0000000000004230 <TEE_AEUpdateAAD>:
TEE_AEUpdateAAD():
/home/rahulmahadev/hikey_optee/optee_os/lib/libutee/tee_api_operations.c:1300
    4230:	a9bd7bfd 	stp	x29, x30, [sp,#-48]!
    4234:	910003fd 	mov	x29, sp
    4238:	a90153f3 	stp	x19, x20, [sp,#16]
    423c:	f90013f5 	str	x21, [sp,#32]
    4240:	aa0003f3 	mov	x19, x0
    4244:	aa0103f4 	mov	x20, x1
    4248:	2a0203f5 	mov	w21, w2
/home/rahulmahadev/hikey_optee/optee_os/lib/libutee/tee_api_operations.c:1303
    424c:	b4000060 	cbz	x0, 4258 <TEE_AEUpdateAAD+0x28>
/home/rahulmahadev/hikey_optee/optee_os/lib/libutee/tee_api_operations.c:1303 (discriminator 1)
    4250:	b50001a1 	cbnz	x1, 4284 <TEE_AEUpdateAAD+0x54>
    4254:	34000182 	cbz	w2, 4284 <TEE_AEUpdateAAD+0x54>
/home/rahulmahadev/hikey_optee/optee_os/lib/libutee/tee_api_operations.c:1305
    4258:	b0000044 	adrp	x4, d000 <PRIME_TABLE+0x388>
    425c:	90000040 	adrp	x0, c000 <utee_authenc_update_aad>
    4260:	9127e000 	add	x0, x0, #0x9f8
    4264:	52800005 	mov	w5, #0x0                   	// #0
    4268:	91235c84 	add	x4, x4, #0x8d7
    426c:	52800023 	mov	w3, #0x1                   	// #1
    4270:	52800022 	mov	w2, #0x1                   	// #1
    4274:	5280a321 	mov	w1, #0x519                 	// #1305
    4278:	94000f28 	bl	7f18 <trace_printf>
    427c:	52800000 	mov	w0, #0x0                   	// #0
    4280:	94000446 	bl	5398 <__TEE_Panic>
/home/rahulmahadev/hikey_optee/optee_os/lib/libutee/tee_api_operations.c:1307
    4284:	b9400660 	ldr	w0, [x19,#4]
    4288:	7100101f 	cmp	w0, #0x4
    428c:	54000180 	b.eq	42bc <TEE_AEUpdateAAD+0x8c>
/home/rahulmahadev/hikey_optee/optee_os/lib/libutee/tee_api_operations.c:1308
    4290:	b0000044 	adrp	x4, d000 <PRIME_TABLE+0x388>
    4294:	90000040 	adrp	x0, c000 <utee_authenc_update_aad>
    4298:	9127e000 	add	x0, x0, #0x9f8
    429c:	52800005 	mov	w5, #0x0                   	// #0
    42a0:	91235c84 	add	x4, x4, #0x8d7
    42a4:	52800023 	mov	w3, #0x1                   	// #1
    42a8:	52800022 	mov	w2, #0x1                   	// #1
    42ac:	5280a381 	mov	w1, #0x51c                 	// #1308
    42b0:	94000f1a 	bl	7f18 <trace_printf>
    42b4:	52800000 	mov	w0, #0x0                   	// #0
    42b8:	94000438 	bl	5398 <__TEE_Panic>
/home/rahulmahadev/hikey_optee/optee_os/lib/libutee/tee_api_operations.c:1310
    42bc:	b9401e60 	ldr	w0, [x19,#28]
    42c0:	37880180 	tbnz	w0, #17, 42f0 <TEE_AEUpdateAAD+0xc0>
/home/rahulmahadev/hikey_optee/optee_os/lib/libutee/tee_api_operations.c:1311
    42c4:	b0000044 	adrp	x4, d000 <PRIME_TABLE+0x388>
    42c8:	90000040 	adrp	x0, c000 <utee_authenc_update_aad>
    42cc:	9127e000 	add	x0, x0, #0x9f8
    42d0:	52800005 	mov	w5, #0x0                   	// #0
    42d4:	91235c84 	add	x4, x4, #0x8d7
    42d8:	52800023 	mov	w3, #0x1                   	// #1
    42dc:	52800022 	mov	w2, #0x1                   	// #1
    42e0:	5280a3e1 	mov	w1, #0x51f                 	// #1311
    42e4:	94000f0d 	bl	7f18 <trace_printf>
    42e8:	52800000 	mov	w0, #0x0                   	// #0
    42ec:	9400042b 	bl	5398 <__TEE_Panic>
/home/rahulmahadev/hikey_optee/optee_os/lib/libutee/tee_api_operations.c:1313
    42f0:	b9405a60 	ldr	w0, [x19,#88]
    42f4:	2a1503e2 	mov	w2, w21
    42f8:	aa1403e1 	mov	x1, x20
    42fc:	94001f41 	bl	c000 <utee_authenc_update_aad>
    4300:	2a0003f4 	mov	w20, w0
/home/rahulmahadev/hikey_optee/optee_os/lib/libutee/tee_api_operations.c:1315
    4304:	52800022 	mov	w2, #0x1                   	// #1
    4308:	b9003262 	str	w2, [x19,#48]
/home/rahulmahadev/hikey_optee/optee_os/lib/libutee/tee_api_operations.c:1317
    430c:	340001c0 	cbz	w0, 4344 <TEE_AEUpdateAAD+0x114>
/home/rahulmahadev/hikey_optee/optee_os/lib/libutee/tee_api_operations.c:1318
    4310:	2a0003e5 	mov	w5, w0
    4314:	b0000044 	adrp	x4, d000 <PRIME_TABLE+0x388>
    4318:	90000040 	adrp	x0, c000 <utee_authenc_update_aad>
    431c:	91235c84 	add	x4, x4, #0x8d7
    4320:	2a0203e3 	mov	w3, w2
    4324:	5280a4c1 	mov	w1, #0x526                 	// #1318
    4328:	9127e000 	add	x0, x0, #0x9f8
    432c:	94000efb 	bl	7f18 <trace_printf>
/home/rahulmahadev/hikey_optee/optee_os/lib/libutee/tee_api_operations.c:1319
    4330:	f94013f5 	ldr	x21, [sp,#32]
/home/rahulmahadev/hikey_optee/optee_os/lib/libutee/tee_api_operations.c:1318
    4334:	2a1403e0 	mov	w0, w20
/home/rahulmahadev/hikey_optee/optee_os/lib/libutee/tee_api_operations.c:1319
    4338:	a94153f3 	ldp	x19, x20, [sp,#16]
    433c:	a8c37bfd 	ldp	x29, x30, [sp],#48
/home/rahulmahadev/hikey_optee/optee_os/lib/libutee/tee_api_operations.c:1318
    4340:	14000416 	b	5398 <__TEE_Panic>
/home/rahulmahadev/hikey_optee/optee_os/lib/libutee/tee_api_operations.c:1319
    4344:	a94153f3 	ldp	x19, x20, [sp,#16]
    4348:	f94013f5 	ldr	x21, [sp,#32]
    434c:	a8c37bfd 	ldp	x29, x30, [sp],#48
    4350:	d65f03c0 	ret

0000000000004354 <TEE_AEUpdate>:
TEE_AEUpdate():
/home/rahulmahadev/hikey_optee/optee_os/lib/libutee/tee_api_operations.c:1323
    4354:	a9bc7bfd 	stp	x29, x30, [sp,#-64]!
    4358:	910003fd 	mov	x29, sp
    435c:	a90153f3 	stp	x19, x20, [sp,#16]
    4360:	f90013f5 	str	x21, [sp,#32]
    4364:	aa0003f4 	mov	x20, x0
    4368:	aa0403f5 	mov	x21, x4
/home/rahulmahadev/hikey_optee/optee_os/lib/libutee/tee_api_operations.c:1332
    436c:	129fff33 	mov	w19, #0xffff0006            	// #-65530
/home/rahulmahadev/hikey_optee/optee_os/lib/libutee/tee_api_operations.c:1328
    4370:	b4000580 	cbz	x0, 4420 <TEE_AEUpdate+0xcc>
/home/rahulmahadev/hikey_optee/optee_os/lib/libutee/tee_api_operations.c:1329 (discriminator 1)
    4374:	b4000544 	cbz	x4, 441c <TEE_AEUpdate+0xc8>
    4378:	eb1f003f 	cmp	x1, xzr
    437c:	1a9f17e4 	cset	w4, eq
    4380:	6b1f005f 	cmp	w2, wzr
    4384:	1a9f07e0 	cset	w0, ne
    4388:	6a00009f 	tst	w4, w0
    438c:	54000481 	b.ne	441c <TEE_AEUpdate+0xc8>
/home/rahulmahadev/hikey_optee/optee_os/lib/libutee/tee_api_operations.c:1330
    4390:	b5000063 	cbnz	x3, 439c <TEE_AEUpdate+0x48>
/home/rahulmahadev/hikey_optee/optee_os/lib/libutee/tee_api_operations.c:1331
    4394:	b94002a0 	ldr	w0, [x21]
    4398:	35000440 	cbnz	w0, 4420 <TEE_AEUpdate+0xcc>
/home/rahulmahadev/hikey_optee/optee_os/lib/libutee/tee_api_operations.c:1336
    439c:	b9400680 	ldr	w0, [x20,#4]
/home/rahulmahadev/hikey_optee/optee_os/lib/libutee/tee_api_operations.c:1332
    43a0:	129fff33 	mov	w19, #0xffff0006            	// #-65530
/home/rahulmahadev/hikey_optee/optee_os/lib/libutee/tee_api_operations.c:1336
    43a4:	7100101f 	cmp	w0, #0x4
    43a8:	540003c1 	b.ne	4420 <TEE_AEUpdate+0xcc>
/home/rahulmahadev/hikey_optee/optee_os/lib/libutee/tee_api_operations.c:1341
    43ac:	b9401e80 	ldr	w0, [x20,#28]
    43b0:	36880380 	tbz	w0, #17, 4420 <TEE_AEUpdate+0xcc>
/home/rahulmahadev/hikey_optee/optee_os/lib/libutee/tee_api_operations.c:1351
    43b4:	f9402a80 	ldr	x0, [x20,#80]
    43b8:	8b224005 	add	x5, x0, w2, uxtw
    43bc:	f9402680 	ldr	x0, [x20,#72]
/home/rahulmahadev/hikey_optee/optee_os/lib/libutee/tee_api_operations.c:1353
    43c0:	b94002a4 	ldr	w4, [x21]
/home/rahulmahadev/hikey_optee/optee_os/lib/libutee/tee_api_operations.c:1351
    43c4:	cb0003e0 	neg	x0, x0
    43c8:	8a0000a0 	and	x0, x5, x0
/home/rahulmahadev/hikey_optee/optee_os/lib/libutee/tee_api_operations.c:1353
    43cc:	eb00009f 	cmp	x4, x0
    43d0:	54000082 	b.cs	43e0 <TEE_AEUpdate+0x8c>
/home/rahulmahadev/hikey_optee/optee_os/lib/libutee/tee_api_operations.c:1354
    43d4:	b90002a0 	str	w0, [x21]
/home/rahulmahadev/hikey_optee/optee_os/lib/libutee/tee_api_operations.c:1355
    43d8:	129ffdf3 	mov	w19, #0xffff0010            	// #-65520
/home/rahulmahadev/hikey_optee/optee_os/lib/libutee/tee_api_operations.c:1356
    43dc:	14000011 	b	4420 <TEE_AEUpdate+0xcc>
/home/rahulmahadev/hikey_optee/optee_os/lib/libutee/tee_api_operations.c:1359
    43e0:	910103a5 	add	x5, x29, #0x40
/home/rahulmahadev/hikey_optee/optee_os/lib/libutee/tee_api_operations.c:1360
    43e4:	aa1403e0 	mov	x0, x20
/home/rahulmahadev/hikey_optee/optee_os/lib/libutee/tee_api_operations.c:1359
    43e8:	f81f8ca4 	str	x4, [x5,#-8]!
/home/rahulmahadev/hikey_optee/optee_os/lib/libutee/tee_api_operations.c:1360
    43ec:	aa0303e4 	mov	x4, x3
    43f0:	2a0203e3 	mov	w3, w2
    43f4:	aa0103e2 	mov	x2, x1
    43f8:	d0000041 	adrp	x1, e000 <__compound_literal.2+0x72a>
    43fc:	f9409c21 	ldr	x1, [x1,#312]
    4400:	97fff7d3 	bl	234c <tee_buffer_update>
    4404:	2a0003f3 	mov	w19, w0
/home/rahulmahadev/hikey_optee/optee_os/lib/libutee/tee_api_operations.c:1362
    4408:	f9401fa0 	ldr	x0, [x29,#56]
    440c:	b90002a0 	str	w0, [x21]
/home/rahulmahadev/hikey_optee/optee_os/lib/libutee/tee_api_operations.c:1364
    4410:	52800020 	mov	w0, #0x1                   	// #1
    4414:	b9003280 	str	w0, [x20,#48]
    4418:	14000002 	b	4420 <TEE_AEUpdate+0xcc>
/home/rahulmahadev/hikey_optee/optee_os/lib/libutee/tee_api_operations.c:1332
    441c:	129fff33 	mov	w19, #0xffff0006            	// #-65530
/home/rahulmahadev/hikey_optee/optee_os/lib/libutee/tee_api_operations.c:1367
    4420:	129ffde0 	mov	w0, #0xffff0010            	// #-65520
    4424:	6b00027f 	cmp	w19, w0
    4428:	540001a0 	b.eq	445c <TEE_AEUpdate+0x108>
    442c:	34000193 	cbz	w19, 445c <TEE_AEUpdate+0x108>
/home/rahulmahadev/hikey_optee/optee_os/lib/libutee/tee_api_operations.c:1369
    4430:	b0000044 	adrp	x4, d000 <PRIME_TABLE+0x388>
    4434:	90000040 	adrp	x0, c000 <utee_authenc_update_aad>
    4438:	911ea000 	add	x0, x0, #0x7a8
    443c:	2a1303e5 	mov	w5, w19
    4440:	91235c84 	add	x4, x4, #0x8d7
    4444:	52800023 	mov	w3, #0x1                   	// #1
    4448:	52800022 	mov	w2, #0x1                   	// #1
    444c:	5280ab21 	mov	w1, #0x559                 	// #1369
    4450:	94000eb2 	bl	7f18 <trace_printf>
    4454:	2a1303e0 	mov	w0, w19
    4458:	940003d0 	bl	5398 <__TEE_Panic>
/home/rahulmahadev/hikey_optee/optee_os/lib/libutee/tee_api_operations.c:1372
    445c:	2a1303e0 	mov	w0, w19
    4460:	f94013f5 	ldr	x21, [sp,#32]
    4464:	a94153f3 	ldp	x19, x20, [sp,#16]
    4468:	a8c47bfd 	ldp	x29, x30, [sp],#64
    446c:	d65f03c0 	ret

0000000000004470 <TEE_AEEncryptFinal>:
TEE_AEEncryptFinal():
/home/rahulmahadev/hikey_optee/optee_os/lib/libutee/tee_api_operations.c:1378
    4470:	a9ba7bfd 	stp	x29, x30, [sp,#-96]!
    4474:	910003fd 	mov	x29, sp
    4478:	a90153f3 	stp	x19, x20, [sp,#16]
    447c:	a9025bf5 	stp	x21, x22, [sp,#32]
    4480:	a9046bf9 	stp	x25, x26, [sp,#64]
    4484:	a90363f7 	stp	x23, x24, [sp,#48]
    4488:	aa0003f4 	mov	x20, x0
    448c:	aa0303f9 	mov	x25, x3
    4490:	aa0403f5 	mov	x21, x4
    4494:	aa0503fa 	mov	x26, x5
    4498:	aa0603f6 	mov	x22, x6
/home/rahulmahadev/hikey_optee/optee_os/lib/libutee/tee_api_operations.c:1391
    449c:	129fff33 	mov	w19, #0xffff0006            	// #-65530
/home/rahulmahadev/hikey_optee/optee_os/lib/libutee/tee_api_operations.c:1386
    44a0:	b4000900 	cbz	x0, 45c0 <TEE_AEEncryptFinal+0x150>
/home/rahulmahadev/hikey_optee/optee_os/lib/libutee/tee_api_operations.c:1387 (discriminator 1)
    44a4:	b40008c4 	cbz	x4, 45bc <TEE_AEEncryptFinal+0x14c>
    44a8:	eb1f003f 	cmp	x1, xzr
    44ac:	1a9f17e3 	cset	w3, eq
    44b0:	6b1f005f 	cmp	w2, wzr
    44b4:	1a9f07e0 	cset	w0, ne
    44b8:	6a00007f 	tst	w3, w0
    44bc:	54000801 	b.ne	45bc <TEE_AEEncryptFinal+0x14c>
/home/rahulmahadev/hikey_optee/optee_os/lib/libutee/tee_api_operations.c:1388
    44c0:	b5000079 	cbnz	x25, 44cc <TEE_AEEncryptFinal+0x5c>
/home/rahulmahadev/hikey_optee/optee_os/lib/libutee/tee_api_operations.c:1389
    44c4:	b9400080 	ldr	w0, [x4]
    44c8:	350007c0 	cbnz	w0, 45c0 <TEE_AEEncryptFinal+0x150>
/home/rahulmahadev/hikey_optee/optee_os/lib/libutee/tee_api_operations.c:1390
    44cc:	b400079a 	cbz	x26, 45bc <TEE_AEEncryptFinal+0x14c>
    44d0:	b4000776 	cbz	x22, 45bc <TEE_AEEncryptFinal+0x14c>
/home/rahulmahadev/hikey_optee/optee_os/lib/libutee/tee_api_operations.c:1395
    44d4:	b9400680 	ldr	w0, [x20,#4]
/home/rahulmahadev/hikey_optee/optee_os/lib/libutee/tee_api_operations.c:1391
    44d8:	129fff33 	mov	w19, #0xffff0006            	// #-65530
/home/rahulmahadev/hikey_optee/optee_os/lib/libutee/tee_api_operations.c:1395
    44dc:	7100101f 	cmp	w0, #0x4
    44e0:	54000701 	b.ne	45c0 <TEE_AEEncryptFinal+0x150>
/home/rahulmahadev/hikey_optee/optee_os/lib/libutee/tee_api_operations.c:1400
    44e4:	b9401e80 	ldr	w0, [x20,#28]
    44e8:	368806c0 	tbz	w0, #17, 45c0 <TEE_AEEncryptFinal+0x150>
/home/rahulmahadev/hikey_optee/optee_os/lib/libutee/tee_api_operations.c:1411
    44ec:	b94002a3 	ldr	w3, [x21]
/home/rahulmahadev/hikey_optee/optee_os/lib/libutee/tee_api_operations.c:1410
    44f0:	f9402a80 	ldr	x0, [x20,#80]
    44f4:	8b224000 	add	x0, x0, w2, uxtw
/home/rahulmahadev/hikey_optee/optee_os/lib/libutee/tee_api_operations.c:1411
    44f8:	eb00007f 	cmp	x3, x0
    44fc:	54000062 	b.cs	4508 <TEE_AEEncryptFinal+0x98>
/home/rahulmahadev/hikey_optee/optee_os/lib/libutee/tee_api_operations.c:1412
    4500:	b90002a0 	str	w0, [x21]
    4504:	14000006 	b	451c <TEE_AEEncryptFinal+0xac>
/home/rahulmahadev/hikey_optee/optee_os/lib/libutee/tee_api_operations.c:1421
    4508:	b9405e80 	ldr	w0, [x20,#92]
    450c:	b94002c4 	ldr	w4, [x22]
    4510:	6b00009f 	cmp	w4, w0
    4514:	54000082 	b.cs	4524 <TEE_AEEncryptFinal+0xb4>
/home/rahulmahadev/hikey_optee/optee_os/lib/libutee/tee_api_operations.c:1422
    4518:	b90002c0 	str	w0, [x22]
/home/rahulmahadev/hikey_optee/optee_os/lib/libutee/tee_api_operations.c:1423
    451c:	129ffdf3 	mov	w19, #0xffff0010            	// #-65520
/home/rahulmahadev/hikey_optee/optee_os/lib/libutee/tee_api_operations.c:1424
    4520:	14000028 	b	45c0 <TEE_AEEncryptFinal+0x150>
/home/rahulmahadev/hikey_optee/optee_os/lib/libutee/tee_api_operations.c:1427
    4524:	910183b7 	add	x23, x29, #0x60
/home/rahulmahadev/hikey_optee/optee_os/lib/libutee/tee_api_operations.c:1428
    4528:	aa1903e4 	mov	x4, x25
    452c:	aa1403e0 	mov	x0, x20
/home/rahulmahadev/hikey_optee/optee_os/lib/libutee/tee_api_operations.c:1427
    4530:	f81f0ee3 	str	x3, [x23,#-16]!
/home/rahulmahadev/hikey_optee/optee_os/lib/libutee/tee_api_operations.c:1428
    4534:	2a0203e3 	mov	w3, w2
    4538:	aa0103e2 	mov	x2, x1
    453c:	d0000041 	adrp	x1, e000 <__compound_literal.2+0x72a>
    4540:	aa1703e5 	mov	x5, x23
    4544:	f9409c21 	ldr	x1, [x1,#312]
    4548:	97fff781 	bl	234c <tee_buffer_update>
    454c:	2a0003f3 	mov	w19, w0
/home/rahulmahadev/hikey_optee/optee_os/lib/libutee/tee_api_operations.c:1430
    4550:	35000380 	cbnz	w0, 45c0 <TEE_AEEncryptFinal+0x150>
/home/rahulmahadev/hikey_optee/optee_os/lib/libutee/tee_api_operations.c:1433
    4554:	f9402bb8 	ldr	x24, [x29,#80]
/home/rahulmahadev/hikey_optee/optee_os/lib/libutee/tee_api_operations.c:1437
    4558:	910183a6 	add	x6, x29, #0x60
/home/rahulmahadev/hikey_optee/optee_os/lib/libutee/tee_api_operations.c:1436
    455c:	b94002a0 	ldr	w0, [x21]
/home/rahulmahadev/hikey_optee/optee_os/lib/libutee/tee_api_operations.c:1438
    4560:	aa1a03e5 	mov	x5, x26
    4564:	f9402a82 	ldr	x2, [x20,#80]
    4568:	aa1703e4 	mov	x4, x23
/home/rahulmahadev/hikey_optee/optee_os/lib/libutee/tee_api_operations.c:1436
    456c:	cb180000 	sub	x0, x0, x24
    4570:	f9002ba0 	str	x0, [x29,#80]
/home/rahulmahadev/hikey_optee/optee_os/lib/libutee/tee_api_operations.c:1437
    4574:	b94002c0 	ldr	w0, [x22]
/home/rahulmahadev/hikey_optee/optee_os/lib/libutee/tee_api_operations.c:1438
    4578:	8b180323 	add	x3, x25, x24
/home/rahulmahadev/hikey_optee/optee_os/lib/libutee/tee_api_operations.c:1437
    457c:	f81f8cc0 	str	x0, [x6,#-8]!
/home/rahulmahadev/hikey_optee/optee_os/lib/libutee/tee_api_operations.c:1438
    4580:	f9401e81 	ldr	x1, [x20,#56]
    4584:	b9405a80 	ldr	w0, [x20,#88]
    4588:	94001ea4 	bl	c018 <utee_authenc_enc_final>
    458c:	2a0003f3 	mov	w19, w0
/home/rahulmahadev/hikey_optee/optee_os/lib/libutee/tee_api_operations.c:1441
    4590:	f9402fa0 	ldr	x0, [x29,#88]
    4594:	b90002c0 	str	w0, [x22]
/home/rahulmahadev/hikey_optee/optee_os/lib/libutee/tee_api_operations.c:1442
    4598:	35000153 	cbnz	w19, 45c0 <TEE_AEEncryptFinal+0x150>
/home/rahulmahadev/hikey_optee/optee_os/lib/libutee/tee_api_operations.c:1445
    459c:	f9402ba0 	ldr	x0, [x29,#80]
    45a0:	8b000300 	add	x0, x24, x0
/home/rahulmahadev/hikey_optee/optee_os/lib/libutee/tee_api_operations.c:1446
    45a4:	b90002a0 	str	w0, [x21]
/home/rahulmahadev/hikey_optee/optee_os/lib/libutee/tee_api_operations.c:1450
    45a8:	b900329f 	str	wzr, [x20,#48]
/home/rahulmahadev/hikey_optee/optee_os/lib/libutee/tee_api_operations.c:1448
    45ac:	b9401e80 	ldr	w0, [x20,#28]
    45b0:	120e7800 	and	w0, w0, #0xfffdffff
    45b4:	b9001e80 	str	w0, [x20,#28]
    45b8:	14000002 	b	45c0 <TEE_AEEncryptFinal+0x150>
/home/rahulmahadev/hikey_optee/optee_os/lib/libutee/tee_api_operations.c:1391
    45bc:	129fff33 	mov	w19, #0xffff0006            	// #-65530
/home/rahulmahadev/hikey_optee/optee_os/lib/libutee/tee_api_operations.c:1453
    45c0:	129ffde0 	mov	w0, #0xffff0010            	// #-65520
    45c4:	6b00027f 	cmp	w19, w0
    45c8:	540001a0 	b.eq	45fc <TEE_AEEncryptFinal+0x18c>
    45cc:	34000193 	cbz	w19, 45fc <TEE_AEEncryptFinal+0x18c>
/home/rahulmahadev/hikey_optee/optee_os/lib/libutee/tee_api_operations.c:1455
    45d0:	b0000044 	adrp	x4, d000 <PRIME_TABLE+0x388>
    45d4:	90000040 	adrp	x0, c000 <utee_authenc_update_aad>
    45d8:	91206000 	add	x0, x0, #0x818
    45dc:	2a1303e5 	mov	w5, w19
    45e0:	91235c84 	add	x4, x4, #0x8d7
    45e4:	52800023 	mov	w3, #0x1                   	// #1
    45e8:	52800022 	mov	w2, #0x1                   	// #1
    45ec:	5280b5e1 	mov	w1, #0x5af                 	// #1455
    45f0:	94000e4a 	bl	7f18 <trace_printf>
    45f4:	2a1303e0 	mov	w0, w19
    45f8:	94000368 	bl	5398 <__TEE_Panic>
/home/rahulmahadev/hikey_optee/optee_os/lib/libutee/tee_api_operations.c:1458
    45fc:	2a1303e0 	mov	w0, w19
    4600:	a94153f3 	ldp	x19, x20, [sp,#16]
    4604:	a9425bf5 	ldp	x21, x22, [sp,#32]
    4608:	a94363f7 	ldp	x23, x24, [sp,#48]
    460c:	a9446bf9 	ldp	x25, x26, [sp,#64]
    4610:	a8c67bfd 	ldp	x29, x30, [sp],#96
    4614:	d65f03c0 	ret

0000000000004618 <TEE_AEDecryptFinal>:
TEE_AEDecryptFinal():
/home/rahulmahadev/hikey_optee/optee_os/lib/libutee/tee_api_operations.c:1464
    4618:	a9ba7bfd 	stp	x29, x30, [sp,#-96]!
    461c:	910003fd 	mov	x29, sp
    4620:	a90153f3 	stp	x19, x20, [sp,#16]
    4624:	a9046bf9 	stp	x25, x26, [sp,#64]
    4628:	a9025bf5 	stp	x21, x22, [sp,#32]
    462c:	a90363f7 	stp	x23, x24, [sp,#48]
    4630:	aa0003f4 	mov	x20, x0
    4634:	aa0303f9 	mov	x25, x3
    4638:	aa0403f5 	mov	x21, x4
    463c:	aa0503fa 	mov	x26, x5
    4640:	2a0603f8 	mov	w24, w6
/home/rahulmahadev/hikey_optee/optee_os/lib/libutee/tee_api_operations.c:1476
    4644:	129fff33 	mov	w19, #0xffff0006            	// #-65530
/home/rahulmahadev/hikey_optee/optee_os/lib/libutee/tee_api_operations.c:1471
    4648:	b4000860 	cbz	x0, 4754 <TEE_AEDecryptFinal+0x13c>
/home/rahulmahadev/hikey_optee/optee_os/lib/libutee/tee_api_operations.c:1472 (discriminator 1)
    464c:	b4000824 	cbz	x4, 4750 <TEE_AEDecryptFinal+0x138>
    4650:	eb1f003f 	cmp	x1, xzr
    4654:	1a9f17e3 	cset	w3, eq
    4658:	6b1f005f 	cmp	w2, wzr
    465c:	1a9f07e0 	cset	w0, ne
    4660:	6a00007f 	tst	w3, w0
    4664:	54000761 	b.ne	4750 <TEE_AEDecryptFinal+0x138>
/home/rahulmahadev/hikey_optee/optee_os/lib/libutee/tee_api_operations.c:1473
    4668:	b5000079 	cbnz	x25, 4674 <TEE_AEDecryptFinal+0x5c>
/home/rahulmahadev/hikey_optee/optee_os/lib/libutee/tee_api_operations.c:1474
    466c:	b9400080 	ldr	w0, [x4]
    4670:	35000720 	cbnz	w0, 4754 <TEE_AEDecryptFinal+0x13c>
/home/rahulmahadev/hikey_optee/optee_os/lib/libutee/tee_api_operations.c:1474 (discriminator 1)
    4674:	b500007a 	cbnz	x26, 4680 <TEE_AEDecryptFinal+0x68>
/home/rahulmahadev/hikey_optee/optee_os/lib/libutee/tee_api_operations.c:1476 (discriminator 1)
    4678:	129fff33 	mov	w19, #0xffff0006            	// #-65530
/home/rahulmahadev/hikey_optee/optee_os/lib/libutee/tee_api_operations.c:1474 (discriminator 1)
    467c:	350006d8 	cbnz	w24, 4754 <TEE_AEDecryptFinal+0x13c>
/home/rahulmahadev/hikey_optee/optee_os/lib/libutee/tee_api_operations.c:1480
    4680:	b9400680 	ldr	w0, [x20,#4]
/home/rahulmahadev/hikey_optee/optee_os/lib/libutee/tee_api_operations.c:1476
    4684:	129fff33 	mov	w19, #0xffff0006            	// #-65530
/home/rahulmahadev/hikey_optee/optee_os/lib/libutee/tee_api_operations.c:1480
    4688:	7100101f 	cmp	w0, #0x4
    468c:	54000641 	b.ne	4754 <TEE_AEDecryptFinal+0x13c>
/home/rahulmahadev/hikey_optee/optee_os/lib/libutee/tee_api_operations.c:1485
    4690:	b9401e80 	ldr	w0, [x20,#28]
    4694:	36880600 	tbz	w0, #17, 4754 <TEE_AEDecryptFinal+0x13c>
/home/rahulmahadev/hikey_optee/optee_os/lib/libutee/tee_api_operations.c:1496
    4698:	b94002a3 	ldr	w3, [x21]
/home/rahulmahadev/hikey_optee/optee_os/lib/libutee/tee_api_operations.c:1495
    469c:	f9402a80 	ldr	x0, [x20,#80]
    46a0:	8b224000 	add	x0, x0, w2, uxtw
/home/rahulmahadev/hikey_optee/optee_os/lib/libutee/tee_api_operations.c:1496
    46a4:	eb00007f 	cmp	x3, x0
    46a8:	54000082 	b.cs	46b8 <TEE_AEDecryptFinal+0xa0>
/home/rahulmahadev/hikey_optee/optee_os/lib/libutee/tee_api_operations.c:1497
    46ac:	b90002a0 	str	w0, [x21]
/home/rahulmahadev/hikey_optee/optee_os/lib/libutee/tee_api_operations.c:1498
    46b0:	129ffdf3 	mov	w19, #0xffff0010            	// #-65520
/home/rahulmahadev/hikey_optee/optee_os/lib/libutee/tee_api_operations.c:1499
    46b4:	14000028 	b	4754 <TEE_AEDecryptFinal+0x13c>
/home/rahulmahadev/hikey_optee/optee_os/lib/libutee/tee_api_operations.c:1502
    46b8:	910183b6 	add	x22, x29, #0x60
/home/rahulmahadev/hikey_optee/optee_os/lib/libutee/tee_api_operations.c:1503
    46bc:	aa1903e4 	mov	x4, x25
    46c0:	aa1403e0 	mov	x0, x20
/home/rahulmahadev/hikey_optee/optee_os/lib/libutee/tee_api_operations.c:1502
    46c4:	f81f8ec3 	str	x3, [x22,#-8]!
/home/rahulmahadev/hikey_optee/optee_os/lib/libutee/tee_api_operations.c:1503
    46c8:	2a0203e3 	mov	w3, w2
    46cc:	aa0103e2 	mov	x2, x1
    46d0:	d0000041 	adrp	x1, e000 <__compound_literal.2+0x72a>
    46d4:	aa1603e5 	mov	x5, x22
    46d8:	f9409c21 	ldr	x1, [x1,#312]
    46dc:	97fff71c 	bl	234c <tee_buffer_update>
    46e0:	2a0003f3 	mov	w19, w0
/home/rahulmahadev/hikey_optee/optee_os/lib/libutee/tee_api_operations.c:1505
    46e4:	35000380 	cbnz	w0, 4754 <TEE_AEDecryptFinal+0x13c>
/home/rahulmahadev/hikey_optee/optee_os/lib/libutee/tee_api_operations.c:1508
    46e8:	f9402fb7 	ldr	x23, [x29,#88]
/home/rahulmahadev/hikey_optee/optee_os/lib/libutee/tee_api_operations.c:1512
    46ec:	2a1803e6 	mov	w6, w24
/home/rahulmahadev/hikey_optee/optee_os/lib/libutee/tee_api_operations.c:1511
    46f0:	b94002a0 	ldr	w0, [x21]
/home/rahulmahadev/hikey_optee/optee_os/lib/libutee/tee_api_operations.c:1512
    46f4:	aa1a03e5 	mov	x5, x26
    46f8:	f9402a82 	ldr	x2, [x20,#80]
    46fc:	aa1603e4 	mov	x4, x22
/home/rahulmahadev/hikey_optee/optee_os/lib/libutee/tee_api_operations.c:1511
    4700:	cb170000 	sub	x0, x0, x23
/home/rahulmahadev/hikey_optee/optee_os/lib/libutee/tee_api_operations.c:1512
    4704:	f9401e81 	ldr	x1, [x20,#56]
/home/rahulmahadev/hikey_optee/optee_os/lib/libutee/tee_api_operations.c:1511
    4708:	f9002fa0 	str	x0, [x29,#88]
/home/rahulmahadev/hikey_optee/optee_os/lib/libutee/tee_api_operations.c:1512
    470c:	8b170323 	add	x3, x25, x23
    4710:	b9405a80 	ldr	w0, [x20,#88]
    4714:	94001e44 	bl	c024 <utee_authenc_dec_final>
    4718:	2a0003f3 	mov	w19, w0
/home/rahulmahadev/hikey_optee/optee_os/lib/libutee/tee_api_operations.c:1515
    471c:	350001c0 	cbnz	w0, 4754 <TEE_AEDecryptFinal+0x13c>
/home/rahulmahadev/hikey_optee/optee_os/lib/libutee/tee_api_operations.c:1519
    4720:	b9405e80 	ldr	w0, [x20,#92]
/home/rahulmahadev/hikey_optee/optee_os/lib/libutee/tee_api_operations.c:1520
    4724:	1299f1d3 	mov	w19, #0xffff3071            	// #-53135
    4728:	6b00031f 	cmp	w24, w0
/home/rahulmahadev/hikey_optee/optee_os/lib/libutee/tee_api_operations.c:1522
    472c:	f9402fa0 	ldr	x0, [x29,#88]
/home/rahulmahadev/hikey_optee/optee_os/lib/libutee/tee_api_operations.c:1520
    4730:	1a9303f3 	csel	w19, wzr, w19, eq
/home/rahulmahadev/hikey_optee/optee_os/lib/libutee/tee_api_operations.c:1522
    4734:	8b0002e0 	add	x0, x23, x0
/home/rahulmahadev/hikey_optee/optee_os/lib/libutee/tee_api_operations.c:1523
    4738:	b90002a0 	str	w0, [x21]
/home/rahulmahadev/hikey_optee/optee_os/lib/libutee/tee_api_operations.c:1527
    473c:	b900329f 	str	wzr, [x20,#48]
/home/rahulmahadev/hikey_optee/optee_os/lib/libutee/tee_api_operations.c:1525
    4740:	b9401e80 	ldr	w0, [x20,#28]
    4744:	120e7800 	and	w0, w0, #0xfffdffff
    4748:	b9001e80 	str	w0, [x20,#28]
    474c:	14000002 	b	4754 <TEE_AEDecryptFinal+0x13c>
/home/rahulmahadev/hikey_optee/optee_os/lib/libutee/tee_api_operations.c:1476
    4750:	129fff33 	mov	w19, #0xffff0006            	// #-65530
/home/rahulmahadev/hikey_optee/optee_os/lib/libutee/tee_api_operations.c:1531
    4754:	129ffde0 	mov	w0, #0xffff0010            	// #-65520
    4758:	6b00027f 	cmp	w19, w0
    475c:	1a9f07e1 	cset	w1, ne
/home/rahulmahadev/hikey_optee/optee_os/lib/libutee/tee_api_operations.c:1530
    4760:	6b1f027f 	cmp	w19, wzr
    4764:	1a9f07e0 	cset	w0, ne
/home/rahulmahadev/hikey_optee/optee_os/lib/libutee/tee_api_operations.c:1531
    4768:	6a00003f 	tst	w1, w0
    476c:	540001e0 	b.eq	47a8 <TEE_AEDecryptFinal+0x190>
    4770:	1299f1c0 	mov	w0, #0xffff3071            	// #-53135
    4774:	6b00027f 	cmp	w19, w0
    4778:	54000180 	b.eq	47a8 <TEE_AEDecryptFinal+0x190>
/home/rahulmahadev/hikey_optee/optee_os/lib/libutee/tee_api_operations.c:1533
    477c:	b0000044 	adrp	x4, d000 <PRIME_TABLE+0x388>
    4780:	90000040 	adrp	x0, c000 <utee_authenc_update_aad>
    4784:	9122a000 	add	x0, x0, #0x8a8
    4788:	2a1303e5 	mov	w5, w19
    478c:	91235c84 	add	x4, x4, #0x8d7
    4790:	52800023 	mov	w3, #0x1                   	// #1
    4794:	52800022 	mov	w2, #0x1                   	// #1
    4798:	5280bfa1 	mov	w1, #0x5fd                 	// #1533
    479c:	94000ddf 	bl	7f18 <trace_printf>
    47a0:	2a1303e0 	mov	w0, w19
    47a4:	940002fd 	bl	5398 <__TEE_Panic>
/home/rahulmahadev/hikey_optee/optee_os/lib/libutee/tee_api_operations.c:1536
    47a8:	2a1303e0 	mov	w0, w19
    47ac:	a94153f3 	ldp	x19, x20, [sp,#16]
    47b0:	a9425bf5 	ldp	x21, x22, [sp,#32]
    47b4:	a94363f7 	ldp	x23, x24, [sp,#48]
    47b8:	a9446bf9 	ldp	x25, x26, [sp,#64]
    47bc:	a8c67bfd 	ldp	x29, x30, [sp],#96
    47c0:	d65f03c0 	ret

00000000000047c4 <TEE_AsymmetricEncrypt>:
TEE_AsymmetricEncrypt():
/home/rahulmahadev/hikey_optee/optee_os/lib/libutee/tee_api_operations.c:1545
    47c4:	a9b97bfd 	stp	x29, x30, [sp,#-112]!
/home/rahulmahadev/hikey_optee/optee_os/lib/libutee/tee_api_operations.c:1547
    47c8:	52800307 	mov	w7, #0x18                  	// #24
/home/rahulmahadev/hikey_optee/optee_os/lib/libutee/tee_api_operations.c:1545
    47cc:	910003fd 	mov	x29, sp
    47d0:	a9046bf9 	stp	x25, x26, [sp,#64]
    47d4:	2a0203fa 	mov	w26, w2
    47d8:	f9002bfb 	str	x27, [sp,#80]
    47dc:	a90153f3 	stp	x19, x20, [sp,#16]
/home/rahulmahadev/hikey_optee/optee_os/lib/libutee/tee_api_operations.c:1547
    47e0:	9ba77f47 	umull	x7, w26, w7
/home/rahulmahadev/hikey_optee/optee_os/lib/libutee/tee_api_operations.c:1545
    47e4:	a9025bf5 	stp	x21, x22, [sp,#32]
/home/rahulmahadev/hikey_optee/optee_os/lib/libutee/tee_api_operations.c:1547
    47e8:	910058e7 	add	x7, x7, #0x16
/home/rahulmahadev/hikey_optee/optee_os/lib/libutee/tee_api_operations.c:1545
    47ec:	aa0003f3 	mov	x19, x0
    47f0:	a90363f7 	stp	x23, x24, [sp,#48]
/home/rahulmahadev/hikey_optee/optee_os/lib/libutee/tee_api_operations.c:1547
    47f4:	927c84e7 	and	x7, x7, #0x3ffffffff0
    47f8:	910003e0 	mov	x0, sp
    47fc:	cb27601f 	sub	sp, x0, x7
/home/rahulmahadev/hikey_optee/optee_os/lib/libutee/tee_api_operations.c:1545
    4800:	aa0103f9 	mov	x25, x1
    4804:	aa1a03f5 	mov	x21, x26
    4808:	aa0303f6 	mov	x22, x3
    480c:	2a0403f7 	mov	w23, w4
    4810:	aa0503f8 	mov	x24, x5
    4814:	aa0603f4 	mov	x20, x6
/home/rahulmahadev/hikey_optee/optee_os/lib/libutee/tee_api_operations.c:1547
    4818:	910003fb 	mov	x27, sp
/home/rahulmahadev/hikey_optee/optee_os/lib/libutee/tee_api_operations.c:1550
    481c:	b4000173 	cbz	x19, 4848 <TEE_AsymmetricEncrypt+0x84>
/home/rahulmahadev/hikey_optee/optee_os/lib/libutee/tee_api_operations.c:1550 (discriminator 1)
    4820:	b4000146 	cbz	x6, 4848 <TEE_AsymmetricEncrypt+0x84>
    4824:	eb1f007f 	cmp	x3, xzr
    4828:	1a9f17e1 	cset	w1, eq
    482c:	6b1f009f 	cmp	w4, wzr
    4830:	1a9f07e0 	cset	w0, ne
    4834:	6a00003f 	tst	w1, w0
    4838:	54000081 	b.ne	4848 <TEE_AsymmetricEncrypt+0x84>
/home/rahulmahadev/hikey_optee/optee_os/lib/libutee/tee_api_operations.c:1551
    483c:	b50001c5 	cbnz	x5, 4874 <TEE_AsymmetricEncrypt+0xb0>
/home/rahulmahadev/hikey_optee/optee_os/lib/libutee/tee_api_operations.c:1551 (discriminator 1)
    4840:	b94000c0 	ldr	w0, [x6]
    4844:	34000180 	cbz	w0, 4874 <TEE_AsymmetricEncrypt+0xb0>
/home/rahulmahadev/hikey_optee/optee_os/lib/libutee/tee_api_operations.c:1552
    4848:	b0000044 	adrp	x4, d000 <PRIME_TABLE+0x388>
    484c:	90000040 	adrp	x0, c000 <utee_authenc_update_aad>
    4850:	91230000 	add	x0, x0, #0x8c0
    4854:	52800005 	mov	w5, #0x0                   	// #0
    4858:	91235c84 	add	x4, x4, #0x8d7
    485c:	52800023 	mov	w3, #0x1                   	// #1
    4860:	52800022 	mov	w2, #0x1                   	// #1
    4864:	5280c201 	mov	w1, #0x610                 	// #1552
    4868:	94000dac 	bl	7f18 <trace_printf>
    486c:	52800000 	mov	w0, #0x0                   	// #0
    4870:	940002ca 	bl	5398 <__TEE_Panic>
/home/rahulmahadev/hikey_optee/optee_os/lib/libutee/tee_api_operations.c:1553
    4874:	340001b5 	cbz	w21, 48a8 <TEE_AsymmetricEncrypt+0xe4>
    4878:	b5000199 	cbnz	x25, 48a8 <TEE_AsymmetricEncrypt+0xe4>
/home/rahulmahadev/hikey_optee/optee_os/lib/libutee/tee_api_operations.c:1554
    487c:	b0000044 	adrp	x4, d000 <PRIME_TABLE+0x388>
    4880:	90000040 	adrp	x0, c000 <utee_authenc_update_aad>
    4884:	91230000 	add	x0, x0, #0x8c0
    4888:	52800005 	mov	w5, #0x0                   	// #0
    488c:	91235c84 	add	x4, x4, #0x8d7
    4890:	52800023 	mov	w3, #0x1                   	// #1
    4894:	52800022 	mov	w2, #0x1                   	// #1
    4898:	5280c241 	mov	w1, #0x612                 	// #1554
    489c:	94000d9f 	bl	7f18 <trace_printf>
    48a0:	52800000 	mov	w0, #0x0                   	// #0
    48a4:	940002bd 	bl	5398 <__TEE_Panic>
/home/rahulmahadev/hikey_optee/optee_os/lib/libutee/tee_api_operations.c:1555
    48a8:	f9401260 	ldr	x0, [x19,#32]
    48ac:	b5000180 	cbnz	x0, 48dc <TEE_AsymmetricEncrypt+0x118>
/home/rahulmahadev/hikey_optee/optee_os/lib/libutee/tee_api_operations.c:1556
    48b0:	b0000044 	adrp	x4, d000 <PRIME_TABLE+0x388>
    48b4:	90000040 	adrp	x0, c000 <utee_authenc_update_aad>
    48b8:	91230000 	add	x0, x0, #0x8c0
    48bc:	52800005 	mov	w5, #0x0                   	// #0
    48c0:	91235c84 	add	x4, x4, #0x8d7
    48c4:	52800023 	mov	w3, #0x1                   	// #1
    48c8:	52800022 	mov	w2, #0x1                   	// #1
    48cc:	5280c281 	mov	w1, #0x614                 	// #1556
    48d0:	94000d92 	bl	7f18 <trace_printf>
    48d4:	52800000 	mov	w0, #0x0                   	// #0
    48d8:	940002b0 	bl	5398 <__TEE_Panic>
/home/rahulmahadev/hikey_optee/optee_os/lib/libutee/tee_api_operations.c:1557
    48dc:	b9400660 	ldr	w0, [x19,#4]
    48e0:	7100181f 	cmp	w0, #0x6
    48e4:	54000180 	b.eq	4914 <TEE_AsymmetricEncrypt+0x150>
/home/rahulmahadev/hikey_optee/optee_os/lib/libutee/tee_api_operations.c:1558
    48e8:	b0000044 	adrp	x4, d000 <PRIME_TABLE+0x388>
    48ec:	90000040 	adrp	x0, c000 <utee_authenc_update_aad>
    48f0:	91230000 	add	x0, x0, #0x8c0
    48f4:	52800005 	mov	w5, #0x0                   	// #0
    48f8:	91235c84 	add	x4, x4, #0x8d7
    48fc:	52800023 	mov	w3, #0x1                   	// #1
    4900:	52800022 	mov	w2, #0x1                   	// #1
    4904:	5280c2c1 	mov	w1, #0x616                 	// #1558
    4908:	94000d84 	bl	7f18 <trace_printf>
    490c:	52800000 	mov	w0, #0x0                   	// #0
    4910:	940002a2 	bl	5398 <__TEE_Panic>
/home/rahulmahadev/hikey_optee/optee_os/lib/libutee/tee_api_operations.c:1559
    4914:	b9400a60 	ldr	w0, [x19,#8]
    4918:	34000180 	cbz	w0, 4948 <TEE_AsymmetricEncrypt+0x184>
/home/rahulmahadev/hikey_optee/optee_os/lib/libutee/tee_api_operations.c:1560
    491c:	b0000044 	adrp	x4, d000 <PRIME_TABLE+0x388>
    4920:	90000040 	adrp	x0, c000 <utee_authenc_update_aad>
    4924:	91230000 	add	x0, x0, #0x8c0
    4928:	52800005 	mov	w5, #0x0                   	// #0
    492c:	91235c84 	add	x4, x4, #0x8d7
    4930:	52800023 	mov	w3, #0x1                   	// #1
    4934:	52800022 	mov	w2, #0x1                   	// #1
    4938:	5280c301 	mov	w1, #0x618                 	// #1560
    493c:	94000d77 	bl	7f18 <trace_printf>
    4940:	52800000 	mov	w0, #0x0                   	// #0
    4944:	94000295 	bl	5398 <__TEE_Panic>
/home/rahulmahadev/hikey_optee/optee_os/lib/libutee/tee_api_operations.c:1562
    4948:	2a1503e2 	mov	w2, w21
    494c:	aa1903e1 	mov	x1, x25
    4950:	aa1b03e0 	mov	x0, x27
    4954:	97fff199 	bl	fb8 <__utee_from_attr>
/home/rahulmahadev/hikey_optee/optee_os/lib/libutee/tee_api_operations.c:1563
    4958:	9101c3a6 	add	x6, x29, #0x70
    495c:	b9400280 	ldr	w0, [x20]
/home/rahulmahadev/hikey_optee/optee_os/lib/libutee/tee_api_operations.c:1564
    4960:	aa1b03e1 	mov	x1, x27
    4964:	aa1803e5 	mov	x5, x24
    4968:	2a1703e4 	mov	w4, w23
    496c:	aa1603e3 	mov	x3, x22
/home/rahulmahadev/hikey_optee/optee_os/lib/libutee/tee_api_operations.c:1563
    4970:	f81f8cc0 	str	x0, [x6,#-8]!
/home/rahulmahadev/hikey_optee/optee_os/lib/libutee/tee_api_operations.c:1564
    4974:	aa1a03e2 	mov	x2, x26
    4978:	b9405a60 	ldr	w0, [x19,#88]
    497c:	94001dad 	bl	c030 <utee_asymm_operate>
    4980:	2a0003f3 	mov	w19, w0
/home/rahulmahadev/hikey_optee/optee_os/lib/libutee/tee_api_operations.c:1566
    4984:	f94037a0 	ldr	x0, [x29,#104]
    4988:	b9000280 	str	w0, [x20]
/home/rahulmahadev/hikey_optee/optee_os/lib/libutee/tee_api_operations.c:1569
    498c:	129ffde0 	mov	w0, #0xffff0010            	// #-65520
    4990:	6b00027f 	cmp	w19, w0
    4994:	1a9f07e1 	cset	w1, ne
/home/rahulmahadev/hikey_optee/optee_os/lib/libutee/tee_api_operations.c:1568
    4998:	6b1f027f 	cmp	w19, wzr
    499c:	1a9f07e0 	cset	w0, ne
/home/rahulmahadev/hikey_optee/optee_os/lib/libutee/tee_api_operations.c:1569
    49a0:	6a00003f 	tst	w1, w0
    49a4:	540001e0 	b.eq	49e0 <TEE_AsymmetricEncrypt+0x21c>
    49a8:	129fff20 	mov	w0, #0xffff0006            	// #-65530
    49ac:	6b00027f 	cmp	w19, w0
    49b0:	54000180 	b.eq	49e0 <TEE_AsymmetricEncrypt+0x21c>
/home/rahulmahadev/hikey_optee/optee_os/lib/libutee/tee_api_operations.c:1571
    49b4:	b0000044 	adrp	x4, d000 <PRIME_TABLE+0x388>
    49b8:	90000040 	adrp	x0, c000 <utee_authenc_update_aad>
    49bc:	91230000 	add	x0, x0, #0x8c0
    49c0:	2a1303e5 	mov	w5, w19
    49c4:	91235c84 	add	x4, x4, #0x8d7
    49c8:	52800023 	mov	w3, #0x1                   	// #1
    49cc:	52800022 	mov	w2, #0x1                   	// #1
    49d0:	5280c461 	mov	w1, #0x623                 	// #1571
    49d4:	94000d51 	bl	7f18 <trace_printf>
    49d8:	2a1303e0 	mov	w0, w19
    49dc:	9400026f 	bl	5398 <__TEE_Panic>
/home/rahulmahadev/hikey_optee/optee_os/lib/libutee/tee_api_operations.c:1574
    49e0:	910003bf 	mov	sp, x29
    49e4:	2a1303e0 	mov	w0, w19
    49e8:	a94153f3 	ldp	x19, x20, [sp,#16]
    49ec:	a9425bf5 	ldp	x21, x22, [sp,#32]
    49f0:	a94363f7 	ldp	x23, x24, [sp,#48]
    49f4:	a9446bf9 	ldp	x25, x26, [sp,#64]
    49f8:	f9402bfb 	ldr	x27, [sp,#80]
    49fc:	a8c77bfd 	ldp	x29, x30, [sp],#112
    4a00:	d65f03c0 	ret

0000000000004a04 <TEE_AsymmetricDecrypt>:
TEE_AsymmetricDecrypt():
/home/rahulmahadev/hikey_optee/optee_os/lib/libutee/tee_api_operations.c:1581
    4a04:	a9b97bfd 	stp	x29, x30, [sp,#-112]!
/home/rahulmahadev/hikey_optee/optee_os/lib/libutee/tee_api_operations.c:1583
    4a08:	52800307 	mov	w7, #0x18                  	// #24
/home/rahulmahadev/hikey_optee/optee_os/lib/libutee/tee_api_operations.c:1581
    4a0c:	910003fd 	mov	x29, sp
    4a10:	a9046bf9 	stp	x25, x26, [sp,#64]
    4a14:	2a0203fa 	mov	w26, w2
    4a18:	f9002bfb 	str	x27, [sp,#80]
    4a1c:	a90153f3 	stp	x19, x20, [sp,#16]
/home/rahulmahadev/hikey_optee/optee_os/lib/libutee/tee_api_operations.c:1583
    4a20:	9ba77f47 	umull	x7, w26, w7
/home/rahulmahadev/hikey_optee/optee_os/lib/libutee/tee_api_operations.c:1581
    4a24:	a9025bf5 	stp	x21, x22, [sp,#32]
/home/rahulmahadev/hikey_optee/optee_os/lib/libutee/tee_api_operations.c:1583
    4a28:	910058e7 	add	x7, x7, #0x16
/home/rahulmahadev/hikey_optee/optee_os/lib/libutee/tee_api_operations.c:1581
    4a2c:	aa0003f3 	mov	x19, x0
    4a30:	a90363f7 	stp	x23, x24, [sp,#48]
/home/rahulmahadev/hikey_optee/optee_os/lib/libutee/tee_api_operations.c:1583
    4a34:	927c84e7 	and	x7, x7, #0x3ffffffff0
    4a38:	910003e0 	mov	x0, sp
    4a3c:	cb27601f 	sub	sp, x0, x7
/home/rahulmahadev/hikey_optee/optee_os/lib/libutee/tee_api_operations.c:1581
    4a40:	aa0103f9 	mov	x25, x1
    4a44:	aa1a03f5 	mov	x21, x26
    4a48:	aa0303f6 	mov	x22, x3
    4a4c:	2a0403f7 	mov	w23, w4
    4a50:	aa0503f8 	mov	x24, x5
    4a54:	aa0603f4 	mov	x20, x6
/home/rahulmahadev/hikey_optee/optee_os/lib/libutee/tee_api_operations.c:1583
    4a58:	910003fb 	mov	x27, sp
/home/rahulmahadev/hikey_optee/optee_os/lib/libutee/tee_api_operations.c:1586
    4a5c:	b4000173 	cbz	x19, 4a88 <TEE_AsymmetricDecrypt+0x84>
/home/rahulmahadev/hikey_optee/optee_os/lib/libutee/tee_api_operations.c:1586 (discriminator 1)
    4a60:	b4000146 	cbz	x6, 4a88 <TEE_AsymmetricDecrypt+0x84>
    4a64:	eb1f007f 	cmp	x3, xzr
    4a68:	1a9f17e1 	cset	w1, eq
    4a6c:	6b1f009f 	cmp	w4, wzr
    4a70:	1a9f07e0 	cset	w0, ne
    4a74:	6a00003f 	tst	w1, w0
    4a78:	54000081 	b.ne	4a88 <TEE_AsymmetricDecrypt+0x84>
/home/rahulmahadev/hikey_optee/optee_os/lib/libutee/tee_api_operations.c:1587
    4a7c:	b50001c5 	cbnz	x5, 4ab4 <TEE_AsymmetricDecrypt+0xb0>
/home/rahulmahadev/hikey_optee/optee_os/lib/libutee/tee_api_operations.c:1587 (discriminator 1)
    4a80:	b94000c0 	ldr	w0, [x6]
    4a84:	34000180 	cbz	w0, 4ab4 <TEE_AsymmetricDecrypt+0xb0>
/home/rahulmahadev/hikey_optee/optee_os/lib/libutee/tee_api_operations.c:1588
    4a88:	b0000044 	adrp	x4, d000 <PRIME_TABLE+0x388>
    4a8c:	90000040 	adrp	x0, c000 <utee_authenc_update_aad>
    4a90:	9124e000 	add	x0, x0, #0x938
    4a94:	52800005 	mov	w5, #0x0                   	// #0
    4a98:	91235c84 	add	x4, x4, #0x8d7
    4a9c:	52800023 	mov	w3, #0x1                   	// #1
    4aa0:	52800022 	mov	w2, #0x1                   	// #1
    4aa4:	5280c681 	mov	w1, #0x634                 	// #1588
    4aa8:	94000d1c 	bl	7f18 <trace_printf>
    4aac:	52800000 	mov	w0, #0x0                   	// #0
    4ab0:	9400023a 	bl	5398 <__TEE_Panic>
/home/rahulmahadev/hikey_optee/optee_os/lib/libutee/tee_api_operations.c:1589
    4ab4:	340001b5 	cbz	w21, 4ae8 <TEE_AsymmetricDecrypt+0xe4>
    4ab8:	b5000199 	cbnz	x25, 4ae8 <TEE_AsymmetricDecrypt+0xe4>
/home/rahulmahadev/hikey_optee/optee_os/lib/libutee/tee_api_operations.c:1590
    4abc:	b0000044 	adrp	x4, d000 <PRIME_TABLE+0x388>
    4ac0:	90000040 	adrp	x0, c000 <utee_authenc_update_aad>
    4ac4:	9124e000 	add	x0, x0, #0x938
    4ac8:	52800005 	mov	w5, #0x0                   	// #0
    4acc:	91235c84 	add	x4, x4, #0x8d7
    4ad0:	52800023 	mov	w3, #0x1                   	// #1
    4ad4:	52800022 	mov	w2, #0x1                   	// #1
    4ad8:	5280c6c1 	mov	w1, #0x636                 	// #1590
    4adc:	94000d0f 	bl	7f18 <trace_printf>
    4ae0:	52800000 	mov	w0, #0x0                   	// #0
    4ae4:	9400022d 	bl	5398 <__TEE_Panic>
/home/rahulmahadev/hikey_optee/optee_os/lib/libutee/tee_api_operations.c:1591
    4ae8:	f9401260 	ldr	x0, [x19,#32]
    4aec:	b5000180 	cbnz	x0, 4b1c <TEE_AsymmetricDecrypt+0x118>
/home/rahulmahadev/hikey_optee/optee_os/lib/libutee/tee_api_operations.c:1592
    4af0:	b0000044 	adrp	x4, d000 <PRIME_TABLE+0x388>
    4af4:	90000040 	adrp	x0, c000 <utee_authenc_update_aad>
    4af8:	9124e000 	add	x0, x0, #0x938
    4afc:	52800005 	mov	w5, #0x0                   	// #0
    4b00:	91235c84 	add	x4, x4, #0x8d7
    4b04:	52800023 	mov	w3, #0x1                   	// #1
    4b08:	52800022 	mov	w2, #0x1                   	// #1
    4b0c:	5280c701 	mov	w1, #0x638                 	// #1592
    4b10:	94000d02 	bl	7f18 <trace_printf>
    4b14:	52800000 	mov	w0, #0x0                   	// #0
    4b18:	94000220 	bl	5398 <__TEE_Panic>
/home/rahulmahadev/hikey_optee/optee_os/lib/libutee/tee_api_operations.c:1593
    4b1c:	b9400660 	ldr	w0, [x19,#4]
    4b20:	7100181f 	cmp	w0, #0x6
    4b24:	54000180 	b.eq	4b54 <TEE_AsymmetricDecrypt+0x150>
/home/rahulmahadev/hikey_optee/optee_os/lib/libutee/tee_api_operations.c:1594
    4b28:	b0000044 	adrp	x4, d000 <PRIME_TABLE+0x388>
    4b2c:	90000040 	adrp	x0, c000 <utee_authenc_update_aad>
    4b30:	9124e000 	add	x0, x0, #0x938
    4b34:	52800005 	mov	w5, #0x0                   	// #0
    4b38:	91235c84 	add	x4, x4, #0x8d7
    4b3c:	52800023 	mov	w3, #0x1                   	// #1
    4b40:	52800022 	mov	w2, #0x1                   	// #1
    4b44:	5280c741 	mov	w1, #0x63a                 	// #1594
    4b48:	94000cf4 	bl	7f18 <trace_printf>
    4b4c:	52800000 	mov	w0, #0x0                   	// #0
    4b50:	94000212 	bl	5398 <__TEE_Panic>
/home/rahulmahadev/hikey_optee/optee_os/lib/libutee/tee_api_operations.c:1595
    4b54:	b9400a60 	ldr	w0, [x19,#8]
    4b58:	7100041f 	cmp	w0, #0x1
    4b5c:	54000180 	b.eq	4b8c <TEE_AsymmetricDecrypt+0x188>
/home/rahulmahadev/hikey_optee/optee_os/lib/libutee/tee_api_operations.c:1596
    4b60:	b0000044 	adrp	x4, d000 <PRIME_TABLE+0x388>
    4b64:	90000040 	adrp	x0, c000 <utee_authenc_update_aad>
    4b68:	9124e000 	add	x0, x0, #0x938
    4b6c:	52800005 	mov	w5, #0x0                   	// #0
    4b70:	91235c84 	add	x4, x4, #0x8d7
    4b74:	52800023 	mov	w3, #0x1                   	// #1
    4b78:	52800022 	mov	w2, #0x1                   	// #1
    4b7c:	5280c781 	mov	w1, #0x63c                 	// #1596
    4b80:	94000ce6 	bl	7f18 <trace_printf>
    4b84:	52800000 	mov	w0, #0x0                   	// #0
    4b88:	94000204 	bl	5398 <__TEE_Panic>
/home/rahulmahadev/hikey_optee/optee_os/lib/libutee/tee_api_operations.c:1598
    4b8c:	2a1503e2 	mov	w2, w21
    4b90:	aa1903e1 	mov	x1, x25
    4b94:	aa1b03e0 	mov	x0, x27
    4b98:	97fff108 	bl	fb8 <__utee_from_attr>
/home/rahulmahadev/hikey_optee/optee_os/lib/libutee/tee_api_operations.c:1599
    4b9c:	9101c3a6 	add	x6, x29, #0x70
    4ba0:	b9400280 	ldr	w0, [x20]
/home/rahulmahadev/hikey_optee/optee_os/lib/libutee/tee_api_operations.c:1600
    4ba4:	aa1b03e1 	mov	x1, x27
    4ba8:	aa1803e5 	mov	x5, x24
    4bac:	2a1703e4 	mov	w4, w23
    4bb0:	aa1603e3 	mov	x3, x22
/home/rahulmahadev/hikey_optee/optee_os/lib/libutee/tee_api_operations.c:1599
    4bb4:	f81f8cc0 	str	x0, [x6,#-8]!
/home/rahulmahadev/hikey_optee/optee_os/lib/libutee/tee_api_operations.c:1600
    4bb8:	aa1a03e2 	mov	x2, x26
    4bbc:	b9405a60 	ldr	w0, [x19,#88]
    4bc0:	94001d1c 	bl	c030 <utee_asymm_operate>
    4bc4:	2a0003f3 	mov	w19, w0
/home/rahulmahadev/hikey_optee/optee_os/lib/libutee/tee_api_operations.c:1602
    4bc8:	f94037a0 	ldr	x0, [x29,#104]
    4bcc:	b9000280 	str	w0, [x20]
/home/rahulmahadev/hikey_optee/optee_os/lib/libutee/tee_api_operations.c:1605
    4bd0:	129ffde0 	mov	w0, #0xffff0010            	// #-65520
    4bd4:	6b00027f 	cmp	w19, w0
    4bd8:	1a9f07e1 	cset	w1, ne
/home/rahulmahadev/hikey_optee/optee_os/lib/libutee/tee_api_operations.c:1604
    4bdc:	6b1f027f 	cmp	w19, wzr
    4be0:	1a9f07e0 	cset	w0, ne
/home/rahulmahadev/hikey_optee/optee_os/lib/libutee/tee_api_operations.c:1605
    4be4:	6a00003f 	tst	w1, w0
    4be8:	540001e0 	b.eq	4c24 <TEE_AsymmetricDecrypt+0x220>
    4bec:	129fff20 	mov	w0, #0xffff0006            	// #-65530
    4bf0:	6b00027f 	cmp	w19, w0
    4bf4:	54000180 	b.eq	4c24 <TEE_AsymmetricDecrypt+0x220>
/home/rahulmahadev/hikey_optee/optee_os/lib/libutee/tee_api_operations.c:1607
    4bf8:	b0000044 	adrp	x4, d000 <PRIME_TABLE+0x388>
    4bfc:	90000040 	adrp	x0, c000 <utee_authenc_update_aad>
    4c00:	9124e000 	add	x0, x0, #0x938
    4c04:	2a1303e5 	mov	w5, w19
    4c08:	91235c84 	add	x4, x4, #0x8d7
    4c0c:	52800023 	mov	w3, #0x1                   	// #1
    4c10:	52800022 	mov	w2, #0x1                   	// #1
    4c14:	5280c8e1 	mov	w1, #0x647                 	// #1607
    4c18:	94000cc0 	bl	7f18 <trace_printf>
    4c1c:	2a1303e0 	mov	w0, w19
    4c20:	940001de 	bl	5398 <__TEE_Panic>
/home/rahulmahadev/hikey_optee/optee_os/lib/libutee/tee_api_operations.c:1610
    4c24:	910003bf 	mov	sp, x29
    4c28:	2a1303e0 	mov	w0, w19
    4c2c:	a94153f3 	ldp	x19, x20, [sp,#16]
    4c30:	a9425bf5 	ldp	x21, x22, [sp,#32]
    4c34:	a94363f7 	ldp	x23, x24, [sp,#48]
    4c38:	a9446bf9 	ldp	x25, x26, [sp,#64]
    4c3c:	f9402bfb 	ldr	x27, [sp,#80]
    4c40:	a8c77bfd 	ldp	x29, x30, [sp],#112
    4c44:	d65f03c0 	ret

0000000000004c48 <TEE_AsymmetricSignDigest>:
TEE_AsymmetricSignDigest():
/home/rahulmahadev/hikey_optee/optee_os/lib/libutee/tee_api_operations.c:1617
    4c48:	a9b97bfd 	stp	x29, x30, [sp,#-112]!
/home/rahulmahadev/hikey_optee/optee_os/lib/libutee/tee_api_operations.c:1619
    4c4c:	52800307 	mov	w7, #0x18                  	// #24
/home/rahulmahadev/hikey_optee/optee_os/lib/libutee/tee_api_operations.c:1617
    4c50:	910003fd 	mov	x29, sp
    4c54:	a9046bf9 	stp	x25, x26, [sp,#64]
    4c58:	2a0203fa 	mov	w26, w2
    4c5c:	f9002bfb 	str	x27, [sp,#80]
    4c60:	a90153f3 	stp	x19, x20, [sp,#16]
/home/rahulmahadev/hikey_optee/optee_os/lib/libutee/tee_api_operations.c:1619
    4c64:	9ba77f47 	umull	x7, w26, w7
/home/rahulmahadev/hikey_optee/optee_os/lib/libutee/tee_api_operations.c:1617
    4c68:	a9025bf5 	stp	x21, x22, [sp,#32]
/home/rahulmahadev/hikey_optee/optee_os/lib/libutee/tee_api_operations.c:1619
    4c6c:	910058e7 	add	x7, x7, #0x16
/home/rahulmahadev/hikey_optee/optee_os/lib/libutee/tee_api_operations.c:1617
    4c70:	aa0003f3 	mov	x19, x0
    4c74:	a90363f7 	stp	x23, x24, [sp,#48]
/home/rahulmahadev/hikey_optee/optee_os/lib/libutee/tee_api_operations.c:1619
    4c78:	927c84e7 	and	x7, x7, #0x3ffffffff0
    4c7c:	910003e0 	mov	x0, sp
    4c80:	cb27601f 	sub	sp, x0, x7
/home/rahulmahadev/hikey_optee/optee_os/lib/libutee/tee_api_operations.c:1617
    4c84:	aa0103f9 	mov	x25, x1
    4c88:	aa1a03f4 	mov	x20, x26
    4c8c:	aa0303f6 	mov	x22, x3
    4c90:	2a0403f7 	mov	w23, w4
    4c94:	aa0503f8 	mov	x24, x5
    4c98:	aa0603f5 	mov	x21, x6
/home/rahulmahadev/hikey_optee/optee_os/lib/libutee/tee_api_operations.c:1619
    4c9c:	910003fb 	mov	x27, sp
/home/rahulmahadev/hikey_optee/optee_os/lib/libutee/tee_api_operations.c:1622
    4ca0:	b40000b3 	cbz	x19, 4cb4 <TEE_AsymmetricSignDigest+0x6c>
/home/rahulmahadev/hikey_optee/optee_os/lib/libutee/tee_api_operations.c:1622 (discriminator 1)
    4ca4:	b5000043 	cbnz	x3, 4cac <TEE_AsymmetricSignDigest+0x64>
    4ca8:	35000064 	cbnz	w4, 4cb4 <TEE_AsymmetricSignDigest+0x6c>
/home/rahulmahadev/hikey_optee/optee_os/lib/libutee/tee_api_operations.c:1624
    4cac:	b4000058 	cbz	x24, 4cb4 <TEE_AsymmetricSignDigest+0x6c>
    4cb0:	b5000195 	cbnz	x21, 4ce0 <TEE_AsymmetricSignDigest+0x98>
/home/rahulmahadev/hikey_optee/optee_os/lib/libutee/tee_api_operations.c:1625
    4cb4:	b0000044 	adrp	x4, d000 <PRIME_TABLE+0x388>
    4cb8:	90000040 	adrp	x0, c000 <utee_authenc_update_aad>
    4cbc:	9121c000 	add	x0, x0, #0x870
    4cc0:	52800005 	mov	w5, #0x0                   	// #0
    4cc4:	91235c84 	add	x4, x4, #0x8d7
    4cc8:	52800023 	mov	w3, #0x1                   	// #1
    4ccc:	52800022 	mov	w2, #0x1                   	// #1
    4cd0:	5280cb21 	mov	w1, #0x659                 	// #1625
    4cd4:	94000c91 	bl	7f18 <trace_printf>
    4cd8:	52800000 	mov	w0, #0x0                   	// #0
    4cdc:	940001af 	bl	5398 <__TEE_Panic>
/home/rahulmahadev/hikey_optee/optee_os/lib/libutee/tee_api_operations.c:1626
    4ce0:	340001b4 	cbz	w20, 4d14 <TEE_AsymmetricSignDigest+0xcc>
    4ce4:	b5000199 	cbnz	x25, 4d14 <TEE_AsymmetricSignDigest+0xcc>
/home/rahulmahadev/hikey_optee/optee_os/lib/libutee/tee_api_operations.c:1627
    4ce8:	b0000044 	adrp	x4, d000 <PRIME_TABLE+0x388>
    4cec:	90000040 	adrp	x0, c000 <utee_authenc_update_aad>
    4cf0:	9121c000 	add	x0, x0, #0x870
    4cf4:	52800005 	mov	w5, #0x0                   	// #0
    4cf8:	91235c84 	add	x4, x4, #0x8d7
    4cfc:	52800023 	mov	w3, #0x1                   	// #1
    4d00:	52800022 	mov	w2, #0x1                   	// #1
    4d04:	5280cb61 	mov	w1, #0x65b                 	// #1627
    4d08:	94000c84 	bl	7f18 <trace_printf>
    4d0c:	52800000 	mov	w0, #0x0                   	// #0
    4d10:	940001a2 	bl	5398 <__TEE_Panic>
/home/rahulmahadev/hikey_optee/optee_os/lib/libutee/tee_api_operations.c:1628
    4d14:	f9401260 	ldr	x0, [x19,#32]
    4d18:	b5000180 	cbnz	x0, 4d48 <TEE_AsymmetricSignDigest+0x100>
/home/rahulmahadev/hikey_optee/optee_os/lib/libutee/tee_api_operations.c:1629
    4d1c:	b0000044 	adrp	x4, d000 <PRIME_TABLE+0x388>
    4d20:	90000040 	adrp	x0, c000 <utee_authenc_update_aad>
    4d24:	9121c000 	add	x0, x0, #0x870
    4d28:	52800005 	mov	w5, #0x0                   	// #0
    4d2c:	91235c84 	add	x4, x4, #0x8d7
    4d30:	52800023 	mov	w3, #0x1                   	// #1
    4d34:	52800022 	mov	w2, #0x1                   	// #1
    4d38:	5280cba1 	mov	w1, #0x65d                 	// #1629
    4d3c:	94000c77 	bl	7f18 <trace_printf>
    4d40:	52800000 	mov	w0, #0x0                   	// #0
    4d44:	94000195 	bl	5398 <__TEE_Panic>
/home/rahulmahadev/hikey_optee/optee_os/lib/libutee/tee_api_operations.c:1630
    4d48:	b9400660 	ldr	w0, [x19,#4]
    4d4c:	71001c1f 	cmp	w0, #0x7
    4d50:	54000180 	b.eq	4d80 <TEE_AsymmetricSignDigest+0x138>
/home/rahulmahadev/hikey_optee/optee_os/lib/libutee/tee_api_operations.c:1632
    4d54:	b0000044 	adrp	x4, d000 <PRIME_TABLE+0x388>
    4d58:	90000040 	adrp	x0, c000 <utee_authenc_update_aad>
    4d5c:	9121c000 	add	x0, x0, #0x870
    4d60:	52800005 	mov	w5, #0x0                   	// #0
    4d64:	91235c84 	add	x4, x4, #0x8d7
    4d68:	52800023 	mov	w3, #0x1                   	// #1
    4d6c:	52800022 	mov	w2, #0x1                   	// #1
    4d70:	5280cc01 	mov	w1, #0x660                 	// #1632
    4d74:	94000c69 	bl	7f18 <trace_printf>
    4d78:	52800000 	mov	w0, #0x0                   	// #0
    4d7c:	94000187 	bl	5398 <__TEE_Panic>
/home/rahulmahadev/hikey_optee/optee_os/lib/libutee/tee_api_operations.c:1633
    4d80:	b9400a60 	ldr	w0, [x19,#8]
    4d84:	7100081f 	cmp	w0, #0x2
    4d88:	54000180 	b.eq	4db8 <TEE_AsymmetricSignDigest+0x170>
/home/rahulmahadev/hikey_optee/optee_os/lib/libutee/tee_api_operations.c:1634
    4d8c:	b0000044 	adrp	x4, d000 <PRIME_TABLE+0x388>
    4d90:	90000040 	adrp	x0, c000 <utee_authenc_update_aad>
    4d94:	9121c000 	add	x0, x0, #0x870
    4d98:	52800005 	mov	w5, #0x0                   	// #0
    4d9c:	91235c84 	add	x4, x4, #0x8d7
    4da0:	52800023 	mov	w3, #0x1                   	// #1
    4da4:	52800022 	mov	w2, #0x1                   	// #1
    4da8:	5280cc41 	mov	w1, #0x662                 	// #1634
    4dac:	94000c5b 	bl	7f18 <trace_printf>
    4db0:	52800000 	mov	w0, #0x0                   	// #0
    4db4:	94000179 	bl	5398 <__TEE_Panic>
/home/rahulmahadev/hikey_optee/optee_os/lib/libutee/tee_api_operations.c:1636
    4db8:	2a1403e2 	mov	w2, w20
    4dbc:	aa1903e1 	mov	x1, x25
    4dc0:	aa1b03e0 	mov	x0, x27
    4dc4:	97fff07d 	bl	fb8 <__utee_from_attr>
/home/rahulmahadev/hikey_optee/optee_os/lib/libutee/tee_api_operations.c:1637
    4dc8:	9101c3a6 	add	x6, x29, #0x70
    4dcc:	b94002a0 	ldr	w0, [x21]
/home/rahulmahadev/hikey_optee/optee_os/lib/libutee/tee_api_operations.c:1638
    4dd0:	aa1803e5 	mov	x5, x24
    4dd4:	2a1703e4 	mov	w4, w23
    4dd8:	aa1603e3 	mov	x3, x22
    4ddc:	aa1a03e2 	mov	x2, x26
/home/rahulmahadev/hikey_optee/optee_os/lib/libutee/tee_api_operations.c:1637
    4de0:	f81f8cc0 	str	x0, [x6,#-8]!
/home/rahulmahadev/hikey_optee/optee_os/lib/libutee/tee_api_operations.c:1638
    4de4:	aa1b03e1 	mov	x1, x27
    4de8:	b9405a60 	ldr	w0, [x19,#88]
    4dec:	94001c91 	bl	c030 <utee_asymm_operate>
    4df0:	2a0003f3 	mov	w19, w0
/home/rahulmahadev/hikey_optee/optee_os/lib/libutee/tee_api_operations.c:1640
    4df4:	f94037a0 	ldr	x0, [x29,#104]
    4df8:	b90002a0 	str	w0, [x21]
/home/rahulmahadev/hikey_optee/optee_os/lib/libutee/tee_api_operations.c:1642
    4dfc:	129ffde0 	mov	w0, #0xffff0010            	// #-65520
    4e00:	6b00027f 	cmp	w19, w0
    4e04:	540001a0 	b.eq	4e38 <TEE_AsymmetricSignDigest+0x1f0>
    4e08:	34000193 	cbz	w19, 4e38 <TEE_AsymmetricSignDigest+0x1f0>
/home/rahulmahadev/hikey_optee/optee_os/lib/libutee/tee_api_operations.c:1643
    4e0c:	b0000044 	adrp	x4, d000 <PRIME_TABLE+0x388>
    4e10:	90000040 	adrp	x0, c000 <utee_authenc_update_aad>
    4e14:	9121c000 	add	x0, x0, #0x870
    4e18:	2a1303e5 	mov	w5, w19
    4e1c:	91235c84 	add	x4, x4, #0x8d7
    4e20:	52800023 	mov	w3, #0x1                   	// #1
    4e24:	52800022 	mov	w2, #0x1                   	// #1
    4e28:	5280cd61 	mov	w1, #0x66b                 	// #1643
    4e2c:	94000c3b 	bl	7f18 <trace_printf>
    4e30:	2a1303e0 	mov	w0, w19
    4e34:	94000159 	bl	5398 <__TEE_Panic>
/home/rahulmahadev/hikey_optee/optee_os/lib/libutee/tee_api_operations.c:1646
    4e38:	910003bf 	mov	sp, x29
    4e3c:	2a1303e0 	mov	w0, w19
    4e40:	a94153f3 	ldp	x19, x20, [sp,#16]
    4e44:	a9425bf5 	ldp	x21, x22, [sp,#32]
    4e48:	a94363f7 	ldp	x23, x24, [sp,#48]
    4e4c:	a9446bf9 	ldp	x25, x26, [sp,#64]
    4e50:	f9402bfb 	ldr	x27, [sp,#80]
    4e54:	a8c77bfd 	ldp	x29, x30, [sp],#112
    4e58:	d65f03c0 	ret

0000000000004e5c <TEE_AsymmetricVerifyDigest>:
TEE_AsymmetricVerifyDigest():
/home/rahulmahadev/hikey_optee/optee_os/lib/libutee/tee_api_operations.c:1653
    4e5c:	a9ba7bfd 	stp	x29, x30, [sp,#-96]!
/home/rahulmahadev/hikey_optee/optee_os/lib/libutee/tee_api_operations.c:1655
    4e60:	52800307 	mov	w7, #0x18                  	// #24
/home/rahulmahadev/hikey_optee/optee_os/lib/libutee/tee_api_operations.c:1653
    4e64:	910003fd 	mov	x29, sp
    4e68:	a9046bf9 	stp	x25, x26, [sp,#64]
    4e6c:	2a0203fa 	mov	w26, w2
    4e70:	f9002bfb 	str	x27, [sp,#80]
    4e74:	a90153f3 	stp	x19, x20, [sp,#16]
/home/rahulmahadev/hikey_optee/optee_os/lib/libutee/tee_api_operations.c:1655
    4e78:	9ba77f47 	umull	x7, w26, w7
/home/rahulmahadev/hikey_optee/optee_os/lib/libutee/tee_api_operations.c:1653
    4e7c:	a9025bf5 	stp	x21, x22, [sp,#32]
/home/rahulmahadev/hikey_optee/optee_os/lib/libutee/tee_api_operations.c:1655
    4e80:	910058e7 	add	x7, x7, #0x16
/home/rahulmahadev/hikey_optee/optee_os/lib/libutee/tee_api_operations.c:1653
    4e84:	aa0003f3 	mov	x19, x0
    4e88:	a90363f7 	stp	x23, x24, [sp,#48]
/home/rahulmahadev/hikey_optee/optee_os/lib/libutee/tee_api_operations.c:1655
    4e8c:	927c84e7 	and	x7, x7, #0x3ffffffff0
    4e90:	910003e0 	mov	x0, sp
    4e94:	cb27601f 	sub	sp, x0, x7
/home/rahulmahadev/hikey_optee/optee_os/lib/libutee/tee_api_operations.c:1653
    4e98:	aa0103f9 	mov	x25, x1
    4e9c:	aa1a03f4 	mov	x20, x26
    4ea0:	aa0303f5 	mov	x21, x3
    4ea4:	2a0403f6 	mov	w22, w4
    4ea8:	aa0503f7 	mov	x23, x5
    4eac:	2a0603f8 	mov	w24, w6
/home/rahulmahadev/hikey_optee/optee_os/lib/libutee/tee_api_operations.c:1655
    4eb0:	910003fb 	mov	x27, sp
/home/rahulmahadev/hikey_optee/optee_os/lib/libutee/tee_api_operations.c:1657
    4eb4:	b40000b3 	cbz	x19, 4ec8 <TEE_AsymmetricVerifyDigest+0x6c>
/home/rahulmahadev/hikey_optee/optee_os/lib/libutee/tee_api_operations.c:1657 (discriminator 1)
    4eb8:	b5000043 	cbnz	x3, 4ec0 <TEE_AsymmetricVerifyDigest+0x64>
    4ebc:	35000064 	cbnz	w4, 4ec8 <TEE_AsymmetricVerifyDigest+0x6c>
/home/rahulmahadev/hikey_optee/optee_os/lib/libutee/tee_api_operations.c:1658
    4ec0:	b50001b7 	cbnz	x23, 4ef4 <TEE_AsymmetricVerifyDigest+0x98>
    4ec4:	34000198 	cbz	w24, 4ef4 <TEE_AsymmetricVerifyDigest+0x98>
/home/rahulmahadev/hikey_optee/optee_os/lib/libutee/tee_api_operations.c:1660
    4ec8:	b0000044 	adrp	x4, d000 <PRIME_TABLE+0x388>
    4ecc:	90000040 	adrp	x0, c000 <utee_authenc_update_aad>
    4ed0:	9123c000 	add	x0, x0, #0x8f0
    4ed4:	52800005 	mov	w5, #0x0                   	// #0
    4ed8:	91235c84 	add	x4, x4, #0x8d7
    4edc:	52800023 	mov	w3, #0x1                   	// #1
    4ee0:	52800022 	mov	w2, #0x1                   	// #1
    4ee4:	5280cf81 	mov	w1, #0x67c                 	// #1660
    4ee8:	94000c0c 	bl	7f18 <trace_printf>
    4eec:	52800000 	mov	w0, #0x0                   	// #0
    4ef0:	9400012a 	bl	5398 <__TEE_Panic>
/home/rahulmahadev/hikey_optee/optee_os/lib/libutee/tee_api_operations.c:1661
    4ef4:	340001b4 	cbz	w20, 4f28 <TEE_AsymmetricVerifyDigest+0xcc>
    4ef8:	b5000199 	cbnz	x25, 4f28 <TEE_AsymmetricVerifyDigest+0xcc>
/home/rahulmahadev/hikey_optee/optee_os/lib/libutee/tee_api_operations.c:1662
    4efc:	b0000044 	adrp	x4, d000 <PRIME_TABLE+0x388>
    4f00:	90000040 	adrp	x0, c000 <utee_authenc_update_aad>
    4f04:	9123c000 	add	x0, x0, #0x8f0
    4f08:	52800005 	mov	w5, #0x0                   	// #0
    4f0c:	91235c84 	add	x4, x4, #0x8d7
    4f10:	52800023 	mov	w3, #0x1                   	// #1
    4f14:	52800022 	mov	w2, #0x1                   	// #1
    4f18:	5280cfc1 	mov	w1, #0x67e                 	// #1662
    4f1c:	94000bff 	bl	7f18 <trace_printf>
    4f20:	52800000 	mov	w0, #0x0                   	// #0
    4f24:	9400011d 	bl	5398 <__TEE_Panic>
/home/rahulmahadev/hikey_optee/optee_os/lib/libutee/tee_api_operations.c:1663
    4f28:	f9401260 	ldr	x0, [x19,#32]
    4f2c:	b5000180 	cbnz	x0, 4f5c <TEE_AsymmetricVerifyDigest+0x100>
/home/rahulmahadev/hikey_optee/optee_os/lib/libutee/tee_api_operations.c:1664
    4f30:	b0000044 	adrp	x4, d000 <PRIME_TABLE+0x388>
    4f34:	90000040 	adrp	x0, c000 <utee_authenc_update_aad>
    4f38:	9123c000 	add	x0, x0, #0x8f0
    4f3c:	52800005 	mov	w5, #0x0                   	// #0
    4f40:	91235c84 	add	x4, x4, #0x8d7
    4f44:	52800023 	mov	w3, #0x1                   	// #1
    4f48:	52800022 	mov	w2, #0x1                   	// #1
    4f4c:	5280d001 	mov	w1, #0x680                 	// #1664
    4f50:	94000bf2 	bl	7f18 <trace_printf>
    4f54:	52800000 	mov	w0, #0x0                   	// #0
    4f58:	94000110 	bl	5398 <__TEE_Panic>
/home/rahulmahadev/hikey_optee/optee_os/lib/libutee/tee_api_operations.c:1665
    4f5c:	b9400660 	ldr	w0, [x19,#4]
    4f60:	71001c1f 	cmp	w0, #0x7
    4f64:	54000180 	b.eq	4f94 <TEE_AsymmetricVerifyDigest+0x138>
/home/rahulmahadev/hikey_optee/optee_os/lib/libutee/tee_api_operations.c:1667
    4f68:	b0000044 	adrp	x4, d000 <PRIME_TABLE+0x388>
    4f6c:	90000040 	adrp	x0, c000 <utee_authenc_update_aad>
    4f70:	9123c000 	add	x0, x0, #0x8f0
    4f74:	52800005 	mov	w5, #0x0                   	// #0
    4f78:	91235c84 	add	x4, x4, #0x8d7
    4f7c:	52800023 	mov	w3, #0x1                   	// #1
    4f80:	52800022 	mov	w2, #0x1                   	// #1
    4f84:	5280d061 	mov	w1, #0x683                 	// #1667
    4f88:	94000be4 	bl	7f18 <trace_printf>
    4f8c:	52800000 	mov	w0, #0x0                   	// #0
    4f90:	94000102 	bl	5398 <__TEE_Panic>
/home/rahulmahadev/hikey_optee/optee_os/lib/libutee/tee_api_operations.c:1668
    4f94:	b9400a60 	ldr	w0, [x19,#8]
    4f98:	71000c1f 	cmp	w0, #0x3
    4f9c:	54000180 	b.eq	4fcc <TEE_AsymmetricVerifyDigest+0x170>
/home/rahulmahadev/hikey_optee/optee_os/lib/libutee/tee_api_operations.c:1669
    4fa0:	b0000044 	adrp	x4, d000 <PRIME_TABLE+0x388>
    4fa4:	90000040 	adrp	x0, c000 <utee_authenc_update_aad>
    4fa8:	9123c000 	add	x0, x0, #0x8f0
    4fac:	52800005 	mov	w5, #0x0                   	// #0
    4fb0:	91235c84 	add	x4, x4, #0x8d7
    4fb4:	52800023 	mov	w3, #0x1                   	// #1
    4fb8:	52800022 	mov	w2, #0x1                   	// #1
    4fbc:	5280d0a1 	mov	w1, #0x685                 	// #1669
    4fc0:	94000bd6 	bl	7f18 <trace_printf>
    4fc4:	52800000 	mov	w0, #0x0                   	// #0
    4fc8:	940000f4 	bl	5398 <__TEE_Panic>
/home/rahulmahadev/hikey_optee/optee_os/lib/libutee/tee_api_operations.c:1671
    4fcc:	2a1403e2 	mov	w2, w20
    4fd0:	aa1903e1 	mov	x1, x25
    4fd4:	aa1b03e0 	mov	x0, x27
    4fd8:	97ffeff8 	bl	fb8 <__utee_from_attr>
/home/rahulmahadev/hikey_optee/optee_os/lib/libutee/tee_api_operations.c:1672
    4fdc:	b9405a60 	ldr	w0, [x19,#88]
    4fe0:	2a1803e6 	mov	w6, w24
    4fe4:	aa1703e5 	mov	x5, x23
    4fe8:	2a1603e4 	mov	w4, w22
    4fec:	aa1503e3 	mov	x3, x21
    4ff0:	aa1a03e2 	mov	x2, x26
    4ff4:	aa1b03e1 	mov	x1, x27
    4ff8:	94001c11 	bl	c03c <utee_asymm_verify>
    4ffc:	2a0003f3 	mov	w19, w0
/home/rahulmahadev/hikey_optee/optee_os/lib/libutee/tee_api_operations.c:1675
    5000:	1299f1a0 	mov	w0, #0xffff3072            	// #-53134
    5004:	6b00027f 	cmp	w19, w0
    5008:	540001a0 	b.eq	503c <TEE_AsymmetricVerifyDigest+0x1e0>
    500c:	34000193 	cbz	w19, 503c <TEE_AsymmetricVerifyDigest+0x1e0>
/home/rahulmahadev/hikey_optee/optee_os/lib/libutee/tee_api_operations.c:1676
    5010:	90000044 	adrp	x4, d000 <PRIME_TABLE+0x388>
    5014:	f0000020 	adrp	x0, c000 <utee_authenc_update_aad>
    5018:	9123c000 	add	x0, x0, #0x8f0
    501c:	2a1303e5 	mov	w5, w19
    5020:	91235c84 	add	x4, x4, #0x8d7
    5024:	52800023 	mov	w3, #0x1                   	// #1
    5028:	52800022 	mov	w2, #0x1                   	// #1
    502c:	5280d181 	mov	w1, #0x68c                 	// #1676
    5030:	94000bba 	bl	7f18 <trace_printf>
    5034:	2a1303e0 	mov	w0, w19
    5038:	940000d8 	bl	5398 <__TEE_Panic>
/home/rahulmahadev/hikey_optee/optee_os/lib/libutee/tee_api_operations.c:1679
    503c:	910003bf 	mov	sp, x29
    5040:	2a1303e0 	mov	w0, w19
    5044:	a94153f3 	ldp	x19, x20, [sp,#16]
    5048:	a9425bf5 	ldp	x21, x22, [sp,#32]
    504c:	a94363f7 	ldp	x23, x24, [sp,#48]
    5050:	a9446bf9 	ldp	x25, x26, [sp,#64]
    5054:	f9402bfb 	ldr	x27, [sp,#80]
    5058:	a8c67bfd 	ldp	x29, x30, [sp],#96
    505c:	d65f03c0 	ret

0000000000005060 <TEE_DeriveKey>:
TEE_DeriveKey():
/home/rahulmahadev/hikey_optee/optee_os/lib/libutee/tee_api_operations.c:1686
    5060:	a9ba7bfd 	stp	x29, x30, [sp,#-96]!
/home/rahulmahadev/hikey_optee/optee_os/lib/libutee/tee_api_operations.c:1689
    5064:	52800304 	mov	w4, #0x18                  	// #24
/home/rahulmahadev/hikey_optee/optee_os/lib/libutee/tee_api_operations.c:1686
    5068:	910003fd 	mov	x29, sp
    506c:	a90363f7 	stp	x23, x24, [sp,#48]
    5070:	2a0203f7 	mov	w23, w2
    5074:	a90153f3 	stp	x19, x20, [sp,#16]
/home/rahulmahadev/hikey_optee/optee_os/lib/libutee/tee_api_operations.c:1689
    5078:	9ba47ee4 	umull	x4, w23, w4
/home/rahulmahadev/hikey_optee/optee_os/lib/libutee/tee_api_operations.c:1686
    507c:	a9025bf5 	stp	x21, x22, [sp,#32]
/home/rahulmahadev/hikey_optee/optee_os/lib/libutee/tee_api_operations.c:1689
    5080:	91005884 	add	x4, x4, #0x16
/home/rahulmahadev/hikey_optee/optee_os/lib/libutee/tee_api_operations.c:1686
    5084:	aa0003f3 	mov	x19, x0
/home/rahulmahadev/hikey_optee/optee_os/lib/libutee/tee_api_operations.c:1689
    5088:	927c8484 	and	x4, x4, #0x3ffffffff0
    508c:	910003e0 	mov	x0, sp
    5090:	cb24601f 	sub	sp, x0, x4
/home/rahulmahadev/hikey_optee/optee_os/lib/libutee/tee_api_operations.c:1686
    5094:	aa0103f6 	mov	x22, x1
    5098:	aa1703f4 	mov	x20, x23
    509c:	aa0303f5 	mov	x21, x3
/home/rahulmahadev/hikey_optee/optee_os/lib/libutee/tee_api_operations.c:1689
    50a0:	910003f8 	mov	x24, sp
/home/rahulmahadev/hikey_optee/optee_os/lib/libutee/tee_api_operations.c:1691
    50a4:	b4000053 	cbz	x19, 50ac <TEE_DeriveKey+0x4c>
    50a8:	b5000183 	cbnz	x3, 50d8 <TEE_DeriveKey+0x78>
/home/rahulmahadev/hikey_optee/optee_os/lib/libutee/tee_api_operations.c:1692
    50ac:	90000044 	adrp	x4, d000 <PRIME_TABLE+0x388>
    50b0:	f0000020 	adrp	x0, c000 <utee_authenc_update_aad>
    50b4:	9124a000 	add	x0, x0, #0x928
    50b8:	52800005 	mov	w5, #0x0                   	// #0
    50bc:	91235c84 	add	x4, x4, #0x8d7
    50c0:	52800023 	mov	w3, #0x1                   	// #1
    50c4:	52800022 	mov	w2, #0x1                   	// #1
    50c8:	5280d381 	mov	w1, #0x69c                 	// #1692
    50cc:	94000b93 	bl	7f18 <trace_printf>
    50d0:	52800000 	mov	w0, #0x0                   	// #0
    50d4:	940000b1 	bl	5398 <__TEE_Panic>
/home/rahulmahadev/hikey_optee/optee_os/lib/libutee/tee_api_operations.c:1693
    50d8:	340001b4 	cbz	w20, 510c <TEE_DeriveKey+0xac>
    50dc:	b5000196 	cbnz	x22, 510c <TEE_DeriveKey+0xac>
/home/rahulmahadev/hikey_optee/optee_os/lib/libutee/tee_api_operations.c:1694
    50e0:	90000044 	adrp	x4, d000 <PRIME_TABLE+0x388>
    50e4:	f0000020 	adrp	x0, c000 <utee_authenc_update_aad>
    50e8:	9124a000 	add	x0, x0, #0x928
    50ec:	52800005 	mov	w5, #0x0                   	// #0
    50f0:	91235c84 	add	x4, x4, #0x8d7
    50f4:	52800023 	mov	w3, #0x1                   	// #1
    50f8:	52800022 	mov	w2, #0x1                   	// #1
    50fc:	5280d3c1 	mov	w1, #0x69e                 	// #1694
    5100:	94000b86 	bl	7f18 <trace_printf>
    5104:	52800000 	mov	w0, #0x0                   	// #0
    5108:	940000a4 	bl	5398 <__TEE_Panic>
/home/rahulmahadev/hikey_optee/optee_os/lib/libutee/tee_api_operations.c:1695
    510c:	b9400263 	ldr	w3, [x19]
    5110:	531c7c63 	lsr	w3, w3, #28
    5114:	7100207f 	cmp	w3, #0x8
    5118:	54000180 	b.eq	5148 <TEE_DeriveKey+0xe8>
/home/rahulmahadev/hikey_optee/optee_os/lib/libutee/tee_api_operations.c:1697
    511c:	90000044 	adrp	x4, d000 <PRIME_TABLE+0x388>
    5120:	f0000020 	adrp	x0, c000 <utee_authenc_update_aad>
    5124:	9124a000 	add	x0, x0, #0x928
    5128:	52800005 	mov	w5, #0x0                   	// #0
    512c:	91235c84 	add	x4, x4, #0x8d7
    5130:	52800023 	mov	w3, #0x1                   	// #1
    5134:	52800022 	mov	w2, #0x1                   	// #1
    5138:	5280d421 	mov	w1, #0x6a1                 	// #1697
    513c:	94000b77 	bl	7f18 <trace_printf>
    5140:	52800000 	mov	w0, #0x0                   	// #0
    5144:	94000095 	bl	5398 <__TEE_Panic>
/home/rahulmahadev/hikey_optee/optee_os/lib/libutee/tee_api_operations.c:1699
    5148:	b9400660 	ldr	w0, [x19,#4]
    514c:	7100201f 	cmp	w0, #0x8
    5150:	54000180 	b.eq	5180 <TEE_DeriveKey+0x120>
/home/rahulmahadev/hikey_optee/optee_os/lib/libutee/tee_api_operations.c:1700
    5154:	90000044 	adrp	x4, d000 <PRIME_TABLE+0x388>
    5158:	f0000020 	adrp	x0, c000 <utee_authenc_update_aad>
    515c:	9124a000 	add	x0, x0, #0x928
    5160:	52800005 	mov	w5, #0x0                   	// #0
    5164:	91235c84 	add	x4, x4, #0x8d7
    5168:	52800023 	mov	w3, #0x1                   	// #1
    516c:	52800022 	mov	w2, #0x1                   	// #1
    5170:	5280d481 	mov	w1, #0x6a4                 	// #1700
    5174:	94000b69 	bl	7f18 <trace_printf>
    5178:	52800000 	mov	w0, #0x0                   	// #0
    517c:	94000087 	bl	5398 <__TEE_Panic>
/home/rahulmahadev/hikey_optee/optee_os/lib/libutee/tee_api_operations.c:1701
    5180:	f9401260 	ldr	x0, [x19,#32]
    5184:	b5000180 	cbnz	x0, 51b4 <TEE_DeriveKey+0x154>
/home/rahulmahadev/hikey_optee/optee_os/lib/libutee/tee_api_operations.c:1702
    5188:	90000044 	adrp	x4, d000 <PRIME_TABLE+0x388>
    518c:	f0000020 	adrp	x0, c000 <utee_authenc_update_aad>
    5190:	9124a000 	add	x0, x0, #0x928
    5194:	52800005 	mov	w5, #0x0                   	// #0
    5198:	91235c84 	add	x4, x4, #0x8d7
    519c:	52800023 	mov	w3, #0x1                   	// #1
    51a0:	52800022 	mov	w2, #0x1                   	// #1
    51a4:	5280d4c1 	mov	w1, #0x6a6                 	// #1702
    51a8:	94000b5c 	bl	7f18 <trace_printf>
    51ac:	52800000 	mov	w0, #0x0                   	// #0
    51b0:	9400007a 	bl	5398 <__TEE_Panic>
/home/rahulmahadev/hikey_optee/optee_os/lib/libutee/tee_api_operations.c:1703
    51b4:	b9400a60 	ldr	w0, [x19,#8]
    51b8:	7100181f 	cmp	w0, #0x6
    51bc:	54000180 	b.eq	51ec <TEE_DeriveKey+0x18c>
/home/rahulmahadev/hikey_optee/optee_os/lib/libutee/tee_api_operations.c:1704
    51c0:	90000044 	adrp	x4, d000 <PRIME_TABLE+0x388>
    51c4:	f0000020 	adrp	x0, c000 <utee_authenc_update_aad>
    51c8:	9124a000 	add	x0, x0, #0x928
    51cc:	52800005 	mov	w5, #0x0                   	// #0
    51d0:	91235c84 	add	x4, x4, #0x8d7
    51d4:	52800023 	mov	w3, #0x1                   	// #1
    51d8:	52800022 	mov	w2, #0x1                   	// #1
    51dc:	5280d501 	mov	w1, #0x6a8                 	// #1704
    51e0:	94000b4e 	bl	7f18 <trace_printf>
    51e4:	52800000 	mov	w0, #0x0                   	// #0
    51e8:	9400006c 	bl	5398 <__TEE_Panic>
/home/rahulmahadev/hikey_optee/optee_os/lib/libutee/tee_api_operations.c:1705
    51ec:	b9401e60 	ldr	w0, [x19,#28]
    51f0:	37900180 	tbnz	w0, #18, 5220 <TEE_DeriveKey+0x1c0>
/home/rahulmahadev/hikey_optee/optee_os/lib/libutee/tee_api_operations.c:1706
    51f4:	90000044 	adrp	x4, d000 <PRIME_TABLE+0x388>
    51f8:	f0000020 	adrp	x0, c000 <utee_authenc_update_aad>
    51fc:	9124a000 	add	x0, x0, #0x928
    5200:	52800005 	mov	w5, #0x0                   	// #0
    5204:	91235c84 	add	x4, x4, #0x8d7
    5208:	52800023 	mov	w3, #0x1                   	// #1
    520c:	52800022 	mov	w2, #0x1                   	// #1
    5210:	5280d541 	mov	w1, #0x6aa                 	// #1706
    5214:	94000b41 	bl	7f18 <trace_printf>
    5218:	52800000 	mov	w0, #0x0                   	// #0
    521c:	9400005f 	bl	5398 <__TEE_Panic>
/home/rahulmahadev/hikey_optee/optee_os/lib/libutee/tee_api_operations.c:1708
    5220:	910103a1 	add	x1, x29, #0x40
    5224:	aa1503e0 	mov	x0, x21
    5228:	94001b55 	bl	bf7c <utee_cryp_obj_get_info>
/home/rahulmahadev/hikey_optee/optee_os/lib/libutee/tee_api_operations.c:1709
    522c:	34000180 	cbz	w0, 525c <TEE_DeriveKey+0x1fc>
/home/rahulmahadev/hikey_optee/optee_os/lib/libutee/tee_api_operations.c:1710
    5230:	90000044 	adrp	x4, d000 <PRIME_TABLE+0x388>
    5234:	f0000020 	adrp	x0, c000 <utee_authenc_update_aad>
    5238:	9124a000 	add	x0, x0, #0x928
    523c:	52800005 	mov	w5, #0x0                   	// #0
    5240:	91235c84 	add	x4, x4, #0x8d7
    5244:	52800023 	mov	w3, #0x1                   	// #1
    5248:	52800022 	mov	w2, #0x1                   	// #1
    524c:	5280d5c1 	mov	w1, #0x6ae                 	// #1710
    5250:	94000b32 	bl	7f18 <trace_printf>
    5254:	52800000 	mov	w0, #0x0                   	// #0
    5258:	94000050 	bl	5398 <__TEE_Panic>
/home/rahulmahadev/hikey_optee/optee_os/lib/libutee/tee_api_operations.c:1712
    525c:	b94043a1 	ldr	w1, [x29,#64]
    5260:	52b40000 	mov	w0, #0xa0000000            	// #-1610612736
    5264:	6b00003f 	cmp	w1, w0
    5268:	54000180 	b.eq	5298 <TEE_DeriveKey+0x238>
/home/rahulmahadev/hikey_optee/optee_os/lib/libutee/tee_api_operations.c:1713
    526c:	90000044 	adrp	x4, d000 <PRIME_TABLE+0x388>
    5270:	f0000020 	adrp	x0, c000 <utee_authenc_update_aad>
    5274:	9124a000 	add	x0, x0, #0x928
    5278:	52800005 	mov	w5, #0x0                   	// #0
    527c:	91235c84 	add	x4, x4, #0x8d7
    5280:	52800023 	mov	w3, #0x1                   	// #1
    5284:	52800022 	mov	w2, #0x1                   	// #1
    5288:	5280d621 	mov	w1, #0x6b1                 	// #1713
    528c:	94000b23 	bl	7f18 <trace_printf>
    5290:	52800000 	mov	w0, #0x0                   	// #0
    5294:	94000041 	bl	5398 <__TEE_Panic>
/home/rahulmahadev/hikey_optee/optee_os/lib/libutee/tee_api_operations.c:1714
    5298:	b9405ba0 	ldr	w0, [x29,#88]
    529c:	36880180 	tbz	w0, #17, 52cc <TEE_DeriveKey+0x26c>
/home/rahulmahadev/hikey_optee/optee_os/lib/libutee/tee_api_operations.c:1715
    52a0:	90000044 	adrp	x4, d000 <PRIME_TABLE+0x388>
    52a4:	f0000020 	adrp	x0, c000 <utee_authenc_update_aad>
    52a8:	9124a000 	add	x0, x0, #0x928
    52ac:	52800005 	mov	w5, #0x0                   	// #0
    52b0:	91235c84 	add	x4, x4, #0x8d7
    52b4:	52800023 	mov	w3, #0x1                   	// #1
    52b8:	52800022 	mov	w2, #0x1                   	// #1
    52bc:	5280d661 	mov	w1, #0x6b3                 	// #1715
    52c0:	94000b16 	bl	7f18 <trace_printf>
    52c4:	52800000 	mov	w0, #0x0                   	// #0
    52c8:	94000034 	bl	5398 <__TEE_Panic>
/home/rahulmahadev/hikey_optee/optee_os/lib/libutee/tee_api_operations.c:1717
    52cc:	2a1403e2 	mov	w2, w20
    52d0:	aa1603e1 	mov	x1, x22
    52d4:	aa1803e0 	mov	x0, x24
    52d8:	97ffef38 	bl	fb8 <__utee_from_attr>
/home/rahulmahadev/hikey_optee/optee_os/lib/libutee/tee_api_operations.c:1718
    52dc:	b9405a60 	ldr	w0, [x19,#88]
    52e0:	aa1503e3 	mov	x3, x21
    52e4:	aa1703e2 	mov	x2, x23
    52e8:	aa1803e1 	mov	x1, x24
    52ec:	94001b3c 	bl	bfdc <utee_cryp_derive_key>
    52f0:	2a0003f3 	mov	w19, w0
/home/rahulmahadev/hikey_optee/optee_os/lib/libutee/tee_api_operations.c:1720
    52f4:	34000180 	cbz	w0, 5324 <TEE_DeriveKey+0x2c4>
/home/rahulmahadev/hikey_optee/optee_os/lib/libutee/tee_api_operations.c:1721
    52f8:	2a0003e5 	mov	w5, w0
    52fc:	90000044 	adrp	x4, d000 <PRIME_TABLE+0x388>
    5300:	f0000020 	adrp	x0, c000 <utee_authenc_update_aad>
    5304:	91235c84 	add	x4, x4, #0x8d7
    5308:	9124a000 	add	x0, x0, #0x928
    530c:	52800023 	mov	w3, #0x1                   	// #1
    5310:	52800022 	mov	w2, #0x1                   	// #1
    5314:	5280d721 	mov	w1, #0x6b9                 	// #1721
    5318:	94000b00 	bl	7f18 <trace_printf>
    531c:	2a1303e0 	mov	w0, w19
    5320:	9400001e 	bl	5398 <__TEE_Panic>
/home/rahulmahadev/hikey_optee/optee_os/lib/libutee/tee_api_operations.c:1722
    5324:	910003bf 	mov	sp, x29
    5328:	a94153f3 	ldp	x19, x20, [sp,#16]
    532c:	a9425bf5 	ldp	x21, x22, [sp,#32]
    5330:	a94363f7 	ldp	x23, x24, [sp,#48]
    5334:	a8c67bfd 	ldp	x29, x30, [sp],#96
    5338:	d65f03c0 	ret

000000000000533c <TEE_GenerateRandom>:
TEE_GenerateRandom():
/home/rahulmahadev/hikey_optee/optee_os/lib/libutee/tee_api_operations.c:1727
    533c:	a9be7bfd 	stp	x29, x30, [sp,#-32]!
/home/rahulmahadev/hikey_optee/optee_os/lib/libutee/tee_api_operations.c:1730
    5340:	2a0103e1 	mov	w1, w1
/home/rahulmahadev/hikey_optee/optee_os/lib/libutee/tee_api_operations.c:1727
    5344:	910003fd 	mov	x29, sp
    5348:	f9000bf3 	str	x19, [sp,#16]
/home/rahulmahadev/hikey_optee/optee_os/lib/libutee/tee_api_operations.c:1730
    534c:	94001b27 	bl	bfe8 <utee_cryp_random_number_generate>
    5350:	2a0003f3 	mov	w19, w0
/home/rahulmahadev/hikey_optee/optee_os/lib/libutee/tee_api_operations.c:1731
    5354:	340001c0 	cbz	w0, 538c <TEE_GenerateRandom+0x50>
/home/rahulmahadev/hikey_optee/optee_os/lib/libutee/tee_api_operations.c:1732
    5358:	2a0003e5 	mov	w5, w0
    535c:	90000044 	adrp	x4, d000 <PRIME_TABLE+0x388>
    5360:	f0000020 	adrp	x0, c000 <utee_authenc_update_aad>
    5364:	91235c84 	add	x4, x4, #0x8d7
    5368:	52800023 	mov	w3, #0x1                   	// #1
    536c:	52800022 	mov	w2, #0x1                   	// #1
    5370:	5280d881 	mov	w1, #0x6c4                 	// #1732
    5374:	91254000 	add	x0, x0, #0x950
    5378:	94000ae8 	bl	7f18 <trace_printf>
    537c:	2a1303e0 	mov	w0, w19
/home/rahulmahadev/hikey_optee/optee_os/lib/libutee/tee_api_operations.c:1733
    5380:	f9400bf3 	ldr	x19, [sp,#16]
    5384:	a8c27bfd 	ldp	x29, x30, [sp],#32
/home/rahulmahadev/hikey_optee/optee_os/lib/libutee/tee_api_operations.c:1732
    5388:	14000004 	b	5398 <__TEE_Panic>
/home/rahulmahadev/hikey_optee/optee_os/lib/libutee/tee_api_operations.c:1733
    538c:	f9400bf3 	ldr	x19, [sp,#16]
    5390:	a8c27bfd 	ldp	x29, x30, [sp],#32
    5394:	d65f03c0 	ret

0000000000005398 <__TEE_Panic>:
__TEE_Panic():
/home/rahulmahadev/hikey_optee/optee_os/lib/libutee/tee_api_panic.c:35
    5398:	a9bf7bfd 	stp	x29, x30, [sp,#-16]!
/home/rahulmahadev/hikey_optee/optee_os/lib/libutee/tee_api_panic.c:36
    539c:	2a0003e0 	mov	w0, w0
/home/rahulmahadev/hikey_optee/optee_os/lib/libutee/tee_api_panic.c:35
    53a0:	910003fd 	mov	x29, sp
/home/rahulmahadev/hikey_optee/optee_os/lib/libutee/tee_api_panic.c:36
    53a4:	94001aae 	bl	be5c <utee_panic>

00000000000053a8 <TEE_Panic>:
TEE_Panic():
/home/rahulmahadev/hikey_optee/optee_os/lib/libutee/tee_api_panic.c:40
    53a8:	a9bf7bfd 	stp	x29, x30, [sp,#-16]!
__TEE_Panic():
/home/rahulmahadev/hikey_optee/optee_os/lib/libutee/tee_api_panic.c:36
    53ac:	2a0003e0 	mov	w0, w0
TEE_Panic():
/home/rahulmahadev/hikey_optee/optee_os/lib/libutee/tee_api_panic.c:40
    53b0:	910003fd 	mov	x29, sp
__TEE_Panic():
/home/rahulmahadev/hikey_optee/optee_os/lib/libutee/tee_api_panic.c:36
    53b4:	94001aaa 	bl	be5c <utee_panic>

00000000000053b8 <ta_header_get_session>:
ta_header_get_session():
/home/rahulmahadev/hikey_optee/optee_os/lib/libutee/arch/arm/user_ta_entry.c:75
    53b8:	d0000041 	adrp	x1, f000 <ta_props>
    53bc:	f9406c21 	ldr	x1, [x1,#216]
/home/rahulmahadev/hikey_optee/optee_os/lib/libutee/arch/arm/user_ta_entry.c:75 (discriminator 1)
    53c0:	b40000c1 	cbz	x1, 53d8 <ta_header_get_session+0x20>
/home/rahulmahadev/hikey_optee/optee_os/lib/libutee/arch/arm/user_ta_entry.c:76
    53c4:	b9400022 	ldr	w2, [x1]
    53c8:	6b00005f 	cmp	w2, w0
    53cc:	540000a0 	b.eq	53e0 <ta_header_get_session+0x28>
/home/rahulmahadev/hikey_optee/optee_os/lib/libutee/arch/arm/user_ta_entry.c:75 (discriminator 2)
    53d0:	f9400821 	ldr	x1, [x1,#16]
    53d4:	17fffffb 	b	53c0 <ta_header_get_session+0x8>
/home/rahulmahadev/hikey_optee/optee_os/lib/libutee/arch/arm/user_ta_entry.c:79
    53d8:	d2800000 	mov	x0, #0x0                   	// #0
    53dc:	14000002 	b	53e4 <ta_header_get_session+0x2c>
    53e0:	aa0103e0 	mov	x0, x1
/home/rahulmahadev/hikey_optee/optee_os/lib/libutee/arch/arm/user_ta_entry.c:80
    53e4:	d65f03c0 	ret

00000000000053e8 <ta_header_remove_session>:
ta_header_remove_session():
/home/rahulmahadev/hikey_optee/optee_os/lib/libutee/arch/arm/user_ta_entry.c:121
    53e8:	d0000041 	adrp	x1, f000 <ta_props>
/home/rahulmahadev/hikey_optee/optee_os/lib/libutee/arch/arm/user_ta_entry.c:118
    53ec:	2a0003e2 	mov	w2, w0
    53f0:	a9bf7bfd 	stp	x29, x30, [sp,#-16]!
    53f4:	910003fd 	mov	x29, sp
/home/rahulmahadev/hikey_optee/optee_os/lib/libutee/arch/arm/user_ta_entry.c:121
    53f8:	f9406c20 	ldr	x0, [x1,#216]
/home/rahulmahadev/hikey_optee/optee_os/lib/libutee/arch/arm/user_ta_entry.c:121 (discriminator 1)
    53fc:	b4000300 	cbz	x0, 545c <ta_header_remove_session+0x74>
/home/rahulmahadev/hikey_optee/optee_os/lib/libutee/arch/arm/user_ta_entry.c:122
    5400:	b9400003 	ldr	w3, [x0]
    5404:	6b02007f 	cmp	w3, w2
    5408:	54000261 	b.ne	5454 <ta_header_remove_session+0x6c>
/home/rahulmahadev/hikey_optee/optee_os/lib/libutee/arch/arm/user_ta_entry.c:123
    540c:	f9400802 	ldr	x2, [x0,#16]
    5410:	b4000082 	cbz	x2, 5420 <ta_header_remove_session+0x38>
/home/rahulmahadev/hikey_optee/optee_os/lib/libutee/arch/arm/user_ta_entry.c:123 (discriminator 1)
    5414:	f9400c01 	ldr	x1, [x0,#24]
    5418:	f9000c41 	str	x1, [x2,#24]
    541c:	14000004 	b	542c <ta_header_remove_session+0x44>
/home/rahulmahadev/hikey_optee/optee_os/lib/libutee/arch/arm/user_ta_entry.c:123 (discriminator 2)
    5420:	91036021 	add	x1, x1, #0xd8
    5424:	f9400c03 	ldr	x3, [x0,#24]
    5428:	f9000423 	str	x3, [x1,#8]
/home/rahulmahadev/hikey_optee/optee_os/lib/libutee/arch/arm/user_ta_entry.c:123 (discriminator 4)
    542c:	f9400c01 	ldr	x1, [x0,#24]
    5430:	f9000022 	str	x2, [x1]
/home/rahulmahadev/hikey_optee/optee_os/lib/libutee/arch/arm/user_ta_entry.c:124 (discriminator 4)
    5434:	97ffeeda 	bl	f9c <TEE_Free>
/home/rahulmahadev/hikey_optee/optee_os/lib/libutee/arch/arm/user_ta_entry.c:126 (discriminator 4)
    5438:	900000a1 	adrp	x1, 19000 <buf.1900+0x300>
    543c:	b94d0820 	ldr	w0, [x1,#3336]
    5440:	51000400 	sub	w0, w0, #0x1
    5444:	b90d0820 	str	w0, [x1,#3336]
/home/rahulmahadev/hikey_optee/optee_os/lib/libutee/arch/arm/user_ta_entry.c:127 (discriminator 4)
    5448:	350000a0 	cbnz	w0, 545c <ta_header_remove_session+0x74>
/home/rahulmahadev/hikey_optee/optee_os/lib/libutee/arch/arm/user_ta_entry.c:133
    544c:	a8c17bfd 	ldp	x29, x30, [sp],#16
/home/rahulmahadev/hikey_optee/optee_os/lib/libutee/arch/arm/user_ta_entry.c:128
    5450:	17ffebbe 	b	348 <TA_DestroyEntryPoint>
/home/rahulmahadev/hikey_optee/optee_os/lib/libutee/arch/arm/user_ta_entry.c:121 (discriminator 2)
    5454:	f9400800 	ldr	x0, [x0,#16]
    5458:	17ffffe9 	b	53fc <ta_header_remove_session+0x14>
/home/rahulmahadev/hikey_optee/optee_os/lib/libutee/arch/arm/user_ta_entry.c:133
    545c:	a8c17bfd 	ldp	x29, x30, [sp],#16
    5460:	d65f03c0 	ret

0000000000005464 <ta_header_save_params.part.0>:
ta_header_save_params():
/home/rahulmahadev/hikey_optee/optee_os/lib/libutee/arch/arm/user_ta_entry.c:68
    5464:	b0000040 	adrp	x0, e000 <__compound_literal.2+0x72a>
    5468:	d2800802 	mov	x2, #0x40                  	// #64
    546c:	52800001 	mov	w1, #0x0                   	// #0
    5470:	f940c400 	ldr	x0, [x0,#392]
    5474:	14000767 	b	7210 <memset>

0000000000005478 <__utee_entry>:
__utee_entry():
/home/rahulmahadev/hikey_optee/optee_os/lib/libutee/arch/arm/user_ta_entry.c:200
    5478:	a9b77bfd 	stp	x29, x30, [sp,#-144]!
/home/rahulmahadev/hikey_optee/optee_os/lib/libutee/arch/arm/user_ta_entry.c:203
    547c:	f100041f 	cmp	x0, #0x1
/home/rahulmahadev/hikey_optee/optee_os/lib/libutee/arch/arm/user_ta_entry.c:200
    5480:	910003fd 	mov	x29, sp
    5484:	a90153f3 	stp	x19, x20, [sp,#16]
    5488:	a9025bf5 	stp	x21, x22, [sp,#32]
    548c:	f9001bf7 	str	x23, [sp,#48]
    5490:	aa0103f4 	mov	x20, x1
    5494:	aa0203f6 	mov	x22, x2
    5498:	aa0303f7 	mov	x23, x3
/home/rahulmahadev/hikey_optee/optee_os/lib/libutee/arch/arm/user_ta_entry.c:203
    549c:	54000600 	b.eq	555c <__utee_entry+0xe4>
    54a0:	b4000080 	cbz	x0, 54b0 <__utee_entry+0x38>
    54a4:	f100081f 	cmp	x0, #0x2
    54a8:	540006e0 	b.eq	5584 <__utee_entry+0x10c>
    54ac:	14000054 	b	55fc <__utee_entry+0x184>
ta_header_add_session():
/home/rahulmahadev/hikey_optee/optee_os/lib/libutee/arch/arm/user_ta_entry.c:84
    54b0:	2a0103e0 	mov	w0, w1
    54b4:	97ffffc1 	bl	53b8 <ta_header_get_session>
/home/rahulmahadev/hikey_optee/optee_os/lib/libutee/arch/arm/user_ta_entry.c:86
    54b8:	b5000c60 	cbnz	x0, 5644 <__utee_entry+0x1cc>
/home/rahulmahadev/hikey_optee/optee_os/lib/libutee/arch/arm/user_ta_entry.c:89
    54bc:	900000a0 	adrp	x0, 19000 <buf.1900+0x300>
    54c0:	b94d0813 	ldr	w19, [x0,#3336]
    54c4:	11000673 	add	w19, w19, #0x1
    54c8:	b90d0813 	str	w19, [x0,#3336]
/home/rahulmahadev/hikey_optee/optee_os/lib/libutee/arch/arm/user_ta_entry.c:91
    54cc:	7100067f 	cmp	w19, #0x1
    54d0:	54000240 	b.eq	5518 <__utee_entry+0xa0>
/home/rahulmahadev/hikey_optee/optee_os/lib/libutee/arch/arm/user_ta_entry.c:106
    54d4:	52b00001 	mov	w1, #0x80000000            	// #-2147483648
    54d8:	52800400 	mov	w0, #0x20                  	// #32
/home/rahulmahadev/hikey_optee/optee_os/lib/libutee/arch/arm/user_ta_entry.c:109
    54dc:	129ffe73 	mov	w19, #0xffff000c            	// #-65524
/home/rahulmahadev/hikey_optee/optee_os/lib/libutee/arch/arm/user_ta_entry.c:106
    54e0:	97ffeeab 	bl	f8c <TEE_Malloc>
    54e4:	aa0003e3 	mov	x3, x0
/home/rahulmahadev/hikey_optee/optee_os/lib/libutee/arch/arm/user_ta_entry.c:108
    54e8:	b4000a20 	cbz	x0, 562c <__utee_entry+0x1b4>
/home/rahulmahadev/hikey_optee/optee_os/lib/libutee/arch/arm/user_ta_entry.c:111
    54ec:	f900041f 	str	xzr, [x0,#8]
/home/rahulmahadev/hikey_optee/optee_os/lib/libutee/arch/arm/user_ta_entry.c:110
    54f0:	b9000014 	str	w20, [x0]
/home/rahulmahadev/hikey_optee/optee_os/lib/libutee/arch/arm/user_ta_entry.c:112
    54f4:	f900081f 	str	xzr, [x0,#16]
    54f8:	d0000040 	adrp	x0, f000 <ta_props>
    54fc:	91036000 	add	x0, x0, #0xd8
    5500:	f9400401 	ldr	x1, [x0,#8]
    5504:	f9000c61 	str	x1, [x3,#24]
    5508:	f9000023 	str	x3, [x1]
    550c:	91004063 	add	x3, x3, #0x10
    5510:	f9000403 	str	x3, [x0,#8]
    5514:	1400004c 	b	5644 <__utee_entry+0x1cc>
/home/rahulmahadev/hikey_optee/optee_os/lib/libutee/arch/arm/user_ta_entry.c:94
    5518:	900000b5 	adrp	x21, 19000 <buf.1900+0x300>
    551c:	397432a0 	ldrb	w0, [x21,#3340]
    5520:	35000160 	cbnz	w0, 554c <__utee_entry+0xd4>
/home/rahulmahadev/hikey_optee/optee_os/lib/libutee/arch/arm/user_ta_entry.c:95
    5524:	97ffed0f 	bl	960 <tahead_get_trace_level>
    5528:	94000a70 	bl	7ee8 <trace_set_level>
/home/rahulmahadev/hikey_optee/optee_os/lib/libutee/arch/arm/user_ta_entry.c:96
    552c:	b0000040 	adrp	x0, e000 <__compound_literal.2+0x72a>
    5530:	f9408c00 	ldr	x0, [x0,#280]
    5534:	f9400001 	ldr	x1, [x0]
    5538:	b0000040 	adrp	x0, e000 <__compound_literal.2+0x72a>
    553c:	f940a800 	ldr	x0, [x0,#336]
    5540:	94000648 	bl	6e60 <malloc_add_pool>
/home/rahulmahadev/hikey_optee/optee_os/lib/libutee/arch/arm/user_ta_entry.c:97
    5544:	940001ea 	bl	5cec <_TEE_MathAPI_Init>
/home/rahulmahadev/hikey_optee/optee_os/lib/libutee/arch/arm/user_ta_entry.c:98
    5548:	393432b3 	strb	w19, [x21,#3340]
/home/rahulmahadev/hikey_optee/optee_os/lib/libutee/arch/arm/user_ta_entry.c:101
    554c:	97ffeb7d 	bl	340 <TA_CreateEntryPoint>
    5550:	2a0003f3 	mov	w19, w0
/home/rahulmahadev/hikey_optee/optee_os/lib/libutee/arch/arm/user_ta_entry.c:102
    5554:	34fffc00 	cbz	w0, 54d4 <__utee_entry+0x5c>
    5558:	14000035 	b	562c <__utee_entry+0x1b4>
entry_close_session():
/home/rahulmahadev/hikey_optee/optee_os/lib/libutee/arch/arm/user_ta_entry.c:166
    555c:	2a0103e0 	mov	w0, w1
/home/rahulmahadev/hikey_optee/optee_os/lib/libutee/arch/arm/user_ta_entry.c:169
    5560:	129fff13 	mov	w19, #0xffff0007            	// #-65529
/home/rahulmahadev/hikey_optee/optee_os/lib/libutee/arch/arm/user_ta_entry.c:166
    5564:	97ffff95 	bl	53b8 <ta_header_get_session>
/home/rahulmahadev/hikey_optee/optee_os/lib/libutee/arch/arm/user_ta_entry.c:168
    5568:	b4000620 	cbz	x0, 562c <__utee_entry+0x1b4>
/home/rahulmahadev/hikey_optee/optee_os/lib/libutee/arch/arm/user_ta_entry.c:171
    556c:	f9400400 	ldr	x0, [x0,#8]
/home/rahulmahadev/hikey_optee/optee_os/lib/libutee/arch/arm/user_ta_entry.c:174
    5570:	52800013 	mov	w19, #0x0                   	// #0
/home/rahulmahadev/hikey_optee/optee_os/lib/libutee/arch/arm/user_ta_entry.c:171
    5574:	97ffec13 	bl	5c0 <TA_CloseSessionEntryPoint>
/home/rahulmahadev/hikey_optee/optee_os/lib/libutee/arch/arm/user_ta_entry.c:173
    5578:	2a1403e0 	mov	w0, w20
    557c:	97ffff9b 	bl	53e8 <ta_header_remove_session>
    5580:	1400002b 	b	562c <__utee_entry+0x1b4>
entry_invoke_command():
/home/rahulmahadev/hikey_optee/optee_os/lib/libutee/arch/arm/user_ta_entry.c:183
    5584:	2a0103e0 	mov	w0, w1
/home/rahulmahadev/hikey_optee/optee_os/lib/libutee/arch/arm/user_ta_entry.c:186
    5588:	129fff13 	mov	w19, #0xffff0007            	// #-65529
/home/rahulmahadev/hikey_optee/optee_os/lib/libutee/arch/arm/user_ta_entry.c:183
    558c:	97ffff8b 	bl	53b8 <ta_header_get_session>
    5590:	aa0003f5 	mov	x21, x0
/home/rahulmahadev/hikey_optee/optee_os/lib/libutee/arch/arm/user_ta_entry.c:185
    5594:	b40004c0 	cbz	x0, 562c <__utee_entry+0x1b4>
/home/rahulmahadev/hikey_optee/optee_os/lib/libutee/arch/arm/user_ta_entry.c:188
    5598:	910143b4 	add	x20, x29, #0x50
    559c:	aa1603e2 	mov	x2, x22
    55a0:	910133a1 	add	x1, x29, #0x4c
    55a4:	aa1403e0 	mov	x0, x20
    55a8:	97ffed10 	bl	9e8 <__utee_to_param>
/home/rahulmahadev/hikey_optee/optee_os/lib/libutee/arch/arm/user_ta_entry.c:189
    55ac:	b9404fb3 	ldr	w19, [x29,#76]
ta_header_save_params():
/home/rahulmahadev/hikey_optee/optee_os/lib/libutee/arch/arm/user_ta_entry.c:63
    55b0:	b0000044 	adrp	x4, e000 <__compound_literal.2+0x72a>
/home/rahulmahadev/hikey_optee/optee_os/lib/libutee/arch/arm/user_ta_entry.c:66
    55b4:	b0000040 	adrp	x0, e000 <__compound_literal.2+0x72a>
    55b8:	aa1403e1 	mov	x1, x20
    55bc:	d2800802 	mov	x2, #0x40                  	// #64
/home/rahulmahadev/hikey_optee/optee_os/lib/libutee/arch/arm/user_ta_entry.c:63
    55c0:	f940b484 	ldr	x4, [x4,#360]
    55c4:	b9000093 	str	w19, [x4]
/home/rahulmahadev/hikey_optee/optee_os/lib/libutee/arch/arm/user_ta_entry.c:66
    55c8:	f940c400 	ldr	x0, [x0,#392]
    55cc:	940006f5 	bl	71a0 <memcpy>
entry_invoke_command():
/home/rahulmahadev/hikey_optee/optee_os/lib/libutee/arch/arm/user_ta_entry.c:191
    55d0:	f94006a0 	ldr	x0, [x21,#8]
    55d4:	2a1303e2 	mov	w2, w19
    55d8:	2a1703e1 	mov	w1, w23
    55dc:	aa1403e3 	mov	x3, x20
    55e0:	97ffecc9 	bl	904 <TA_InvokeCommandEntryPoint>
    55e4:	2a0003f3 	mov	w19, w0
/home/rahulmahadev/hikey_optee/optee_os/lib/libutee/arch/arm/user_ta_entry.c:194
    55e8:	b9404fa1 	ldr	w1, [x29,#76]
    55ec:	aa1403e2 	mov	x2, x20
    55f0:	aa1603e0 	mov	x0, x22
    55f4:	97ffecdd 	bl	968 <__utee_from_param>
    55f8:	1400000d 	b	562c <__utee_entry+0x1b4>
__utee_entry():
/home/rahulmahadev/hikey_optee/optee_os/lib/libutee/arch/arm/user_ta_entry.c:215
    55fc:	90000044 	adrp	x4, d000 <PRIME_TABLE+0x388>
    5600:	f0000020 	adrp	x0, c000 <utee_authenc_update_aad>
    5604:	52800005 	mov	w5, #0x0                   	// #0
    5608:	91235c84 	add	x4, x4, #0x8d7
    560c:	52800023 	mov	w3, #0x1                   	// #1
    5610:	52800022 	mov	w2, #0x1                   	// #1
    5614:	52801ae1 	mov	w1, #0xd7                  	// #215
    5618:	9128a000 	add	x0, x0, #0xa28
/home/rahulmahadev/hikey_optee/optee_os/lib/libutee/arch/arm/user_ta_entry.c:214
    561c:	12800013 	mov	w19, #0xffffffff            	// #-1
/home/rahulmahadev/hikey_optee/optee_os/lib/libutee/arch/arm/user_ta_entry.c:215
    5620:	94000a3e 	bl	7f18 <trace_printf>
    5624:	52800000 	mov	w0, #0x0                   	// #0
    5628:	97ffff5c 	bl	5398 <__TEE_Panic>
ta_header_save_params():
/home/rahulmahadev/hikey_optee/optee_os/lib/libutee/arch/arm/user_ta_entry.c:63
    562c:	b0000040 	adrp	x0, e000 <__compound_literal.2+0x72a>
    5630:	f940b400 	ldr	x0, [x0,#360]
    5634:	b900001f 	str	wzr, [x0]
    5638:	97ffff8b 	bl	5464 <ta_header_save_params.part.0>
__utee_entry():
/home/rahulmahadev/hikey_optee/optee_os/lib/libutee/arch/arm/user_ta_entry.c:219
    563c:	2a1303e0 	mov	w0, w19
    5640:	94001a01 	bl	be44 <utee_return>
entry_open_session():
/home/rahulmahadev/hikey_optee/optee_os/lib/libutee/arch/arm/user_ta_entry.c:147
    5644:	2a1403e0 	mov	w0, w20
/home/rahulmahadev/hikey_optee/optee_os/lib/libutee/arch/arm/user_ta_entry.c:149
    5648:	129fff13 	mov	w19, #0xffff0007            	// #-65529
/home/rahulmahadev/hikey_optee/optee_os/lib/libutee/arch/arm/user_ta_entry.c:147
    564c:	97ffff5b 	bl	53b8 <ta_header_get_session>
    5650:	aa0003f7 	mov	x23, x0
/home/rahulmahadev/hikey_optee/optee_os/lib/libutee/arch/arm/user_ta_entry.c:148
    5654:	b4fffec0 	cbz	x0, 562c <__utee_entry+0x1b4>
/home/rahulmahadev/hikey_optee/optee_os/lib/libutee/arch/arm/user_ta_entry.c:151
    5658:	910143b5 	add	x21, x29, #0x50
    565c:	aa1603e2 	mov	x2, x22
    5660:	910133a1 	add	x1, x29, #0x4c
    5664:	aa1503e0 	mov	x0, x21
    5668:	97ffece0 	bl	9e8 <__utee_to_param>
/home/rahulmahadev/hikey_optee/optee_os/lib/libutee/arch/arm/user_ta_entry.c:152
    566c:	b9404fb3 	ldr	w19, [x29,#76]
ta_header_save_params():
/home/rahulmahadev/hikey_optee/optee_os/lib/libutee/arch/arm/user_ta_entry.c:63
    5670:	b0000041 	adrp	x1, e000 <__compound_literal.2+0x72a>
/home/rahulmahadev/hikey_optee/optee_os/lib/libutee/arch/arm/user_ta_entry.c:66
    5674:	b0000040 	adrp	x0, e000 <__compound_literal.2+0x72a>
    5678:	d2800802 	mov	x2, #0x40                  	// #64
/home/rahulmahadev/hikey_optee/optee_os/lib/libutee/arch/arm/user_ta_entry.c:63
    567c:	f940b421 	ldr	x1, [x1,#360]
    5680:	b9000033 	str	w19, [x1]
/home/rahulmahadev/hikey_optee/optee_os/lib/libutee/arch/arm/user_ta_entry.c:66
    5684:	aa1503e1 	mov	x1, x21
    5688:	f940c400 	ldr	x0, [x0,#392]
    568c:	940006c5 	bl	71a0 <memcpy>
entry_open_session():
/home/rahulmahadev/hikey_optee/optee_os/lib/libutee/arch/arm/user_ta_entry.c:154
    5690:	910022e2 	add	x2, x23, #0x8
    5694:	aa1503e1 	mov	x1, x21
    5698:	2a1303e0 	mov	w0, w19
    569c:	97ffeb8d 	bl	4d0 <TA_OpenSessionEntryPoint>
    56a0:	2a0003f3 	mov	w19, w0
/home/rahulmahadev/hikey_optee/optee_os/lib/libutee/arch/arm/user_ta_entry.c:157
    56a4:	b9404fa1 	ldr	w1, [x29,#76]
    56a8:	aa1503e2 	mov	x2, x21
    56ac:	aa1603e0 	mov	x0, x22
    56b0:	97ffecae 	bl	968 <__utee_from_param>
/home/rahulmahadev/hikey_optee/optee_os/lib/libutee/arch/arm/user_ta_entry.c:159
    56b4:	34fffbd3 	cbz	w19, 562c <__utee_entry+0x1b4>
/home/rahulmahadev/hikey_optee/optee_os/lib/libutee/arch/arm/user_ta_entry.c:160
    56b8:	2a1403e0 	mov	w0, w20
    56bc:	97ffff4b 	bl	53e8 <ta_header_remove_session>
    56c0:	17ffffdb 	b	562c <__utee_entry+0x1b4>

00000000000056c4 <print_buf>:
print_buf():
/home/rahulmahadev/hikey_optee/optee_os/lib/libutee/tee_user_mem.c:164
    56c4:	d100c3ff 	sub	sp, sp, #0x30
/home/rahulmahadev/hikey_optee/optee_os/lib/libutee/tee_user_mem.c:165
    56c8:	aa0303e7 	mov	x7, x3
    56cc:	2a0203e6 	mov	w6, w2
    56d0:	52800023 	mov	w3, #0x1                   	// #1
    56d4:	2a0003e2 	mov	w2, w0
    56d8:	d2800000 	mov	x0, #0x0                   	// #0
/home/rahulmahadev/hikey_optee/optee_os/lib/libutee/tee_user_mem.c:164
    56dc:	a9027bfd 	stp	x29, x30, [sp,#32]
    56e0:	910083fd 	add	x29, sp, #0x20
buf_size():
/home/rahulmahadev/hikey_optee/optee_os/lib/libutee/tee_user_mem.c:135
    56e4:	f9400885 	ldr	x5, [x4,#16]
print_buf():
/home/rahulmahadev/hikey_optee/optee_os/lib/libutee/tee_user_mem.c:165
    56e8:	f90003e4 	str	x4, [sp]
buf_size():
/home/rahulmahadev/hikey_optee/optee_os/lib/libutee/tee_user_mem.c:135
    56ec:	d10084a5 	sub	x5, x5, #0x21
print_buf():
/home/rahulmahadev/hikey_optee/optee_os/lib/libutee/tee_user_mem.c:165
    56f0:	f9000be5 	str	x5, [sp,#16]
buf_addr():
/home/rahulmahadev/hikey_optee/optee_os/lib/libutee/tee_user_mem.c:130
    56f4:	91008085 	add	x5, x4, #0x20
print_buf():
/home/rahulmahadev/hikey_optee/optee_os/lib/libutee/tee_user_mem.c:165
    56f8:	90000044 	adrp	x4, d000 <PRIME_TABLE+0x388>
    56fc:	f90007e5 	str	x5, [sp,#8]
    5700:	91238884 	add	x4, x4, #0x8e2
    5704:	aa0103e5 	mov	x5, x1
    5708:	52800001 	mov	w1, #0x0                   	// #0
    570c:	94000a03 	bl	7f18 <trace_printf>
/home/rahulmahadev/hikey_optee/optee_os/lib/libutee/tee_user_mem.c:168
    5710:	910003bf 	mov	sp, x29
    5714:	a8c17bfd 	ldp	x29, x30, [sp],#16
    5718:	d65f03c0 	ret

000000000000571c <check_elem>:
check_elem():
/home/rahulmahadev/hikey_optee/optee_os/lib/libutee/tee_user_mem.c:235
    571c:	a9bf7bfd 	stp	x29, x30, [sp,#-16]!
    5720:	910003fd 	mov	x29, sp
/home/rahulmahadev/hikey_optee/optee_os/lib/libutee/tee_user_mem.c:239
    5724:	b4000680 	cbz	x0, 57f4 <check_elem+0xd8>
    5728:	aa0003e1 	mov	x1, x0
/home/rahulmahadev/hikey_optee/optee_os/lib/libutee/tee_user_mem.c:242
    572c:	92400400 	and	x0, x0, #0x3
    5730:	b4000100 	cbz	x0, 5750 <check_elem+0x34>
    5734:	90000041 	adrp	x1, d000 <PRIME_TABLE+0x388>
    5738:	90000040 	adrp	x0, d000 <PRIME_TABLE+0x388>
    573c:	52801e42 	mov	w2, #0xf2                  	// #242
    5740:	91241021 	add	x1, x1, #0x904
    5744:	91247c00 	add	x0, x0, #0x91f
    5748:	94000146 	bl	5c60 <_assert_log>
    574c:	94000150 	bl	5c8c <_assert_break>
/home/rahulmahadev/hikey_optee/optee_os/lib/libutee/tee_user_mem.c:244
    5750:	f9400024 	ldr	x4, [x1]
/home/rahulmahadev/hikey_optee/optee_os/lib/libutee/tee_user_mem.c:245
    5754:	b4000144 	cbz	x4, 577c <check_elem+0x60>
/home/rahulmahadev/hikey_optee/optee_os/lib/libutee/tee_user_mem.c:245 (discriminator 1)
    5758:	f9400480 	ldr	x0, [x4,#8]
    575c:	f9400400 	ldr	x0, [x0,#8]
    5760:	f9400000 	ldr	x0, [x0]
    5764:	eb01001f 	cmp	x0, x1
    5768:	540000a0 	b.eq	577c <check_elem+0x60>
/home/rahulmahadev/hikey_optee/optee_os/lib/libutee/tee_user_mem.c:246
    576c:	90000043 	adrp	x3, d000 <PRIME_TABLE+0x388>
    5770:	52801ec2 	mov	w2, #0xf6                  	// #246
    5774:	9124ec63 	add	x3, x3, #0x93b
    5778:	1400000b 	b	57a4 <check_elem+0x88>
/home/rahulmahadev/hikey_optee/optee_os/lib/libutee/tee_user_mem.c:250
    577c:	f9400420 	ldr	x0, [x1,#8]
    5780:	f9400400 	ldr	x0, [x0,#8]
    5784:	f9400004 	ldr	x4, [x0]
/home/rahulmahadev/hikey_optee/optee_os/lib/libutee/tee_user_mem.c:251
    5788:	b4000164 	cbz	x4, 57b4 <check_elem+0x98>
/home/rahulmahadev/hikey_optee/optee_os/lib/libutee/tee_user_mem.c:251 (discriminator 1)
    578c:	f9400080 	ldr	x0, [x4]
    5790:	eb01001f 	cmp	x0, x1
    5794:	54000100 	b.eq	57b4 <check_elem+0x98>
/home/rahulmahadev/hikey_optee/optee_os/lib/libutee/tee_user_mem.c:252
    5798:	90000043 	adrp	x3, d000 <PRIME_TABLE+0x388>
    579c:	52801f82 	mov	w2, #0xfc                  	// #252
    57a0:	9124ec63 	add	x3, x3, #0x93b
    57a4:	f0000021 	adrp	x1, c000 <utee_authenc_update_aad>
    57a8:	52800020 	mov	w0, #0x1                   	// #1
    57ac:	912a6021 	add	x1, x1, #0xa98
    57b0:	14000010 	b	57f0 <check_elem+0xd4>
check_elem_end():
/home/rahulmahadev/hikey_optee/optee_os/lib/libutee/tee_user_mem.c:225
    57b4:	f9400820 	ldr	x0, [x1,#16]
/home/rahulmahadev/hikey_optee/optee_os/lib/libutee/tee_user_mem.c:226
    57b8:	92401c22 	and	x2, x1, #0xff
/home/rahulmahadev/hikey_optee/optee_os/lib/libutee/tee_user_mem.c:225
    57bc:	8b000020 	add	x0, x1, x0
    57c0:	385ff003 	ldrb	w3, [x0,#-1]
/home/rahulmahadev/hikey_optee/optee_os/lib/libutee/tee_user_mem.c:226
    57c4:	d28018a0 	mov	x0, #0xc5                  	// #197
    57c8:	ca000042 	eor	x2, x2, x0
/home/rahulmahadev/hikey_optee/optee_os/lib/libutee/tee_user_mem.c:231
    57cc:	52800020 	mov	w0, #0x1                   	// #1
/home/rahulmahadev/hikey_optee/optee_os/lib/libutee/tee_user_mem.c:225
    57d0:	eb02007f 	cmp	x3, x2
    57d4:	54000120 	b.eq	57f8 <check_elem+0xdc>
/home/rahulmahadev/hikey_optee/optee_os/lib/libutee/tee_user_mem.c:227
    57d8:	aa0103e4 	mov	x4, x1
    57dc:	90000043 	adrp	x3, d000 <PRIME_TABLE+0x388>
    57e0:	f0000021 	adrp	x1, c000 <utee_authenc_update_aad>
    57e4:	91251863 	add	x3, x3, #0x946
    57e8:	52801c62 	mov	w2, #0xe3                  	// #227
    57ec:	912aa021 	add	x1, x1, #0xaa8
    57f0:	97ffffb5 	bl	56c4 <print_buf>
check_elem():
/home/rahulmahadev/hikey_optee/optee_os/lib/libutee/tee_user_mem.c:240
    57f4:	52800000 	mov	w0, #0x0                   	// #0
/home/rahulmahadev/hikey_optee/optee_os/lib/libutee/tee_user_mem.c:257
    57f8:	a8c17bfd 	ldp	x29, x30, [sp],#16
    57fc:	d65f03c0 	ret

0000000000005800 <tee_user_mem_alloc>:
tee_user_mem_alloc():
/home/rahulmahadev/hikey_optee/optee_os/lib/libutee/tee_user_mem.c:293
    5800:	a9bd7bfd 	stp	x29, x30, [sp,#-48]!
    5804:	910003fd 	mov	x29, sp
    5808:	a90153f3 	stp	x19, x20, [sp,#16]
    580c:	a9025bf5 	stp	x21, x22, [sp,#32]
    5810:	aa0003f4 	mov	x20, x0
    5814:	2a0103f5 	mov	w21, w1
/home/rahulmahadev/hikey_optee/optee_os/lib/libutee/tee_user_mem.c:302
    5818:	37f80214 	tbnz	w20, #31, 5858 <tee_user_mem_alloc+0x58>
/home/rahulmahadev/hikey_optee/optee_os/lib/libutee/tee_user_mem.c:309
    581c:	d2800213 	mov	x19, #0x10                  	// #16
/home/rahulmahadev/hikey_optee/optee_os/lib/libutee/tee_user_mem.c:307
    5820:	b4000894 	cbz	x20, 5930 <tee_user_mem_alloc+0x130>
/home/rahulmahadev/hikey_optee/optee_os/lib/libutee/tee_user_mem.c:313
    5824:	340001e1 	cbz	w1, 5860 <tee_user_mem_alloc+0x60>
    5828:	52b00000 	mov	w0, #0x80000000            	// #-2147483648
    582c:	6b00003f 	cmp	w1, w0
    5830:	54000180 	b.eq	5860 <tee_user_mem_alloc+0x60>
/home/rahulmahadev/hikey_optee/optee_os/lib/libutee/tee_user_mem.c:318
    5834:	90000044 	adrp	x4, d000 <PRIME_TABLE+0x388>
    5838:	f0000020 	adrp	x0, c000 <utee_authenc_update_aad>
    583c:	2a0103e5 	mov	w5, w1
    5840:	91254884 	add	x4, x4, #0x952
    5844:	52800023 	mov	w3, #0x1                   	// #1
    5848:	52800022 	mov	w2, #0x1                   	// #1
    584c:	528027c1 	mov	w1, #0x13e                 	// #318
    5850:	9128e000 	add	x0, x0, #0xa38
    5854:	940009b1 	bl	7f18 <trace_printf>
/home/rahulmahadev/hikey_optee/optee_os/lib/libutee/tee_user_mem.c:320
    5858:	d2800013 	mov	x19, #0x0                   	// #0
    585c:	14000035 	b	5930 <tee_user_mem_alloc+0x130>
/home/rahulmahadev/hikey_optee/optee_os/lib/libutee/tee_user_mem.c:296
    5860:	91008696 	add	x22, x20, #0x21
/home/rahulmahadev/hikey_optee/optee_os/lib/libutee/tee_user_mem.c:323
    5864:	aa1603e0 	mov	x0, x22
    5868:	940002c3 	bl	6374 <utee_malloc>
    586c:	aa0003f3 	mov	x19, x0
/home/rahulmahadev/hikey_optee/optee_os/lib/libutee/tee_user_mem.c:324
    5870:	b4ffff40 	cbz	x0, 5858 <tee_user_mem_alloc+0x58>
heap_inc():
/home/rahulmahadev/hikey_optee/optee_os/lib/libutee/tee_user_mem.c:196
    5874:	d0000081 	adrp	x1, 17000 <ta_heap+0x7ec0>
tee_user_mem_alloc():
/home/rahulmahadev/hikey_optee/optee_os/lib/libutee/tee_user_mem.c:326
    5878:	f9000816 	str	x22, [x0,#16]
/home/rahulmahadev/hikey_optee/optee_os/lib/libutee/tee_user_mem.c:327
    587c:	b9001815 	str	w21, [x0,#24]
/home/rahulmahadev/hikey_optee/optee_os/lib/libutee/tee_user_mem.c:339
    5880:	90000043 	adrp	x3, d000 <PRIME_TABLE+0x388>
    5884:	aa1303e4 	mov	x4, x19
    5888:	9125b063 	add	x3, x3, #0x96c
heap_inc():
/home/rahulmahadev/hikey_optee/optee_os/lib/libutee/tee_user_mem.c:196
    588c:	f940d020 	ldr	x0, [x1,#416]
    5890:	8b0002c0 	add	x0, x22, x0
    5894:	f900d020 	str	x0, [x1,#416]
/home/rahulmahadev/hikey_optee/optee_os/lib/libutee/tee_user_mem.c:198
    5898:	d0000080 	adrp	x0, 17000 <ta_heap+0x7ec0>
    589c:	91064002 	add	x2, x0, #0x190
    58a0:	b9419001 	ldr	w1, [x0,#400]
    58a4:	11000421 	add	w1, w1, #0x1
    58a8:	b9019001 	str	w1, [x0,#400]
/home/rahulmahadev/hikey_optee/optee_os/lib/libutee/tee_user_mem.c:199
    58ac:	f9400440 	ldr	x0, [x2,#8]
    58b0:	8b0002d6 	add	x22, x22, x0
tee_user_mem_alloc():
/home/rahulmahadev/hikey_optee/optee_os/lib/libutee/tee_user_mem.c:331
    58b4:	d0000040 	adrp	x0, f000 <ta_props>
    58b8:	9103a000 	add	x0, x0, #0xe8
heap_inc():
/home/rahulmahadev/hikey_optee/optee_os/lib/libutee/tee_user_mem.c:199
    58bc:	f9000456 	str	x22, [x2,#8]
tee_user_mem_alloc():
/home/rahulmahadev/hikey_optee/optee_os/lib/libutee/tee_user_mem.c:331
    58c0:	f900027f 	str	xzr, [x19]
/home/rahulmahadev/hikey_optee/optee_os/lib/libutee/tee_user_mem.c:339
    58c4:	52802a62 	mov	w2, #0x153                 	// #339
/home/rahulmahadev/hikey_optee/optee_os/lib/libutee/tee_user_mem.c:331
    58c8:	f9400401 	ldr	x1, [x0,#8]
    58cc:	f9000661 	str	x1, [x19,#8]
    58d0:	f9000033 	str	x19, [x1]
/home/rahulmahadev/hikey_optee/optee_os/lib/libutee/tee_user_mem.c:335
    58d4:	8b140261 	add	x1, x19, x20
/home/rahulmahadev/hikey_optee/optee_os/lib/libutee/tee_user_mem.c:331
    58d8:	f9000413 	str	x19, [x0,#8]
/home/rahulmahadev/hikey_optee/optee_os/lib/libutee/tee_user_mem.c:335
    58dc:	12800740 	mov	w0, #0xffffffc5            	// #-59
    58e0:	4a130000 	eor	w0, w0, w19
buf_addr():
/home/rahulmahadev/hikey_optee/optee_os/lib/libutee/tee_user_mem.c:130
    58e4:	91008273 	add	x19, x19, #0x20
tee_user_mem_alloc():
/home/rahulmahadev/hikey_optee/optee_os/lib/libutee/tee_user_mem.c:335
    58e8:	39008020 	strb	w0, [x1,#32]
/home/rahulmahadev/hikey_optee/optee_os/lib/libutee/tee_user_mem.c:339
    58ec:	f0000021 	adrp	x1, c000 <utee_authenc_update_aad>
    58f0:	9128e021 	add	x1, x1, #0xa38
    58f4:	52800060 	mov	w0, #0x3                   	// #3
    58f8:	97ffff73 	bl	56c4 <print_buf>
/home/rahulmahadev/hikey_optee/optee_os/lib/libutee/tee_user_mem.c:343
    58fc:	350000d5 	cbnz	w21, 5914 <tee_user_mem_alloc+0x114>
/home/rahulmahadev/hikey_optee/optee_os/lib/libutee/tee_user_mem.c:344
    5900:	aa1403e2 	mov	x2, x20
    5904:	52800001 	mov	w1, #0x0                   	// #0
    5908:	aa1303e0 	mov	x0, x19
    590c:	94000641 	bl	7210 <memset>
    5910:	14000008 	b	5930 <tee_user_mem_alloc+0x130>
/home/rahulmahadev/hikey_optee/optee_os/lib/libutee/tee_user_mem.c:346
    5914:	52b00000 	mov	w0, #0x80000000            	// #-2147483648
    5918:	6b0002bf 	cmp	w21, w0
    591c:	540000a1 	b.ne	5930 <tee_user_mem_alloc+0x130>
/home/rahulmahadev/hikey_optee/optee_os/lib/libutee/tee_user_mem.c:348
    5920:	aa1403e2 	mov	x2, x20
    5924:	52801761 	mov	w1, #0xbb                  	// #187
    5928:	aa1303e0 	mov	x0, x19
    592c:	94000639 	bl	7210 <memset>
/home/rahulmahadev/hikey_optee/optee_os/lib/libutee/tee_user_mem.c:354
    5930:	aa1303e0 	mov	x0, x19
    5934:	a94153f3 	ldp	x19, x20, [sp,#16]
    5938:	a9425bf5 	ldp	x21, x22, [sp,#32]
    593c:	a8c37bfd 	ldp	x29, x30, [sp],#48
    5940:	d65f03c0 	ret

0000000000005944 <tee_user_mem_free>:
tee_user_mem_free():
/home/rahulmahadev/hikey_optee/optee_os/lib/libutee/tee_user_mem.c:419
    5944:	a9bd7bfd 	stp	x29, x30, [sp,#-48]!
    5948:	910003fd 	mov	x29, sp
    594c:	a90153f3 	stp	x19, x20, [sp,#16]
    5950:	f90013f5 	str	x21, [sp,#32]
/home/rahulmahadev/hikey_optee/optee_os/lib/libutee/tee_user_mem.c:426
    5954:	b4000940 	cbz	x0, 5a7c <tee_user_mem_free+0x138>
    5958:	f100401f 	cmp	x0, #0x10
    595c:	54000900 	b.eq	5a7c <tee_user_mem_free+0x138>
is_buffer_valid():
/home/rahulmahadev/hikey_optee/optee_os/lib/libutee/tee_user_mem.c:150
    5960:	d0000041 	adrp	x1, f000 <ta_props>
    5964:	aa0103f5 	mov	x21, x1
    5968:	f9407433 	ldr	x19, [x1,#232]
    596c:	b40000d3 	cbz	x19, 5984 <tee_user_mem_free+0x40>
buf_addr():
/home/rahulmahadev/hikey_optee/optee_os/lib/libutee/tee_user_mem.c:130
    5970:	91008261 	add	x1, x19, #0x20
is_buffer_valid():
/home/rahulmahadev/hikey_optee/optee_os/lib/libutee/tee_user_mem.c:151
    5974:	eb01001f 	cmp	x0, x1
    5978:	540001e0 	b.eq	59b4 <tee_user_mem_free+0x70>
/home/rahulmahadev/hikey_optee/optee_os/lib/libutee/tee_user_mem.c:150
    597c:	f9400273 	ldr	x19, [x19]
    5980:	17fffffb 	b	596c <tee_user_mem_free+0x28>
tee_user_mem_free():
/home/rahulmahadev/hikey_optee/optee_os/lib/libutee/tee_user_mem.c:431
    5984:	aa0003e5 	mov	x5, x0
/home/rahulmahadev/hikey_optee/optee_os/lib/libutee/tee_user_mem.c:461
    5988:	f94013f5 	ldr	x21, [sp,#32]
    598c:	a94153f3 	ldp	x19, x20, [sp,#16]
/home/rahulmahadev/hikey_optee/optee_os/lib/libutee/tee_user_mem.c:431
    5990:	90000044 	adrp	x4, d000 <PRIME_TABLE+0x388>
    5994:	f0000020 	adrp	x0, c000 <utee_authenc_update_aad>
/home/rahulmahadev/hikey_optee/optee_os/lib/libutee/tee_user_mem.c:461
    5998:	a8c37bfd 	ldp	x29, x30, [sp],#48
/home/rahulmahadev/hikey_optee/optee_os/lib/libutee/tee_user_mem.c:431
    599c:	91261484 	add	x4, x4, #0x985
    59a0:	52800023 	mov	w3, #0x1                   	// #1
    59a4:	52800022 	mov	w2, #0x1                   	// #1
    59a8:	528035e1 	mov	w1, #0x1af                 	// #431
    59ac:	91294000 	add	x0, x0, #0xa50
    59b0:	1400095a 	b	7f18 <trace_printf>
/home/rahulmahadev/hikey_optee/optee_os/lib/libutee/tee_user_mem.c:438
    59b4:	90000043 	adrp	x3, d000 <PRIME_TABLE+0x388>
    59b8:	f0000021 	adrp	x1, c000 <utee_authenc_update_aad>
    59bc:	aa0003f4 	mov	x20, x0
    59c0:	aa1303e4 	mov	x4, x19
    59c4:	52800060 	mov	w0, #0x3                   	// #3
    59c8:	91267c63 	add	x3, x3, #0x99f
    59cc:	528036c2 	mov	w2, #0x1b6                 	// #438
    59d0:	91294021 	add	x1, x1, #0xa50
    59d4:	97ffff3c 	bl	56c4 <print_buf>
/home/rahulmahadev/hikey_optee/optee_os/lib/libutee/tee_user_mem.c:441
    59d8:	aa1303e0 	mov	x0, x19
    59dc:	97ffff50 	bl	571c <check_elem>
    59e0:	35000100 	cbnz	w0, 5a00 <tee_user_mem_free+0xbc>
    59e4:	90000041 	adrp	x1, d000 <PRIME_TABLE+0x388>
    59e8:	90000040 	adrp	x0, d000 <PRIME_TABLE+0x388>
    59ec:	52803722 	mov	w2, #0x1b9                 	// #441
    59f0:	91241021 	add	x1, x1, #0x904
    59f4:	9125dc00 	add	x0, x0, #0x977
    59f8:	9400009a 	bl	5c60 <_assert_log>
    59fc:	940000a4 	bl	5c8c <_assert_break>
/home/rahulmahadev/hikey_optee/optee_os/lib/libutee/tee_user_mem.c:444
    5a00:	f9400260 	ldr	x0, [x19]
    5a04:	b4000080 	cbz	x0, 5a14 <tee_user_mem_free+0xd0>
    5a08:	f9400661 	ldr	x1, [x19,#8]
    5a0c:	f9000401 	str	x1, [x0,#8]
    5a10:	14000004 	b	5a20 <tee_user_mem_free+0xdc>
    5a14:	9103a2a1 	add	x1, x21, #0xe8
    5a18:	f9400662 	ldr	x2, [x19,#8]
    5a1c:	f9000422 	str	x2, [x1,#8]
    5a20:	f85e8281 	ldr	x1, [x20,#-24]
/home/rahulmahadev/hikey_optee/optee_os/lib/libutee/tee_user_mem.c:446
    5a24:	f85f0282 	ldr	x2, [x20,#-16]
/home/rahulmahadev/hikey_optee/optee_os/lib/libutee/tee_user_mem.c:444
    5a28:	f9000020 	str	x0, [x1]
heap_dec():
/home/rahulmahadev/hikey_optee/optee_os/lib/libutee/tee_user_mem.c:206
    5a2c:	d0000081 	adrp	x1, 17000 <ta_heap+0x7ec0>
    5a30:	f940d020 	ldr	x0, [x1,#416]
    5a34:	cb020000 	sub	x0, x0, x2
    5a38:	f900d020 	str	x0, [x1,#416]
/home/rahulmahadev/hikey_optee/optee_os/lib/libutee/tee_user_mem.c:208
    5a3c:	d0000080 	adrp	x0, 17000 <ta_heap+0x7ec0>
    5a40:	91064003 	add	x3, x0, #0x190
    5a44:	b9419001 	ldr	w1, [x0,#400]
    5a48:	51000421 	sub	w1, w1, #0x1
    5a4c:	b9019001 	str	w1, [x0,#400]
/home/rahulmahadev/hikey_optee/optee_os/lib/libutee/tee_user_mem.c:209
    5a50:	f9400460 	ldr	x0, [x3,#8]
tee_user_mem_free():
/home/rahulmahadev/hikey_optee/optee_os/lib/libutee/tee_user_mem.c:455
    5a54:	52801541 	mov	w1, #0xaa                  	// #170
heap_dec():
/home/rahulmahadev/hikey_optee/optee_os/lib/libutee/tee_user_mem.c:209
    5a58:	cb020000 	sub	x0, x0, x2
    5a5c:	f9000460 	str	x0, [x3,#8]
tee_user_mem_free():
/home/rahulmahadev/hikey_optee/optee_os/lib/libutee/tee_user_mem.c:455
    5a60:	aa1303e0 	mov	x0, x19
    5a64:	940005eb 	bl	7210 <memset>
/home/rahulmahadev/hikey_optee/optee_os/lib/libutee/tee_user_mem.c:461
    5a68:	f94013f5 	ldr	x21, [sp,#32]
/home/rahulmahadev/hikey_optee/optee_os/lib/libutee/tee_user_mem.c:458
    5a6c:	aa1303e0 	mov	x0, x19
/home/rahulmahadev/hikey_optee/optee_os/lib/libutee/tee_user_mem.c:461
    5a70:	a94153f3 	ldp	x19, x20, [sp,#16]
    5a74:	a8c37bfd 	ldp	x29, x30, [sp],#48
/home/rahulmahadev/hikey_optee/optee_os/lib/libutee/tee_user_mem.c:458
    5a78:	14000245 	b	638c <utee_free>
/home/rahulmahadev/hikey_optee/optee_os/lib/libutee/tee_user_mem.c:461
    5a7c:	a94153f3 	ldp	x19, x20, [sp,#16]
    5a80:	f94013f5 	ldr	x21, [sp,#32]
    5a84:	a8c37bfd 	ldp	x29, x30, [sp],#48
    5a88:	d65f03c0 	ret

0000000000005a8c <tee_user_mem_realloc>:
tee_user_mem_realloc():
/home/rahulmahadev/hikey_optee/optee_os/lib/libutee/tee_user_mem.c:363
    5a8c:	a9bd7bfd 	stp	x29, x30, [sp,#-48]!
    5a90:	910003fd 	mov	x29, sp
    5a94:	a90153f3 	stp	x19, x20, [sp,#16]
    5a98:	a9025bf5 	stp	x21, x22, [sp,#32]
    5a9c:	aa0003f4 	mov	x20, x0
    5aa0:	aa0103f3 	mov	x19, x1
/home/rahulmahadev/hikey_optee/optee_os/lib/libutee/tee_user_mem.c:370
    5aa4:	37f80241 	tbnz	w1, #31, 5aec <tee_user_mem_realloc+0x60>
/home/rahulmahadev/hikey_optee/optee_os/lib/libutee/tee_user_mem.c:380 (discriminator 1)
    5aa8:	b4000174 	cbz	x20, 5ad4 <tee_user_mem_realloc+0x48>
    5aac:	f100429f 	cmp	x20, #0x10
    5ab0:	54000120 	b.eq	5ad4 <tee_user_mem_realloc+0x48>
is_buffer_valid():
/home/rahulmahadev/hikey_optee/optee_os/lib/libutee/tee_user_mem.c:150
    5ab4:	d0000040 	adrp	x0, f000 <ta_props>
    5ab8:	f9407400 	ldr	x0, [x0,#232]
    5abc:	b40000c0 	cbz	x0, 5ad4 <tee_user_mem_realloc+0x48>
buf_addr():
/home/rahulmahadev/hikey_optee/optee_os/lib/libutee/tee_user_mem.c:130
    5ac0:	91008001 	add	x1, x0, #0x20
is_buffer_valid():
/home/rahulmahadev/hikey_optee/optee_os/lib/libutee/tee_user_mem.c:151
    5ac4:	eb14003f 	cmp	x1, x20
    5ac8:	54000160 	b.eq	5af4 <tee_user_mem_realloc+0x68>
/home/rahulmahadev/hikey_optee/optee_os/lib/libutee/tee_user_mem.c:150
    5acc:	f9400000 	ldr	x0, [x0]
    5ad0:	17fffffb 	b	5abc <tee_user_mem_realloc+0x30>
tee_user_mem_realloc():
/home/rahulmahadev/hikey_optee/optee_os/lib/libutee/tee_user_mem.c:381
    5ad4:	aa1303e0 	mov	x0, x19
    5ad8:	52800001 	mov	w1, #0x0                   	// #0
/home/rahulmahadev/hikey_optee/optee_os/lib/libutee/tee_user_mem.c:412
    5adc:	a94153f3 	ldp	x19, x20, [sp,#16]
    5ae0:	a9425bf5 	ldp	x21, x22, [sp,#32]
    5ae4:	a8c37bfd 	ldp	x29, x30, [sp],#48
/home/rahulmahadev/hikey_optee/optee_os/lib/libutee/tee_user_mem.c:381
    5ae8:	17ffff46 	b	5800 <tee_user_mem_alloc>
/home/rahulmahadev/hikey_optee/optee_os/lib/libutee/tee_user_mem.c:372
    5aec:	d2800001 	mov	x1, #0x0                   	// #0
    5af0:	14000012 	b	5b38 <tee_user_mem_realloc+0xac>
buf_size():
/home/rahulmahadev/hikey_optee/optee_os/lib/libutee/tee_user_mem.c:135
    5af4:	f85f0295 	ldr	x21, [x20,#-16]
    5af8:	d10086b5 	sub	x21, x21, #0x21
tee_user_mem_realloc():
/home/rahulmahadev/hikey_optee/optee_os/lib/libutee/tee_user_mem.c:392
    5afc:	eb15027f 	cmp	x19, x21
    5b00:	540001c0 	b.eq	5b38 <tee_user_mem_realloc+0xac>
/home/rahulmahadev/hikey_optee/optee_os/lib/libutee/tee_user_mem.c:402
    5b04:	b9401801 	ldr	w1, [x0,#24]
    5b08:	aa1303e0 	mov	x0, x19
    5b0c:	97ffff3d 	bl	5800 <tee_user_mem_alloc>
    5b10:	aa0003f6 	mov	x22, x0
    5b14:	d2800001 	mov	x1, #0x0                   	// #0
/home/rahulmahadev/hikey_optee/optee_os/lib/libutee/tee_user_mem.c:403
    5b18:	b4000100 	cbz	x0, 5b38 <tee_user_mem_realloc+0xac>
/home/rahulmahadev/hikey_optee/optee_os/lib/libutee/tee_user_mem.c:404
    5b1c:	eb1302bf 	cmp	x21, x19
    5b20:	aa1403e1 	mov	x1, x20
    5b24:	9a9392a2 	csel	x2, x21, x19, ls
    5b28:	9400059e 	bl	71a0 <memcpy>
/home/rahulmahadev/hikey_optee/optee_os/lib/libutee/tee_user_mem.c:407
    5b2c:	aa1403e0 	mov	x0, x20
    5b30:	97ffff85 	bl	5944 <tee_user_mem_free>
    5b34:	aa1603e1 	mov	x1, x22
/home/rahulmahadev/hikey_optee/optee_os/lib/libutee/tee_user_mem.c:412
    5b38:	aa0103e0 	mov	x0, x1
    5b3c:	a94153f3 	ldp	x19, x20, [sp,#16]
    5b40:	a9425bf5 	ldp	x21, x22, [sp,#32]
    5b44:	a8c37bfd 	ldp	x29, x30, [sp],#48
    5b48:	d65f03c0 	ret

0000000000005b4c <tee_user_mem_mark_heap>:
tee_user_mem_mark_heap():
/home/rahulmahadev/hikey_optee/optee_os/lib/libutee/tee_user_mem.c:471
    5b4c:	d0000080 	adrp	x0, 17000 <ta_heap+0x7ec0>
    5b50:	f900d01f 	str	xzr, [x0,#416]
/home/rahulmahadev/hikey_optee/optee_os/lib/libutee/tee_user_mem.c:473
    5b54:	d65f03c0 	ret

0000000000005b58 <tee_user_mem_check_heap>:
tee_user_mem_check_heap():
/home/rahulmahadev/hikey_optee/optee_os/lib/libutee/tee_user_mem.c:481
    5b58:	a9bd7bfd 	stp	x29, x30, [sp,#-48]!
    5b5c:	910003fd 	mov	x29, sp
    5b60:	f9000bf3 	str	x19, [sp,#16]
/home/rahulmahadev/hikey_optee/optee_os/lib/libutee/tee_user_mem.c:485
    5b64:	d0000093 	adrp	x19, 17000 <ta_heap+0x7ec0>
    5b68:	f940d265 	ldr	x5, [x19,#416]
    5b6c:	b4000165 	cbz	x5, 5b98 <tee_user_mem_check_heap+0x40>
/home/rahulmahadev/hikey_optee/optee_os/lib/libutee/tee_user_mem.c:486
    5b70:	90000044 	adrp	x4, d000 <PRIME_TABLE+0x388>
    5b74:	f0000020 	adrp	x0, c000 <utee_authenc_update_aad>
    5b78:	91269884 	add	x4, x4, #0x9a6
    5b7c:	52800023 	mov	w3, #0x1                   	// #1
    5b80:	52800022 	mov	w2, #0x1                   	// #1
    5b84:	52803cc1 	mov	w1, #0x1e6                 	// #486
    5b88:	9129a000 	add	x0, x0, #0xa68
    5b8c:	940008e3 	bl	7f18 <trace_printf>
/home/rahulmahadev/hikey_optee/optee_os/lib/libutee/tee_user_mem.c:488
    5b90:	f940d265 	ldr	x5, [x19,#416]
    5b94:	14000012 	b	5bdc <tee_user_mem_check_heap+0x84>
is_mem_coherent():
/home/rahulmahadev/hikey_optee/optee_os/lib/libutee/tee_user_mem.c:264
    5b98:	d0000040 	adrp	x0, f000 <ta_props>
    5b9c:	f9407413 	ldr	x19, [x0,#232]
    5ba0:	b40001f3 	cbz	x19, 5bdc <tee_user_mem_check_heap+0x84>
/home/rahulmahadev/hikey_optee/optee_os/lib/libutee/tee_user_mem.c:265
    5ba4:	aa1303e0 	mov	x0, x19
    5ba8:	f90017a5 	str	x5, [x29,#40]
    5bac:	97fffedc 	bl	571c <check_elem>
    5bb0:	f94017a5 	ldr	x5, [x29,#40]
    5bb4:	35000100 	cbnz	w0, 5bd4 <tee_user_mem_check_heap+0x7c>
/home/rahulmahadev/hikey_optee/optee_os/lib/libutee/tee_user_mem.c:266
    5bb8:	90000041 	adrp	x1, d000 <PRIME_TABLE+0x388>
    5bbc:	90000040 	adrp	x0, d000 <PRIME_TABLE+0x388>
    5bc0:	52802142 	mov	w2, #0x10a                 	// #266
    5bc4:	91241021 	add	x1, x1, #0x904
    5bc8:	912e7c00 	add	x0, x0, #0xb9f
    5bcc:	94000025 	bl	5c60 <_assert_log>
    5bd0:	9400002f 	bl	5c8c <_assert_break>
/home/rahulmahadev/hikey_optee/optee_os/lib/libutee/tee_user_mem.c:264
    5bd4:	f9400273 	ldr	x19, [x19]
    5bd8:	17fffff2 	b	5ba0 <tee_user_mem_check_heap+0x48>
tee_user_mem_check_heap():
/home/rahulmahadev/hikey_optee/optee_os/lib/libutee/tee_user_mem.c:495
    5bdc:	aa0503e0 	mov	x0, x5
    5be0:	f9400bf3 	ldr	x19, [sp,#16]
    5be4:	a8c37bfd 	ldp	x29, x30, [sp],#48
    5be8:	d65f03c0 	ret

0000000000005bec <tee_user_mem_garbage>:
tee_user_mem_garbage():
/home/rahulmahadev/hikey_optee/optee_os/lib/libutee/tee_user_mem.c:530
    5bec:	a9bd7bfd 	stp	x29, x30, [sp,#-48]!
tee_user_mem_status():
/home/rahulmahadev/hikey_optee/optee_os/lib/libutee/tee_user_mem.c:511
    5bf0:	d0000040 	adrp	x0, f000 <ta_props>
tee_user_mem_garbage():
/home/rahulmahadev/hikey_optee/optee_os/lib/libutee/tee_user_mem.c:530
    5bf4:	910003fd 	mov	x29, sp
    5bf8:	a90153f3 	stp	x19, x20, [sp,#16]
    5bfc:	a9025bf5 	stp	x21, x22, [sp,#32]
tee_user_mem_status():
/home/rahulmahadev/hikey_optee/optee_os/lib/libutee/tee_user_mem.c:511
    5c00:	f9407414 	ldr	x20, [x0,#232]
/home/rahulmahadev/hikey_optee/optee_os/lib/libutee/tee_user_mem.c:512
    5c04:	90000055 	adrp	x21, d000 <PRIME_TABLE+0x388>
    5c08:	f0000036 	adrp	x22, c000 <utee_authenc_update_aad>
    5c0c:	aa0003f3 	mov	x19, x0
    5c10:	912906b5 	add	x21, x21, #0xa41
    5c14:	912a02d6 	add	x22, x22, #0xa80
/home/rahulmahadev/hikey_optee/optee_os/lib/libutee/tee_user_mem.c:511
    5c18:	b4000134 	cbz	x20, 5c3c <tee_user_mem_garbage+0x50>
/home/rahulmahadev/hikey_optee/optee_os/lib/libutee/tee_user_mem.c:512
    5c1c:	aa1403e4 	mov	x4, x20
    5c20:	aa1503e3 	mov	x3, x21
    5c24:	52804002 	mov	w2, #0x200                 	// #512
    5c28:	aa1603e1 	mov	x1, x22
    5c2c:	52800020 	mov	w0, #0x1                   	// #1
    5c30:	97fffea5 	bl	56c4 <print_buf>
/home/rahulmahadev/hikey_optee/optee_os/lib/libutee/tee_user_mem.c:511
    5c34:	f9400294 	ldr	x20, [x20]
    5c38:	17fffff8 	b	5c18 <tee_user_mem_garbage+0x2c>
tee_user_mem_garbage():
/home/rahulmahadev/hikey_optee/optee_os/lib/libutee/tee_user_mem.c:535
    5c3c:	f9407660 	ldr	x0, [x19,#232]
    5c40:	b4000080 	cbz	x0, 5c50 <tee_user_mem_garbage+0x64>
/home/rahulmahadev/hikey_optee/optee_os/lib/libutee/tee_user_mem.c:536
    5c44:	91008000 	add	x0, x0, #0x20
    5c48:	97ffff3f 	bl	5944 <tee_user_mem_free>
    5c4c:	17fffffc 	b	5c3c <tee_user_mem_garbage+0x50>
/home/rahulmahadev/hikey_optee/optee_os/lib/libutee/tee_user_mem.c:537
    5c50:	a94153f3 	ldp	x19, x20, [sp,#16]
    5c54:	a9425bf5 	ldp	x21, x22, [sp,#32]
    5c58:	a8c37bfd 	ldp	x29, x30, [sp],#48
    5c5c:	d65f03c0 	ret

0000000000005c60 <_assert_log>:
_assert_log():
/home/rahulmahadev/hikey_optee/optee_os/lib/libutee/assert.c:36
    5c60:	aa0003e5 	mov	x5, x0
    5c64:	90000044 	adrp	x4, d000 <PRIME_TABLE+0x388>
    5c68:	f0000020 	adrp	x0, c000 <utee_authenc_update_aad>
    5c6c:	2a0203e7 	mov	w7, w2
    5c70:	aa0103e6 	mov	x6, x1
    5c74:	91270c84 	add	x4, x4, #0x9c3
    5c78:	52800023 	mov	w3, #0x1                   	// #1
    5c7c:	52800022 	mov	w2, #0x1                   	// #1
    5c80:	52800481 	mov	w1, #0x24                  	// #36
    5c84:	912ae000 	add	x0, x0, #0xab8
    5c88:	140008a4 	b	7f18 <trace_printf>

0000000000005c8c <_assert_break>:
_assert_break():
/home/rahulmahadev/hikey_optee/optee_os/lib/libutee/assert.c:40
    5c8c:	a9bf7bfd 	stp	x29, x30, [sp,#-16]!
/home/rahulmahadev/hikey_optee/optee_os/lib/libutee/assert.c:41
    5c90:	d2bfffe0 	mov	x0, #0xffff0000            	// #4294901760
/home/rahulmahadev/hikey_optee/optee_os/lib/libutee/assert.c:40
    5c94:	910003fd 	mov	x29, sp
/home/rahulmahadev/hikey_optee/optee_os/lib/libutee/assert.c:41
    5c98:	94001871 	bl	be5c <utee_panic>

0000000000005c9c <TEE_BigInt_Panic>:
TEE_BigInt_Panic():
/home/rahulmahadev/hikey_optee/optee_os/lib/libutee/tee_api_arith.c:63
    5c9c:	a9bf7bfd 	stp	x29, x30, [sp,#-16]!
/home/rahulmahadev/hikey_optee/optee_os/lib/libutee/tee_api_arith.c:64
    5ca0:	aa0003e1 	mov	x1, x0
    5ca4:	90000040 	adrp	x0, d000 <PRIME_TABLE+0x388>
/home/rahulmahadev/hikey_optee/optee_os/lib/libutee/tee_api_arith.c:63
    5ca8:	910003fd 	mov	x29, sp
/home/rahulmahadev/hikey_optee/optee_os/lib/libutee/tee_api_arith.c:64
    5cac:	91278800 	add	x0, x0, #0x9e2
    5cb0:	940001d2 	bl	63f8 <printf>
/home/rahulmahadev/hikey_optee/optee_os/lib/libutee/tee_api_arith.c:65
    5cb4:	528c24e5 	mov	w5, #0x6127                	// #24871
    5cb8:	90000044 	adrp	x4, d000 <PRIME_TABLE+0x388>
    5cbc:	f0000020 	adrp	x0, c000 <utee_authenc_update_aad>
    5cc0:	72a01625 	movk	w5, #0xb1, lsl #16
    5cc4:	912b2000 	add	x0, x0, #0xac8
    5cc8:	91235c84 	add	x4, x4, #0x8d7
    5ccc:	52800023 	mov	w3, #0x1                   	// #1
    5cd0:	52800022 	mov	w2, #0x1                   	// #1
    5cd4:	52800821 	mov	w1, #0x41                  	// #65
    5cd8:	94000890 	bl	7f18 <trace_printf>
    5cdc:	528c24e0 	mov	w0, #0x6127                	// #24871
    5ce0:	72a01620 	movk	w0, #0xb1, lsl #16
    5ce4:	97fffdad 	bl	5398 <__TEE_Panic>
/home/rahulmahadev/hikey_optee/optee_os/lib/libutee/tee_api_arith.c:67 (discriminator 1)
    5ce8:	14000000 	b	5ce8 <TEE_BigInt_Panic+0x4c>

0000000000005cec <_TEE_MathAPI_Init>:
_TEE_MathAPI_Init():
/home/rahulmahadev/hikey_optee/optee_os/lib/libutee/tee_api_arith.c:78
    5cec:	a9bf7bfd 	stp	x29, x30, [sp,#-16]!
/home/rahulmahadev/hikey_optee/optee_os/lib/libutee/tee_api_arith.c:79
    5cf0:	d0000080 	adrp	x0, 17000 <ta_heap+0x7ec0>
    5cf4:	52810002 	mov	w2, #0x800                 	// #2048
/home/rahulmahadev/hikey_optee/optee_os/lib/libutee/tee_api_arith.c:78
    5cf8:	910003fd 	mov	x29, sp
/home/rahulmahadev/hikey_optee/optee_os/lib/libutee/tee_api_arith.c:79
    5cfc:	d2836801 	mov	x1, #0x1b40                	// #6976
    5d00:	9106a000 	add	x0, x0, #0x1a8
    5d04:	94001005 	bl	9d18 <mpa_init_scratch_mem>
/home/rahulmahadev/hikey_optee/optee_os/lib/libutee/tee_api_arith.c:81
    5d08:	b0000040 	adrp	x0, e000 <__compound_literal.2+0x72a>
/home/rahulmahadev/hikey_optee/optee_os/lib/libutee/tee_api_arith.c:82
    5d0c:	a8c17bfd 	ldp	x29, x30, [sp],#16
/home/rahulmahadev/hikey_optee/optee_os/lib/libutee/tee_api_arith.c:81
    5d10:	f9409400 	ldr	x0, [x0,#296]
    5d14:	14001135 	b	a1e8 <mpa_set_random_generator>

0000000000005d18 <TEE_BigIntInit>:
TEE_BigIntInit():
/home/rahulmahadev/hikey_optee/optee_os/lib/libutee/tee_api_arith.c:89
    5d18:	14001591 	b	b35c <mpa_init_static>

0000000000005d1c <TEE_BigIntInitFMM>:
TEE_BigIntInitFMM():
/home/rahulmahadev/hikey_optee/optee_os/lib/libutee/tee_api_arith.c:99
    5d1c:	531e7421 	lsl	w1, w1, #2
/home/rahulmahadev/hikey_optee/optee_os/lib/libutee/tee_api_arith.c:100
    5d20:	b900041f 	str	wzr, [x0,#4]
/home/rahulmahadev/hikey_optee/optee_os/lib/libutee/tee_api_arith.c:99
    5d24:	51002021 	sub	w1, w1, #0x8
    5d28:	d3427c21 	ubfx	x1, x1, #2, #30
    5d2c:	b9000001 	str	w1, [x0]
/home/rahulmahadev/hikey_optee/optee_os/lib/libutee/tee_api_arith.c:101
    5d30:	d65f03c0 	ret

0000000000005d34 <TEE_BigIntInitFMMContext>:
TEE_BigIntInitFMMContext():
/home/rahulmahadev/hikey_optee/optee_os/lib/libutee/tee_api_arith.c:108
    5d34:	a9be7bfd 	stp	x29, x30, [sp,#-32]!
    5d38:	910003fd 	mov	x29, sp
    5d3c:	a90153f3 	stp	x19, x20, [sp,#16]
    5d40:	aa0003f3 	mov	x19, x0
    5d44:	aa0203f4 	mov	x20, x2
/home/rahulmahadev/hikey_optee/optee_os/lib/libutee/tee_api_arith.c:112
    5d48:	9400158d 	bl	b37c <mpa_init_static_fmm_context>
/home/rahulmahadev/hikey_optee/optee_os/lib/libutee/tee_api_arith.c:113
    5d4c:	91004263 	add	x3, x19, #0x10
    5d50:	aa1403e0 	mov	x0, x20
    5d54:	f9400662 	ldr	x2, [x19,#8]
    5d58:	d0000084 	adrp	x4, 17000 <ta_heap+0x7ec0>
    5d5c:	f9400261 	ldr	x1, [x19]
    5d60:	9106a084 	add	x4, x4, #0x1a8
/home/rahulmahadev/hikey_optee/optee_os/lib/libutee/tee_api_arith.c:116
    5d64:	a94153f3 	ldp	x19, x20, [sp,#16]
    5d68:	a8c27bfd 	ldp	x29, x30, [sp],#32
/home/rahulmahadev/hikey_optee/optee_os/lib/libutee/tee_api_arith.c:113
    5d6c:	140009d9 	b	84d0 <mpa_compute_fmm_context>

0000000000005d70 <TEE_BigIntFMMSizeInU32>:
TEE_BigIntFMMSizeInU32():
/home/rahulmahadev/hikey_optee/optee_os/lib/libutee/tee_api_arith.c:127
    5d70:	11007c00 	add	w0, w0, #0x1f
    5d74:	53057c00 	lsr	w0, w0, #5
/home/rahulmahadev/hikey_optee/optee_os/lib/libutee/tee_api_arith.c:128
    5d78:	11000c00 	add	w0, w0, #0x3
    5d7c:	d65f03c0 	ret

0000000000005d80 <TEE_BigIntFMMContextSizeInU32>:
TEE_BigIntFMMContextSizeInU32():
/home/rahulmahadev/hikey_optee/optee_os/lib/libutee/tee_api_arith.c:135
    5d80:	11007c00 	add	w0, w0, #0x1f
    5d84:	53057c00 	lsr	w0, w0, #5
    5d88:	11001c00 	add	w0, w0, #0x7
/home/rahulmahadev/hikey_optee/optee_os/lib/libutee/tee_api_arith.c:136
    5d8c:	531f7800 	lsl	w0, w0, #1
    5d90:	d65f03c0 	ret

0000000000005d94 <TEE_BigIntConvertFromOctetString>:
TEE_BigIntConvertFromOctetString():
/home/rahulmahadev/hikey_optee/optee_os/lib/libutee/tee_api_arith.c:149
    5d94:	a9bf7bfd 	stp	x29, x30, [sp,#-16]!
/home/rahulmahadev/hikey_optee/optee_os/lib/libutee/tee_api_arith.c:154
    5d98:	531f7c63 	lsr	w3, w3, #31
    5d9c:	2a0203e2 	mov	w2, w2
/home/rahulmahadev/hikey_optee/optee_os/lib/libutee/tee_api_arith.c:149
    5da0:	910003fd 	mov	x29, sp
/home/rahulmahadev/hikey_optee/optee_os/lib/libutee/tee_api_arith.c:154
    5da4:	940016cd 	bl	b8d8 <mpa_set_oct_str>
/home/rahulmahadev/hikey_optee/optee_os/lib/libutee/tee_api_arith.c:157
    5da8:	6b1f001f 	cmp	w0, wzr
/home/rahulmahadev/hikey_optee/optee_os/lib/libutee/tee_api_arith.c:164
    5dac:	1299fe00 	mov	w0, #0xffff300f            	// #-53233
    5db0:	1a9f1000 	csel	w0, w0, wzr, ne
    5db4:	a8c17bfd 	ldp	x29, x30, [sp],#16
    5db8:	d65f03c0 	ret

0000000000005dbc <TEE_BigIntConvertToOctetString>:
TEE_BigIntConvertToOctetString():
/home/rahulmahadev/hikey_optee/optee_os/lib/libutee/tee_api_arith.c:172
    5dbc:	a9bd7bfd 	stp	x29, x30, [sp,#-48]!
    5dc0:	910003fd 	mov	x29, sp
    5dc4:	f9000bf3 	str	x19, [sp,#16]
    5dc8:	aa0103f3 	mov	x19, x1
/home/rahulmahadev/hikey_optee/optee_os/lib/libutee/tee_api_arith.c:174
    5dcc:	b9400023 	ldr	w3, [x1]
    5dd0:	9100c3a1 	add	x1, x29, #0x30
    5dd4:	f81f8c23 	str	x3, [x1,#-8]!
/home/rahulmahadev/hikey_optee/optee_os/lib/libutee/tee_api_arith.c:177
    5dd8:	94001708 	bl	b9f8 <mpa_get_oct_str>
/home/rahulmahadev/hikey_optee/optee_os/lib/libutee/tee_api_arith.c:180
    5ddc:	6b1f001f 	cmp	w0, wzr
/home/rahulmahadev/hikey_optee/optee_os/lib/libutee/tee_api_arith.c:182
    5de0:	f94017a0 	ldr	x0, [x29,#40]
    5de4:	b9000260 	str	w0, [x19]
/home/rahulmahadev/hikey_optee/optee_os/lib/libutee/tee_api_arith.c:189
    5de8:	129ffde0 	mov	w0, #0xffff0010            	// #-65520
    5dec:	1a9f1000 	csel	w0, w0, wzr, ne
    5df0:	f9400bf3 	ldr	x19, [sp,#16]
    5df4:	a8c37bfd 	ldp	x29, x30, [sp],#48
    5df8:	d65f03c0 	ret

0000000000005dfc <TEE_BigIntConvertFromS32>:
TEE_BigIntConvertFromS32():
/home/rahulmahadev/hikey_optee/optee_os/lib/libutee/tee_api_arith.c:199
    5dfc:	14000b14 	b	8a4c <mpa_set_S32>

0000000000005e00 <TEE_BigIntConvertToS32>:
TEE_BigIntConvertToS32():
/home/rahulmahadev/hikey_optee/optee_os/lib/libutee/tee_api_arith.c:209
    5e00:	a9bf7bfd 	stp	x29, x30, [sp,#-16]!
    5e04:	910003fd 	mov	x29, sp
/home/rahulmahadev/hikey_optee/optee_os/lib/libutee/tee_api_arith.c:213
    5e08:	94000b1d 	bl	8a7c <mpa_get_S32>
/home/rahulmahadev/hikey_optee/optee_os/lib/libutee/tee_api_arith.c:216
    5e0c:	6b1f001f 	cmp	w0, wzr
/home/rahulmahadev/hikey_optee/optee_os/lib/libutee/tee_api_arith.c:223
    5e10:	1299fe00 	mov	w0, #0xffff300f            	// #-53233
    5e14:	1a9f1000 	csel	w0, w0, wzr, ne
    5e18:	a8c17bfd 	ldp	x29, x30, [sp],#16
    5e1c:	d65f03c0 	ret

0000000000005e20 <TEE_BigIntCmp>:
TEE_BigIntCmp():
/home/rahulmahadev/hikey_optee/optee_os/lib/libutee/tee_api_arith.c:237
    5e20:	140014b8 	b	b100 <mpa_cmp>

0000000000005e24 <TEE_BigIntCmpS32>:
TEE_BigIntCmpS32():
/home/rahulmahadev/hikey_optee/optee_os/lib/libutee/tee_api_arith.c:247
    5e24:	140014d2 	b	b16c <mpa_cmp_short>

0000000000005e28 <TEE_BigIntShiftRight>:
TEE_BigIntShiftRight():
/home/rahulmahadev/hikey_optee/optee_os/lib/libutee/tee_api_arith.c:259
    5e28:	140011da 	b	a590 <mpa_shift_right>

0000000000005e2c <TEE_BigIntGetBit>:
TEE_BigIntGetBit():
/home/rahulmahadev/hikey_optee/optee_os/lib/libutee/tee_api_arith.c:266
    5e2c:	a9bf7bfd 	stp	x29, x30, [sp,#-16]!
    5e30:	910003fd 	mov	x29, sp
/home/rahulmahadev/hikey_optee/optee_os/lib/libutee/tee_api_arith.c:269
    5e34:	940008fa 	bl	821c <mpa_get_bit>
    5e38:	6b1f001f 	cmp	w0, wzr
/home/rahulmahadev/hikey_optee/optee_os/lib/libutee/tee_api_arith.c:270
    5e3c:	1a9f07e0 	cset	w0, ne
    5e40:	a8c17bfd 	ldp	x29, x30, [sp],#16
    5e44:	d65f03c0 	ret

0000000000005e48 <TEE_BigIntGetBitCount>:
TEE_BigIntGetBitCount():
/home/rahulmahadev/hikey_optee/optee_os/lib/libutee/tee_api_arith.c:276
    5e48:	a9bf7bfd 	stp	x29, x30, [sp,#-16]!
    5e4c:	910003fd 	mov	x29, sp
/home/rahulmahadev/hikey_optee/optee_os/lib/libutee/tee_api_arith.c:279
    5e50:	940008e1 	bl	81d4 <mpa_highest_bit_index>
/home/rahulmahadev/hikey_optee/optee_os/lib/libutee/tee_api_arith.c:280
    5e54:	11000400 	add	w0, w0, #0x1
    5e58:	a8c17bfd 	ldp	x29, x30, [sp],#16
    5e5c:	d65f03c0 	ret

0000000000005e60 <TEE_BigIntAdd>:
TEE_BigIntAdd():
/home/rahulmahadev/hikey_optee/optee_os/lib/libutee/tee_api_arith.c:296
    5e60:	d0000083 	adrp	x3, 17000 <ta_heap+0x7ec0>
    5e64:	9106a063 	add	x3, x3, #0x1a8
    5e68:	140012ef 	b	aa24 <mpa_add>

0000000000005e6c <TEE_BigIntSub>:
TEE_BigIntSub():
/home/rahulmahadev/hikey_optee/optee_os/lib/libutee/tee_api_arith.c:309
    5e6c:	d0000083 	adrp	x3, 17000 <ta_heap+0x7ec0>
    5e70:	9106a063 	add	x3, x3, #0x1a8
    5e74:	14001353 	b	abc0 <mpa_sub>

0000000000005e78 <TEE_BigIntNeg>:
TEE_BigIntNeg():
/home/rahulmahadev/hikey_optee/optee_os/lib/libutee/tee_api_arith.c:320
    5e78:	140013bc 	b	ad68 <mpa_neg>

0000000000005e7c <TEE_BigIntMul>:
TEE_BigIntMul():
/home/rahulmahadev/hikey_optee/optee_os/lib/libutee/tee_api_arith.c:333
    5e7c:	d0000083 	adrp	x3, 17000 <ta_heap+0x7ec0>
    5e80:	9106a063 	add	x3, x3, #0x1a8
    5e84:	1400106f 	b	a040 <mpa_mul>

0000000000005e88 <TEE_BigIntSquare>:
TEE_BigIntSquare():
/home/rahulmahadev/hikey_optee/optee_os/lib/libutee/tee_api_arith.c:344
    5e88:	d0000083 	adrp	x3, 17000 <ta_heap+0x7ec0>
    5e8c:	aa0103e2 	mov	x2, x1
    5e90:	9106a063 	add	x3, x3, #0x1a8
    5e94:	1400106b 	b	a040 <mpa_mul>

0000000000005e98 <TEE_BigIntDiv>:
TEE_BigIntDiv():
/home/rahulmahadev/hikey_optee/optee_os/lib/libutee/tee_api_arith.c:352
    5e98:	a9bd7bfd 	stp	x29, x30, [sp,#-48]!
    5e9c:	910003fd 	mov	x29, sp
    5ea0:	a90153f3 	stp	x19, x20, [sp,#16]
    5ea4:	aa0003f3 	mov	x19, x0
    5ea8:	aa0103f4 	mov	x20, x1
TEE_BigIntCmpS32():
/home/rahulmahadev/hikey_optee/optee_os/lib/libutee/tee_api_arith.c:247
    5eac:	aa0303e0 	mov	x0, x3
    5eb0:	52800001 	mov	w1, #0x0                   	// #0
TEE_BigIntDiv():
/home/rahulmahadev/hikey_optee/optee_os/lib/libutee/tee_api_arith.c:352
    5eb4:	f90013a2 	str	x2, [x29,#32]
TEE_BigIntCmpS32():
/home/rahulmahadev/hikey_optee/optee_os/lib/libutee/tee_api_arith.c:247
    5eb8:	f90017a3 	str	x3, [x29,#40]
    5ebc:	940014ac 	bl	b16c <mpa_cmp_short>
TEE_BigIntDiv():
/home/rahulmahadev/hikey_optee/optee_os/lib/libutee/tee_api_arith.c:358
    5ec0:	f94017a3 	ldr	x3, [x29,#40]
    5ec4:	f94013a2 	ldr	x2, [x29,#32]
    5ec8:	35000080 	cbnz	w0, 5ed8 <TEE_BigIntDiv+0x40>
/home/rahulmahadev/hikey_optee/optee_os/lib/libutee/tee_api_arith.c:359
    5ecc:	90000040 	adrp	x0, d000 <PRIME_TABLE+0x388>
    5ed0:	9127b400 	add	x0, x0, #0x9ed
    5ed4:	97ffff72 	bl	5c9c <TEE_BigInt_Panic>
/home/rahulmahadev/hikey_optee/optee_os/lib/libutee/tee_api_arith.c:361
    5ed8:	aa1403e1 	mov	x1, x20
    5edc:	aa1303e0 	mov	x0, x19
    5ee0:	d0000084 	adrp	x4, 17000 <ta_heap+0x7ec0>
/home/rahulmahadev/hikey_optee/optee_os/lib/libutee/tee_api_arith.c:362
    5ee4:	a94153f3 	ldp	x19, x20, [sp,#16]
    5ee8:	a8c37bfd 	ldp	x29, x30, [sp],#48
/home/rahulmahadev/hikey_optee/optee_os/lib/libutee/tee_api_arith.c:361
    5eec:	9106a084 	add	x4, x4, #0x1a8
    5ef0:	14000d12 	b	9338 <mpa_div>

0000000000005ef4 <TEE_BigIntMod>:
TEE_BigIntMod():
/home/rahulmahadev/hikey_optee/optee_os/lib/libutee/tee_api_arith.c:373
    5ef4:	a9bd7bfd 	stp	x29, x30, [sp,#-48]!
    5ef8:	910003fd 	mov	x29, sp
    5efc:	a9025bf5 	stp	x21, x22, [sp,#32]
    5f00:	a90153f3 	stp	x19, x20, [sp,#16]
    5f04:	aa0103f6 	mov	x22, x1
    5f08:	aa0003f4 	mov	x20, x0
TEE_BigIntCmpS32():
/home/rahulmahadev/hikey_optee/optee_os/lib/libutee/tee_api_arith.c:247
    5f0c:	52800041 	mov	w1, #0x2                   	// #2
    5f10:	aa0203e0 	mov	x0, x2
TEE_BigIntMod():
/home/rahulmahadev/hikey_optee/optee_os/lib/libutee/tee_api_arith.c:373
    5f14:	aa0203f5 	mov	x21, x2
TEE_BigIntCmpS32():
/home/rahulmahadev/hikey_optee/optee_os/lib/libutee/tee_api_arith.c:247
    5f18:	94001495 	bl	b16c <mpa_cmp_short>
TEE_BigIntMod():
/home/rahulmahadev/hikey_optee/optee_os/lib/libutee/tee_api_arith.c:378
    5f1c:	36f80080 	tbz	w0, #31, 5f2c <TEE_BigIntMod+0x38>
/home/rahulmahadev/hikey_optee/optee_os/lib/libutee/tee_api_arith.c:379
    5f20:	90000040 	adrp	x0, d000 <PRIME_TABLE+0x388>
    5f24:	9127f400 	add	x0, x0, #0x9fd
    5f28:	97ffff5d 	bl	5c9c <TEE_BigInt_Panic>
/home/rahulmahadev/hikey_optee/optee_os/lib/libutee/tee_api_arith.c:381
    5f2c:	d0000093 	adrp	x19, 17000 <ta_heap+0x7ec0>
    5f30:	aa1603e1 	mov	x1, x22
    5f34:	9106a273 	add	x19, x19, #0x1a8
    5f38:	aa1403e0 	mov	x0, x20
    5f3c:	aa1303e3 	mov	x3, x19
    5f40:	aa1503e2 	mov	x2, x21
    5f44:	94001710 	bl	bb84 <mpa_mod>
/home/rahulmahadev/hikey_optee/optee_os/lib/libutee/tee_api_arith.c:383
    5f48:	52800001 	mov	w1, #0x0                   	// #0
    5f4c:	aa1403e0 	mov	x0, x20
    5f50:	94001487 	bl	b16c <mpa_cmp_short>
    5f54:	36f80120 	tbz	w0, #31, 5f78 <TEE_BigIntMod+0x84>
/home/rahulmahadev/hikey_optee/optee_os/lib/libutee/tee_api_arith.c:384
    5f58:	aa1303e3 	mov	x3, x19
    5f5c:	aa1503e2 	mov	x2, x21
    5f60:	aa1403e1 	mov	x1, x20
    5f64:	aa1403e0 	mov	x0, x20
/home/rahulmahadev/hikey_optee/optee_os/lib/libutee/tee_api_arith.c:385
    5f68:	a9425bf5 	ldp	x21, x22, [sp,#32]
    5f6c:	a94153f3 	ldp	x19, x20, [sp,#16]
    5f70:	a8c37bfd 	ldp	x29, x30, [sp],#48
/home/rahulmahadev/hikey_optee/optee_os/lib/libutee/tee_api_arith.c:384
    5f74:	140012ac 	b	aa24 <mpa_add>
/home/rahulmahadev/hikey_optee/optee_os/lib/libutee/tee_api_arith.c:385
    5f78:	a94153f3 	ldp	x19, x20, [sp,#16]
    5f7c:	a9425bf5 	ldp	x21, x22, [sp,#32]
    5f80:	a8c37bfd 	ldp	x29, x30, [sp],#48
    5f84:	d65f03c0 	ret

0000000000005f88 <TEE_BigIntAddMod>:
TEE_BigIntAddMod():
/home/rahulmahadev/hikey_optee/optee_os/lib/libutee/tee_api_arith.c:392
    5f88:	a9bc7bfd 	stp	x29, x30, [sp,#-64]!
    5f8c:	910003fd 	mov	x29, sp
    5f90:	a9025bf5 	stp	x21, x22, [sp,#32]
    5f94:	a90153f3 	stp	x19, x20, [sp,#16]
    5f98:	aa0103f6 	mov	x22, x1
    5f9c:	aa0003f4 	mov	x20, x0
TEE_BigIntCmpS32():
/home/rahulmahadev/hikey_optee/optee_os/lib/libutee/tee_api_arith.c:247
    5fa0:	52800041 	mov	w1, #0x2                   	// #2
    5fa4:	aa0303e0 	mov	x0, x3
TEE_BigIntAddMod():
/home/rahulmahadev/hikey_optee/optee_os/lib/libutee/tee_api_arith.c:392
    5fa8:	f9001fa2 	str	x2, [x29,#56]
    5fac:	aa0303f5 	mov	x21, x3
TEE_BigIntCmpS32():
/home/rahulmahadev/hikey_optee/optee_os/lib/libutee/tee_api_arith.c:247
    5fb0:	9400146f 	bl	b16c <mpa_cmp_short>
TEE_BigIntAddMod():
/home/rahulmahadev/hikey_optee/optee_os/lib/libutee/tee_api_arith.c:398
    5fb4:	f9401fa2 	ldr	x2, [x29,#56]
    5fb8:	36f80080 	tbz	w0, #31, 5fc8 <TEE_BigIntAddMod+0x40>
/home/rahulmahadev/hikey_optee/optee_os/lib/libutee/tee_api_arith.c:399
    5fbc:	90000040 	adrp	x0, d000 <PRIME_TABLE+0x388>
    5fc0:	9127f400 	add	x0, x0, #0x9fd
    5fc4:	97ffff36 	bl	5c9c <TEE_BigInt_Panic>
/home/rahulmahadev/hikey_optee/optee_os/lib/libutee/tee_api_arith.c:401
    5fc8:	d0000093 	adrp	x19, 17000 <ta_heap+0x7ec0>
    5fcc:	aa1603e1 	mov	x1, x22
    5fd0:	9106a273 	add	x19, x19, #0x1a8
    5fd4:	aa1403e0 	mov	x0, x20
    5fd8:	aa1303e4 	mov	x4, x19
    5fdc:	aa1503e3 	mov	x3, x21
    5fe0:	940016ef 	bl	bb9c <mpa_add_mod>
/home/rahulmahadev/hikey_optee/optee_os/lib/libutee/tee_api_arith.c:402
    5fe4:	52800001 	mov	w1, #0x0                   	// #0
    5fe8:	aa1403e0 	mov	x0, x20
    5fec:	94001460 	bl	b16c <mpa_cmp_short>
    5ff0:	36f80120 	tbz	w0, #31, 6014 <TEE_BigIntAddMod+0x8c>
/home/rahulmahadev/hikey_optee/optee_os/lib/libutee/tee_api_arith.c:403
    5ff4:	aa1303e3 	mov	x3, x19
    5ff8:	aa1503e2 	mov	x2, x21
    5ffc:	aa1403e1 	mov	x1, x20
    6000:	aa1403e0 	mov	x0, x20
/home/rahulmahadev/hikey_optee/optee_os/lib/libutee/tee_api_arith.c:404
    6004:	a9425bf5 	ldp	x21, x22, [sp,#32]
    6008:	a94153f3 	ldp	x19, x20, [sp,#16]
    600c:	a8c47bfd 	ldp	x29, x30, [sp],#64
/home/rahulmahadev/hikey_optee/optee_os/lib/libutee/tee_api_arith.c:403
    6010:	14001285 	b	aa24 <mpa_add>
/home/rahulmahadev/hikey_optee/optee_os/lib/libutee/tee_api_arith.c:404
    6014:	a94153f3 	ldp	x19, x20, [sp,#16]
    6018:	a9425bf5 	ldp	x21, x22, [sp,#32]
    601c:	a8c47bfd 	ldp	x29, x30, [sp],#64
    6020:	d65f03c0 	ret

0000000000006024 <TEE_BigIntSubMod>:
TEE_BigIntSubMod():
/home/rahulmahadev/hikey_optee/optee_os/lib/libutee/tee_api_arith.c:411
    6024:	a9bc7bfd 	stp	x29, x30, [sp,#-64]!
    6028:	910003fd 	mov	x29, sp
    602c:	a9025bf5 	stp	x21, x22, [sp,#32]
    6030:	a90153f3 	stp	x19, x20, [sp,#16]
    6034:	aa0103f6 	mov	x22, x1
    6038:	aa0003f4 	mov	x20, x0
TEE_BigIntCmpS32():
/home/rahulmahadev/hikey_optee/optee_os/lib/libutee/tee_api_arith.c:247
    603c:	52800041 	mov	w1, #0x2                   	// #2
    6040:	aa0303e0 	mov	x0, x3
TEE_BigIntSubMod():
/home/rahulmahadev/hikey_optee/optee_os/lib/libutee/tee_api_arith.c:411
    6044:	f9001fa2 	str	x2, [x29,#56]
    6048:	aa0303f5 	mov	x21, x3
TEE_BigIntCmpS32():
/home/rahulmahadev/hikey_optee/optee_os/lib/libutee/tee_api_arith.c:247
    604c:	94001448 	bl	b16c <mpa_cmp_short>
TEE_BigIntSubMod():
/home/rahulmahadev/hikey_optee/optee_os/lib/libutee/tee_api_arith.c:417
    6050:	f9401fa2 	ldr	x2, [x29,#56]
    6054:	36f80080 	tbz	w0, #31, 6064 <TEE_BigIntSubMod+0x40>
/home/rahulmahadev/hikey_optee/optee_os/lib/libutee/tee_api_arith.c:418
    6058:	f0000020 	adrp	x0, d000 <PRIME_TABLE+0x388>
    605c:	9127f400 	add	x0, x0, #0x9fd
    6060:	97ffff0f 	bl	5c9c <TEE_BigInt_Panic>
/home/rahulmahadev/hikey_optee/optee_os/lib/libutee/tee_api_arith.c:420
    6064:	b0000093 	adrp	x19, 17000 <ta_heap+0x7ec0>
    6068:	aa1603e1 	mov	x1, x22
    606c:	9106a273 	add	x19, x19, #0x1a8
    6070:	aa1403e0 	mov	x0, x20
    6074:	aa1303e4 	mov	x4, x19
    6078:	aa1503e3 	mov	x3, x21
    607c:	940016e9 	bl	bc20 <mpa_sub_mod>
/home/rahulmahadev/hikey_optee/optee_os/lib/libutee/tee_api_arith.c:421
    6080:	52800001 	mov	w1, #0x0                   	// #0
    6084:	aa1403e0 	mov	x0, x20
    6088:	94001439 	bl	b16c <mpa_cmp_short>
    608c:	36f80120 	tbz	w0, #31, 60b0 <TEE_BigIntSubMod+0x8c>
/home/rahulmahadev/hikey_optee/optee_os/lib/libutee/tee_api_arith.c:422
    6090:	aa1303e3 	mov	x3, x19
    6094:	aa1503e2 	mov	x2, x21
    6098:	aa1403e1 	mov	x1, x20
    609c:	aa1403e0 	mov	x0, x20
/home/rahulmahadev/hikey_optee/optee_os/lib/libutee/tee_api_arith.c:423
    60a0:	a9425bf5 	ldp	x21, x22, [sp,#32]
    60a4:	a94153f3 	ldp	x19, x20, [sp,#16]
    60a8:	a8c47bfd 	ldp	x29, x30, [sp],#64
/home/rahulmahadev/hikey_optee/optee_os/lib/libutee/tee_api_arith.c:422
    60ac:	1400125e 	b	aa24 <mpa_add>
/home/rahulmahadev/hikey_optee/optee_os/lib/libutee/tee_api_arith.c:423
    60b0:	a94153f3 	ldp	x19, x20, [sp,#16]
    60b4:	a9425bf5 	ldp	x21, x22, [sp,#32]
    60b8:	a8c47bfd 	ldp	x29, x30, [sp],#64
    60bc:	d65f03c0 	ret

00000000000060c0 <TEE_BigIntMulMod>:
TEE_BigIntMulMod():
/home/rahulmahadev/hikey_optee/optee_os/lib/libutee/tee_api_arith.c:430
    60c0:	a9ba7bfd 	stp	x29, x30, [sp,#-96]!
    60c4:	910003fd 	mov	x29, sp
    60c8:	a90363f7 	stp	x23, x24, [sp,#48]
    60cc:	aa0003f7 	mov	x23, x0
    60d0:	aa0103f8 	mov	x24, x1
TEE_BigIntCmpS32():
/home/rahulmahadev/hikey_optee/optee_os/lib/libutee/tee_api_arith.c:247
    60d4:	aa0303e0 	mov	x0, x3
    60d8:	52800041 	mov	w1, #0x2                   	// #2
TEE_BigIntMulMod():
/home/rahulmahadev/hikey_optee/optee_os/lib/libutee/tee_api_arith.c:430
    60dc:	a90153f3 	stp	x19, x20, [sp,#16]
    60e0:	f90027a2 	str	x2, [x29,#72]
    60e4:	aa0303f4 	mov	x20, x3
    60e8:	a9025bf5 	stp	x21, x22, [sp,#32]
TEE_BigIntCmpS32():
/home/rahulmahadev/hikey_optee/optee_os/lib/libutee/tee_api_arith.c:247
    60ec:	94001420 	bl	b16c <mpa_cmp_short>
TEE_BigIntMulMod():
/home/rahulmahadev/hikey_optee/optee_os/lib/libutee/tee_api_arith.c:437
    60f0:	f94027a2 	ldr	x2, [x29,#72]
    60f4:	36f80080 	tbz	w0, #31, 6104 <TEE_BigIntMulMod+0x44>
/home/rahulmahadev/hikey_optee/optee_os/lib/libutee/tee_api_arith.c:438
    60f8:	f0000020 	adrp	x0, d000 <PRIME_TABLE+0x388>
    60fc:	9127f400 	add	x0, x0, #0x9fd
    6100:	97fffee7 	bl	5c9c <TEE_BigInt_Panic>
/home/rahulmahadev/hikey_optee/optee_os/lib/libutee/tee_api_arith.c:448
    6104:	b0000093 	adrp	x19, 17000 <ta_heap+0x7ec0>
    6108:	910163b6 	add	x22, x29, #0x58
    610c:	9106a275 	add	x21, x19, #0x1a8
    6110:	aa1603e0 	mov	x0, x22
    6114:	aa1503e1 	mov	x1, x21
    6118:	f90027a2 	str	x2, [x29,#72]
    611c:	94000f40 	bl	9e1c <mpa_alloc_static_temp_var>
/home/rahulmahadev/hikey_optee/optee_os/lib/libutee/tee_api_arith.c:449
    6120:	f9402fa0 	ldr	x0, [x29,#88]
    6124:	aa1803e1 	mov	x1, x24
    6128:	f94027a2 	ldr	x2, [x29,#72]
    612c:	aa1503e4 	mov	x4, x21
    6130:	aa1403e3 	mov	x3, x20
    6134:	940016dc 	bl	bca4 <mpa_mul_mod>
/home/rahulmahadev/hikey_optee/optee_os/lib/libutee/tee_api_arith.c:450
    6138:	f9402fa0 	ldr	x0, [x29,#88]
    613c:	52800001 	mov	w1, #0x0                   	// #0
    6140:	9400140b 	bl	b16c <mpa_cmp_short>
    6144:	36f800c0 	tbz	w0, #31, 615c <TEE_BigIntMulMod+0x9c>
/home/rahulmahadev/hikey_optee/optee_os/lib/libutee/tee_api_arith.c:451
    6148:	f9402fa1 	ldr	x1, [x29,#88]
    614c:	aa1503e3 	mov	x3, x21
    6150:	aa1403e2 	mov	x2, x20
    6154:	aa0103e0 	mov	x0, x1
    6158:	94001233 	bl	aa24 <mpa_add>
/home/rahulmahadev/hikey_optee/optee_os/lib/libutee/tee_api_arith.c:452
    615c:	f9402fa1 	ldr	x1, [x29,#88]
    6160:	aa1703e0 	mov	x0, x23
    6164:	940007fc 	bl	8154 <mpa_copy>
/home/rahulmahadev/hikey_optee/optee_os/lib/libutee/tee_api_arith.c:453
    6168:	9106a261 	add	x1, x19, #0x1a8
    616c:	aa1603e0 	mov	x0, x22
    6170:	94000f2f 	bl	9e2c <mpa_free_static_temp_var>
/home/rahulmahadev/hikey_optee/optee_os/lib/libutee/tee_api_arith.c:454
    6174:	a94153f3 	ldp	x19, x20, [sp,#16]
    6178:	a9425bf5 	ldp	x21, x22, [sp,#32]
    617c:	a94363f7 	ldp	x23, x24, [sp,#48]
    6180:	a8c67bfd 	ldp	x29, x30, [sp],#96
    6184:	d65f03c0 	ret

0000000000006188 <TEE_BigIntSquareMod>:
TEE_BigIntSquareMod():
/home/rahulmahadev/hikey_optee/optee_os/lib/libutee/tee_api_arith.c:462
    6188:	aa0203e3 	mov	x3, x2
    618c:	aa0103e2 	mov	x2, x1
    6190:	17ffffcc 	b	60c0 <TEE_BigIntMulMod>

0000000000006194 <TEE_BigIntInvMod>:
TEE_BigIntInvMod():
/home/rahulmahadev/hikey_optee/optee_os/lib/libutee/tee_api_arith.c:470
    6194:	a9bd7bfd 	stp	x29, x30, [sp,#-48]!
    6198:	910003fd 	mov	x29, sp
    619c:	a90153f3 	stp	x19, x20, [sp,#16]
    61a0:	aa0003f4 	mov	x20, x0
    61a4:	aa0103f3 	mov	x19, x1
TEE_BigIntCmpS32():
/home/rahulmahadev/hikey_optee/optee_os/lib/libutee/tee_api_arith.c:247
    61a8:	aa0203e0 	mov	x0, x2
    61ac:	52800041 	mov	w1, #0x2                   	// #2
    61b0:	f90017a2 	str	x2, [x29,#40]
    61b4:	940013ee 	bl	b16c <mpa_cmp_short>
TEE_BigIntInvMod():
/home/rahulmahadev/hikey_optee/optee_os/lib/libutee/tee_api_arith.c:475
    61b8:	f94017a2 	ldr	x2, [x29,#40]
    61bc:	36f80080 	tbz	w0, #31, 61cc <TEE_BigIntInvMod+0x38>
/home/rahulmahadev/hikey_optee/optee_os/lib/libutee/tee_api_arith.c:476
    61c0:	f0000020 	adrp	x0, d000 <PRIME_TABLE+0x388>
    61c4:	91284800 	add	x0, x0, #0xa12
    61c8:	97fffeb5 	bl	5c9c <TEE_BigInt_Panic>
TEE_BigIntCmpS32():
/home/rahulmahadev/hikey_optee/optee_os/lib/libutee/tee_api_arith.c:247
    61cc:	52800001 	mov	w1, #0x0                   	// #0
    61d0:	aa1303e0 	mov	x0, x19
    61d4:	f90017a2 	str	x2, [x29,#40]
    61d8:	940013e5 	bl	b16c <mpa_cmp_short>
TEE_BigIntInvMod():
/home/rahulmahadev/hikey_optee/optee_os/lib/libutee/tee_api_arith.c:475
    61dc:	34ffff20 	cbz	w0, 61c0 <TEE_BigIntInvMod+0x2c>
/home/rahulmahadev/hikey_optee/optee_os/lib/libutee/tee_api_arith.c:478
    61e0:	f94017a2 	ldr	x2, [x29,#40]
    61e4:	aa1303e1 	mov	x1, x19
    61e8:	aa1403e0 	mov	x0, x20
    61ec:	b0000083 	adrp	x3, 17000 <ta_heap+0x7ec0>
/home/rahulmahadev/hikey_optee/optee_os/lib/libutee/tee_api_arith.c:479
    61f0:	a94153f3 	ldp	x19, x20, [sp,#16]
    61f4:	a8c37bfd 	ldp	x29, x30, [sp],#48
/home/rahulmahadev/hikey_optee/optee_os/lib/libutee/tee_api_arith.c:478
    61f8:	9106a063 	add	x3, x3, #0x1a8
    61fc:	140016cb 	b	bd28 <mpa_inv_mod>

0000000000006200 <TEE_BigIntRelativePrime>:
TEE_BigIntRelativePrime():
/home/rahulmahadev/hikey_optee/optee_os/lib/libutee/tee_api_arith.c:489
    6200:	a9bb7bfd 	stp	x29, x30, [sp,#-80]!
    6204:	910003fd 	mov	x29, sp
    6208:	a90153f3 	stp	x19, x20, [sp,#16]
/home/rahulmahadev/hikey_optee/optee_os/lib/libutee/tee_api_arith.c:495
    620c:	b0000093 	adrp	x19, 17000 <ta_heap+0x7ec0>
    6210:	910123b4 	add	x20, x29, #0x48
    6214:	9106a273 	add	x19, x19, #0x1a8
/home/rahulmahadev/hikey_optee/optee_os/lib/libutee/tee_api_arith.c:489
    6218:	f90013f5 	str	x21, [sp,#32]
    621c:	f9001fa1 	str	x1, [x29,#56]
    6220:	aa0003f5 	mov	x21, x0
/home/rahulmahadev/hikey_optee/optee_os/lib/libutee/tee_api_arith.c:495
    6224:	aa1303e1 	mov	x1, x19
    6228:	aa1403e0 	mov	x0, x20
    622c:	94000efc 	bl	9e1c <mpa_alloc_static_temp_var>
/home/rahulmahadev/hikey_optee/optee_os/lib/libutee/tee_api_arith.c:497
    6230:	f9401fa2 	ldr	x2, [x29,#56]
    6234:	aa1303e3 	mov	x3, x19
    6238:	f94027a0 	ldr	x0, [x29,#72]
    623c:	aa1503e1 	mov	x1, x21
    6240:	94000de8 	bl	99e0 <mpa_gcd>
/home/rahulmahadev/hikey_optee/optee_os/lib/libutee/tee_api_arith.c:498
    6244:	f94027a0 	ldr	x0, [x29,#72]
    6248:	52800021 	mov	w1, #0x1                   	// #1
    624c:	940013c8 	bl	b16c <mpa_cmp_short>
    6250:	2a0003f5 	mov	w21, w0
/home/rahulmahadev/hikey_optee/optee_os/lib/libutee/tee_api_arith.c:500
    6254:	aa1303e1 	mov	x1, x19
    6258:	aa1403e0 	mov	x0, x20
    625c:	94000ef4 	bl	9e2c <mpa_free_static_temp_var>
/home/rahulmahadev/hikey_optee/optee_os/lib/libutee/tee_api_arith.c:502
    6260:	6b1f02bf 	cmp	w21, wzr
/home/rahulmahadev/hikey_optee/optee_os/lib/libutee/tee_api_arith.c:503
    6264:	f94013f5 	ldr	x21, [sp,#32]
    6268:	1a9f17e0 	cset	w0, eq
    626c:	a94153f3 	ldp	x19, x20, [sp,#16]
    6270:	a8c57bfd 	ldp	x29, x30, [sp],#80
    6274:	d65f03c0 	ret

0000000000006278 <TEE_BigIntComputeExtendedGcd>:
TEE_BigIntComputeExtendedGcd():
/home/rahulmahadev/hikey_optee/optee_os/lib/libutee/tee_api_arith.c:518
    6278:	b0000085 	adrp	x5, 17000 <ta_heap+0x7ec0>
    627c:	9106a0a5 	add	x5, x5, #0x1a8
    6280:	14000e1f 	b	9afc <mpa_extended_gcd>

0000000000006284 <TEE_BigIntIsProbablePrime>:
TEE_BigIntIsProbablePrime():
/home/rahulmahadev/hikey_optee/optee_os/lib/libutee/tee_api_arith.c:529
    6284:	71013c3f 	cmp	w1, #0x4f
    6288:	540000a9 	b.ls	629c <TEE_BigIntIsProbablePrime+0x18>
/home/rahulmahadev/hikey_optee/optee_os/lib/libutee/tee_api_arith.c:533
    628c:	7104043f 	cmp	w1, #0x101
    6290:	52802002 	mov	w2, #0x100                 	// #256
    6294:	1a823021 	csel	w1, w1, w2, cc
    6298:	14000002 	b	62a0 <TEE_BigIntIsProbablePrime+0x1c>
/home/rahulmahadev/hikey_optee/optee_os/lib/libutee/tee_api_arith.c:530
    629c:	52800a01 	mov	w1, #0x50                  	// #80
/home/rahulmahadev/hikey_optee/optee_os/lib/libutee/tee_api_arith.c:535
    62a0:	b0000082 	adrp	x2, 17000 <ta_heap+0x7ec0>
    62a4:	9106a042 	add	x2, x2, #0x1a8
    62a8:	140008fc 	b	8698 <mpa_is_prob_prime>

00000000000062ac <TEE_BigIntConvertToFMM>:
TEE_BigIntConvertToFMM():
/home/rahulmahadev/hikey_optee/optee_os/lib/libutee/tee_api_arith.c:549
    62ac:	aa0303e6 	mov	x6, x3
/home/rahulmahadev/hikey_optee/optee_os/lib/libutee/tee_api_arith.c:556
    62b0:	b9401064 	ldr	w4, [x3,#16]
    62b4:	b0000085 	adrp	x5, 17000 <ta_heap+0x7ec0>
    62b8:	aa0203e3 	mov	x3, x2
    62bc:	9106a0a5 	add	x5, x5, #0x1a8
    62c0:	f94004c2 	ldr	x2, [x6,#8]
    62c4:	140008d6 	b	861c <mpa_montgomery_mul>

00000000000062c8 <TEE_BigIntConvertFromFMM>:
TEE_BigIntConvertFromFMM():
/home/rahulmahadev/hikey_optee/optee_os/lib/libutee/tee_api_arith.c:567
    62c8:	a9ba7bfd 	stp	x29, x30, [sp,#-96]!
    62cc:	910003fd 	mov	x29, sp
    62d0:	a90153f3 	stp	x19, x20, [sp,#16]
/home/rahulmahadev/hikey_optee/optee_os/lib/libutee/tee_api_arith.c:579
    62d4:	b0000093 	adrp	x19, 17000 <ta_heap+0x7ec0>
    62d8:	910163b4 	add	x20, x29, #0x58
    62dc:	9106a273 	add	x19, x19, #0x1a8
/home/rahulmahadev/hikey_optee/optee_os/lib/libutee/tee_api_arith.c:567
    62e0:	f9001bf7 	str	x23, [sp,#48]
    62e4:	a9025bf5 	stp	x21, x22, [sp,#32]
    62e8:	aa0103f7 	mov	x23, x1
    62ec:	aa0003f5 	mov	x21, x0
/home/rahulmahadev/hikey_optee/optee_os/lib/libutee/tee_api_arith.c:579
    62f0:	aa1303e1 	mov	x1, x19
    62f4:	aa1403e0 	mov	x0, x20
/home/rahulmahadev/hikey_optee/optee_os/lib/libutee/tee_api_arith.c:567
    62f8:	f90023a2 	str	x2, [x29,#64]
    62fc:	f90027a3 	str	x3, [x29,#72]
/home/rahulmahadev/hikey_optee/optee_os/lib/libutee/tee_api_arith.c:579
    6300:	94000ec7 	bl	9e1c <mpa_alloc_static_temp_var>
/home/rahulmahadev/hikey_optee/optee_os/lib/libutee/tee_api_arith.c:582
    6304:	f9402fb6 	ldr	x22, [x29,#88]
    6308:	940007e0 	bl	8288 <mpa_constant_one>
    630c:	f94027a3 	ldr	x3, [x29,#72]
    6310:	aa1303e5 	mov	x5, x19
    6314:	f94023a2 	ldr	x2, [x29,#64]
    6318:	aa0003e1 	mov	x1, x0
    631c:	aa1603e0 	mov	x0, x22
    6320:	b9401064 	ldr	w4, [x3,#16]
    6324:	aa0203e3 	mov	x3, x2
    6328:	aa1703e2 	mov	x2, x23
    632c:	940008bc 	bl	861c <mpa_montgomery_mul>
/home/rahulmahadev/hikey_optee/optee_os/lib/libutee/tee_api_arith.c:585
    6330:	f9402fa1 	ldr	x1, [x29,#88]
    6334:	aa1503e0 	mov	x0, x21
    6338:	94000787 	bl	8154 <mpa_copy>
/home/rahulmahadev/hikey_optee/optee_os/lib/libutee/tee_api_arith.c:586
    633c:	aa1303e1 	mov	x1, x19
    6340:	aa1403e0 	mov	x0, x20
    6344:	94000eba 	bl	9e2c <mpa_free_static_temp_var>
/home/rahulmahadev/hikey_optee/optee_os/lib/libutee/tee_api_arith.c:587
    6348:	f9401bf7 	ldr	x23, [sp,#48]
    634c:	a94153f3 	ldp	x19, x20, [sp,#16]
    6350:	a9425bf5 	ldp	x21, x22, [sp,#32]
    6354:	a8c67bfd 	ldp	x29, x30, [sp],#96
    6358:	d65f03c0 	ret

000000000000635c <TEE_BigIntComputeFMM>:
TEE_BigIntComputeFMM():
/home/rahulmahadev/hikey_optee/optee_os/lib/libutee/tee_api_arith.c:604
    635c:	b0000085 	adrp	x5, 17000 <ta_heap+0x7ec0>
    6360:	b9401084 	ldr	w4, [x4,#16]
    6364:	9106a0a5 	add	x5, x5, #0x1a8
    6368:	140008ad 	b	861c <mpa_montgomery_mul>

000000000000636c <utee_get_ta_exec_id>:
utee_get_ta_exec_id():
/home/rahulmahadev/hikey_optee/optee_os/lib/libutee/arch/arm/utee_misc.c:39
    636c:	52800000 	mov	w0, #0x0                   	// #0
    6370:	d65f03c0 	ret

0000000000006374 <utee_malloc>:
utee_malloc():
/home/rahulmahadev/hikey_optee/optee_os/lib/libutee/arch/arm/utee_misc.c:44
    6374:	140001f8 	b	6b54 <malloc>

0000000000006378 <utee_realloc>:
utee_realloc():
/home/rahulmahadev/hikey_optee/optee_os/lib/libutee/arch/arm/utee_misc.c:49
    6378:	14000207 	b	6b94 <realloc>

000000000000637c <utee_calloc>:
utee_calloc():
/home/rahulmahadev/hikey_optee/optee_os/lib/libutee/arch/arm/utee_misc.c:53
    637c:	aa0103e2 	mov	x2, x1
/home/rahulmahadev/hikey_optee/optee_os/lib/libutee/arch/arm/utee_misc.c:54
    6380:	aa0003e1 	mov	x1, x0
    6384:	aa0203e0 	mov	x0, x2
    6388:	140001f9 	b	6b6c <calloc>

000000000000638c <utee_free>:
utee_free():
/home/rahulmahadev/hikey_optee/optee_os/lib/libutee/arch/arm/utee_misc.c:59
    638c:	140001f5 	b	6b60 <free>

0000000000006390 <get_rng_array>:
get_rng_array():
/home/rahulmahadev/hikey_optee/optee_os/lib/libutee/arch/arm/utee_misc.c:71
    6390:	14001716 	b	bfe8 <utee_cryp_random_number_generate>

0000000000006394 <trace_ext_puts>:
trace_ext_puts():
/home/rahulmahadev/hikey_optee/optee_os/lib/libutee/trace_ext.c:39
    6394:	a9be7bfd 	stp	x29, x30, [sp,#-32]!
    6398:	910003fd 	mov	x29, sp
    639c:	f9000bf3 	str	x19, [sp,#16]
    63a0:	aa0003f3 	mov	x19, x0
/home/rahulmahadev/hikey_optee/optee_os/lib/libutee/trace_ext.c:40
    63a4:	940003ae 	bl	725c <strlen>
    63a8:	aa0003e1 	mov	x1, x0
    63ac:	aa1303e0 	mov	x0, x19
/home/rahulmahadev/hikey_optee/optee_os/lib/libutee/trace_ext.c:41
    63b0:	f9400bf3 	ldr	x19, [sp,#16]
    63b4:	a8c27bfd 	ldp	x29, x30, [sp],#32
/home/rahulmahadev/hikey_optee/optee_os/lib/libutee/trace_ext.c:40
    63b8:	140016a6 	b	be50 <utee_log>

00000000000063bc <trace_ext_get_thread_id>:
trace_ext_get_thread_id():
/home/rahulmahadev/hikey_optee/optee_os/lib/libutee/trace_ext.c:46
    63bc:	12800000 	mov	w0, #0xffffffff            	// #-1
    63c0:	d65f03c0 	ret

00000000000063c4 <puts>:
puts():
/home/rahulmahadev/hikey_optee/optee_os/lib/libutee/trace_ext.c:93
    63c4:	a9be7bfd 	stp	x29, x30, [sp,#-32]!
    63c8:	910003fd 	mov	x29, sp
    63cc:	f9000bf3 	str	x19, [sp,#16]
    63d0:	aa0003f3 	mov	x19, x0
/home/rahulmahadev/hikey_optee/optee_os/lib/libutee/trace_ext.c:94
    63d4:	940006cd 	bl	7f08 <trace_get_level>
    63d8:	6b1f001f 	cmp	w0, wzr
    63dc:	5400006d 	b.le	63e8 <puts+0x24>
/home/rahulmahadev/hikey_optee/optee_os/lib/libutee/trace_ext.c:95
    63e0:	aa1303e0 	mov	x0, x19
    63e4:	97ffffec 	bl	6394 <trace_ext_puts>
/home/rahulmahadev/hikey_optee/optee_os/lib/libutee/trace_ext.c:97
    63e8:	52800020 	mov	w0, #0x1                   	// #1
    63ec:	f9400bf3 	ldr	x19, [sp,#16]
    63f0:	a8c27bfd 	ldp	x29, x30, [sp],#32
    63f4:	d65f03c0 	ret

00000000000063f8 <printf>:
printf():
/home/rahulmahadev/hikey_optee/optee_os/lib/libutee/trace_ext.c:56
    63f8:	a9a57bfd 	stp	x29, x30, [sp,#-432]!
    63fc:	910003fd 	mov	x29, sp
    6400:	a90153f3 	stp	x19, x20, [sp,#16]
    6404:	f90013f5 	str	x21, [sp,#32]
    6408:	aa0003f5 	mov	x21, x0
    640c:	f900bfa1 	str	x1, [x29,#376]
/home/rahulmahadev/hikey_optee/optee_os/lib/libutee/trace_ext.c:65
    6410:	52800013 	mov	w19, #0x0                   	// #0
/home/rahulmahadev/hikey_optee/optee_os/lib/libutee/trace_ext.c:56
    6414:	f900c3a2 	str	x2, [x29,#384]
    6418:	f900c7a3 	str	x3, [x29,#392]
    641c:	f900cba4 	str	x4, [x29,#400]
    6420:	f900cfa5 	str	x5, [x29,#408]
    6424:	f900d3a6 	str	x6, [x29,#416]
    6428:	f900d7a7 	str	x7, [x29,#424]
/home/rahulmahadev/hikey_optee/optee_os/lib/libutee/trace_ext.c:64
    642c:	940006b7 	bl	7f08 <trace_get_level>
    6430:	6b1f001f 	cmp	w0, wzr
    6434:	5400058d 	b.le	64e4 <printf+0xec>
/home/rahulmahadev/hikey_optee/optee_os/lib/libutee/trace_ext.c:67
    6438:	9101c3b4 	add	x20, x29, #0x70
    643c:	d0000021 	adrp	x1, c000 <utee_authenc_update_aad>
    6440:	d2802002 	mov	x2, #0x100                 	// #256
    6444:	912be021 	add	x1, x1, #0xaf8
    6448:	aa1403e0 	mov	x0, x20
    644c:	94000689 	bl	7e70 <strlcpy>
/home/rahulmahadev/hikey_optee/optee_os/lib/libutee/trace_ext.c:68
    6450:	7103fc1f 	cmp	w0, #0xff
/home/rahulmahadev/hikey_optee/optee_os/lib/libutee/trace_ext.c:67
    6454:	aa0003e4 	mov	x4, x0
/home/rahulmahadev/hikey_optee/optee_os/lib/libutee/trace_ext.c:68
    6458:	540002c8 	b.hi	64b0 <printf+0xb8>
/home/rahulmahadev/hikey_optee/optee_os/lib/libutee/trace_ext.c:73
    645c:	9106c3a0 	add	x0, x29, #0x1b0
    6460:	f9002ba0 	str	x0, [x29,#80]
    6464:	f9002fa0 	str	x0, [x29,#88]
    6468:	9105c3a0 	add	x0, x29, #0x170
    646c:	b9006fbf 	str	wzr, [x29,#108]
/home/rahulmahadev/hikey_optee/optee_os/lib/libutee/trace_ext.c:74
    6470:	d2802001 	mov	x1, #0x100                 	// #256
/home/rahulmahadev/hikey_optee/optee_os/lib/libutee/trace_ext.c:73
    6474:	f90033a0 	str	x0, [x29,#96]
    6478:	128006e0 	mov	w0, #0xffffffc8            	// #-56
    647c:	b9006ba0 	str	w0, [x29,#104]
/home/rahulmahadev/hikey_optee/optee_os/lib/libutee/trace_ext.c:74
    6480:	93407c80 	sxtw	x0, w4
    6484:	a9450fa2 	ldp	x2, x3, [x29,#80]
    6488:	a9030fa2 	stp	x2, x3, [x29,#48]
    648c:	a9460fa2 	ldp	x2, x3, [x29,#96]
    6490:	a9040fa2 	stp	x2, x3, [x29,#64]
    6494:	cb000021 	sub	x1, x1, x0
    6498:	9100c3a3 	add	x3, x29, #0x30
    649c:	aa1503e2 	mov	x2, x21
    64a0:	8b000280 	add	x0, x20, x0
    64a4:	9400031c 	bl	7114 <vsnprintf>
    64a8:	2a0003f3 	mov	w19, w0
/home/rahulmahadev/hikey_optee/optee_os/lib/libutee/trace_ext.c:77
    64ac:	36f80093 	tbz	w19, #31, 64bc <printf+0xc4>
/home/rahulmahadev/hikey_optee/optee_os/lib/libutee/trace_ext.c:78
    64b0:	d0000020 	adrp	x0, c000 <utee_authenc_update_aad>
    64b4:	912b8000 	add	x0, x0, #0xae0
    64b8:	1400000a 	b	64e0 <printf+0xe8>
/home/rahulmahadev/hikey_optee/optee_os/lib/libutee/trace_ext.c:81
    64bc:	7103da7f 	cmp	w19, #0xf6
    64c0:	540000ed 	b.le	64dc <printf+0xe4>
/home/rahulmahadev/hikey_optee/optee_os/lib/libutee/trace_ext.c:82
    64c4:	f0000021 	adrp	x1, d000 <PRIME_TABLE+0x388>
    64c8:	d28000a2 	mov	x2, #0x5                   	// #5
    64cc:	9128f421 	add	x1, x1, #0xa3d
    64d0:	9105afa0 	add	x0, x29, #0x16b
/home/rahulmahadev/hikey_optee/optee_os/lib/libutee/trace_ext.c:84
    64d4:	52801e33 	mov	w19, #0xf1                  	// #241
/home/rahulmahadev/hikey_optee/optee_os/lib/libutee/trace_ext.c:82
    64d8:	94000332 	bl	71a0 <memcpy>
/home/rahulmahadev/hikey_optee/optee_os/lib/libutee/trace_ext.c:87
    64dc:	aa1403e0 	mov	x0, x20
    64e0:	97ffffb9 	bl	63c4 <puts>
/home/rahulmahadev/hikey_optee/optee_os/lib/libutee/trace_ext.c:90
    64e4:	2a1303e0 	mov	w0, w19
    64e8:	f94013f5 	ldr	x21, [sp,#32]
    64ec:	a94153f3 	ldp	x19, x20, [sp,#16]
    64f0:	a8db7bfd 	ldp	x29, x30, [sp],#432
    64f4:	d65f03c0 	ret

00000000000064f8 <create_free_block>:
create_free_block():
/home/rahulmahadev/hikey_optee/optee_os/lib/libutils/isoc/bget_malloc.c:375
    64f8:	a9bf7bfd 	stp	x29, x30, [sp,#-16]!
/home/rahulmahadev/hikey_optee/optee_os/lib/libutils/isoc/bget_malloc.c:376
    64fc:	8b010003 	add	x3, x0, x1
    6500:	eb02007f 	cmp	x3, x2
/home/rahulmahadev/hikey_optee/optee_os/lib/libutils/isoc/bget_malloc.c:375
    6504:	910003fd 	mov	x29, sp
/home/rahulmahadev/hikey_optee/optee_os/lib/libutils/isoc/bget_malloc.c:376
    6508:	540000e0 	b.eq	6524 <create_free_block+0x2c>
/home/rahulmahadev/hikey_optee/optee_os/lib/libutils/isoc/bget_malloc.c:376 (discriminator 1)
    650c:	f0000021 	adrp	x1, d000 <PRIME_TABLE+0x388>
    6510:	f0000020 	adrp	x0, d000 <PRIME_TABLE+0x388>
    6514:	52802f02 	mov	w2, #0x178                 	// #376
    6518:	91290821 	add	x1, x1, #0xa42
    651c:	91298800 	add	x0, x0, #0xa62
    6520:	14000008 	b	6540 <create_free_block+0x48>
/home/rahulmahadev/hikey_optee/optee_os/lib/libutils/isoc/bget_malloc.c:377
    6524:	f9400462 	ldr	x2, [x3,#8]
    6528:	b7f80102 	tbnz	x2, #63, 6548 <create_free_block+0x50>
/home/rahulmahadev/hikey_optee/optee_os/lib/libutils/isoc/bget_malloc.c:377 (discriminator 1)
    652c:	f0000021 	adrp	x1, d000 <PRIME_TABLE+0x388>
    6530:	f0000020 	adrp	x0, d000 <PRIME_TABLE+0x388>
    6534:	52802f22 	mov	w2, #0x179                 	// #377
    6538:	91290821 	add	x1, x1, #0xa42
    653c:	9129f800 	add	x0, x0, #0xa7e
    6540:	97fffdc8 	bl	5c60 <_assert_log>
    6544:	97fffdd2 	bl	5c8c <_assert_break>
/home/rahulmahadev/hikey_optee/optee_os/lib/libutils/isoc/bget_malloc.c:379
    6548:	f8616802 	ldr	x2, [x0,x1]
    654c:	b40000e2 	cbz	x2, 6568 <create_free_block+0x70>
/home/rahulmahadev/hikey_optee/optee_os/lib/libutils/isoc/bget_malloc.c:379 (discriminator 1)
    6550:	f0000021 	adrp	x1, d000 <PRIME_TABLE+0x388>
    6554:	f0000020 	adrp	x0, d000 <PRIME_TABLE+0x388>
    6558:	52802f62 	mov	w2, #0x17b                 	// #379
    655c:	91290821 	add	x1, x1, #0xa42
    6560:	912a3000 	add	x0, x0, #0xa8c
    6564:	17fffff7 	b	6540 <create_free_block+0x48>
/home/rahulmahadev/hikey_optee/optee_os/lib/libutils/isoc/bget_malloc.c:382
    6568:	f9000401 	str	x1, [x0,#8]
/home/rahulmahadev/hikey_optee/optee_os/lib/libutils/isoc/bget_malloc.c:383
    656c:	f900001f 	str	xzr, [x0]
/home/rahulmahadev/hikey_optee/optee_os/lib/libutils/isoc/bget_malloc.c:386
    6570:	f8216801 	str	x1, [x0,x1]
/home/rahulmahadev/hikey_optee/optee_os/lib/libutils/isoc/bget_malloc.c:389
    6574:	b0000041 	adrp	x1, f000 <ta_props>
    6578:	9103e021 	add	x1, x1, #0xf8
    657c:	f9400c23 	ldr	x3, [x1,#24]
    6580:	f9400862 	ldr	x2, [x3,#16]
    6584:	eb01005f 	cmp	x2, x1
    6588:	540000e0 	b.eq	65a4 <create_free_block+0xac>
/home/rahulmahadev/hikey_optee/optee_os/lib/libutils/isoc/bget_malloc.c:389 (discriminator 1)
    658c:	f0000021 	adrp	x1, d000 <PRIME_TABLE+0x388>
    6590:	f0000020 	adrp	x0, d000 <PRIME_TABLE+0x388>
    6594:	528030a2 	mov	w2, #0x185                 	// #389
    6598:	91290821 	add	x1, x1, #0xa42
    659c:	912a7800 	add	x0, x0, #0xa9e
    65a0:	17ffffe8 	b	6540 <create_free_block+0x48>
/home/rahulmahadev/hikey_optee/optee_os/lib/libutils/isoc/bget_malloc.c:390
    65a4:	f9400841 	ldr	x1, [x2,#16]
    65a8:	f9400c21 	ldr	x1, [x1,#24]
    65ac:	eb02003f 	cmp	x1, x2
    65b0:	540000e0 	b.eq	65cc <create_free_block+0xd4>
/home/rahulmahadev/hikey_optee/optee_os/lib/libutils/isoc/bget_malloc.c:390 (discriminator 1)
    65b4:	f0000021 	adrp	x1, d000 <PRIME_TABLE+0x388>
    65b8:	f0000020 	adrp	x0, d000 <PRIME_TABLE+0x388>
    65bc:	528030c2 	mov	w2, #0x186                 	// #390
    65c0:	91290821 	add	x1, x1, #0xa42
    65c4:	912b1c00 	add	x0, x0, #0xac7
    65c8:	17ffffde 	b	6540 <create_free_block+0x48>
/home/rahulmahadev/hikey_optee/optee_os/lib/libutils/isoc/bget_malloc.c:391
    65cc:	f9000801 	str	x1, [x0,#16]
/home/rahulmahadev/hikey_optee/optee_os/lib/libutils/isoc/bget_malloc.c:392
    65d0:	f9000c03 	str	x3, [x0,#24]
/home/rahulmahadev/hikey_optee/optee_os/lib/libutils/isoc/bget_malloc.c:393
    65d4:	f9000c20 	str	x0, [x1,#24]
/home/rahulmahadev/hikey_optee/optee_os/lib/libutils/isoc/bget_malloc.c:394
    65d8:	f9400c01 	ldr	x1, [x0,#24]
    65dc:	f9000820 	str	x0, [x1,#16]
/home/rahulmahadev/hikey_optee/optee_os/lib/libutils/isoc/bget_malloc.c:395
    65e0:	a8c17bfd 	ldp	x29, x30, [sp],#16
    65e4:	d65f03c0 	ret

00000000000065e8 <bget>:
bget():
/home/rahulmahadev/hikey_optee/optee_os/lib/libutils/isoc/bget.c:575
    65e8:	a9bf7bfd 	stp	x29, x30, [sp,#-16]!
/home/rahulmahadev/hikey_optee/optee_os/lib/libutils/isoc/bget.c:586
    65ec:	eb1f001f 	cmp	x0, xzr
/home/rahulmahadev/hikey_optee/optee_os/lib/libutils/isoc/bget.c:575
    65f0:	910003fd 	mov	x29, sp
/home/rahulmahadev/hikey_optee/optee_os/lib/libutils/isoc/bget.c:586
    65f4:	540000ec 	b.gt	6610 <bget+0x28>
/home/rahulmahadev/hikey_optee/optee_os/lib/libutils/isoc/bget.c:586 (discriminator 1)
    65f8:	f0000021 	adrp	x1, d000 <PRIME_TABLE+0x388>
    65fc:	f0000020 	adrp	x0, d000 <PRIME_TABLE+0x388>
    6600:	52804942 	mov	w2, #0x24a                 	// #586
    6604:	912bc021 	add	x1, x1, #0xaf0
    6608:	91322c00 	add	x0, x0, #0xc8b
    660c:	1400001d 	b	6680 <bget+0x98>
/home/rahulmahadev/hikey_optee/optee_os/lib/libutils/isoc/bget.c:589
    6610:	d2800201 	mov	x1, #0x10                  	// #16
    6614:	f1003c1f 	cmp	x0, #0xf
    6618:	9a81c000 	csel	x0, x0, x1, gt
/home/rahulmahadev/hikey_optee/optee_os/lib/libutils/isoc/bget.c:593
    661c:	91001c02 	add	x2, x0, #0x7
/home/rahulmahadev/hikey_optee/optee_os/lib/libutils/isoc/bget.c:607
    6620:	b0000040 	adrp	x0, f000 <ta_props>
    6624:	9103e000 	add	x0, x0, #0xf8
/home/rahulmahadev/hikey_optee/optee_os/lib/libutils/isoc/bget.c:593
    6628:	927df042 	and	x2, x2, #0xfffffffffffffff8
/home/rahulmahadev/hikey_optee/optee_os/lib/libutils/isoc/bget.c:597
    662c:	8b010042 	add	x2, x2, x1
/home/rahulmahadev/hikey_optee/optee_os/lib/libutils/isoc/bget.c:607
    6630:	f9400801 	ldr	x1, [x0,#16]
/home/rahulmahadev/hikey_optee/optee_os/lib/libutils/isoc/bget.c:628
    6634:	14000002 	b	663c <bget+0x54>
/home/rahulmahadev/hikey_optee/optee_os/lib/libutils/isoc/bget.c:691
    6638:	f9400821 	ldr	x1, [x1,#16]
/home/rahulmahadev/hikey_optee/optee_os/lib/libutils/isoc/bget.c:628
    663c:	eb00003f 	cmp	x1, x0
    6640:	540007e0 	b.eq	673c <bget+0x154>
/home/rahulmahadev/hikey_optee/optee_os/lib/libutils/isoc/bget.c:629
    6644:	f9400423 	ldr	x3, [x1,#8]
    6648:	eb02007f 	cmp	x3, x2
    664c:	54ffff6b 	b.lt	6638 <bget+0x50>
/home/rahulmahadev/hikey_optee/optee_os/lib/libutils/isoc/bget.c:640
    6650:	cb020064 	sub	x4, x3, x2
    6654:	f100809f 	cmp	x4, #0x20
    6658:	54000269 	b.ls	66a4 <bget+0xbc>
/home/rahulmahadev/hikey_optee/optee_os/lib/libutils/isoc/bget.c:643
    665c:	8b040020 	add	x0, x1, x4
/home/rahulmahadev/hikey_optee/optee_os/lib/libutils/isoc/bget.c:645
    6660:	f8626805 	ldr	x5, [x0,x2]
    6664:	eb0300bf 	cmp	x5, x3
    6668:	54000100 	b.eq	6688 <bget+0xa0>
/home/rahulmahadev/hikey_optee/optee_os/lib/libutils/isoc/bget.c:645 (discriminator 1)
    666c:	f0000021 	adrp	x1, d000 <PRIME_TABLE+0x388>
    6670:	f0000020 	adrp	x0, d000 <PRIME_TABLE+0x388>
    6674:	528050a2 	mov	w2, #0x285                 	// #645
    6678:	912bc021 	add	x1, x1, #0xaf0
    667c:	912c2400 	add	x0, x0, #0xb09
    6680:	97fffd78 	bl	5c60 <_assert_log>
    6684:	97fffd82 	bl	5c8c <_assert_break>
/home/rahulmahadev/hikey_optee/optee_os/lib/libutils/isoc/bget.c:647
    6688:	f9000424 	str	x4, [x1,#8]
/home/rahulmahadev/hikey_optee/optee_os/lib/libutils/isoc/bget.c:649
    668c:	f8246824 	str	x4, [x1,x4]
/home/rahulmahadev/hikey_optee/optee_os/lib/libutils/isoc/bget.c:651
    6690:	cb0203e1 	neg	x1, x2
    6694:	f9000401 	str	x1, [x0,#8]
/home/rahulmahadev/hikey_optee/optee_os/lib/libutils/isoc/bget.c:653
    6698:	f822681f 	str	xzr, [x0,x2]
/home/rahulmahadev/hikey_optee/optee_os/lib/libutils/isoc/bget.c:659
    669c:	91004000 	add	x0, x0, #0x10
/home/rahulmahadev/hikey_optee/optee_os/lib/libutils/isoc/bget.c:660
    66a0:	14000028 	b	6740 <bget+0x158>
/home/rahulmahadev/hikey_optee/optee_os/lib/libutils/isoc/bget.c:665
    66a4:	f8636820 	ldr	x0, [x1,x3]
/home/rahulmahadev/hikey_optee/optee_os/lib/libutils/isoc/bget.c:664
    66a8:	8b030024 	add	x4, x1, x3
/home/rahulmahadev/hikey_optee/optee_os/lib/libutils/isoc/bget.c:665
    66ac:	eb03001f 	cmp	x0, x3
    66b0:	540000e0 	b.eq	66cc <bget+0xe4>
/home/rahulmahadev/hikey_optee/optee_os/lib/libutils/isoc/bget.c:665 (discriminator 1)
    66b4:	f0000021 	adrp	x1, d000 <PRIME_TABLE+0x388>
    66b8:	f0000020 	adrp	x0, d000 <PRIME_TABLE+0x388>
    66bc:	52805322 	mov	w2, #0x299                 	// #665
    66c0:	912bc021 	add	x1, x1, #0xaf0
    66c4:	912c9400 	add	x0, x0, #0xb25
    66c8:	17ffffee 	b	6680 <bget+0x98>
/home/rahulmahadev/hikey_optee/optee_os/lib/libutils/isoc/bget.c:670
    66cc:	f9400c22 	ldr	x2, [x1,#24]
    66d0:	f9400843 	ldr	x3, [x2,#16]
    66d4:	eb01007f 	cmp	x3, x1
    66d8:	540000e0 	b.eq	66f4 <bget+0x10c>
/home/rahulmahadev/hikey_optee/optee_os/lib/libutils/isoc/bget.c:670 (discriminator 1)
    66dc:	f0000021 	adrp	x1, d000 <PRIME_TABLE+0x388>
    66e0:	f0000020 	adrp	x0, d000 <PRIME_TABLE+0x388>
    66e4:	528053c2 	mov	w2, #0x29e                 	// #670
    66e8:	912bc021 	add	x1, x1, #0xaf0
    66ec:	912d0400 	add	x0, x0, #0xb41
    66f0:	17ffffe4 	b	6680 <bget+0x98>
/home/rahulmahadev/hikey_optee/optee_os/lib/libutils/isoc/bget.c:671
    66f4:	f9400823 	ldr	x3, [x1,#16]
    66f8:	f9400c65 	ldr	x5, [x3,#24]
    66fc:	eb0100bf 	cmp	x5, x1
    6700:	540000e0 	b.eq	671c <bget+0x134>
/home/rahulmahadev/hikey_optee/optee_os/lib/libutils/isoc/bget.c:671 (discriminator 1)
    6704:	f0000021 	adrp	x1, d000 <PRIME_TABLE+0x388>
    6708:	f0000020 	adrp	x0, d000 <PRIME_TABLE+0x388>
    670c:	528053e2 	mov	w2, #0x29f                 	// #671
    6710:	912bc021 	add	x1, x1, #0xaf0
    6714:	912d7000 	add	x0, x0, #0xb5c
    6718:	17ffffda 	b	6680 <bget+0x98>
/home/rahulmahadev/hikey_optee/optee_os/lib/libutils/isoc/bget.c:672
    671c:	f9000843 	str	x3, [x2,#16]
/home/rahulmahadev/hikey_optee/optee_os/lib/libutils/isoc/bget.c:680
    6720:	cb0003e0 	neg	x0, x0
/home/rahulmahadev/hikey_optee/optee_os/lib/libutils/isoc/bget.c:673
    6724:	f9400823 	ldr	x3, [x1,#16]
    6728:	f9000c62 	str	x2, [x3,#24]
/home/rahulmahadev/hikey_optee/optee_os/lib/libutils/isoc/bget.c:680
    672c:	f9000420 	str	x0, [x1,#8]
/home/rahulmahadev/hikey_optee/optee_os/lib/libutils/isoc/bget.c:687
    6730:	91004020 	add	x0, x1, #0x10
/home/rahulmahadev/hikey_optee/optee_os/lib/libutils/isoc/bget.c:684
    6734:	f900009f 	str	xzr, [x4]
/home/rahulmahadev/hikey_optee/optee_os/lib/libutils/isoc/bget.c:688
    6738:	14000002 	b	6740 <bget+0x158>
/home/rahulmahadev/hikey_optee/optee_os/lib/libutils/isoc/bget.c:752
    673c:	d2800000 	mov	x0, #0x0                   	// #0
/home/rahulmahadev/hikey_optee/optee_os/lib/libutils/isoc/bget.c:753
    6740:	a8c17bfd 	ldp	x29, x30, [sp],#16
    6744:	d65f03c0 	ret

0000000000006748 <bgetz>:
bgetz():
/home/rahulmahadev/hikey_optee/optee_os/lib/libutils/isoc/bget.c:761
    6748:	a9be7bfd 	stp	x29, x30, [sp,#-32]!
    674c:	910003fd 	mov	x29, sp
    6750:	a90153f3 	stp	x19, x20, [sp,#16]
    6754:	aa0003f4 	mov	x20, x0
/home/rahulmahadev/hikey_optee/optee_os/lib/libutils/isoc/bget.c:762
    6758:	97ffffa4 	bl	65e8 <bget>
    675c:	aa0003f3 	mov	x19, x0
/home/rahulmahadev/hikey_optee/optee_os/lib/libutils/isoc/bget.c:764
    6760:	b40002a0 	cbz	x0, 67b4 <bgetz+0x6c>
/home/rahulmahadev/hikey_optee/optee_os/lib/libutils/isoc/bget.c:769
    6764:	f85f8001 	ldr	x1, [x0,#-8]
/home/rahulmahadev/hikey_optee/optee_os/lib/libutils/isoc/bget.c:770
    6768:	cb0103e2 	neg	x2, x1
    676c:	b5000081 	cbnz	x1, 677c <bgetz+0x34>
/home/rahulmahadev/hikey_optee/optee_os/lib/libutils/isoc/bget.c:774
    6770:	f85e8002 	ldr	x2, [x0,#-24]
    6774:	d1006042 	sub	x2, x2, #0x18
    6778:	14000002 	b	6780 <bgetz+0x38>
/home/rahulmahadev/hikey_optee/optee_os/lib/libutils/isoc/bget.c:776
    677c:	d1004042 	sub	x2, x2, #0x10
/home/rahulmahadev/hikey_optee/optee_os/lib/libutils/isoc/bget.c:778
    6780:	eb14005f 	cmp	x2, x20
    6784:	5400010a 	b.ge	67a4 <bgetz+0x5c>
    6788:	f0000021 	adrp	x1, d000 <PRIME_TABLE+0x388>
    678c:	f0000020 	adrp	x0, d000 <PRIME_TABLE+0x388>
    6790:	52806142 	mov	w2, #0x30a                 	// #778
    6794:	912bc021 	add	x1, x1, #0xaf0
    6798:	912ddc00 	add	x0, x0, #0xb77
    679c:	97fffd31 	bl	5c60 <_assert_log>
    67a0:	97fffd3b 	bl	5c8c <_assert_break>
/home/rahulmahadev/hikey_optee/optee_os/lib/libutils/isoc/bget.c:779
    67a4:	93407c42 	sxtw	x2, w2
    67a8:	52800001 	mov	w1, #0x0                   	// #0
    67ac:	aa1303e0 	mov	x0, x19
    67b0:	94000298 	bl	7210 <memset>
/home/rahulmahadev/hikey_optee/optee_os/lib/libutils/isoc/bget.c:782
    67b4:	aa1303e0 	mov	x0, x19
    67b8:	a94153f3 	ldp	x19, x20, [sp,#16]
    67bc:	a8c27bfd 	ldp	x29, x30, [sp],#32
    67c0:	d65f03c0 	ret

00000000000067c4 <brel>:
brel():
/home/rahulmahadev/hikey_optee/optee_os/lib/libutils/isoc/bget.c:826
    67c4:	a9bf7bfd 	stp	x29, x30, [sp,#-16]!
/home/rahulmahadev/hikey_optee/optee_os/lib/libutils/isoc/bget.c:829
    67c8:	d1004001 	sub	x1, x0, #0x10
/home/rahulmahadev/hikey_optee/optee_os/lib/libutils/isoc/bget.c:826
    67cc:	910003fd 	mov	x29, sp
/home/rahulmahadev/hikey_optee/optee_os/lib/libutils/isoc/bget.c:833
    67d0:	b50000e0 	cbnz	x0, 67ec <brel+0x28>
/home/rahulmahadev/hikey_optee/optee_os/lib/libutils/isoc/bget.c:833 (discriminator 1)
    67d4:	f0000021 	adrp	x1, d000 <PRIME_TABLE+0x388>
    67d8:	f0000020 	adrp	x0, d000 <PRIME_TABLE+0x388>
    67dc:	52806822 	mov	w2, #0x341                 	// #833
    67e0:	912bc021 	add	x1, x1, #0xaf0
    67e4:	912e1400 	add	x0, x0, #0xb85
    67e8:	14000008 	b	6808 <brel+0x44>
/home/rahulmahadev/hikey_optee/optee_os/lib/libutils/isoc/bget.c:862
    67ec:	f85f8002 	ldr	x2, [x0,#-8]
    67f0:	b7f80102 	tbnz	x2, #63, 6810 <brel+0x4c>
/home/rahulmahadev/hikey_optee/optee_os/lib/libutils/isoc/bget.c:862 (discriminator 1)
    67f4:	f0000021 	adrp	x1, d000 <PRIME_TABLE+0x388>
    67f8:	f0000020 	adrp	x0, d000 <PRIME_TABLE+0x388>
    67fc:	52806bc2 	mov	w2, #0x35e                 	// #862
    6800:	912bc021 	add	x1, x1, #0xaf0
    6804:	912e4400 	add	x0, x0, #0xb91
    6808:	97fffd16 	bl	5c60 <_assert_log>
    680c:	97fffd20 	bl	5c8c <_assert_break>
/home/rahulmahadev/hikey_optee/optee_os/lib/libutils/isoc/bget.c:867
    6810:	cb020023 	sub	x3, x1, x2
    6814:	f9400063 	ldr	x3, [x3]
    6818:	b40000e3 	cbz	x3, 6834 <brel+0x70>
/home/rahulmahadev/hikey_optee/optee_os/lib/libutils/isoc/bget.c:867 (discriminator 1)
    681c:	f0000021 	adrp	x1, d000 <PRIME_TABLE+0x388>
    6820:	f0000020 	adrp	x0, d000 <PRIME_TABLE+0x388>
    6824:	52806c62 	mov	w2, #0x363                 	// #867
    6828:	912bc021 	add	x1, x1, #0xaf0
    682c:	912e8400 	add	x0, x0, #0xba1
    6830:	17fffff6 	b	6808 <brel+0x44>
/home/rahulmahadev/hikey_optee/optee_os/lib/libutils/isoc/bget.c:876
    6834:	f85f0003 	ldr	x3, [x0,#-16]
    6838:	b40001c3 	cbz	x3, 6870 <brel+0xac>
/home/rahulmahadev/hikey_optee/optee_os/lib/libutils/isoc/bget.c:887
    683c:	cb030021 	sub	x1, x1, x3
    6840:	f9400420 	ldr	x0, [x1,#8]
    6844:	eb03001f 	cmp	x0, x3
    6848:	540000e0 	b.eq	6864 <brel+0xa0>
/home/rahulmahadev/hikey_optee/optee_os/lib/libutils/isoc/bget.c:887 (discriminator 1)
    684c:	f0000021 	adrp	x1, d000 <PRIME_TABLE+0x388>
    6850:	f0000020 	adrp	x0, d000 <PRIME_TABLE+0x388>
    6854:	52806ee2 	mov	w2, #0x377                 	// #887
    6858:	912bc021 	add	x1, x1, #0xaf0
    685c:	912f3400 	add	x0, x0, #0xbcd
    6860:	17ffffea 	b	6808 <brel+0x44>
/home/rahulmahadev/hikey_optee/optee_os/lib/libutils/isoc/bget.c:889
    6864:	cb020002 	sub	x2, x0, x2
    6868:	f9000422 	str	x2, [x1,#8]
    686c:	1400001e 	b	68e4 <brel+0x120>
/home/rahulmahadev/hikey_optee/optee_os/lib/libutils/isoc/bget.c:895
    6870:	b0000043 	adrp	x3, f000 <ta_props>
    6874:	9103e063 	add	x3, x3, #0xf8
    6878:	f9400c65 	ldr	x5, [x3,#24]
    687c:	f94008a4 	ldr	x4, [x5,#16]
    6880:	eb03009f 	cmp	x4, x3
    6884:	540000e0 	b.eq	68a0 <brel+0xdc>
/home/rahulmahadev/hikey_optee/optee_os/lib/libutils/isoc/bget.c:895 (discriminator 1)
    6888:	f0000021 	adrp	x1, d000 <PRIME_TABLE+0x388>
    688c:	f0000020 	adrp	x0, d000 <PRIME_TABLE+0x388>
    6890:	52806fe2 	mov	w2, #0x37f                 	// #895
    6894:	912bc021 	add	x1, x1, #0xaf0
    6898:	912a7800 	add	x0, x0, #0xa9e
    689c:	17ffffdb 	b	6808 <brel+0x44>
/home/rahulmahadev/hikey_optee/optee_os/lib/libutils/isoc/bget.c:896
    68a0:	f9400883 	ldr	x3, [x4,#16]
    68a4:	f9400c63 	ldr	x3, [x3,#24]
    68a8:	eb04007f 	cmp	x3, x4
    68ac:	540000e0 	b.eq	68c8 <brel+0x104>
/home/rahulmahadev/hikey_optee/optee_os/lib/libutils/isoc/bget.c:896 (discriminator 1)
    68b0:	f0000021 	adrp	x1, d000 <PRIME_TABLE+0x388>
    68b4:	f0000020 	adrp	x0, d000 <PRIME_TABLE+0x388>
    68b8:	52807002 	mov	w2, #0x380                 	// #896
    68bc:	912bc021 	add	x1, x1, #0xaf0
    68c0:	912b1c00 	add	x0, x0, #0xac7
    68c4:	17ffffd1 	b	6808 <brel+0x44>
/home/rahulmahadev/hikey_optee/optee_os/lib/libutils/isoc/bget.c:897
    68c8:	f9000823 	str	x3, [x1,#16]
/home/rahulmahadev/hikey_optee/optee_os/lib/libutils/isoc/bget.c:901
    68cc:	cb0203e2 	neg	x2, x2
/home/rahulmahadev/hikey_optee/optee_os/lib/libutils/isoc/bget.c:898
    68d0:	f9000c25 	str	x5, [x1,#24]
/home/rahulmahadev/hikey_optee/optee_os/lib/libutils/isoc/bget.c:899
    68d4:	f9000c61 	str	x1, [x3,#24]
/home/rahulmahadev/hikey_optee/optee_os/lib/libutils/isoc/bget.c:900
    68d8:	f9400c23 	ldr	x3, [x1,#24]
    68dc:	f9000861 	str	x1, [x3,#16]
/home/rahulmahadev/hikey_optee/optee_os/lib/libutils/isoc/bget.c:901
    68e0:	f81f8002 	str	x2, [x0,#-8]
/home/rahulmahadev/hikey_optee/optee_os/lib/libutils/isoc/bget.c:909
    68e4:	f9400425 	ldr	x5, [x1,#8]
    68e8:	8b050020 	add	x0, x1, x5
/home/rahulmahadev/hikey_optee/optee_os/lib/libutils/isoc/bget.c:910
    68ec:	f9400403 	ldr	x3, [x0,#8]
    68f0:	eb1f007f 	cmp	x3, xzr
    68f4:	5400048d 	b.le	6984 <brel+0x1c0>
/home/rahulmahadev/hikey_optee/optee_os/lib/libutils/isoc/bget.c:915
    68f8:	f8636802 	ldr	x2, [x0,x3]
    68fc:	eb03005f 	cmp	x2, x3
    6900:	540000e0 	b.eq	691c <brel+0x158>
/home/rahulmahadev/hikey_optee/optee_os/lib/libutils/isoc/bget.c:915 (discriminator 1)
    6904:	f0000021 	adrp	x1, d000 <PRIME_TABLE+0x388>
    6908:	f0000020 	adrp	x0, d000 <PRIME_TABLE+0x388>
    690c:	52807262 	mov	w2, #0x393                 	// #915
    6910:	912bc021 	add	x1, x1, #0xaf0
    6914:	91301800 	add	x0, x0, #0xc06
    6918:	17ffffbc 	b	6808 <brel+0x44>
/home/rahulmahadev/hikey_optee/optee_os/lib/libutils/isoc/bget.c:916
    691c:	f9400c03 	ldr	x3, [x0,#24]
    6920:	f9400864 	ldr	x4, [x3,#16]
    6924:	eb00009f 	cmp	x4, x0
    6928:	540000e0 	b.eq	6944 <brel+0x180>
/home/rahulmahadev/hikey_optee/optee_os/lib/libutils/isoc/bget.c:916 (discriminator 1)
    692c:	f0000021 	adrp	x1, d000 <PRIME_TABLE+0x388>
    6930:	f0000020 	adrp	x0, d000 <PRIME_TABLE+0x388>
    6934:	52807282 	mov	w2, #0x394                 	// #916
    6938:	912bc021 	add	x1, x1, #0xaf0
    693c:	9130fc00 	add	x0, x0, #0xc3f
    6940:	17ffffb2 	b	6808 <brel+0x44>
/home/rahulmahadev/hikey_optee/optee_os/lib/libutils/isoc/bget.c:917
    6944:	f9400886 	ldr	x6, [x4,#16]
    6948:	f9400cc7 	ldr	x7, [x6,#24]
    694c:	eb0400ff 	cmp	x7, x4
    6950:	540000e0 	b.eq	696c <brel+0x1a8>
/home/rahulmahadev/hikey_optee/optee_os/lib/libutils/isoc/bget.c:917 (discriminator 1)
    6954:	f0000021 	adrp	x1, d000 <PRIME_TABLE+0x388>
    6958:	f0000020 	adrp	x0, d000 <PRIME_TABLE+0x388>
    695c:	528072a2 	mov	w2, #0x395                 	// #917
    6960:	912bc021 	add	x1, x1, #0xaf0
    6964:	91317000 	add	x0, x0, #0xc5c
    6968:	17ffffa8 	b	6808 <brel+0x44>
/home/rahulmahadev/hikey_optee/optee_os/lib/libutils/isoc/bget.c:918
    696c:	f9000866 	str	x6, [x3,#16]
/home/rahulmahadev/hikey_optee/optee_os/lib/libutils/isoc/bget.c:919
    6970:	f9400800 	ldr	x0, [x0,#16]
    6974:	f9000c03 	str	x3, [x0,#24]
/home/rahulmahadev/hikey_optee/optee_os/lib/libutils/isoc/bget.c:920
    6978:	8b0200a0 	add	x0, x5, x2
    697c:	f9000420 	str	x0, [x1,#8]
/home/rahulmahadev/hikey_optee/optee_os/lib/libutils/isoc/bget.c:929
    6980:	8b000020 	add	x0, x1, x0
/home/rahulmahadev/hikey_optee/optee_os/lib/libutils/isoc/bget.c:935
    6984:	f9400402 	ldr	x2, [x0,#8]
    6988:	b7f800e2 	tbnz	x2, #63, 69a4 <brel+0x1e0>
/home/rahulmahadev/hikey_optee/optee_os/lib/libutils/isoc/bget.c:935 (discriminator 1)
    698c:	f0000021 	adrp	x1, d000 <PRIME_TABLE+0x388>
    6990:	f0000020 	adrp	x0, d000 <PRIME_TABLE+0x388>
    6994:	528074e2 	mov	w2, #0x3a7                 	// #935
    6998:	912bc021 	add	x1, x1, #0xaf0
    699c:	9131e400 	add	x0, x0, #0xc79
    69a0:	17ffff9a 	b	6808 <brel+0x44>
/home/rahulmahadev/hikey_optee/optee_os/lib/libutils/isoc/bget.c:940
    69a4:	f9400421 	ldr	x1, [x1,#8]
    69a8:	f9000001 	str	x1, [x0]
/home/rahulmahadev/hikey_optee/optee_os/lib/libutils/isoc/bget.c:967
    69ac:	a8c17bfd 	ldp	x29, x30, [sp],#16
    69b0:	d65f03c0 	ret

00000000000069b4 <bgetr>:
bgetr():
/home/rahulmahadev/hikey_optee/optee_os/lib/libutils/isoc/bget.c:792
    69b4:	a9bd7bfd 	stp	x29, x30, [sp,#-48]!
    69b8:	910003fd 	mov	x29, sp
    69bc:	a90153f3 	stp	x19, x20, [sp,#16]
    69c0:	aa0003f4 	mov	x20, x0
/home/rahulmahadev/hikey_optee/optee_os/lib/libutils/isoc/bget.c:797
    69c4:	aa0103e0 	mov	x0, x1
    69c8:	f90017a1 	str	x1, [x29,#40]
    69cc:	97ffff07 	bl	65e8 <bget>
    69d0:	aa0003f3 	mov	x19, x0
    69d4:	b4000300 	cbz	x0, 6a34 <bgetr+0x80>
/home/rahulmahadev/hikey_optee/optee_os/lib/libutils/isoc/bget.c:800
    69d8:	b4000334 	cbz	x20, 6a3c <bgetr+0x88>
/home/rahulmahadev/hikey_optee/optee_os/lib/libutils/isoc/bget.c:804
    69dc:	f85f8283 	ldr	x3, [x20,#-8]
/home/rahulmahadev/hikey_optee/optee_os/lib/libutils/isoc/bget.c:815
    69e0:	f94017a1 	ldr	x1, [x29,#40]
/home/rahulmahadev/hikey_optee/optee_os/lib/libutils/isoc/bget.c:804
    69e4:	cb0303e3 	neg	x3, x3
/home/rahulmahadev/hikey_optee/optee_os/lib/libutils/isoc/bget.c:814
    69e8:	d1004063 	sub	x3, x3, #0x10
/home/rahulmahadev/hikey_optee/optee_os/lib/libutils/isoc/bget.c:815
    69ec:	eb1f007f 	cmp	x3, xzr
    69f0:	5400010c 	b.gt	6a10 <bgetr+0x5c>
    69f4:	f0000021 	adrp	x1, d000 <PRIME_TABLE+0x388>
    69f8:	f0000020 	adrp	x0, d000 <PRIME_TABLE+0x388>
    69fc:	528065e2 	mov	w2, #0x32f                 	// #815
    6a00:	912bc021 	add	x1, x1, #0xaf0
    6a04:	91322800 	add	x0, x0, #0xc8a
    6a08:	97fffc96 	bl	5c60 <_assert_log>
    6a0c:	97fffca0 	bl	5c8c <_assert_break>
/home/rahulmahadev/hikey_optee/optee_os/lib/libutils/isoc/bget.c:816
    6a10:	eb03003f 	cmp	x1, x3
    6a14:	93407c64 	sxtw	x4, w3
    6a18:	93407c22 	sxtw	x2, w1
    6a1c:	aa1403e1 	mov	x1, x20
    6a20:	9a82a082 	csel	x2, x4, x2, ge
    6a24:	940001df 	bl	71a0 <memcpy>
/home/rahulmahadev/hikey_optee/optee_os/lib/libutils/isoc/bget.c:818
    6a28:	aa1403e0 	mov	x0, x20
    6a2c:	97ffff66 	bl	67c4 <brel>
    6a30:	14000003 	b	6a3c <bgetr+0x88>
/home/rahulmahadev/hikey_optee/optee_os/lib/libutils/isoc/bget.c:798
    6a34:	d2800000 	mov	x0, #0x0                   	// #0
    6a38:	14000002 	b	6a40 <bgetr+0x8c>
    6a3c:	aa1303e0 	mov	x0, x19
/home/rahulmahadev/hikey_optee/optee_os/lib/libutils/isoc/bget.c:820
    6a40:	a94153f3 	ldp	x19, x20, [sp,#16]
    6a44:	a8c37bfd 	ldp	x29, x30, [sp],#48
    6a48:	d65f03c0 	ret

0000000000006a4c <bpool>:
bpool():
/home/rahulmahadev/hikey_optee/optee_os/lib/libutils/isoc/bget.c:991
    6a4c:	a9bf7bfd 	stp	x29, x30, [sp,#-16]!
/home/rahulmahadev/hikey_optee/optee_os/lib/libutils/isoc/bget.c:996
    6a50:	927df021 	and	x1, x1, #0xfffffffffffffff8
/home/rahulmahadev/hikey_optee/optee_os/lib/libutils/isoc/bget.c:1015
    6a54:	f1004021 	subs	x1, x1, #0x10
/home/rahulmahadev/hikey_optee/optee_os/lib/libutils/isoc/bget.c:991
    6a58:	910003fd 	mov	x29, sp
/home/rahulmahadev/hikey_optee/optee_os/lib/libutils/isoc/bget.c:1015
    6a5c:	540000e5 	b.pl	6a78 <bpool+0x2c>
    6a60:	f0000021 	adrp	x1, d000 <PRIME_TABLE+0x388>
    6a64:	f0000020 	adrp	x0, d000 <PRIME_TABLE+0x388>
    6a68:	52807ee2 	mov	w2, #0x3f7                 	// #1015
    6a6c:	912bc021 	add	x1, x1, #0xaf0
    6a70:	91325000 	add	x0, x0, #0xc94
    6a74:	1400000d 	b	6aa8 <bpool+0x5c>
/home/rahulmahadev/hikey_optee/optee_os/lib/libutils/isoc/bget.c:1025
    6a78:	b0000042 	adrp	x2, f000 <ta_props>
/home/rahulmahadev/hikey_optee/optee_os/lib/libutils/isoc/bget.c:1021
    6a7c:	f900001f 	str	xzr, [x0]
/home/rahulmahadev/hikey_optee/optee_os/lib/libutils/isoc/bget.c:1025
    6a80:	9103e042 	add	x2, x2, #0xf8
    6a84:	f9400c44 	ldr	x4, [x2,#24]
    6a88:	f9400883 	ldr	x3, [x4,#16]
    6a8c:	eb02007f 	cmp	x3, x2
    6a90:	54000100 	b.eq	6ab0 <bpool+0x64>
/home/rahulmahadev/hikey_optee/optee_os/lib/libutils/isoc/bget.c:1025 (discriminator 1)
    6a94:	f0000021 	adrp	x1, d000 <PRIME_TABLE+0x388>
    6a98:	f0000020 	adrp	x0, d000 <PRIME_TABLE+0x388>
    6a9c:	52808022 	mov	w2, #0x401                 	// #1025
    6aa0:	912bc021 	add	x1, x1, #0xaf0
    6aa4:	912a7800 	add	x0, x0, #0xa9e
    6aa8:	97fffc6e 	bl	5c60 <_assert_log>
    6aac:	97fffc78 	bl	5c8c <_assert_break>
/home/rahulmahadev/hikey_optee/optee_os/lib/libutils/isoc/bget.c:1026
    6ab0:	f9400862 	ldr	x2, [x3,#16]
    6ab4:	f9400c42 	ldr	x2, [x2,#24]
    6ab8:	eb03005f 	cmp	x2, x3
    6abc:	540000e0 	b.eq	6ad8 <bpool+0x8c>
/home/rahulmahadev/hikey_optee/optee_os/lib/libutils/isoc/bget.c:1026 (discriminator 1)
    6ac0:	f0000021 	adrp	x1, d000 <PRIME_TABLE+0x388>
    6ac4:	f0000020 	adrp	x0, d000 <PRIME_TABLE+0x388>
    6ac8:	52808042 	mov	w2, #0x402                 	// #1026
    6acc:	912bc021 	add	x1, x1, #0xaf0
    6ad0:	912b1c00 	add	x0, x0, #0xac7
    6ad4:	17fffff5 	b	6aa8 <bpool+0x5c>
/home/rahulmahadev/hikey_optee/optee_os/lib/libutils/isoc/bget.c:1027
    6ad8:	f9000802 	str	x2, [x0,#16]
/home/rahulmahadev/hikey_optee/optee_os/lib/libutils/isoc/bget.c:1028
    6adc:	f9000c04 	str	x4, [x0,#24]
/home/rahulmahadev/hikey_optee/optee_os/lib/libutils/isoc/bget.c:1029
    6ae0:	f9000c40 	str	x0, [x2,#24]
/home/rahulmahadev/hikey_optee/optee_os/lib/libutils/isoc/bget.c:1030
    6ae4:	f9400c02 	ldr	x2, [x0,#24]
    6ae8:	f9000840 	str	x0, [x2,#16]
/home/rahulmahadev/hikey_optee/optee_os/lib/libutils/isoc/bget.c:1046
    6aec:	8b010002 	add	x2, x0, x1
/home/rahulmahadev/hikey_optee/optee_os/lib/libutils/isoc/bget.c:1041
    6af0:	f9000401 	str	x1, [x0,#8]
/home/rahulmahadev/hikey_optee/optee_os/lib/libutils/isoc/bget.c:1047
    6af4:	f8216801 	str	x1, [x0,x1]
/home/rahulmahadev/hikey_optee/optee_os/lib/libutils/isoc/bget.c:1050
    6af8:	d2f00000 	mov	x0, #0x8000000000000000    	// #-9223372036854775808
    6afc:	f9000440 	str	x0, [x2,#8]
/home/rahulmahadev/hikey_optee/optee_os/lib/libutils/isoc/bget.c:1051
    6b00:	a8c17bfd 	ldp	x29, x30, [sp],#16
    6b04:	d65f03c0 	ret

0000000000006b08 <malloc_reset_max_allocated>:
malloc_reset_max_allocated():
/home/rahulmahadev/hikey_optee/optee_os/lib/libutils/isoc/bget_malloc.c:186
    6b08:	d65f03c0 	ret

0000000000006b0c <malloc_get_max_allocated>:
malloc_get_max_allocated():
/home/rahulmahadev/hikey_optee/optee_os/lib/libutils/isoc/bget_malloc.c:191
    6b0c:	d2800000 	mov	x0, #0x0                   	// #0
    6b10:	d65f03c0 	ret

0000000000006b14 <malloc_get_allocated>:
malloc_get_allocated():
/home/rahulmahadev/hikey_optee/optee_os/lib/libutils/isoc/bget_malloc.c:196
    6b14:	d2800000 	mov	x0, #0x0                   	// #0
    6b18:	d65f03c0 	ret

0000000000006b1c <malloc_get_heap_size>:
malloc_get_heap_size():
/home/rahulmahadev/hikey_optee/optee_os/lib/libutils/isoc/bget_malloc.c:206
    6b1c:	d0000080 	adrp	x0, 18000 <mempool_u32+0xe58>
    6b20:	d2800001 	mov	x1, #0x0                   	// #0
    6b24:	f9467802 	ldr	x2, [x0,#3312]
/home/rahulmahadev/hikey_optee/optee_os/lib/libutils/isoc/bget_malloc.c:207
    6b28:	d0000080 	adrp	x0, 18000 <mempool_u32+0xe58>
    6b2c:	f9467403 	ldr	x3, [x0,#3304]
/home/rahulmahadev/hikey_optee/optee_os/lib/libutils/isoc/bget_malloc.c:202
    6b30:	d2800000 	mov	x0, #0x0                   	// #0
/home/rahulmahadev/hikey_optee/optee_os/lib/libutils/isoc/bget_malloc.c:206 (discriminator 1)
    6b34:	eb02003f 	cmp	x1, x2
    6b38:	540000c0 	b.eq	6b50 <malloc_get_heap_size+0x34>
    6b3c:	8b011064 	add	x4, x3, x1, lsl #4
/home/rahulmahadev/hikey_optee/optee_os/lib/libutils/isoc/bget_malloc.c:206 (discriminator 3)
    6b40:	91000421 	add	x1, x1, #0x1
/home/rahulmahadev/hikey_optee/optee_os/lib/libutils/isoc/bget_malloc.c:207 (discriminator 3)
    6b44:	f9400484 	ldr	x4, [x4,#8]
    6b48:	8b040000 	add	x0, x0, x4
    6b4c:	17fffffa 	b	6b34 <malloc_get_heap_size+0x18>
/home/rahulmahadev/hikey_optee/optee_os/lib/libutils/isoc/bget_malloc.c:212
    6b50:	d65f03c0 	ret

0000000000006b54 <malloc>:
raw_malloc():
/home/rahulmahadev/hikey_optee/optee_os/lib/libutils/isoc/bget_malloc.c:314
    6b54:	eb1f001f 	cmp	x0, xzr
/home/rahulmahadev/hikey_optee/optee_os/lib/libutils/isoc/bget_malloc.c:316
    6b58:	9a9f1400 	csinc	x0, x0, xzr, ne
    6b5c:	17fffea3 	b	65e8 <bget>

0000000000006b60 <free>:
raw_free():
/home/rahulmahadev/hikey_optee/optee_os/lib/libutils/isoc/bget_malloc.c:326
    6b60:	b4000040 	cbz	x0, 6b68 <free+0x8>
/home/rahulmahadev/hikey_optee/optee_os/lib/libutils/isoc/bget_malloc.c:327
    6b64:	17ffff18 	b	67c4 <brel>
free():
/home/rahulmahadev/hikey_optee/optee_os/lib/libutils/isoc/bget_malloc.c:823
    6b68:	d65f03c0 	ret

0000000000006b6c <calloc>:
raw_calloc():
/home/rahulmahadev/hikey_optee/optee_os/lib/libutils/isoc/bget_malloc.c:333
    6b6c:	9b017c02 	mul	x2, x0, x1
/home/rahulmahadev/hikey_optee/optee_os/lib/libutils/isoc/bget_malloc.c:339
    6b70:	eb01005f 	cmp	x2, x1
    6b74:	540000c3 	b.cc	6b8c <calloc+0x20>
    6b78:	eb00005f 	cmp	x2, x0
    6b7c:	54000083 	b.cc	6b8c <calloc+0x20>
/home/rahulmahadev/hikey_optee/optee_os/lib/libutils/isoc/bget_malloc.c:344
    6b80:	eb1f005f 	cmp	x2, xzr
/home/rahulmahadev/hikey_optee/optee_os/lib/libutils/isoc/bget_malloc.c:346
    6b84:	9a9f1440 	csinc	x0, x2, xzr, ne
    6b88:	17fffef0 	b	6748 <bgetz>
calloc():
/home/rahulmahadev/hikey_optee/optee_os/lib/libutils/isoc/bget_malloc.c:833
    6b8c:	d2800000 	mov	x0, #0x0                   	// #0
    6b90:	d65f03c0 	ret

0000000000006b94 <realloc>:
raw_realloc():
/home/rahulmahadev/hikey_optee/optee_os/lib/libutils/isoc/bget_malloc.c:366
    6b94:	eb1f003f 	cmp	x1, xzr
/home/rahulmahadev/hikey_optee/optee_os/lib/libutils/isoc/bget_malloc.c:368
    6b98:	9a9f1421 	csinc	x1, x1, xzr, ne
    6b9c:	17ffff86 	b	69b4 <bgetr>

0000000000006ba0 <memalign>:
memalign():
/home/rahulmahadev/hikey_optee/optee_os/lib/libutils/isoc/bget_malloc.c:851
    6ba0:	a9bc7bfd 	stp	x29, x30, [sp,#-64]!
    6ba4:	910003fd 	mov	x29, sp
    6ba8:	a90153f3 	stp	x19, x20, [sp,#16]
    6bac:	a9025bf5 	stp	x21, x22, [sp,#32]
    6bb0:	f9001bf7 	str	x23, [sp,#48]
raw_memalign():
/home/rahulmahadev/hikey_optee/optee_os/lib/libutils/isoc/bget_malloc.c:528
    6bb4:	b5000060 	cbnz	x0, 6bc0 <memalign+0x20>
/home/rahulmahadev/hikey_optee/optee_os/lib/libutils/isoc/bget_malloc.c:529
    6bb8:	d2800000 	mov	x0, #0x0                   	// #0
    6bbc:	140000a4 	b	6e4c <memalign+0x2ac>
/home/rahulmahadev/hikey_optee/optee_os/lib/libutils/isoc/bget_malloc.c:528
    6bc0:	cb0003f5 	neg	x21, x0
    6bc4:	8a0002b6 	and	x22, x21, x0
    6bc8:	eb0002df 	cmp	x22, x0
    6bcc:	54ffff61 	b.ne	6bb8 <memalign+0x18>
/home/rahulmahadev/hikey_optee/optee_os/lib/libutils/isoc/bget_malloc.c:535
    6bd0:	f10022df 	cmp	x22, #0x8
    6bd4:	54000108 	b.hi	6bf4 <memalign+0x54>
raw_malloc():
/home/rahulmahadev/hikey_optee/optee_os/lib/libutils/isoc/bget_malloc.c:314
    6bd8:	eb1f003f 	cmp	x1, xzr
memalign():
/home/rahulmahadev/hikey_optee/optee_os/lib/libutils/isoc/bget_malloc.c:858
    6bdc:	f9401bf7 	ldr	x23, [sp,#48]
    6be0:	a94153f3 	ldp	x19, x20, [sp,#16]
    6be4:	a9425bf5 	ldp	x21, x22, [sp,#32]
    6be8:	a8c47bfd 	ldp	x29, x30, [sp],#64
raw_malloc():
/home/rahulmahadev/hikey_optee/optee_os/lib/libutils/isoc/bget_malloc.c:316
    6bec:	9a9f1420 	csinc	x0, x1, xzr, ne
    6bf0:	17fffe7e 	b	65e8 <bget>
    6bf4:	91008037 	add	x23, x1, #0x20
raw_memalign():
/home/rahulmahadev/hikey_optee/optee_os/lib/libutils/isoc/bget_malloc.c:538
    6bf8:	8b1602f7 	add	x23, x23, x22
/home/rahulmahadev/hikey_optee/optee_os/lib/libutils/isoc/bget_malloc.c:542
    6bfc:	eb0102ff 	cmp	x23, x1
    6c00:	54fffdc3 	b.cc	6bb8 <memalign+0x18>
    6c04:	eb1602ff 	cmp	x23, x22
    6c08:	54fffd83 	b.cc	6bb8 <memalign+0x18>
/home/rahulmahadev/hikey_optee/optee_os/lib/libutils/isoc/bget_malloc.c:545
    6c0c:	aa1703e0 	mov	x0, x23
    6c10:	aa0103f3 	mov	x19, x1
    6c14:	97fffe75 	bl	65e8 <bget>
    6c18:	aa0003e2 	mov	x2, x0
    6c1c:	aa0003f4 	mov	x20, x0
/home/rahulmahadev/hikey_optee/optee_os/lib/libutils/isoc/bget_malloc.c:546
    6c20:	b4fffcc0 	cbz	x0, 6bb8 <memalign+0x18>
/home/rahulmahadev/hikey_optee/optee_os/lib/libutils/isoc/bget_malloc.c:549
    6c24:	d10006c0 	sub	x0, x22, #0x1
    6c28:	ea00005f 	tst	x2, x0
    6c2c:	54000740 	b.eq	6d14 <memalign+0x174>
/home/rahulmahadev/hikey_optee/optee_os/lib/libutils/isoc/bget_malloc.c:562
    6c30:	8b160054 	add	x20, x2, x22
/home/rahulmahadev/hikey_optee/optee_os/lib/libutils/isoc/bget_malloc.c:567
    6c34:	8b170057 	add	x23, x2, x23
/home/rahulmahadev/hikey_optee/optee_os/lib/libutils/isoc/bget_malloc.c:563
    6c38:	8a150294 	and	x20, x20, x21
/home/rahulmahadev/hikey_optee/optee_os/lib/libutils/isoc/bget_malloc.c:565
    6c3c:	cb020280 	sub	x0, x20, x2
/home/rahulmahadev/hikey_optee/optee_os/lib/libutils/isoc/bget_malloc.c:566
    6c40:	8b160296 	add	x22, x20, x22
    6c44:	f1007c1f 	cmp	x0, #0x1f
    6c48:	9a9492d4 	csel	x20, x22, x20, ls
/home/rahulmahadev/hikey_optee/optee_os/lib/libutils/isoc/bget_malloc.c:567
    6c4c:	8b130280 	add	x0, x20, x19
    6c50:	eb17001f 	cmp	x0, x23
    6c54:	540000e9 	b.ls	6c70 <memalign+0xd0>
    6c58:	f0000021 	adrp	x1, d000 <PRIME_TABLE+0x388>
    6c5c:	f0000020 	adrp	x0, d000 <PRIME_TABLE+0x388>
    6c60:	528046e2 	mov	w2, #0x237                 	// #567
    6c64:	91290821 	add	x1, x1, #0xa42
    6c68:	91332400 	add	x0, x0, #0xcc9
    6c6c:	14000008 	b	6c8c <memalign+0xec>
brel_before():
/home/rahulmahadev/hikey_optee/optee_os/lib/libutils/isoc/bget_malloc.c:404
    6c70:	eb14005f 	cmp	x2, x20
    6c74:	54000103 	b.cc	6c94 <memalign+0xf4>
    6c78:	f0000021 	adrp	x1, d000 <PRIME_TABLE+0x388>
    6c7c:	f0000020 	adrp	x0, d000 <PRIME_TABLE+0x388>
    6c80:	52803282 	mov	w2, #0x194                 	// #404
    6c84:	91290821 	add	x1, x1, #0xa42
    6c88:	9133d400 	add	x0, x0, #0xcf5
    6c8c:	97fffbf5 	bl	5c60 <_assert_log>
    6c90:	97fffbff 	bl	5c8c <_assert_break>
/home/rahulmahadev/hikey_optee/optee_os/lib/libutils/isoc/bget_malloc.c:406
    6c94:	cb020281 	sub	x1, x20, x2
/home/rahulmahadev/hikey_optee/optee_os/lib/libutils/isoc/bget_malloc.c:407
    6c98:	f1007c3f 	cmp	x1, #0x1f
    6c9c:	540000e8 	b.hi	6cb8 <memalign+0x118>
    6ca0:	f0000021 	adrp	x1, d000 <PRIME_TABLE+0x388>
    6ca4:	f0000020 	adrp	x0, d000 <PRIME_TABLE+0x388>
    6ca8:	528032e2 	mov	w2, #0x197                 	// #407
    6cac:	91290821 	add	x1, x1, #0xa42
    6cb0:	91342000 	add	x0, x0, #0xd08
    6cb4:	17fffff6 	b	6c8c <memalign+0xec>
/home/rahulmahadev/hikey_optee/optee_os/lib/libutils/isoc/bget_malloc.c:416
    6cb8:	f85f0044 	ldr	x4, [x2,#-16]
/home/rahulmahadev/hikey_optee/optee_os/lib/libutils/isoc/bget_malloc.c:410
    6cbc:	d1004040 	sub	x0, x2, #0x10
/home/rahulmahadev/hikey_optee/optee_os/lib/libutils/isoc/bget_malloc.c:411
    6cc0:	f85f8043 	ldr	x3, [x2,#-8]
    6cc4:	8b030022 	add	x2, x1, x3
/home/rahulmahadev/hikey_optee/optee_os/lib/libutils/isoc/bget_malloc.c:416
    6cc8:	b4000204 	cbz	x4, 6d08 <memalign+0x168>
/home/rahulmahadev/hikey_optee/optee_os/lib/libutils/isoc/bget_malloc.c:421
    6ccc:	cb040000 	sub	x0, x0, x4
/home/rahulmahadev/hikey_optee/optee_os/lib/libutils/isoc/bget_malloc.c:422
    6cd0:	f9400403 	ldr	x3, [x0,#8]
    6cd4:	eb04007f 	cmp	x3, x4
    6cd8:	540000e0 	b.eq	6cf4 <memalign+0x154>
    6cdc:	f0000021 	adrp	x1, d000 <PRIME_TABLE+0x388>
    6ce0:	f0000020 	adrp	x0, d000 <PRIME_TABLE+0x388>
    6ce4:	528034c2 	mov	w2, #0x1a6                 	// #422
    6ce8:	91290821 	add	x1, x1, #0xa42
    6cec:	9134bc00 	add	x0, x0, #0xd2f
    6cf0:	17ffffe7 	b	6c8c <memalign+0xec>
/home/rahulmahadev/hikey_optee/optee_os/lib/libutils/isoc/bget_malloc.c:423
    6cf4:	8b010061 	add	x1, x3, x1
    6cf8:	f9000401 	str	x1, [x0,#8]
/home/rahulmahadev/hikey_optee/optee_os/lib/libutils/isoc/bget_malloc.c:426
    6cfc:	f81f0281 	str	x1, [x20,#-16]
/home/rahulmahadev/hikey_optee/optee_os/lib/libutils/isoc/bget_malloc.c:428
    6d00:	f81f8282 	str	x2, [x20,#-8]
    6d04:	14000004 	b	6d14 <memalign+0x174>
/home/rahulmahadev/hikey_optee/optee_os/lib/libutils/isoc/bget_malloc.c:436
    6d08:	f81f8282 	str	x2, [x20,#-8]
/home/rahulmahadev/hikey_optee/optee_os/lib/libutils/isoc/bget_malloc.c:438
    6d0c:	d1004282 	sub	x2, x20, #0x10
    6d10:	97fffdfa 	bl	64f8 <create_free_block>
raw_memalign():
/home/rahulmahadev/hikey_optee/optee_os/lib/libutils/isoc/bget_malloc.c:580
    6d14:	f100427f 	cmp	x19, #0x10
    6d18:	d2800203 	mov	x3, #0x10                  	// #16
    6d1c:	9a832263 	csel	x3, x19, x3, cs
brel_after():
/home/rahulmahadev/hikey_optee/optee_os/lib/libutils/isoc/bget_malloc.c:463
    6d20:	f85f8282 	ldr	x2, [x20,#-8]
/home/rahulmahadev/hikey_optee/optee_os/lib/libutils/isoc/bget_malloc.c:459
    6d24:	91001c63 	add	x3, x3, #0x7
/home/rahulmahadev/hikey_optee/optee_os/lib/libutils/isoc/bget_malloc.c:463
    6d28:	d1004285 	sub	x5, x20, #0x10
/home/rahulmahadev/hikey_optee/optee_os/lib/libutils/isoc/bget_malloc.c:459
    6d2c:	927df063 	and	x3, x3, #0xfffffffffffffff8
/home/rahulmahadev/hikey_optee/optee_os/lib/libutils/isoc/bget_malloc.c:463
    6d30:	cb0203e1 	neg	x1, x2
/home/rahulmahadev/hikey_optee/optee_os/lib/libutils/isoc/bget_malloc.c:462
    6d34:	91004063 	add	x3, x3, #0x10
/home/rahulmahadev/hikey_optee/optee_os/lib/libutils/isoc/bget_malloc.c:463
    6d38:	eb01007f 	cmp	x3, x1
    6d3c:	540000ed 	b.le	6d58 <memalign+0x1b8>
    6d40:	f0000021 	adrp	x1, d000 <PRIME_TABLE+0x388>
    6d44:	f0000020 	adrp	x0, d000 <PRIME_TABLE+0x388>
    6d48:	528039e2 	mov	w2, #0x1cf                 	// #463
    6d4c:	91290821 	add	x1, x1, #0xa42
    6d50:	91354000 	add	x0, x0, #0xd50
    6d54:	17ffffce 	b	6c8c <memalign+0xec>
/home/rahulmahadev/hikey_optee/optee_os/lib/libutils/isoc/bget_malloc.c:469
    6d58:	cb030021 	sub	x1, x1, x3
/home/rahulmahadev/hikey_optee/optee_os/lib/libutils/isoc/bget_malloc.c:470
    6d5c:	f1007c3f 	cmp	x1, #0x1f
    6d60:	54000749 	b.ls	6e48 <memalign+0x2a8>
/home/rahulmahadev/hikey_optee/optee_os/lib/libutils/isoc/bget_malloc.c:473
    6d64:	cb0200a2 	sub	x2, x5, x2
/home/rahulmahadev/hikey_optee/optee_os/lib/libutils/isoc/bget_malloc.c:477
    6d68:	cb0303e0 	neg	x0, x3
    6d6c:	f81f8280 	str	x0, [x20,#-8]
    6d70:	8b0300a0 	add	x0, x5, x3
/home/rahulmahadev/hikey_optee/optee_os/lib/libutils/isoc/bget_malloc.c:478
    6d74:	f9400446 	ldr	x6, [x2,#8]
    6d78:	eb1f00df 	cmp	x6, xzr
    6d7c:	5400064d 	b.le	6e44 <memalign+0x2a4>
/home/rahulmahadev/hikey_optee/optee_os/lib/libutils/isoc/bget_malloc.c:484
    6d80:	f9400044 	ldr	x4, [x2]
    6d84:	b40000e4 	cbz	x4, 6da0 <memalign+0x200>
    6d88:	f0000021 	adrp	x1, d000 <PRIME_TABLE+0x388>
    6d8c:	f0000020 	adrp	x0, d000 <PRIME_TABLE+0x388>
    6d90:	52803c82 	mov	w2, #0x1e4                 	// #484
    6d94:	91290821 	add	x1, x1, #0xa42
    6d98:	91359800 	add	x0, x0, #0xd66
    6d9c:	17ffffbc 	b	6c8c <memalign+0xec>
/home/rahulmahadev/hikey_optee/optee_os/lib/libutils/isoc/bget_malloc.c:485
    6da0:	f8666844 	ldr	x4, [x2,x6]
    6da4:	eb06009f 	cmp	x4, x6
    6da8:	540000e0 	b.eq	6dc4 <memalign+0x224>
    6dac:	f0000021 	adrp	x1, d000 <PRIME_TABLE+0x388>
    6db0:	f0000020 	adrp	x0, d000 <PRIME_TABLE+0x388>
    6db4:	52803ca2 	mov	w2, #0x1e5                 	// #485
    6db8:	91290821 	add	x1, x1, #0xa42
    6dbc:	9135f000 	add	x0, x0, #0xd7c
    6dc0:	17ffffb3 	b	6c8c <memalign+0xec>
/home/rahulmahadev/hikey_optee/optee_os/lib/libutils/isoc/bget_malloc.c:488
    6dc4:	f82368bf 	str	xzr, [x5,x3]
/home/rahulmahadev/hikey_optee/optee_os/lib/libutils/isoc/bget_malloc.c:489
    6dc8:	8b010083 	add	x3, x4, x1
    6dcc:	f9000403 	str	x3, [x0,#8]
/home/rahulmahadev/hikey_optee/optee_os/lib/libutils/isoc/bget_malloc.c:492
    6dd0:	f8646843 	ldr	x3, [x2,x4]
    6dd4:	8b010061 	add	x1, x3, x1
    6dd8:	f8246841 	str	x1, [x2,x4]
/home/rahulmahadev/hikey_optee/optee_os/lib/libutils/isoc/bget_malloc.c:498
    6ddc:	f9400c41 	ldr	x1, [x2,#24]
    6de0:	f9400823 	ldr	x3, [x1,#16]
    6de4:	eb02007f 	cmp	x3, x2
    6de8:	540000e0 	b.eq	6e04 <memalign+0x264>
    6dec:	f0000021 	adrp	x1, d000 <PRIME_TABLE+0x388>
    6df0:	f0000020 	adrp	x0, d000 <PRIME_TABLE+0x388>
    6df4:	52803e42 	mov	w2, #0x1f2                 	// #498
    6df8:	91290821 	add	x1, x1, #0xa42
    6dfc:	91366c00 	add	x0, x0, #0xd9b
    6e00:	17ffffa3 	b	6c8c <memalign+0xec>
/home/rahulmahadev/hikey_optee/optee_os/lib/libutils/isoc/bget_malloc.c:499
    6e04:	f9400862 	ldr	x2, [x3,#16]
    6e08:	f9400c44 	ldr	x4, [x2,#24]
    6e0c:	eb03009f 	cmp	x4, x3
    6e10:	540000e0 	b.eq	6e2c <memalign+0x28c>
    6e14:	f0000021 	adrp	x1, d000 <PRIME_TABLE+0x388>
    6e18:	f0000020 	adrp	x0, d000 <PRIME_TABLE+0x388>
    6e1c:	52803e62 	mov	w2, #0x1f3                 	// #499
    6e20:	91290821 	add	x1, x1, #0xa42
    6e24:	9136e800 	add	x0, x0, #0xdba
    6e28:	17ffff99 	b	6c8c <memalign+0xec>
/home/rahulmahadev/hikey_optee/optee_os/lib/libutils/isoc/bget_malloc.c:502
    6e2c:	f9000c01 	str	x1, [x0,#24]
/home/rahulmahadev/hikey_optee/optee_os/lib/libutils/isoc/bget_malloc.c:503
    6e30:	f9000802 	str	x2, [x0,#16]
/home/rahulmahadev/hikey_optee/optee_os/lib/libutils/isoc/bget_malloc.c:506
    6e34:	f9000820 	str	x0, [x1,#16]
/home/rahulmahadev/hikey_optee/optee_os/lib/libutils/isoc/bget_malloc.c:507
    6e38:	f9400801 	ldr	x1, [x0,#16]
    6e3c:	f9000c20 	str	x0, [x1,#24]
    6e40:	14000002 	b	6e48 <memalign+0x2a8>
/home/rahulmahadev/hikey_optee/optee_os/lib/libutils/isoc/bget_malloc.c:510
    6e44:	97fffdad 	bl	64f8 <create_free_block>
raw_memalign():
/home/rahulmahadev/hikey_optee/optee_os/lib/libutils/isoc/bget_malloc.c:584
    6e48:	aa1403e0 	mov	x0, x20
memalign():
/home/rahulmahadev/hikey_optee/optee_os/lib/libutils/isoc/bget_malloc.c:858
    6e4c:	a94153f3 	ldp	x19, x20, [sp,#16]
    6e50:	a9425bf5 	ldp	x21, x22, [sp,#32]
    6e54:	f9401bf7 	ldr	x23, [sp,#48]
    6e58:	a8c47bfd 	ldp	x29, x30, [sp],#64
    6e5c:	d65f03c0 	ret

0000000000006e60 <malloc_add_pool>:
malloc_add_pool():
/home/rahulmahadev/hikey_optee/optee_os/lib/libutils/isoc/bget_malloc.c:869
    6e60:	a9bc7bfd 	stp	x29, x30, [sp,#-64]!
/home/rahulmahadev/hikey_optee/optee_os/lib/libutils/isoc/bget_malloc.c:873
    6e64:	8b010001 	add	x1, x0, x1
/home/rahulmahadev/hikey_optee/optee_os/lib/libutils/isoc/bget_malloc.c:875
    6e68:	91001c00 	add	x0, x0, #0x7
/home/rahulmahadev/hikey_optee/optee_os/lib/libutils/isoc/bget_malloc.c:869
    6e6c:	910003fd 	mov	x29, sp
    6e70:	a90153f3 	stp	x19, x20, [sp,#16]
/home/rahulmahadev/hikey_optee/optee_os/lib/libutils/isoc/bget_malloc.c:875
    6e74:	927df013 	and	x19, x0, #0xfffffffffffffff8
/home/rahulmahadev/hikey_optee/optee_os/lib/libutils/isoc/bget_malloc.c:876
    6e78:	927df034 	and	x20, x1, #0xfffffffffffffff8
/home/rahulmahadev/hikey_optee/optee_os/lib/libutils/isoc/bget_malloc.c:869
    6e7c:	a9025bf5 	stp	x21, x22, [sp,#32]
    6e80:	f9001bf7 	str	x23, [sp,#48]
/home/rahulmahadev/hikey_optee/optee_os/lib/libutils/isoc/bget_malloc.c:877
    6e84:	eb14027f 	cmp	x19, x20
    6e88:	540000e3 	b.cc	6ea4 <malloc_add_pool+0x44>
/home/rahulmahadev/hikey_optee/optee_os/lib/libutils/isoc/bget_malloc.c:877 (discriminator 1)
    6e8c:	f0000021 	adrp	x1, d000 <PRIME_TABLE+0x388>
    6e90:	f0000020 	adrp	x0, d000 <PRIME_TABLE+0x388>
    6e94:	52806da2 	mov	w2, #0x36d                 	// #877
    6e98:	91290821 	add	x1, x1, #0xa42
    6e9c:	91376400 	add	x0, x0, #0xdd9
    6ea0:	14000014 	b	6ef0 <malloc_add_pool+0x90>
/home/rahulmahadev/hikey_optee/optee_os/lib/libutils/isoc/bget_malloc.c:880
    6ea4:	cb130294 	sub	x20, x20, x19
/home/rahulmahadev/hikey_optee/optee_os/lib/libutils/isoc/bget_malloc.c:881
    6ea8:	d0000096 	adrp	x22, 18000 <mempool_u32+0xe58>
/home/rahulmahadev/hikey_optee/optee_os/lib/libutils/isoc/bget_malloc.c:880
    6eac:	aa1403e1 	mov	x1, x20
    6eb0:	aa1303e0 	mov	x0, x19
/home/rahulmahadev/hikey_optee/optee_os/lib/libutils/isoc/bget_malloc.c:882
    6eb4:	d0000097 	adrp	x23, 18000 <mempool_u32+0xe58>
/home/rahulmahadev/hikey_optee/optee_os/lib/libutils/isoc/bget_malloc.c:880
    6eb8:	97fffee5 	bl	6a4c <bpool>
/home/rahulmahadev/hikey_optee/optee_os/lib/libutils/isoc/bget_malloc.c:881
    6ebc:	f9467ad5 	ldr	x21, [x22,#3312]
    6ec0:	910006b5 	add	x21, x21, #0x1
raw_realloc():
/home/rahulmahadev/hikey_optee/optee_os/lib/libutils/isoc/bget_malloc.c:368
    6ec4:	f94676e0 	ldr	x0, [x23,#3304]
malloc_add_pool():
/home/rahulmahadev/hikey_optee/optee_os/lib/libutils/isoc/bget_malloc.c:882
    6ec8:	d37ceea1 	lsl	x1, x21, #4
raw_realloc():
/home/rahulmahadev/hikey_optee/optee_os/lib/libutils/isoc/bget_malloc.c:366
    6ecc:	eb1f003f 	cmp	x1, xzr
/home/rahulmahadev/hikey_optee/optee_os/lib/libutils/isoc/bget_malloc.c:368
    6ed0:	9a9f1421 	csinc	x1, x1, xzr, ne
    6ed4:	97fffeb8 	bl	69b4 <bgetr>
malloc_add_pool():
/home/rahulmahadev/hikey_optee/optee_os/lib/libutils/isoc/bget_malloc.c:883
    6ed8:	b5000100 	cbnz	x0, 6ef8 <malloc_add_pool+0x98>
/home/rahulmahadev/hikey_optee/optee_os/lib/libutils/isoc/bget_malloc.c:883 (discriminator 1)
    6edc:	f0000021 	adrp	x1, d000 <PRIME_TABLE+0x388>
    6ee0:	f0000020 	adrp	x0, d000 <PRIME_TABLE+0x388>
    6ee4:	52806e62 	mov	w2, #0x373                 	// #883
    6ee8:	91290821 	add	x1, x1, #0xa42
    6eec:	91379400 	add	x0, x0, #0xde5
    6ef0:	97fffb5c 	bl	5c60 <_assert_log>
    6ef4:	97fffb66 	bl	5c8c <_assert_break>
/home/rahulmahadev/hikey_optee/optee_os/lib/libutils/isoc/bget_malloc.c:885
    6ef8:	f9467ac1 	ldr	x1, [x22,#3312]
/home/rahulmahadev/hikey_optee/optee_os/lib/libutils/isoc/bget_malloc.c:884
    6efc:	f90676e0 	str	x0, [x23,#3304]
/home/rahulmahadev/hikey_optee/optee_os/lib/libutils/isoc/bget_malloc.c:885
    6f00:	d37cec21 	lsl	x1, x1, #4
/home/rahulmahadev/hikey_optee/optee_os/lib/libutils/isoc/bget_malloc.c:887
    6f04:	f9067ad5 	str	x21, [x22,#3312]
/home/rahulmahadev/hikey_optee/optee_os/lib/libutils/isoc/bget_malloc.c:885
    6f08:	8b010002 	add	x2, x0, x1
/home/rahulmahadev/hikey_optee/optee_os/lib/libutils/isoc/bget_malloc.c:889
    6f0c:	f9401bf7 	ldr	x23, [sp,#48]
    6f10:	a9425bf5 	ldp	x21, x22, [sp,#32]
/home/rahulmahadev/hikey_optee/optee_os/lib/libutils/isoc/bget_malloc.c:885
    6f14:	f8216813 	str	x19, [x0,x1]
/home/rahulmahadev/hikey_optee/optee_os/lib/libutils/isoc/bget_malloc.c:886
    6f18:	f9000454 	str	x20, [x2,#8]
/home/rahulmahadev/hikey_optee/optee_os/lib/libutils/isoc/bget_malloc.c:889
    6f1c:	a94153f3 	ldp	x19, x20, [sp,#16]
    6f20:	a8c47bfd 	ldp	x29, x30, [sp],#64
    6f24:	d65f03c0 	ret

0000000000006f28 <malloc_buffer_is_within_alloced>:
malloc_buffer_is_within_alloced():
/home/rahulmahadev/hikey_optee/optee_os/lib/libutils/isoc/bget_malloc.c:892
    6f28:	a9bf7bfd 	stp	x29, x30, [sp,#-16]!
/home/rahulmahadev/hikey_optee/optee_os/lib/libutils/isoc/bget_malloc.c:896
    6f2c:	8b010001 	add	x1, x0, x1
/home/rahulmahadev/hikey_optee/optee_os/lib/libutils/isoc/bget_malloc.c:904
    6f30:	eb01001f 	cmp	x0, x1
/home/rahulmahadev/hikey_optee/optee_os/lib/libutils/isoc/bget_malloc.c:892
    6f34:	910003fd 	mov	x29, sp
/home/rahulmahadev/hikey_optee/optee_os/lib/libutils/isoc/bget_malloc.c:904
    6f38:	54000548 	b.hi	6fe0 <malloc_buffer_is_within_alloced+0xb8>
bpool_foreach_iterator_init():
/home/rahulmahadev/hikey_optee/optee_os/lib/libutils/isoc/bget_malloc.c:236
    6f3c:	d0000082 	adrp	x2, 18000 <mempool_u32+0xe58>
/home/rahulmahadev/hikey_optee/optee_os/lib/libutils/isoc/bget_malloc.c:235
    6f40:	d2800005 	mov	x5, #0x0                   	// #0
bpool_foreach_pool():
/home/rahulmahadev/hikey_optee/optee_os/lib/libutils/isoc/bget_malloc.c:245
    6f44:	d2f0000a 	mov	x10, #0x8000000000000000    	// #-9223372036854775808
bpool_foreach_iterator_init():
/home/rahulmahadev/hikey_optee/optee_os/lib/libutils/isoc/bget_malloc.c:236
    6f48:	f9467446 	ldr	x6, [x2,#3304]
bpool_foreach():
/home/rahulmahadev/hikey_optee/optee_os/lib/libutils/isoc/bget_malloc.c:281
    6f4c:	d0000082 	adrp	x2, 18000 <mempool_u32+0xe58>
bpool_foreach_iterator_init():
/home/rahulmahadev/hikey_optee/optee_os/lib/libutils/isoc/bget_malloc.c:236
    6f50:	f94000c3 	ldr	x3, [x6]
bpool_foreach():
/home/rahulmahadev/hikey_optee/optee_os/lib/libutils/isoc/bget_malloc.c:281
    6f54:	f9467849 	ldr	x9, [x2,#3312]
bpool_foreach_pool():
/home/rahulmahadev/hikey_optee/optee_os/lib/libutils/isoc/bget_malloc.c:243
    6f58:	f9400462 	ldr	x2, [x3,#8]
bpool_foreach_iterator_init():
/home/rahulmahadev/hikey_optee/optee_os/lib/libutils/isoc/bget_malloc.c:235
    6f5c:	aa0303e4 	mov	x4, x3
bpool_foreach_pool():
/home/rahulmahadev/hikey_optee/optee_os/lib/libutils/isoc/bget_malloc.c:245
    6f60:	eb0a005f 	cmp	x2, x10
    6f64:	54000420 	b.eq	6fe8 <malloc_buffer_is_within_alloced+0xc0>
/home/rahulmahadev/hikey_optee/optee_os/lib/libutils/isoc/bget_malloc.c:248
    6f68:	b6f80082 	tbz	x2, #63, 6f78 <malloc_buffer_is_within_alloced+0x50>
/home/rahulmahadev/hikey_optee/optee_os/lib/libutils/isoc/bget_malloc.c:250
    6f6c:	cb0203e8 	neg	x8, x2
/home/rahulmahadev/hikey_optee/optee_os/lib/libutils/isoc/bget_malloc.c:252
    6f70:	52800007 	mov	w7, #0x0                   	// #0
    6f74:	14000018 	b	6fd4 <malloc_buffer_is_within_alloced+0xac>
/home/rahulmahadev/hikey_optee/optee_os/lib/libutils/isoc/bget_malloc.c:258
    6f78:	f9400c67 	ldr	x7, [x3,#24]
    6f7c:	f94008e7 	ldr	x7, [x7,#16]
    6f80:	eb0300ff 	cmp	x7, x3
    6f84:	54000100 	b.eq	6fa4 <malloc_buffer_is_within_alloced+0x7c>
    6f88:	f0000021 	adrp	x1, d000 <PRIME_TABLE+0x388>
    6f8c:	f0000020 	adrp	x0, d000 <PRIME_TABLE+0x388>
    6f90:	52802042 	mov	w2, #0x102                 	// #258
    6f94:	91290821 	add	x1, x1, #0xa42
    6f98:	912d0400 	add	x0, x0, #0xb41
    6f9c:	97fffb31 	bl	5c60 <_assert_log>
    6fa0:	97fffb3b 	bl	5c8c <_assert_break>
/home/rahulmahadev/hikey_optee/optee_os/lib/libutils/isoc/bget_malloc.c:259
    6fa4:	f9400867 	ldr	x7, [x3,#16]
    6fa8:	f9400ce7 	ldr	x7, [x7,#24]
    6fac:	eb0300ff 	cmp	x7, x3
    6fb0:	540000e0 	b.eq	6fcc <malloc_buffer_is_within_alloced+0xa4>
    6fb4:	f0000021 	adrp	x1, d000 <PRIME_TABLE+0x388>
    6fb8:	f0000020 	adrp	x0, d000 <PRIME_TABLE+0x388>
    6fbc:	52802062 	mov	w2, #0x103                 	// #259
    6fc0:	91290821 	add	x1, x1, #0xa42
    6fc4:	912d7000 	add	x0, x0, #0xb5c
    6fc8:	17fffff5 	b	6f9c <malloc_buffer_is_within_alloced+0x74>
    6fcc:	aa0203e8 	mov	x8, x2
/home/rahulmahadev/hikey_optee/optee_os/lib/libutils/isoc/bget_malloc.c:255
    6fd0:	52800027 	mov	w7, #0x1                   	// #1
/home/rahulmahadev/hikey_optee/optee_os/lib/libutils/isoc/bget_malloc.c:265
    6fd4:	8b080063 	add	x3, x3, x8
bpool_foreach():
/home/rahulmahadev/hikey_optee/optee_os/lib/libutils/isoc/bget_malloc.c:276
    6fd8:	35fffc07 	cbnz	w7, 6f58 <malloc_buffer_is_within_alloced+0x30>
    6fdc:	14000009 	b	7000 <malloc_buffer_is_within_alloced+0xd8>
malloc_buffer_is_within_alloced():
/home/rahulmahadev/hikey_optee/optee_os/lib/libutils/isoc/bget_malloc.c:897
    6fe0:	52800000 	mov	w0, #0x0                   	// #0
    6fe4:	14000018 	b	7044 <malloc_buffer_is_within_alloced+0x11c>
bpool_foreach():
/home/rahulmahadev/hikey_optee/optee_os/lib/libutils/isoc/bget_malloc.c:281
    6fe8:	910004a5 	add	x5, x5, #0x1
    6fec:	eb0900bf 	cmp	x5, x9
    6ff0:	54ffff82 	b.cs	6fe0 <malloc_buffer_is_within_alloced+0xb8>
/home/rahulmahadev/hikey_optee/optee_os/lib/libutils/isoc/bget_malloc.c:285
    6ff4:	d37ceca2 	lsl	x2, x5, #4
    6ff8:	f86268c3 	ldr	x3, [x6,x2]
    6ffc:	17ffffd7 	b	6f58 <malloc_buffer_is_within_alloced+0x30>
bget_buf_size():
/home/rahulmahadev/hikey_optee/optee_os/lib/libutils/isoc/bget_malloc.c:594
    7000:	cb0203e2 	neg	x2, x2
bpool_foreach_pool():
/home/rahulmahadev/hikey_optee/optee_os/lib/libutils/isoc/bget_malloc.c:262
    7004:	91004084 	add	x4, x4, #0x10
bget_buf_size():
/home/rahulmahadev/hikey_optee/optee_os/lib/libutils/isoc/bget_malloc.c:604
    7008:	d1004042 	sub	x2, x2, #0x10
/home/rahulmahadev/hikey_optee/optee_os/lib/libutils/isoc/bget_malloc.c:605
    700c:	eb1f005f 	cmp	x2, xzr
    7010:	540000ec 	b.gt	702c <malloc_buffer_is_within_alloced+0x104>
    7014:	d0000021 	adrp	x1, d000 <PRIME_TABLE+0x388>
    7018:	d0000020 	adrp	x0, d000 <PRIME_TABLE+0x388>
    701c:	52804ba2 	mov	w2, #0x25d                 	// #605
    7020:	91290821 	add	x1, x1, #0xa42
    7024:	91322800 	add	x0, x0, #0xc8a
    7028:	17ffffdd 	b	6f9c <malloc_buffer_is_within_alloced+0x74>
malloc_buffer_is_within_alloced():
/home/rahulmahadev/hikey_optee/optee_os/lib/libutils/isoc/bget_malloc.c:913
    702c:	8b020082 	add	x2, x4, x2
/home/rahulmahadev/hikey_optee/optee_os/lib/libutils/isoc/bget_malloc.c:915
    7030:	eb02003f 	cmp	x1, x2
    7034:	54fff928 	b.hi	6f58 <malloc_buffer_is_within_alloced+0x30>
    7038:	eb04001f 	cmp	x0, x4
    703c:	54fff8e3 	b.cc	6f58 <malloc_buffer_is_within_alloced+0x30>
/home/rahulmahadev/hikey_optee/optee_os/lib/libutils/isoc/bget_malloc.c:916
    7040:	52800020 	mov	w0, #0x1                   	// #1
/home/rahulmahadev/hikey_optee/optee_os/lib/libutils/isoc/bget_malloc.c:925
    7044:	a8c17bfd 	ldp	x29, x30, [sp],#16
    7048:	d65f03c0 	ret

000000000000704c <malloc_buffer_overlaps_heap>:
malloc_buffer_overlaps_heap():
/home/rahulmahadev/hikey_optee/optee_os/lib/libutils/isoc/bget_malloc.c:938
    704c:	b0000082 	adrp	x2, 18000 <mempool_u32+0xe58>
/home/rahulmahadev/hikey_optee/optee_os/lib/libutils/isoc/bget_malloc.c:930
    7050:	8b010001 	add	x1, x0, x1
/home/rahulmahadev/hikey_optee/optee_os/lib/libutils/isoc/bget_malloc.c:938
    7054:	d2800004 	mov	x4, #0x0                   	// #0
    7058:	f9467846 	ldr	x6, [x2,#3312]
/home/rahulmahadev/hikey_optee/optee_os/lib/libutils/isoc/bget_malloc.c:939
    705c:	b0000082 	adrp	x2, 18000 <mempool_u32+0xe58>
    7060:	f9467442 	ldr	x2, [x2,#3304]
/home/rahulmahadev/hikey_optee/optee_os/lib/libutils/isoc/bget_malloc.c:938 (discriminator 1)
    7064:	eb06009f 	cmp	x4, x6
    7068:	540001e0 	b.eq	70a4 <malloc_buffer_overlaps_heap+0x58>
/home/rahulmahadev/hikey_optee/optee_os/lib/libutils/isoc/bget_malloc.c:939
    706c:	f9400045 	ldr	x5, [x2]
/home/rahulmahadev/hikey_optee/optee_os/lib/libutils/isoc/bget_malloc.c:940
    7070:	f9400443 	ldr	x3, [x2,#8]
    7074:	8b0300a3 	add	x3, x5, x3
/home/rahulmahadev/hikey_optee/optee_os/lib/libutils/isoc/bget_malloc.c:942
    7078:	eb0300bf 	cmp	x5, x3
    707c:	54000188 	b.hi	70ac <malloc_buffer_overlaps_heap+0x60>
    7080:	eb01001f 	cmp	x0, x1
    7084:	54000148 	b.hi	70ac <malloc_buffer_overlaps_heap+0x60>
/home/rahulmahadev/hikey_optee/optee_os/lib/libutils/isoc/bget_malloc.c:947
    7088:	eb03001f 	cmp	x0, x3
    708c:	91004042 	add	x2, x2, #0x10
    7090:	540000e3 	b.cc	70ac <malloc_buffer_overlaps_heap+0x60>
    7094:	eb05003f 	cmp	x1, x5
    7098:	540000a8 	b.hi	70ac <malloc_buffer_overlaps_heap+0x60>
/home/rahulmahadev/hikey_optee/optee_os/lib/libutils/isoc/bget_malloc.c:938 (discriminator 2)
    709c:	91000484 	add	x4, x4, #0x1
    70a0:	17fffff1 	b	7064 <malloc_buffer_overlaps_heap+0x18>
/home/rahulmahadev/hikey_optee/optee_os/lib/libutils/isoc/bget_malloc.c:932
    70a4:	52800000 	mov	w0, #0x0                   	// #0
    70a8:	14000002 	b	70b0 <malloc_buffer_overlaps_heap+0x64>
/home/rahulmahadev/hikey_optee/optee_os/lib/libutils/isoc/bget_malloc.c:943
    70ac:	52800020 	mov	w0, #0x1                   	// #1
/home/rahulmahadev/hikey_optee/optee_os/lib/libutils/isoc/bget_malloc.c:956
    70b0:	d65f03c0 	ret

00000000000070b4 <snprintf>:
snprintf():
/home/rahulmahadev/hikey_optee/optee_os/lib/libutils/isoc/snprintf.c:32
    70b4:	a9b87bfd 	stp	x29, x30, [sp,#-128]!
    70b8:	910003fd 	mov	x29, sp
    70bc:	f9002fa3 	str	x3, [x29,#88]
/home/rahulmahadev/hikey_optee/optee_os/lib/libutils/isoc/snprintf.c:36
    70c0:	910203a3 	add	x3, x29, #0x80
    70c4:	f9001ba3 	str	x3, [x29,#48]
    70c8:	f9001fa3 	str	x3, [x29,#56]
    70cc:	910143a3 	add	x3, x29, #0x50
    70d0:	b9004fbf 	str	wzr, [x29,#76]
    70d4:	f90023a3 	str	x3, [x29,#64]
    70d8:	128004e3 	mov	w3, #0xffffffd8            	// #-40
    70dc:	b9004ba3 	str	w3, [x29,#72]
/home/rahulmahadev/hikey_optee/optee_os/lib/libutils/isoc/snprintf.c:37
    70e0:	910043a3 	add	x3, x29, #0x10
/home/rahulmahadev/hikey_optee/optee_os/lib/libutils/isoc/snprintf.c:32
    70e4:	f90033a4 	str	x4, [x29,#96]
    70e8:	f90037a5 	str	x5, [x29,#104]
/home/rahulmahadev/hikey_optee/optee_os/lib/libutils/isoc/snprintf.c:37
    70ec:	a94317a4 	ldp	x4, x5, [x29,#48]
    70f0:	a90117a4 	stp	x4, x5, [x29,#16]
    70f4:	a94417a4 	ldp	x4, x5, [x29,#64]
    70f8:	a90217a4 	stp	x4, x5, [x29,#32]
    70fc:	52800004 	mov	w4, #0x0                   	// #0
/home/rahulmahadev/hikey_optee/optee_os/lib/libutils/isoc/snprintf.c:32
    7100:	f9003ba6 	str	x6, [x29,#112]
    7104:	f9003fa7 	str	x7, [x29,#120]
/home/rahulmahadev/hikey_optee/optee_os/lib/libutils/isoc/snprintf.c:37
    7108:	9400005c 	bl	7278 <__vsnprintf>
/home/rahulmahadev/hikey_optee/optee_os/lib/libutils/isoc/snprintf.c:41
    710c:	a8c87bfd 	ldp	x29, x30, [sp],#128
    7110:	d65f03c0 	ret

0000000000007114 <vsnprintf>:
vsnprintf():
/home/rahulmahadev/hikey_optee/optee_os/lib/libutils/isoc/snprintf.c:44
    7114:	a9bb7bfd 	stp	x29, x30, [sp,#-80]!
    7118:	910003fd 	mov	x29, sp
/home/rahulmahadev/hikey_optee/optee_os/lib/libutils/isoc/snprintf.c:45
    711c:	9100c3a4 	add	x4, x29, #0x30
/home/rahulmahadev/hikey_optee/optee_os/lib/libutils/isoc/snprintf.c:44
    7120:	f90013f5 	str	x21, [sp,#32]
    7124:	a90153f3 	stp	x19, x20, [sp,#16]
    7128:	aa0203f5 	mov	x21, x2
    712c:	aa0003f3 	mov	x19, x0
    7130:	aa0103f4 	mov	x20, x1
/home/rahulmahadev/hikey_optee/optee_os/lib/libutils/isoc/snprintf.c:45
    7134:	d2800402 	mov	x2, #0x20                  	// #32
    7138:	aa0303e1 	mov	x1, x3
    713c:	aa0403e0 	mov	x0, x4
    7140:	94000018 	bl	71a0 <memcpy>
    7144:	aa0003e3 	mov	x3, x0
    7148:	aa1503e2 	mov	x2, x21
    714c:	aa1403e1 	mov	x1, x20
    7150:	52800004 	mov	w4, #0x0                   	// #0
    7154:	aa1303e0 	mov	x0, x19
    7158:	94000048 	bl	7278 <__vsnprintf>
/home/rahulmahadev/hikey_optee/optee_os/lib/libutils/isoc/snprintf.c:46
    715c:	f94013f5 	ldr	x21, [sp,#32]
    7160:	a94153f3 	ldp	x19, x20, [sp,#16]
    7164:	a8c57bfd 	ldp	x29, x30, [sp],#80
    7168:	d65f03c0 	ret

000000000000716c <memcmp>:
memcmp():
/home/rahulmahadev/hikey_optee/optee_os/lib/libutils/isoc/newlib/memcmp.c:89
    716c:	d2800004 	mov	x4, #0x0                   	// #0
    7170:	eb02009f 	cmp	x4, x2
    7174:	54000120 	b.eq	7198 <memcmp+0x2c>
/home/rahulmahadev/hikey_optee/optee_os/lib/libutils/isoc/newlib/memcmp.c:90
    7178:	38646803 	ldrb	w3, [x0,x4]
    717c:	91000484 	add	x4, x4, #0x1
    7180:	8b040025 	add	x5, x1, x4
    7184:	385ff0a5 	ldrb	w5, [x5,#-1]
    7188:	6b05007f 	cmp	w3, w5
    718c:	54ffff20 	b.eq	7170 <memcmp+0x4>
/home/rahulmahadev/hikey_optee/optee_os/lib/libutils/isoc/newlib/memcmp.c:91
    7190:	4b050060 	sub	w0, w3, w5
    7194:	14000002 	b	719c <memcmp+0x30>
/home/rahulmahadev/hikey_optee/optee_os/lib/libutils/isoc/newlib/memcmp.c:95
    7198:	52800000 	mov	w0, #0x0                   	// #0
/home/rahulmahadev/hikey_optee/optee_os/lib/libutils/isoc/newlib/memcmp.c:135
    719c:	d65f03c0 	ret

00000000000071a0 <memcpy>:
memcpy():
/home/rahulmahadev/hikey_optee/optee_os/lib/libutils/isoc/newlib/memcpy.c:93
    71a0:	d2800003 	mov	x3, #0x0                   	// #0
    71a4:	eb02007f 	cmp	x3, x2
    71a8:	540000a0 	b.eq	71bc <memcpy+0x1c>
/home/rahulmahadev/hikey_optee/optee_os/lib/libutils/isoc/newlib/memcpy.c:94
    71ac:	38636824 	ldrb	w4, [x1,x3]
    71b0:	38236804 	strb	w4, [x0,x3]
    71b4:	91000463 	add	x3, x3, #0x1
    71b8:	17fffffb 	b	71a4 <memcpy+0x4>
/home/rahulmahadev/hikey_optee/optee_os/lib/libutils/isoc/newlib/memcpy.c:134
    71bc:	d65f03c0 	ret

00000000000071c0 <memmove>:
memmove():
/home/rahulmahadev/hikey_optee/optee_os/lib/libutils/isoc/newlib/memmove.c:95
    71c0:	eb00003f 	cmp	x1, x0
    71c4:	54000162 	b.cs	71f0 <memmove+0x30>
/home/rahulmahadev/hikey_optee/optee_os/lib/libutils/isoc/newlib/memmove.c:95 (discriminator 1)
    71c8:	8b020023 	add	x3, x1, x2
    71cc:	eb03001f 	cmp	x0, x3
    71d0:	54000102 	b.cs	71f0 <memmove+0x30>
    71d4:	cb020063 	sub	x3, x3, x2
/home/rahulmahadev/hikey_optee/optee_os/lib/libutils/isoc/newlib/memmove.c:99
    71d8:	d1000442 	sub	x2, x2, #0x1
    71dc:	b100045f 	cmn	x2, #0x1
    71e0:	54000160 	b.eq	720c <memmove+0x4c>
/home/rahulmahadev/hikey_optee/optee_os/lib/libutils/isoc/newlib/memmove.c:100
    71e4:	38626861 	ldrb	w1, [x3,x2]
    71e8:	38226801 	strb	w1, [x0,x2]
    71ec:	17fffffb 	b	71d8 <memmove+0x18>
    71f0:	d2800003 	mov	x3, #0x0                   	// #0
/home/rahulmahadev/hikey_optee/optee_os/lib/libutils/isoc/newlib/memmove.c:102
    71f4:	eb02007f 	cmp	x3, x2
    71f8:	540000a0 	b.eq	720c <memmove+0x4c>
/home/rahulmahadev/hikey_optee/optee_os/lib/libutils/isoc/newlib/memmove.c:103
    71fc:	38636824 	ldrb	w4, [x1,x3]
    7200:	38236804 	strb	w4, [x0,x3]
    7204:	91000463 	add	x3, x3, #0x1
    7208:	17fffffb 	b	71f4 <memmove+0x34>
/home/rahulmahadev/hikey_optee/optee_os/lib/libutils/isoc/newlib/memmove.c:156
    720c:	d65f03c0 	ret

0000000000007210 <memset>:
memset():
/home/rahulmahadev/hikey_optee/optee_os/lib/libutils/isoc/newlib/memset.c:124
    7210:	d2800003 	mov	x3, #0x0                   	// #0
    7214:	eb02007f 	cmp	x3, x2
    7218:	54000080 	b.eq	7228 <memset+0x18>
/home/rahulmahadev/hikey_optee/optee_os/lib/libutils/isoc/newlib/memset.c:125
    721c:	38236801 	strb	w1, [x0,x3]
    7220:	91000463 	add	x3, x3, #0x1
    7224:	17fffffc 	b	7214 <memset+0x4>
/home/rahulmahadev/hikey_optee/optee_os/lib/libutils/isoc/newlib/memset.c:128
    7228:	d65f03c0 	ret

000000000000722c <strcmp>:
strcmp():
/home/rahulmahadev/hikey_optee/optee_os/lib/libutils/isoc/newlib/strcmp.c:97
    722c:	d2800002 	mov	x2, #0x0                   	// #0
    7230:	38626803 	ldrb	w3, [x0,x2]
    7234:	8b020024 	add	x4, x1, x2
    7238:	340000c3 	cbz	w3, 7250 <strcmp+0x24>
    723c:	91000442 	add	x2, x2, #0x1
    7240:	8b020025 	add	x5, x1, x2
/home/rahulmahadev/hikey_optee/optee_os/lib/libutils/isoc/newlib/strcmp.c:97 (discriminator 1)
    7244:	385ff0a5 	ldrb	w5, [x5,#-1]
    7248:	6b0300bf 	cmp	w5, w3
    724c:	54ffff20 	b.eq	7230 <strcmp+0x4>
/home/rahulmahadev/hikey_optee/optee_os/lib/libutils/isoc/newlib/strcmp.c:102
    7250:	39400080 	ldrb	w0, [x4]
/home/rahulmahadev/hikey_optee/optee_os/lib/libutils/isoc/newlib/strcmp.c:140
    7254:	4b000060 	sub	w0, w3, w0
    7258:	d65f03c0 	ret

000000000000725c <strlen>:
strlen():
/home/rahulmahadev/hikey_optee/optee_os/lib/libutils/isoc/newlib/strlen.c:115
    725c:	aa0003e1 	mov	x1, x0
    7260:	39400022 	ldrb	w2, [x1]
    7264:	34000062 	cbz	w2, 7270 <strlen+0x14>
/home/rahulmahadev/hikey_optee/optee_os/lib/libutils/isoc/newlib/strlen.c:116
    7268:	91000421 	add	x1, x1, #0x1
    726c:	17fffffd 	b	7260 <strlen+0x4>
/home/rahulmahadev/hikey_optee/optee_os/lib/libutils/isoc/newlib/strlen.c:118
    7270:	cb000020 	sub	x0, x1, x0
    7274:	d65f03c0 	ret

0000000000007278 <__vsnprintf>:
__vsnprintf():
/home/rahulmahadev/hikey_optee/optee_os/lib/libutils/ext/snprintk.c:136
    7278:	d10403ff 	sub	sp, sp, #0x100
    727c:	a9037bfd 	stp	x29, x30, [sp,#48]
    7280:	9100c3fd 	add	x29, sp, #0x30
    7284:	a90873fb 	stp	x27, x28, [sp,#128]
    7288:	f9004fa0 	str	x0, [x29,#152]
    728c:	53001c80 	uxtb	w0, w4
    7290:	b9008fa0 	str	w0, [x29,#140]
kprintf():
/home/rahulmahadev/hikey_optee/optee_os/lib/libutils/ext/snprintk.c:266
    7294:	5280001b 	mov	w27, #0x0                   	// #0
__vsnprintf():
/home/rahulmahadev/hikey_optee/optee_os/lib/libutils/ext/snprintk.c:140
    7298:	f9404fa0 	ldr	x0, [x29,#152]
/home/rahulmahadev/hikey_optee/optee_os/lib/libutils/ext/snprintk.c:136
    729c:	a90663f7 	stp	x23, x24, [sp,#96]
/home/rahulmahadev/hikey_optee/optee_os/lib/libutils/ext/snprintk.c:140
    72a0:	aa0003fc 	mov	x28, x0
    72a4:	8b010018 	add	x24, x0, x1
uuid2str():
/home/rahulmahadev/hikey_optee/optee_os/lib/libutils/ext/snprintk.c:222
    72a8:	d0000020 	adrp	x0, d000 <PRIME_TABLE+0x388>
__vsnprintf():
/home/rahulmahadev/hikey_optee/optee_os/lib/libutils/ext/snprintk.c:136
    72ac:	f9004ba1 	str	x1, [x29,#144]
uuid2str():
/home/rahulmahadev/hikey_optee/optee_os/lib/libutils/ext/snprintk.c:222
    72b0:	9137b800 	add	x0, x0, #0xdee
    72b4:	f90043a0 	str	x0, [x29,#128]
__vsnprintf():
/home/rahulmahadev/hikey_optee/optee_os/lib/libutils/ext/snprintk.c:136
    72b8:	a90453f3 	stp	x19, x20, [sp,#64]
    72bc:	a9076bf9 	stp	x25, x26, [sp,#112]
kprintf():
/home/rahulmahadev/hikey_optee/optee_os/lib/libutils/ext/snprintk.c:443
    72c0:	d0000020 	adrp	x0, d000 <PRIME_TABLE+0x388>
    72c4:	f9400074 	ldr	x20, [x3]
    72c8:	f9400479 	ldr	x25, [x3,#8]
    72cc:	91379c00 	add	x0, x0, #0xde7
    72d0:	b9401873 	ldr	w19, [x3,#24]
__vsnprintf():
/home/rahulmahadev/hikey_optee/optee_os/lib/libutils/ext/snprintk.c:136
    72d4:	aa0203fa 	mov	x26, x2
    72d8:	a9055bf5 	stp	x21, x22, [sp,#80]
kprintf():
/home/rahulmahadev/hikey_optee/optee_os/lib/libutils/ext/snprintk.c:443
    72dc:	f9003fa0 	str	x0, [x29,#120]
/home/rahulmahadev/hikey_optee/optee_os/lib/libutils/ext/snprintk.c:268
    72e0:	d2800016 	mov	x22, #0x0                   	// #0
/home/rahulmahadev/hikey_optee/optee_os/lib/libutils/ext/snprintk.c:274
    72e4:	39400340 	ldrb	w0, [x26]
    72e8:	34000160 	cbz	w0, 7314 <__vsnprintf+0x9c>
    72ec:	7100941f 	cmp	w0, #0x25
    72f0:	54000120 	b.eq	7314 <__vsnprintf+0x9c>
/home/rahulmahadev/hikey_optee/optee_os/lib/libutils/ext/snprintk.c:275
    72f4:	1100077b 	add	w27, w27, #0x1
/home/rahulmahadev/hikey_optee/optee_os/lib/libutils/ext/snprintk.c:276
    72f8:	b40000bc 	cbz	x28, 730c <__vsnprintf+0x94>
    72fc:	eb18039f 	cmp	x28, x24
    7300:	54000062 	b.cs	730c <__vsnprintf+0x94>
    7304:	39000380 	strb	w0, [x28]
    7308:	9100079c 	add	x28, x28, #0x1
/home/rahulmahadev/hikey_optee/optee_os/lib/libutils/ext/snprintk.c:274
    730c:	9100075a 	add	x26, x26, #0x1
    7310:	17fffff5 	b	72e4 <__vsnprintf+0x6c>
/home/rahulmahadev/hikey_optee/optee_os/lib/libutils/ext/snprintk.c:278
    7314:	340052a0 	cbz	w0, 7d68 <__vsnprintf+0xaf0>
/home/rahulmahadev/hikey_optee/optee_os/lib/libutils/ext/snprintk.c:281
    7318:	91000740 	add	x0, x26, #0x1
/home/rahulmahadev/hikey_optee/optee_os/lib/libutils/ext/snprintk.c:287
    731c:	52800001 	mov	w1, #0x0                   	// #0
/home/rahulmahadev/hikey_optee/optee_os/lib/libutils/ext/snprintk.c:286
    7320:	12800004 	mov	w4, #0xffffffff            	// #-1
/home/rahulmahadev/hikey_optee/optee_os/lib/libutils/ext/snprintk.c:285
    7324:	52800017 	mov	w23, #0x0                   	// #0
/home/rahulmahadev/hikey_optee/optee_os/lib/libutils/ext/snprintk.c:283
    7328:	52800015 	mov	w21, #0x0                   	// #0
/home/rahulmahadev/hikey_optee/optee_os/lib/libutils/ext/snprintk.c:345
    732c:	52800143 	mov	w3, #0xa                   	// #10
/home/rahulmahadev/hikey_optee/optee_os/lib/libutils/ext/snprintk.c:298
    7330:	52800405 	mov	w5, #0x20                  	// #32
/home/rahulmahadev/hikey_optee/optee_os/lib/libutils/ext/snprintk.c:289
    7334:	39400009 	ldrb	w9, [x0]
    7338:	9100041a 	add	x26, x0, #0x1
/home/rahulmahadev/hikey_optee/optee_os/lib/libutils/ext/snprintk.c:290
    733c:	71018d3f 	cmp	w9, #0x63
    7340:	540012a0 	b.eq	7594 <__vsnprintf+0x31c>
    7344:	540004ac 	b.gt	73d8 <__vsnprintf+0x160>
    7348:	7100c13f 	cmp	w9, #0x30
    734c:	54000f80 	b.eq	753c <__vsnprintf+0x2c4>
    7350:	5400026c 	b.gt	739c <__vsnprintf+0x124>
    7354:	7100a93f 	cmp	w9, #0x2a
    7358:	540008e0 	b.eq	7474 <__vsnprintf+0x1fc>
    735c:	5400010c 	b.gt	737c <__vsnprintf+0x104>
    7360:	7100813f 	cmp	w9, #0x20
    7364:	54000820 	b.eq	7468 <__vsnprintf+0x1f0>
    7368:	71008d3f 	cmp	w9, #0x23
    736c:	54004341 	b.ne	7bd4 <__vsnprintf+0x95c>
/home/rahulmahadev/hikey_optee/optee_os/lib/libutils/ext/snprintk.c:301
    7370:	320002b5 	orr	w21, w21, #0x1
/home/rahulmahadev/hikey_optee/optee_os/lib/libutils/ext/snprintk.c:310
    7374:	aa1a03e0 	mov	x0, x26
    7378:	17ffffef 	b	7334 <__vsnprintf+0xbc>
/home/rahulmahadev/hikey_optee/optee_os/lib/libutils/ext/snprintk.c:290
    737c:	7100b53f 	cmp	w9, #0x2d
    7380:	54000980 	b.eq	74b0 <__vsnprintf+0x238>
    7384:	7100b93f 	cmp	w9, #0x2e
    7388:	54000980 	b.eq	74b8 <__vsnprintf+0x240>
    738c:	7100ad3f 	cmp	w9, #0x2b
    7390:	54004221 	b.ne	7bd4 <__vsnprintf+0x95c>
/home/rahulmahadev/hikey_optee/optee_os/lib/libutils/ext/snprintk.c:318
    7394:	2a0903e1 	mov	w1, w9
    7398:	17fffff7 	b	7374 <__vsnprintf+0xfc>
/home/rahulmahadev/hikey_optee/optee_os/lib/libutils/ext/snprintk.c:290
    739c:	7101113f 	cmp	w9, #0x44
    73a0:	54001140 	b.eq	75c8 <__vsnprintf+0x350>
    73a4:	540000ac 	b.gt	73b8 <__vsnprintf+0x140>
    73a8:	7100e53f 	cmp	w9, #0x39
    73ac:	5400414c 	b.gt	7bd4 <__vsnprintf+0x95c>
    73b0:	52800017 	mov	w23, #0x0                   	// #0
    73b4:	14000064 	b	7544 <__vsnprintf+0x2cc>
    73b8:	7101553f 	cmp	w9, #0x55
    73bc:	54002e60 	b.eq	7988 <__vsnprintf+0x710>
    73c0:	7101613f 	cmp	w9, #0x58
    73c4:	54003400 	b.eq	7a44 <__vsnprintf+0x7cc>
    73c8:	71013d3f 	cmp	w9, #0x4f
    73cc:	54004041 	b.ne	7bd4 <__vsnprintf+0x95c>
/home/rahulmahadev/hikey_optee/optee_os/lib/libutils/ext/snprintk.c:407
    73d0:	321c02b5 	orr	w21, w21, #0x10
    73d4:	140000d7 	b	7730 <__vsnprintf+0x4b8>
/home/rahulmahadev/hikey_optee/optee_os/lib/libutils/ext/snprintk.c:290
    73d8:	7101bd3f 	cmp	w9, #0x6f
    73dc:	54001aa0 	b.eq	7730 <__vsnprintf+0x4b8>
    73e0:	5400024c 	b.gt	7428 <__vsnprintf+0x1b0>
    73e4:	7101a53f 	cmp	w9, #0x69
    73e8:	54000f20 	b.eq	75cc <__vsnprintf+0x354>
    73ec:	540000ec 	b.gt	7408 <__vsnprintf+0x190>
    73f0:	7101913f 	cmp	w9, #0x64
    73f4:	54000ec0 	b.eq	75cc <__vsnprintf+0x354>
    73f8:	7101a13f 	cmp	w9, #0x68
    73fc:	54003ec1 	b.ne	7bd4 <__vsnprintf+0x95c>
/home/rahulmahadev/hikey_optee/optee_os/lib/libutils/ext/snprintk.c:351
    7400:	321a02b5 	orr	w21, w21, #0x40
    7404:	17ffffdc 	b	7374 <__vsnprintf+0xfc>
/home/rahulmahadev/hikey_optee/optee_os/lib/libutils/ext/snprintk.c:290
    7408:	7101b13f 	cmp	w9, #0x6c
    740c:	54000aa0 	b.eq	7560 <__vsnprintf+0x2e8>
    7410:	7101b93f 	cmp	w9, #0x6e
    7414:	54001360 	b.eq	7680 <__vsnprintf+0x408>
    7418:	7101a93f 	cmp	w9, #0x6a
    741c:	54003dc1 	b.ne	7bd4 <__vsnprintf+0x95c>
/home/rahulmahadev/hikey_optee/optee_os/lib/libutils/ext/snprintk.c:354
    7420:	321902b5 	orr	w21, w21, #0x80
    7424:	17ffffd4 	b	7374 <__vsnprintf+0xfc>
/home/rahulmahadev/hikey_optee/optee_os/lib/libutils/ext/snprintk.c:290
    7428:	7101d13f 	cmp	w9, #0x74
    742c:	54000ac0 	b.eq	7584 <__vsnprintf+0x30c>
    7430:	540000ec 	b.gt	744c <__vsnprintf+0x1d4>
    7434:	7101c53f 	cmp	w9, #0x71
    7438:	54000a20 	b.eq	757c <__vsnprintf+0x304>
    743c:	54001ceb 	b.lt	77d8 <__vsnprintf+0x560>
    7440:	7101cd3f 	cmp	w9, #0x73
    7444:	540024e0 	b.eq	78e0 <__vsnprintf+0x668>
    7448:	140001e3 	b	7bd4 <__vsnprintf+0x95c>
    744c:	7101e13f 	cmp	w9, #0x78
    7450:	54002f20 	b.eq	7a34 <__vsnprintf+0x7bc>
    7454:	7101e93f 	cmp	w9, #0x7a
    7458:	540009a0 	b.eq	758c <__vsnprintf+0x314>
    745c:	7101d53f 	cmp	w9, #0x75
    7460:	54003ba1 	b.ne	7bd4 <__vsnprintf+0x95c>
    7464:	1400014a 	b	798c <__vsnprintf+0x714>
/home/rahulmahadev/hikey_optee/optee_os/lib/libutils/ext/snprintk.c:298
    7468:	6b1f003f 	cmp	w1, wzr
    746c:	1a851021 	csel	w1, w1, w5, ne
    7470:	17ffffc1 	b	7374 <__vsnprintf+0xfc>
/home/rahulmahadev/hikey_optee/optee_os/lib/libutils/ext/snprintk.c:310
    7474:	37f80093 	tbnz	w19, #31, 7484 <__vsnprintf+0x20c>
    7478:	91002e82 	add	x2, x20, #0xb
    747c:	2a1303e0 	mov	w0, w19
    7480:	14000006 	b	7498 <__vsnprintf+0x220>
    7484:	11002260 	add	w0, w19, #0x8
    7488:	8b33c333 	add	x19, x25, w19, sxtw
    748c:	6b1f001f 	cmp	w0, wzr
    7490:	5400008d 	b.le	74a0 <__vsnprintf+0x228>
    7494:	91002e82 	add	x2, x20, #0xb
    7498:	aa1403f3 	mov	x19, x20
    749c:	927df054 	and	x20, x2, #0xfffffffffffffff8
    74a0:	b9400277 	ldr	w23, [x19]
    74a4:	2a0003f3 	mov	w19, w0
    74a8:	36fff677 	tbz	w23, #31, 7374 <__vsnprintf+0xfc>
/home/rahulmahadev/hikey_optee/optee_os/lib/libutils/ext/snprintk.c:312
    74ac:	4b1703f7 	neg	w23, w23
/home/rahulmahadev/hikey_optee/optee_os/lib/libutils/ext/snprintk.c:315
    74b0:	321e02b5 	orr	w21, w21, #0x4
    74b4:	17ffffb0 	b	7374 <__vsnprintf+0xfc>
/home/rahulmahadev/hikey_optee/optee_os/lib/libutils/ext/snprintk.c:321
    74b8:	39400349 	ldrb	w9, [x26]
    74bc:	91000740 	add	x0, x26, #0x1
    74c0:	7100a93f 	cmp	w9, #0x2a
    74c4:	54000060 	b.eq	74d0 <__vsnprintf+0x258>
    74c8:	52800004 	mov	w4, #0x0                   	// #0
    74cc:	14000012 	b	7514 <__vsnprintf+0x29c>
/home/rahulmahadev/hikey_optee/optee_os/lib/libutils/ext/snprintk.c:322
    74d0:	37f80093 	tbnz	w19, #31, 74e0 <__vsnprintf+0x268>
    74d4:	91002e84 	add	x4, x20, #0xb
    74d8:	2a1303e2 	mov	w2, w19
    74dc:	14000006 	b	74f4 <__vsnprintf+0x27c>
    74e0:	11002262 	add	w2, w19, #0x8
    74e4:	8b33c333 	add	x19, x25, w19, sxtw
    74e8:	6b1f005f 	cmp	w2, wzr
    74ec:	5400008d 	b.le	74fc <__vsnprintf+0x284>
    74f0:	91002e84 	add	x4, x20, #0xb
    74f4:	aa1403f3 	mov	x19, x20
    74f8:	927df094 	and	x20, x4, #0xfffffffffffffff8
/home/rahulmahadev/hikey_optee/optee_os/lib/libutils/ext/snprintk.c:323
    74fc:	b9400264 	ldr	w4, [x19]
/home/rahulmahadev/hikey_optee/optee_os/lib/libutils/ext/snprintk.c:321
    7500:	aa0003fa 	mov	x26, x0
/home/rahulmahadev/hikey_optee/optee_os/lib/libutils/ext/snprintk.c:323
    7504:	2a0203f3 	mov	w19, w2
    7508:	6b1f009f 	cmp	w4, wzr
    750c:	5a9fa084 	csinv	w4, w4, wzr, ge
    7510:	17ffff99 	b	7374 <__vsnprintf+0xfc>
/home/rahulmahadev/hikey_optee/optee_os/lib/libutils/ext/snprintk.c:327
    7514:	5100c122 	sub	w2, w9, #0x30
    7518:	7100245f 	cmp	w2, #0x9
    751c:	54000088 	b.hi	752c <__vsnprintf+0x2b4>
/home/rahulmahadev/hikey_optee/optee_os/lib/libutils/ext/snprintk.c:328
    7520:	1b030884 	madd	w4, w4, w3, w2
/home/rahulmahadev/hikey_optee/optee_os/lib/libutils/ext/snprintk.c:329
    7524:	38401409 	ldrb	w9, [x0],#1
    7528:	17fffffb 	b	7514 <__vsnprintf+0x29c>
/home/rahulmahadev/hikey_optee/optee_os/lib/libutils/ext/snprintk.c:331
    752c:	6b1f009f 	cmp	w4, wzr
    7530:	aa0003fa 	mov	x26, x0
    7534:	5a9fa084 	csinv	w4, w4, wzr, ge
    7538:	17ffff81 	b	733c <__vsnprintf+0xc4>
/home/rahulmahadev/hikey_optee/optee_os/lib/libutils/ext/snprintk.c:339
    753c:	321602b5 	orr	w21, w21, #0x400
    7540:	17ffff8d 	b	7374 <__vsnprintf+0xfc>
/home/rahulmahadev/hikey_optee/optee_os/lib/libutils/ext/snprintk.c:345
    7544:	5100c129 	sub	w9, w9, #0x30
    7548:	1b0326f7 	madd	w23, w23, w3, w9
/home/rahulmahadev/hikey_optee/optee_os/lib/libutils/ext/snprintk.c:346
    754c:	38401749 	ldrb	w9, [x26],#1
/home/rahulmahadev/hikey_optee/optee_os/lib/libutils/ext/snprintk.c:347
    7550:	5100c120 	sub	w0, w9, #0x30
    7554:	7100241f 	cmp	w0, #0x9
    7558:	54ffff69 	b.ls	7544 <__vsnprintf+0x2cc>
    755c:	17ffff78 	b	733c <__vsnprintf+0xc4>
/home/rahulmahadev/hikey_optee/optee_os/lib/libutils/ext/snprintk.c:357
    7560:	39400340 	ldrb	w0, [x26]
    7564:	7101b01f 	cmp	w0, #0x6c
    7568:	54000061 	b.ne	7574 <__vsnprintf+0x2fc>
/home/rahulmahadev/hikey_optee/optee_os/lib/libutils/ext/snprintk.c:358
    756c:	9100075a 	add	x26, x26, #0x1
    7570:	14000003 	b	757c <__vsnprintf+0x304>
/home/rahulmahadev/hikey_optee/optee_os/lib/libutils/ext/snprintk.c:361
    7574:	321c02b5 	orr	w21, w21, #0x10
    7578:	17ffff7f 	b	7374 <__vsnprintf+0xfc>
/home/rahulmahadev/hikey_optee/optee_os/lib/libutils/ext/snprintk.c:365
    757c:	321b02b5 	orr	w21, w21, #0x20
    7580:	17ffff7d 	b	7374 <__vsnprintf+0xfc>
/home/rahulmahadev/hikey_optee/optee_os/lib/libutils/ext/snprintk.c:368
    7584:	321802b5 	orr	w21, w21, #0x100
    7588:	17ffff7b 	b	7374 <__vsnprintf+0xfc>
/home/rahulmahadev/hikey_optee/optee_os/lib/libutils/ext/snprintk.c:371
    758c:	321702b5 	orr	w21, w21, #0x200
    7590:	17ffff79 	b	7374 <__vsnprintf+0xfc>
/home/rahulmahadev/hikey_optee/optee_os/lib/libutils/ext/snprintk.c:290
    7594:	2a1303e0 	mov	w0, w19
/home/rahulmahadev/hikey_optee/optee_os/lib/libutils/ext/snprintk.c:374
    7598:	36f800b3 	tbz	w19, #31, 75ac <__vsnprintf+0x334>
    759c:	11002273 	add	w19, w19, #0x8
    75a0:	8b20c320 	add	x0, x25, w0, sxtw
    75a4:	6b1f027f 	cmp	w19, wzr
    75a8:	5400008d 	b.le	75b8 <__vsnprintf+0x340>
    75ac:	91002e81 	add	x1, x20, #0xb
    75b0:	aa1403e0 	mov	x0, x20
    75b4:	927df034 	and	x20, x1, #0xfffffffffffffff8
    75b8:	910343a5 	add	x5, x29, #0xd0
    75bc:	b9400000 	ldr	w0, [x0]
    75c0:	381d8ca0 	strb	w0, [x5,#-40]!
    75c4:	14000187 	b	7be0 <__vsnprintf+0x968>
/home/rahulmahadev/hikey_optee/optee_os/lib/libutils/ext/snprintk.c:379
    75c8:	321c02b5 	orr	w21, w21, #0x10
/home/rahulmahadev/hikey_optee/optee_os/lib/libutils/ext/snprintk.c:290
    75cc:	aa1403e0 	mov	x0, x20
    75d0:	2a1303e2 	mov	w2, w19
/home/rahulmahadev/hikey_optee/optee_os/lib/libutils/ext/snprintk.c:383
    75d4:	373800b5 	tbnz	w21, #7, 75e8 <__vsnprintf+0x370>
    75d8:	37400095 	tbnz	w21, #8, 75e8 <__vsnprintf+0x370>
    75dc:	37480075 	tbnz	w21, #9, 75e8 <__vsnprintf+0x370>
    75e0:	37280055 	tbnz	w21, #5, 75e8 <__vsnprintf+0x370>
    75e4:	36200175 	tbz	w21, #4, 7610 <__vsnprintf+0x398>
    75e8:	36f800b3 	tbz	w19, #31, 75fc <__vsnprintf+0x384>
    75ec:	11002262 	add	w2, w19, #0x8
    75f0:	8b33c333 	add	x19, x25, w19, sxtw
    75f4:	6b1f005f 	cmp	w2, wzr
    75f8:	5400008d 	b.le	7608 <__vsnprintf+0x390>
    75fc:	91003e80 	add	x0, x20, #0xf
    7600:	aa1403f3 	mov	x19, x20
    7604:	927df000 	and	x0, x0, #0xfffffffffffffff8
    7608:	f9400263 	ldr	x3, [x19]
    760c:	14000015 	b	7660 <__vsnprintf+0x3e8>
    7610:	36300175 	tbz	w21, #6, 763c <__vsnprintf+0x3c4>
    7614:	36f800b3 	tbz	w19, #31, 7628 <__vsnprintf+0x3b0>
    7618:	11002262 	add	w2, w19, #0x8
    761c:	8b33c333 	add	x19, x25, w19, sxtw
    7620:	6b1f005f 	cmp	w2, wzr
    7624:	5400008d 	b.le	7634 <__vsnprintf+0x3bc>
    7628:	91002e80 	add	x0, x20, #0xb
    762c:	aa1403f3 	mov	x19, x20
    7630:	927df000 	and	x0, x0, #0xfffffffffffffff8
    7634:	79800263 	ldrsh	x3, [x19]
    7638:	1400000a 	b	7660 <__vsnprintf+0x3e8>
    763c:	36f800b3 	tbz	w19, #31, 7650 <__vsnprintf+0x3d8>
    7640:	11002262 	add	w2, w19, #0x8
    7644:	8b33c333 	add	x19, x25, w19, sxtw
    7648:	6b1f005f 	cmp	w2, wzr
    764c:	5400008d 	b.le	765c <__vsnprintf+0x3e4>
    7650:	91002e80 	add	x0, x20, #0xb
    7654:	aa1403f3 	mov	x19, x20
    7658:	927df000 	and	x0, x0, #0xfffffffffffffff8
    765c:	b9800263 	ldrsw	x3, [x19]
    7660:	2a0203f3 	mov	w19, w2
    7664:	aa0003f4 	mov	x20, x0
/home/rahulmahadev/hikey_optee/optee_os/lib/libutils/ext/snprintk.c:384
    7668:	b6f82443 	tbz	x3, #63, 7af0 <__vsnprintf+0x878>
/home/rahulmahadev/hikey_optee/optee_os/lib/libutils/ext/snprintk.c:385
    766c:	cb0303e3 	neg	x3, x3
    7670:	2a0403e2 	mov	w2, w4
/home/rahulmahadev/hikey_optee/optee_os/lib/libutils/ext/snprintk.c:388
    7674:	52800026 	mov	w6, #0x1                   	// #1
/home/rahulmahadev/hikey_optee/optee_os/lib/libutils/ext/snprintk.c:386
    7678:	528005a1 	mov	w1, #0x2d                  	// #45
    767c:	14000123 	b	7b08 <__vsnprintf+0x890>
/home/rahulmahadev/hikey_optee/optee_os/lib/libutils/ext/snprintk.c:290
    7680:	aa1403e0 	mov	x0, x20
    7684:	2a1303e2 	mov	w2, w19
/home/rahulmahadev/hikey_optee/optee_os/lib/libutils/ext/snprintk.c:391
    7688:	373800b5 	tbnz	w21, #7, 769c <__vsnprintf+0x424>
/home/rahulmahadev/hikey_optee/optee_os/lib/libutils/ext/snprintk.c:393
    768c:	37400095 	tbnz	w21, #8, 769c <__vsnprintf+0x424>
/home/rahulmahadev/hikey_optee/optee_os/lib/libutils/ext/snprintk.c:395
    7690:	37480075 	tbnz	w21, #9, 769c <__vsnprintf+0x424>
/home/rahulmahadev/hikey_optee/optee_os/lib/libutils/ext/snprintk.c:397
    7694:	37280055 	tbnz	w21, #5, 769c <__vsnprintf+0x424>
/home/rahulmahadev/hikey_optee/optee_os/lib/libutils/ext/snprintk.c:399
    7698:	362001b5 	tbz	w21, #4, 76cc <__vsnprintf+0x454>
/home/rahulmahadev/hikey_optee/optee_os/lib/libutils/ext/snprintk.c:400
    769c:	36f800b3 	tbz	w19, #31, 76b0 <__vsnprintf+0x438>
    76a0:	11002262 	add	w2, w19, #0x8
    76a4:	8b33c333 	add	x19, x25, w19, sxtw
    76a8:	6b1f005f 	cmp	w2, wzr
    76ac:	5400008d 	b.le	76bc <__vsnprintf+0x444>
    76b0:	91003e80 	add	x0, x20, #0xf
    76b4:	aa1403f3 	mov	x19, x20
    76b8:	927df000 	and	x0, x0, #0xfffffffffffffff8
    76bc:	f9400261 	ldr	x1, [x19]
    76c0:	93407f63 	sxtw	x3, w27
    76c4:	f9000023 	str	x3, [x1]
    76c8:	14000017 	b	7724 <__vsnprintf+0x4ac>
/home/rahulmahadev/hikey_optee/optee_os/lib/libutils/ext/snprintk.c:401
    76cc:	36300195 	tbz	w21, #6, 76fc <__vsnprintf+0x484>
/home/rahulmahadev/hikey_optee/optee_os/lib/libutils/ext/snprintk.c:402
    76d0:	36f800b3 	tbz	w19, #31, 76e4 <__vsnprintf+0x46c>
    76d4:	11002262 	add	w2, w19, #0x8
    76d8:	8b33c333 	add	x19, x25, w19, sxtw
    76dc:	6b1f005f 	cmp	w2, wzr
    76e0:	5400008d 	b.le	76f0 <__vsnprintf+0x478>
    76e4:	91003e80 	add	x0, x20, #0xf
    76e8:	aa1403f3 	mov	x19, x20
    76ec:	927df000 	and	x0, x0, #0xfffffffffffffff8
    76f0:	f9400261 	ldr	x1, [x19]
    76f4:	7900003b 	strh	w27, [x1]
    76f8:	1400000b 	b	7724 <__vsnprintf+0x4ac>
/home/rahulmahadev/hikey_optee/optee_os/lib/libutils/ext/snprintk.c:404
    76fc:	36f800b3 	tbz	w19, #31, 7710 <__vsnprintf+0x498>
    7700:	11002262 	add	w2, w19, #0x8
    7704:	8b33c333 	add	x19, x25, w19, sxtw
    7708:	6b1f005f 	cmp	w2, wzr
    770c:	5400008d 	b.le	771c <__vsnprintf+0x4a4>
    7710:	91003e80 	add	x0, x20, #0xf
    7714:	aa1403f3 	mov	x19, x20
    7718:	927df000 	and	x0, x0, #0xfffffffffffffff8
    771c:	f9400261 	ldr	x1, [x19]
    7720:	b900003b 	str	w27, [x1]
    7724:	2a0203f3 	mov	w19, w2
    7728:	aa0003f4 	mov	x20, x0
    772c:	17fffeee 	b	72e4 <__vsnprintf+0x6c>
/home/rahulmahadev/hikey_optee/optee_os/lib/libutils/ext/snprintk.c:290
    7730:	aa1403e0 	mov	x0, x20
    7734:	2a1303e1 	mov	w1, w19
/home/rahulmahadev/hikey_optee/optee_os/lib/libutils/ext/snprintk.c:410
    7738:	373800b5 	tbnz	w21, #7, 774c <__vsnprintf+0x4d4>
    773c:	37400095 	tbnz	w21, #8, 774c <__vsnprintf+0x4d4>
    7740:	37480075 	tbnz	w21, #9, 774c <__vsnprintf+0x4d4>
    7744:	37280055 	tbnz	w21, #5, 774c <__vsnprintf+0x4d4>
    7748:	36200175 	tbz	w21, #4, 7774 <__vsnprintf+0x4fc>
    774c:	36f800b3 	tbz	w19, #31, 7760 <__vsnprintf+0x4e8>
    7750:	11002261 	add	w1, w19, #0x8
    7754:	8b33c333 	add	x19, x25, w19, sxtw
    7758:	6b1f003f 	cmp	w1, wzr
    775c:	5400008d 	b.le	776c <__vsnprintf+0x4f4>
    7760:	91003e80 	add	x0, x20, #0xf
    7764:	aa1403f3 	mov	x19, x20
    7768:	927df000 	and	x0, x0, #0xfffffffffffffff8
    776c:	f9400263 	ldr	x3, [x19]
    7770:	1400000b 	b	779c <__vsnprintf+0x524>
    7774:	363001f5 	tbz	w21, #6, 77b0 <__vsnprintf+0x538>
    7778:	36f800b3 	tbz	w19, #31, 778c <__vsnprintf+0x514>
    777c:	11002261 	add	w1, w19, #0x8
    7780:	8b33c333 	add	x19, x25, w19, sxtw
    7784:	6b1f003f 	cmp	w1, wzr
    7788:	5400008d 	b.le	7798 <__vsnprintf+0x520>
    778c:	91002e80 	add	x0, x20, #0xb
    7790:	aa1403f3 	mov	x19, x20
    7794:	927df000 	and	x0, x0, #0xfffffffffffffff8
    7798:	79400263 	ldrh	w3, [x19]
    779c:	2a0403e2 	mov	w2, w4
    77a0:	2a0103f3 	mov	w19, w1
    77a4:	aa0003f4 	mov	x20, x0
/home/rahulmahadev/hikey_optee/optee_os/lib/libutils/ext/snprintk.c:411
    77a8:	52800006 	mov	w6, #0x0                   	// #0
    77ac:	140000d6 	b	7b04 <__vsnprintf+0x88c>
/home/rahulmahadev/hikey_optee/optee_os/lib/libutils/ext/snprintk.c:410
    77b0:	36f800b3 	tbz	w19, #31, 77c4 <__vsnprintf+0x54c>
    77b4:	11002261 	add	w1, w19, #0x8
    77b8:	8b33c333 	add	x19, x25, w19, sxtw
    77bc:	6b1f003f 	cmp	w1, wzr
    77c0:	5400008d 	b.le	77d0 <__vsnprintf+0x558>
    77c4:	91002e80 	add	x0, x20, #0xb
    77c8:	aa1403f3 	mov	x19, x20
    77cc:	927df000 	and	x0, x0, #0xfffffffffffffff8
    77d0:	b9400263 	ldr	w3, [x19]
    77d4:	17fffff2 	b	779c <__vsnprintf+0x524>
/home/rahulmahadev/hikey_optee/optee_os/lib/libutils/ext/snprintk.c:414
    77d8:	b9408fa1 	ldr	w1, [x29,#140]
/home/rahulmahadev/hikey_optee/optee_os/lib/libutils/ext/snprintk.c:290
    77dc:	2a1303e0 	mov	w0, w19
/home/rahulmahadev/hikey_optee/optee_os/lib/libutils/ext/snprintk.c:414
    77e0:	340005e1 	cbz	w1, 789c <__vsnprintf+0x624>
    77e4:	39400341 	ldrb	w1, [x26]
    77e8:	7101543f 	cmp	w1, #0x55
    77ec:	54000581 	b.ne	789c <__vsnprintf+0x624>
    77f0:	39400741 	ldrb	w1, [x26,#1]
    77f4:	7101b03f 	cmp	w1, #0x6c
    77f8:	54000521 	b.ne	789c <__vsnprintf+0x624>
/home/rahulmahadev/hikey_optee/optee_os/lib/libutils/ext/snprintk.c:419
    77fc:	91000b5a 	add	x26, x26, #0x2
/home/rahulmahadev/hikey_optee/optee_os/lib/libutils/ext/snprintk.c:420
    7800:	36f800b3 	tbz	w19, #31, 7814 <__vsnprintf+0x59c>
    7804:	11002273 	add	w19, w19, #0x8
    7808:	8b20c320 	add	x0, x25, w0, sxtw
    780c:	6b1f027f 	cmp	w19, wzr
    7810:	5400008d 	b.le	7820 <__vsnprintf+0x5a8>
    7814:	91003e81 	add	x1, x20, #0xf
    7818:	aa1403e0 	mov	x0, x20
    781c:	927df034 	and	x20, x1, #0xfffffffffffffff8
    7820:	f9400001 	ldr	x1, [x0]
uuid2str():
/home/rahulmahadev/hikey_optee/optee_os/lib/libutils/ext/snprintk.c:222
    7824:	9102a3ae 	add	x14, x29, #0xa8
    7828:	f94043a2 	ldr	x2, [x29,#128]
    782c:	f9003bae 	str	x14, [x29,#112]
    7830:	39403c20 	ldrb	w0, [x1,#15]
    7834:	79400c25 	ldrh	w5, [x1,#6]
    7838:	39402427 	ldrb	w7, [x1,#9]
    783c:	39402026 	ldrb	w6, [x1,#8]
    7840:	79400824 	ldrh	w4, [x1,#4]
    7844:	b9002be0 	str	w0, [sp,#40]
    7848:	b9008ba9 	str	w9, [x29,#136]
    784c:	39403820 	ldrb	w0, [x1,#14]
    7850:	b90023e0 	str	w0, [sp,#32]
    7854:	39403420 	ldrb	w0, [x1,#13]
    7858:	b9001be0 	str	w0, [sp,#24]
    785c:	39403020 	ldrb	w0, [x1,#12]
    7860:	b90013e0 	str	w0, [sp,#16]
    7864:	39402c20 	ldrb	w0, [x1,#11]
    7868:	b9000be0 	str	w0, [sp,#8]
    786c:	39402820 	ldrb	w0, [x1,#10]
    7870:	b90003e0 	str	w0, [sp]
    7874:	aa0e03e0 	mov	x0, x14
    7878:	b9400023 	ldr	w3, [x1]
    787c:	d2800481 	mov	x1, #0x24                  	// #36
    7880:	94000165 	bl	7e14 <snprintk>
    7884:	2a0003e3 	mov	w3, w0
kprintf():
/home/rahulmahadev/hikey_optee/optee_os/lib/libutils/ext/snprintk.c:422
    7888:	f9403bae 	ldr	x14, [x29,#112]
/home/rahulmahadev/hikey_optee/optee_os/lib/libutils/ext/snprintk.c:284
    788c:	52800002 	mov	w2, #0x0                   	// #0
/home/rahulmahadev/hikey_optee/optee_os/lib/libutils/ext/snprintk.c:423
    7890:	52800001 	mov	w1, #0x0                   	// #0
/home/rahulmahadev/hikey_optee/optee_os/lib/libutils/ext/snprintk.c:422
    7894:	aa0e03e5 	mov	x5, x14
    7898:	1400003a 	b	7980 <__vsnprintf+0x708>
/home/rahulmahadev/hikey_optee/optee_os/lib/libutils/ext/snprintk.c:434
    789c:	36f800b3 	tbz	w19, #31, 78b0 <__vsnprintf+0x638>
    78a0:	11002273 	add	w19, w19, #0x8
    78a4:	8b20c320 	add	x0, x25, w0, sxtw
    78a8:	6b1f027f 	cmp	w19, wzr
    78ac:	5400008d 	b.le	78bc <__vsnprintf+0x644>
    78b0:	91003e81 	add	x1, x20, #0xf
    78b4:	aa1403e0 	mov	x0, x20
    78b8:	927df034 	and	x20, x1, #0xfffffffffffffff8
/home/rahulmahadev/hikey_optee/optee_os/lib/libutils/ext/snprintk.c:436
    78bc:	b0000036 	adrp	x22, c000 <utee_authenc_update_aad>
/home/rahulmahadev/hikey_optee/optee_os/lib/libutils/ext/snprintk.c:434
    78c0:	f9400003 	ldr	x3, [x0]
/home/rahulmahadev/hikey_optee/optee_os/lib/libutils/ext/snprintk.c:437
    78c4:	321f02b5 	orr	w21, w21, #0x2
    78c8:	2a0403e2 	mov	w2, w4
/home/rahulmahadev/hikey_optee/optee_os/lib/libutils/ext/snprintk.c:436
    78cc:	912c82d6 	add	x22, x22, #0xb20
/home/rahulmahadev/hikey_optee/optee_os/lib/libutils/ext/snprintk.c:435
    78d0:	52800046 	mov	w6, #0x2                   	// #2
/home/rahulmahadev/hikey_optee/optee_os/lib/libutils/ext/snprintk.c:481
    78d4:	52800001 	mov	w1, #0x0                   	// #0
/home/rahulmahadev/hikey_optee/optee_os/lib/libutils/ext/snprintk.c:438
    78d8:	52800f09 	mov	w9, #0x78                  	// #120
    78dc:	1400008b 	b	7b08 <__vsnprintf+0x890>
/home/rahulmahadev/hikey_optee/optee_os/lib/libutils/ext/snprintk.c:290
    78e0:	2a0403e3 	mov	w3, w4
    78e4:	2a1303e0 	mov	w0, w19
/home/rahulmahadev/hikey_optee/optee_os/lib/libutils/ext/snprintk.c:441
    78e8:	36f800b3 	tbz	w19, #31, 78fc <__vsnprintf+0x684>
    78ec:	11002273 	add	w19, w19, #0x8
    78f0:	8b20c320 	add	x0, x25, w0, sxtw
    78f4:	6b1f027f 	cmp	w19, wzr
    78f8:	5400008d 	b.le	7908 <__vsnprintf+0x690>
    78fc:	91003e81 	add	x1, x20, #0xf
    7900:	aa1403e0 	mov	x0, x20
    7904:	927df034 	and	x20, x1, #0xfffffffffffffff8
    7908:	f9400005 	ldr	x5, [x0]
/home/rahulmahadev/hikey_optee/optee_os/lib/libutils/ext/snprintk.c:443
    790c:	f9403fa0 	ldr	x0, [x29,#120]
    7910:	b9006ba3 	str	w3, [x29,#104]
    7914:	eb1f00bf 	cmp	x5, xzr
    7918:	9a8010a5 	csel	x5, x5, x0, ne
/home/rahulmahadev/hikey_optee/optee_os/lib/libutils/ext/snprintk.c:444
    791c:	37f80224 	tbnz	w4, #31, 7960 <__vsnprintf+0x6e8>
/home/rahulmahadev/hikey_optee/optee_os/lib/libutils/ext/snprintk.c:450
    7920:	aa0503e0 	mov	x0, x5
    7924:	93407c82 	sxtw	x2, w4
    7928:	52800001 	mov	w1, #0x0                   	// #0
    792c:	b9006fa9 	str	w9, [x29,#108]
    7930:	f9003ba5 	str	x5, [x29,#112]
    7934:	b9008ba4 	str	w4, [x29,#136]
    7938:	940001e6 	bl	80d0 <memchr>
/home/rahulmahadev/hikey_optee/optee_os/lib/libutils/ext/snprintk.c:452
    793c:	f9403ba5 	ldr	x5, [x29,#112]
    7940:	b9406fa9 	ldr	w9, [x29,#108]
    7944:	b9406ba3 	ldr	w3, [x29,#104]
    7948:	b40014e0 	cbz	x0, 7be4 <__vsnprintf+0x96c>
    794c:	b9408ba4 	ldr	w4, [x29,#136]
/home/rahulmahadev/hikey_optee/optee_os/lib/libutils/ext/snprintk.c:453
    7950:	cb050003 	sub	x3, x0, x5
    7954:	6b04007f 	cmp	w3, w4
    7958:	1a84d063 	csel	w3, w3, w4, le
    795c:	140000a2 	b	7be4 <__vsnprintf+0x96c>
/home/rahulmahadev/hikey_optee/optee_os/lib/libutils/ext/snprintk.c:459
    7960:	aa0503e0 	mov	x0, x5
    7964:	f9003ba5 	str	x5, [x29,#112]
    7968:	b9008ba9 	str	w9, [x29,#136]
    796c:	97fffe3c 	bl	725c <strlen>
    7970:	2a0003e3 	mov	w3, w0
    7974:	f9403ba5 	ldr	x5, [x29,#112]
/home/rahulmahadev/hikey_optee/optee_os/lib/libutils/ext/snprintk.c:284
    7978:	52800002 	mov	w2, #0x0                   	// #0
/home/rahulmahadev/hikey_optee/optee_os/lib/libutils/ext/snprintk.c:460
    797c:	52800001 	mov	w1, #0x0                   	// #0
    7980:	b9408ba9 	ldr	w9, [x29,#136]
    7984:	1400009a 	b	7bec <__vsnprintf+0x974>
/home/rahulmahadev/hikey_optee/optee_os/lib/libutils/ext/snprintk.c:463
    7988:	321c02b5 	orr	w21, w21, #0x10
/home/rahulmahadev/hikey_optee/optee_os/lib/libutils/ext/snprintk.c:290
    798c:	aa1403e1 	mov	x1, x20
    7990:	2a1303e0 	mov	w0, w19
/home/rahulmahadev/hikey_optee/optee_os/lib/libutils/ext/snprintk.c:466
    7994:	373800b5 	tbnz	w21, #7, 79a8 <__vsnprintf+0x730>
    7998:	37400095 	tbnz	w21, #8, 79a8 <__vsnprintf+0x730>
    799c:	37480075 	tbnz	w21, #9, 79a8 <__vsnprintf+0x730>
    79a0:	37280055 	tbnz	w21, #5, 79a8 <__vsnprintf+0x730>
    79a4:	36200175 	tbz	w21, #4, 79d0 <__vsnprintf+0x758>
    79a8:	36f800b3 	tbz	w19, #31, 79bc <__vsnprintf+0x744>
    79ac:	11002260 	add	w0, w19, #0x8
    79b0:	8b33c333 	add	x19, x25, w19, sxtw
    79b4:	6b1f001f 	cmp	w0, wzr
    79b8:	5400008d 	b.le	79c8 <__vsnprintf+0x750>
    79bc:	91003e81 	add	x1, x20, #0xf
    79c0:	aa1403f3 	mov	x19, x20
    79c4:	927df021 	and	x1, x1, #0xfffffffffffffff8
    79c8:	f9400263 	ldr	x3, [x19]
    79cc:	14000015 	b	7a20 <__vsnprintf+0x7a8>
    79d0:	36300175 	tbz	w21, #6, 79fc <__vsnprintf+0x784>
    79d4:	36f800b3 	tbz	w19, #31, 79e8 <__vsnprintf+0x770>
    79d8:	11002260 	add	w0, w19, #0x8
    79dc:	8b33c333 	add	x19, x25, w19, sxtw
    79e0:	6b1f001f 	cmp	w0, wzr
    79e4:	5400008d 	b.le	79f4 <__vsnprintf+0x77c>
    79e8:	91002e81 	add	x1, x20, #0xb
    79ec:	aa1403f3 	mov	x19, x20
    79f0:	927df021 	and	x1, x1, #0xfffffffffffffff8
    79f4:	79400263 	ldrh	w3, [x19]
    79f8:	1400000a 	b	7a20 <__vsnprintf+0x7a8>
    79fc:	36f800b3 	tbz	w19, #31, 7a10 <__vsnprintf+0x798>
    7a00:	11002260 	add	w0, w19, #0x8
    7a04:	8b33c333 	add	x19, x25, w19, sxtw
    7a08:	6b1f001f 	cmp	w0, wzr
    7a0c:	5400008d 	b.le	7a1c <__vsnprintf+0x7a4>
    7a10:	91002e81 	add	x1, x20, #0xb
    7a14:	aa1403f3 	mov	x19, x20
    7a18:	927df021 	and	x1, x1, #0xfffffffffffffff8
    7a1c:	b9400263 	ldr	w3, [x19]
    7a20:	2a0403e2 	mov	w2, w4
    7a24:	2a0003f3 	mov	w19, w0
    7a28:	aa0103f4 	mov	x20, x1
/home/rahulmahadev/hikey_optee/optee_os/lib/libutils/ext/snprintk.c:467
    7a2c:	52800026 	mov	w6, #0x1                   	// #1
    7a30:	14000035 	b	7b04 <__vsnprintf+0x88c>
/home/rahulmahadev/hikey_optee/optee_os/lib/libutils/ext/snprintk.c:473
    7a34:	b0000036 	adrp	x22, c000 <utee_authenc_update_aad>
    7a38:	2a1303e0 	mov	w0, w19
    7a3c:	912c82d6 	add	x22, x22, #0xb20
    7a40:	14000004 	b	7a50 <__vsnprintf+0x7d8>
/home/rahulmahadev/hikey_optee/optee_os/lib/libutils/ext/snprintk.c:470
    7a44:	b0000036 	adrp	x22, c000 <utee_authenc_update_aad>
/home/rahulmahadev/hikey_optee/optee_os/lib/libutils/ext/snprintk.c:290
    7a48:	2a1303e0 	mov	w0, w19
/home/rahulmahadev/hikey_optee/optee_os/lib/libutils/ext/snprintk.c:470
    7a4c:	912c22d6 	add	x22, x22, #0xb08
/home/rahulmahadev/hikey_optee/optee_os/lib/libutils/ext/snprintk.c:474
    7a50:	373800b5 	tbnz	w21, #7, 7a64 <__vsnprintf+0x7ec>
    7a54:	37400095 	tbnz	w21, #8, 7a64 <__vsnprintf+0x7ec>
    7a58:	37480075 	tbnz	w21, #9, 7a64 <__vsnprintf+0x7ec>
    7a5c:	37280055 	tbnz	w21, #5, 7a64 <__vsnprintf+0x7ec>
    7a60:	36200175 	tbz	w21, #4, 7a8c <__vsnprintf+0x814>
    7a64:	36f800b3 	tbz	w19, #31, 7a78 <__vsnprintf+0x800>
    7a68:	11002260 	add	w0, w19, #0x8
    7a6c:	8b33c333 	add	x19, x25, w19, sxtw
    7a70:	6b1f001f 	cmp	w0, wzr
    7a74:	5400008d 	b.le	7a84 <__vsnprintf+0x80c>
    7a78:	91003e81 	add	x1, x20, #0xf
    7a7c:	aa1403f3 	mov	x19, x20
    7a80:	927df034 	and	x20, x1, #0xfffffffffffffff8
    7a84:	f9400263 	ldr	x3, [x19]
    7a88:	14000015 	b	7adc <__vsnprintf+0x864>
    7a8c:	36300175 	tbz	w21, #6, 7ab8 <__vsnprintf+0x840>
    7a90:	36f800b3 	tbz	w19, #31, 7aa4 <__vsnprintf+0x82c>
    7a94:	11002260 	add	w0, w19, #0x8
    7a98:	8b33c333 	add	x19, x25, w19, sxtw
    7a9c:	6b1f001f 	cmp	w0, wzr
    7aa0:	5400008d 	b.le	7ab0 <__vsnprintf+0x838>
    7aa4:	91002e81 	add	x1, x20, #0xb
    7aa8:	aa1403f3 	mov	x19, x20
    7aac:	927df034 	and	x20, x1, #0xfffffffffffffff8
    7ab0:	79400263 	ldrh	w3, [x19]
    7ab4:	1400000a 	b	7adc <__vsnprintf+0x864>
    7ab8:	36f800b3 	tbz	w19, #31, 7acc <__vsnprintf+0x854>
    7abc:	11002260 	add	w0, w19, #0x8
    7ac0:	8b33c333 	add	x19, x25, w19, sxtw
    7ac4:	6b1f001f 	cmp	w0, wzr
    7ac8:	5400008d 	b.le	7ad8 <__vsnprintf+0x860>
    7acc:	91002e81 	add	x1, x20, #0xb
    7ad0:	aa1403f3 	mov	x19, x20
    7ad4:	927df034 	and	x20, x1, #0xfffffffffffffff8
    7ad8:	b9400263 	ldr	w3, [x19]
    7adc:	2a0003f3 	mov	w19, w0
/home/rahulmahadev/hikey_optee/optee_os/lib/libutils/ext/snprintk.c:477
    7ae0:	360000f5 	tbz	w21, #0, 7afc <__vsnprintf+0x884>
    7ae4:	b40000c3 	cbz	x3, 7afc <__vsnprintf+0x884>
/home/rahulmahadev/hikey_optee/optee_os/lib/libutils/ext/snprintk.c:478
    7ae8:	321f02b5 	orr	w21, w21, #0x2
    7aec:	14000004 	b	7afc <__vsnprintf+0x884>
/home/rahulmahadev/hikey_optee/optee_os/lib/libutils/ext/snprintk.c:384
    7af0:	2a0403e2 	mov	w2, w4
/home/rahulmahadev/hikey_optee/optee_os/lib/libutils/ext/snprintk.c:388
    7af4:	52800026 	mov	w6, #0x1                   	// #1
    7af8:	14000004 	b	7b08 <__vsnprintf+0x890>
/home/rahulmahadev/hikey_optee/optee_os/lib/libutils/ext/snprintk.c:477
    7afc:	2a0403e2 	mov	w2, w4
/home/rahulmahadev/hikey_optee/optee_os/lib/libutils/ext/snprintk.c:475
    7b00:	52800046 	mov	w6, #0x2                   	// #2
/home/rahulmahadev/hikey_optee/optee_os/lib/libutils/ext/snprintk.c:481
    7b04:	52800001 	mov	w1, #0x0                   	// #0
/home/rahulmahadev/hikey_optee/optee_os/lib/libutils/ext/snprintk.c:488
    7b08:	12157aa0 	and	w0, w21, #0xfffffbff
    7b0c:	6b1f009f 	cmp	w4, wzr
    7b10:	1a95a015 	csel	w21, w0, w21, ge
    7b14:	9102a3a0 	add	x0, x29, #0xa8
/home/rahulmahadev/hikey_optee/optee_os/lib/libutils/ext/snprintk.c:496
    7b18:	35000064 	cbnz	w4, 7b24 <__vsnprintf+0x8ac>
/home/rahulmahadev/hikey_optee/optee_os/lib/libutils/ext/snprintk.c:495
    7b1c:	91009005 	add	x5, x0, #0x24
/home/rahulmahadev/hikey_optee/optee_os/lib/libutils/ext/snprintk.c:496
    7b20:	b4000543 	cbz	x3, 7bc8 <__vsnprintf+0x950>
/home/rahulmahadev/hikey_optee/optee_os/lib/libutils/ext/snprintk.c:502
    7b24:	710004df 	cmp	w6, #0x1
    7b28:	540000a0 	b.eq	7b3c <__vsnprintf+0x8c4>
    7b2c:	710008df 	cmp	w6, #0x2
    7b30:	54000400 	b.eq	7bb0 <__vsnprintf+0x938>
    7b34:	91009005 	add	x5, x0, #0x24
    7b38:	14000004 	b	7b48 <__vsnprintf+0x8d0>
    7b3c:	91009004 	add	x4, x0, #0x24
/home/rahulmahadev/hikey_optee/optee_os/lib/libutils/ext/snprintk.c:516
    7b40:	d2800146 	mov	x6, #0xa                   	// #10
    7b44:	1400000e 	b	7b7c <__vsnprintf+0x904>
/home/rahulmahadev/hikey_optee/optee_os/lib/libutils/ext/snprintk.c:505
    7b48:	12000864 	and	w4, w3, #0x7
/home/rahulmahadev/hikey_optee/optee_os/lib/libutils/ext/snprintk.c:506
    7b4c:	d343fc63 	lsr	x3, x3, #3
/home/rahulmahadev/hikey_optee/optee_os/lib/libutils/ext/snprintk.c:505
    7b50:	1100c084 	add	w4, w4, #0x30
    7b54:	381ffca4 	strb	w4, [x5,#-1]!
/home/rahulmahadev/hikey_optee/optee_os/lib/libutils/ext/snprintk.c:507
    7b58:	b5ffff83 	cbnz	x3, 7b48 <__vsnprintf+0x8d0>
    7b5c:	aa0503e3 	mov	x3, x5
/home/rahulmahadev/hikey_optee/optee_os/lib/libutils/ext/snprintk.c:509
    7b60:	36000355 	tbz	w21, #0, 7bc8 <__vsnprintf+0x950>
    7b64:	7100c09f 	cmp	w4, #0x30
    7b68:	54000300 	b.eq	7bc8 <__vsnprintf+0x950>
/home/rahulmahadev/hikey_optee/optee_os/lib/libutils/ext/snprintk.c:510
    7b6c:	52800604 	mov	w4, #0x30                  	// #48
    7b70:	d10004a5 	sub	x5, x5, #0x1
    7b74:	381ff064 	strb	w4, [x3,#-1]
    7b78:	14000014 	b	7bc8 <__vsnprintf+0x950>
/home/rahulmahadev/hikey_optee/optee_os/lib/libutils/ext/snprintk.c:515
    7b7c:	f100247f 	cmp	x3, #0x9
    7b80:	d1000485 	sub	x5, x4, #0x1
    7b84:	54000109 	b.ls	7ba4 <__vsnprintf+0x92c>
/home/rahulmahadev/hikey_optee/optee_os/lib/libutils/ext/snprintk.c:516
    7b88:	aa0503e4 	mov	x4, x5
    7b8c:	9ac60865 	udiv	x5, x3, x6
    7b90:	9b068ca3 	msub	x3, x5, x6, x3
    7b94:	1100c063 	add	w3, w3, #0x30
    7b98:	39000083 	strb	w3, [x4]
/home/rahulmahadev/hikey_optee/optee_os/lib/libutils/ext/snprintk.c:517
    7b9c:	aa0503e3 	mov	x3, x5
    7ba0:	17fffff7 	b	7b7c <__vsnprintf+0x904>
/home/rahulmahadev/hikey_optee/optee_os/lib/libutils/ext/snprintk.c:519
    7ba4:	1100c063 	add	w3, w3, #0x30
    7ba8:	381ff083 	strb	w3, [x4,#-1]
    7bac:	14000007 	b	7bc8 <__vsnprintf+0x950>
/home/rahulmahadev/hikey_optee/optee_os/lib/libutils/ext/snprintk.c:502
    7bb0:	91009005 	add	x5, x0, #0x24
/home/rahulmahadev/hikey_optee/optee_os/lib/libutils/ext/snprintk.c:524
    7bb4:	92400c64 	and	x4, x3, #0xf
/home/rahulmahadev/hikey_optee/optee_os/lib/libutils/ext/snprintk.c:525
    7bb8:	d344fc63 	lsr	x3, x3, #4
/home/rahulmahadev/hikey_optee/optee_os/lib/libutils/ext/snprintk.c:524
    7bbc:	38646ac4 	ldrb	w4, [x22,x4]
    7bc0:	381ffca4 	strb	w4, [x5,#-1]!
/home/rahulmahadev/hikey_optee/optee_os/lib/libutils/ext/snprintk.c:526
    7bc4:	b5ffff83 	cbnz	x3, 7bb4 <__vsnprintf+0x93c>
/home/rahulmahadev/hikey_optee/optee_os/lib/libutils/ext/snprintk.c:536
    7bc8:	91009003 	add	x3, x0, #0x24
    7bcc:	4b050063 	sub	w3, w3, w5
    7bd0:	14000007 	b	7bec <__vsnprintf+0x974>
/home/rahulmahadev/hikey_optee/optee_os/lib/libutils/ext/snprintk.c:540
    7bd4:	34000ca9 	cbz	w9, 7d68 <__vsnprintf+0xaf0>
/home/rahulmahadev/hikey_optee/optee_os/lib/libutils/ext/snprintk.c:544
    7bd8:	910343a5 	add	x5, x29, #0xd0
    7bdc:	381d8ca9 	strb	w9, [x5,#-40]!
/home/rahulmahadev/hikey_optee/optee_os/lib/libutils/ext/snprintk.c:545
    7be0:	52800023 	mov	w3, #0x1                   	// #1
/home/rahulmahadev/hikey_optee/optee_os/lib/libutils/ext/snprintk.c:284
    7be4:	52800002 	mov	w2, #0x0                   	// #0
/home/rahulmahadev/hikey_optee/optee_os/lib/libutils/ext/snprintk.c:460
    7be8:	52800001 	mov	w1, #0x0                   	// #0
/home/rahulmahadev/hikey_optee/optee_os/lib/libutils/ext/snprintk.c:564
    7bec:	6b03005f 	cmp	w2, w3
    7bf0:	1a83a040 	csel	w0, w2, w3, ge
/home/rahulmahadev/hikey_optee/optee_os/lib/libutils/ext/snprintk.c:565
    7bf4:	34000061 	cbz	w1, 7c00 <__vsnprintf+0x988>
/home/rahulmahadev/hikey_optee/optee_os/lib/libutils/ext/snprintk.c:566
    7bf8:	11000400 	add	w0, w0, #0x1
    7bfc:	14000003 	b	7c08 <__vsnprintf+0x990>
/home/rahulmahadev/hikey_optee/optee_os/lib/libutils/ext/snprintk.c:567
    7c00:	121f02a4 	and	w4, w21, #0x2
/home/rahulmahadev/hikey_optee/optee_os/lib/libutils/ext/snprintk.c:568
    7c04:	0b040000 	add	w0, w0, w4
/home/rahulmahadev/hikey_optee/optee_os/lib/libutils/ext/snprintk.c:571
    7c08:	6b17001f 	cmp	w0, w23
    7c0c:	1a97a004 	csel	w4, w0, w23, ge
    7c10:	0b04037b 	add	w27, w27, w4
/home/rahulmahadev/hikey_optee/optee_os/lib/libutils/ext/snprintk.c:574
    7c14:	52808084 	mov	w4, #0x404                 	// #1028
    7c18:	6a0402a4 	ands	w4, w21, w4
    7c1c:	54000181 	b.ne	7c4c <__vsnprintf+0x9d4>
/home/rahulmahadev/hikey_optee/optee_os/lib/libutils/ext/snprintk.c:575
    7c20:	4b0002e6 	sub	w6, w23, w0
/home/rahulmahadev/hikey_optee/optee_os/lib/libutils/ext/snprintk.c:577
    7c24:	52800407 	mov	w7, #0x20                  	// #32
/home/rahulmahadev/hikey_optee/optee_os/lib/libutils/ext/snprintk.c:576
    7c28:	6b1f00df 	cmp	w6, wzr
    7c2c:	5400010d 	b.le	7c4c <__vsnprintf+0x9d4>
/home/rahulmahadev/hikey_optee/optee_os/lib/libutils/ext/snprintk.c:577
    7c30:	b40000bc 	cbz	x28, 7c44 <__vsnprintf+0x9cc>
    7c34:	eb18039f 	cmp	x28, x24
    7c38:	54000062 	b.cs	7c44 <__vsnprintf+0x9cc>
    7c3c:	39000387 	strb	w7, [x28]
    7c40:	9100079c 	add	x28, x28, #0x1
    7c44:	510004c6 	sub	w6, w6, #0x1
    7c48:	17fffff8 	b	7c28 <__vsnprintf+0x9b0>
/home/rahulmahadev/hikey_optee/optee_os/lib/libutils/ext/snprintk.c:581
    7c4c:	34000121 	cbz	w1, 7c70 <__vsnprintf+0x9f8>
/home/rahulmahadev/hikey_optee/optee_os/lib/libutils/ext/snprintk.c:582
    7c50:	b500007c 	cbnz	x28, 7c5c <__vsnprintf+0x9e4>
/home/rahulmahadev/hikey_optee/optee_os/lib/libutils/ext/snprintk.c:585
    7c54:	d280001c 	mov	x28, #0x0                   	// #0
    7c58:	14000014 	b	7ca8 <__vsnprintf+0xa30>
/home/rahulmahadev/hikey_optee/optee_os/lib/libutils/ext/snprintk.c:582
    7c5c:	eb18039f 	cmp	x28, x24
    7c60:	54000242 	b.cs	7ca8 <__vsnprintf+0xa30>
    7c64:	39000381 	strb	w1, [x28]
    7c68:	9100079c 	add	x28, x28, #0x1
    7c6c:	1400000f 	b	7ca8 <__vsnprintf+0xa30>
/home/rahulmahadev/hikey_optee/optee_os/lib/libutils/ext/snprintk.c:583
    7c70:	360801d5 	tbz	w21, #1, 7ca8 <__vsnprintf+0xa30>
/home/rahulmahadev/hikey_optee/optee_os/lib/libutils/ext/snprintk.c:584
    7c74:	b4ffff1c 	cbz	x28, 7c54 <__vsnprintf+0x9dc>
    7c78:	eb18039f 	cmp	x28, x24
    7c7c:	54000162 	b.cs	7ca8 <__vsnprintf+0xa30>
    7c80:	52800601 	mov	w1, #0x30                  	// #48
    7c84:	39000381 	strb	w1, [x28]
/home/rahulmahadev/hikey_optee/optee_os/lib/libutils/ext/snprintk.c:585
    7c88:	b1000781 	adds	x1, x28, #0x1
    7c8c:	54fffe40 	b.eq	7c54 <__vsnprintf+0x9dc>
    7c90:	eb18003f 	cmp	x1, x24
    7c94:	54000082 	b.cs	7ca4 <__vsnprintf+0xa2c>
    7c98:	39000789 	strb	w9, [x28,#1]
    7c9c:	91000b9c 	add	x28, x28, #0x2
    7ca0:	14000002 	b	7ca8 <__vsnprintf+0xa30>
    7ca4:	aa0103fc 	mov	x28, x1
/home/rahulmahadev/hikey_optee/optee_os/lib/libutils/ext/snprintk.c:589
    7ca8:	7110009f 	cmp	w4, #0x400
    7cac:	54000181 	b.ne	7cdc <__vsnprintf+0xa64>
/home/rahulmahadev/hikey_optee/optee_os/lib/libutils/ext/snprintk.c:590
    7cb0:	4b0002e1 	sub	w1, w23, w0
/home/rahulmahadev/hikey_optee/optee_os/lib/libutils/ext/snprintk.c:592
    7cb4:	52800604 	mov	w4, #0x30                  	// #48
/home/rahulmahadev/hikey_optee/optee_os/lib/libutils/ext/snprintk.c:591
    7cb8:	6b1f003f 	cmp	w1, wzr
    7cbc:	5400010d 	b.le	7cdc <__vsnprintf+0xa64>
/home/rahulmahadev/hikey_optee/optee_os/lib/libutils/ext/snprintk.c:592
    7cc0:	b40000bc 	cbz	x28, 7cd4 <__vsnprintf+0xa5c>
    7cc4:	eb18039f 	cmp	x28, x24
    7cc8:	54000062 	b.cs	7cd4 <__vsnprintf+0xa5c>
    7ccc:	39000384 	strb	w4, [x28]
    7cd0:	9100079c 	add	x28, x28, #0x1
    7cd4:	51000421 	sub	w1, w1, #0x1
    7cd8:	17fffff8 	b	7cb8 <__vsnprintf+0xa40>
/home/rahulmahadev/hikey_optee/optee_os/lib/libutils/ext/snprintk.c:596
    7cdc:	4b030042 	sub	w2, w2, w3
/home/rahulmahadev/hikey_optee/optee_os/lib/libutils/ext/snprintk.c:598
    7ce0:	52800601 	mov	w1, #0x30                  	// #48
/home/rahulmahadev/hikey_optee/optee_os/lib/libutils/ext/snprintk.c:597
    7ce4:	6b1f005f 	cmp	w2, wzr
    7ce8:	5400010d 	b.le	7d08 <__vsnprintf+0xa90>
/home/rahulmahadev/hikey_optee/optee_os/lib/libutils/ext/snprintk.c:598
    7cec:	b40000bc 	cbz	x28, 7d00 <__vsnprintf+0xa88>
    7cf0:	eb18039f 	cmp	x28, x24
    7cf4:	54000062 	b.cs	7d00 <__vsnprintf+0xa88>
    7cf8:	39000381 	strb	w1, [x28]
    7cfc:	9100079c 	add	x28, x28, #0x1
    7d00:	51000442 	sub	w2, w2, #0x1
    7d04:	17fffff8 	b	7ce4 <__vsnprintf+0xa6c>
    7d08:	2a0303e3 	mov	w3, w3
/home/rahulmahadev/hikey_optee/optee_os/lib/libutils/ext/snprintk.c:597
    7d0c:	d2800001 	mov	x1, #0x0                   	// #0
/home/rahulmahadev/hikey_optee/optee_os/lib/libutils/ext/snprintk.c:601
    7d10:	eb03003f 	cmp	x1, x3
    7d14:	54000120 	b.eq	7d38 <__vsnprintf+0xac0>
/home/rahulmahadev/hikey_optee/optee_os/lib/libutils/ext/snprintk.c:602
    7d18:	b40000dc 	cbz	x28, 7d30 <__vsnprintf+0xab8>
    7d1c:	eb18039f 	cmp	x28, x24
    7d20:	54000082 	b.cs	7d30 <__vsnprintf+0xab8>
    7d24:	386168a2 	ldrb	w2, [x5,x1]
    7d28:	9100079c 	add	x28, x28, #0x1
    7d2c:	381ff382 	strb	w2, [x28,#-1]
    7d30:	91000421 	add	x1, x1, #0x1
    7d34:	17fffff7 	b	7d10 <__vsnprintf+0xa98>
/home/rahulmahadev/hikey_optee/optee_os/lib/libutils/ext/snprintk.c:604
    7d38:	3617ad75 	tbz	w21, #2, 72e4 <__vsnprintf+0x6c>
/home/rahulmahadev/hikey_optee/optee_os/lib/libutils/ext/snprintk.c:605
    7d3c:	4b0002eb 	sub	w11, w23, w0
/home/rahulmahadev/hikey_optee/optee_os/lib/libutils/ext/snprintk.c:607
    7d40:	52800400 	mov	w0, #0x20                  	// #32
/home/rahulmahadev/hikey_optee/optee_os/lib/libutils/ext/snprintk.c:606
    7d44:	6b1f017f 	cmp	w11, wzr
    7d48:	54ffaced 	b.le	72e4 <__vsnprintf+0x6c>
/home/rahulmahadev/hikey_optee/optee_os/lib/libutils/ext/snprintk.c:607
    7d4c:	b40000bc 	cbz	x28, 7d60 <__vsnprintf+0xae8>
    7d50:	eb18039f 	cmp	x28, x24
    7d54:	54000062 	b.cs	7d60 <__vsnprintf+0xae8>
    7d58:	39000380 	strb	w0, [x28]
    7d5c:	9100079c 	add	x28, x28, #0x1
    7d60:	5100056b 	sub	w11, w11, #0x1
    7d64:	17fffff8 	b	7d44 <__vsnprintf+0xacc>
__vsnprintf():
/home/rahulmahadev/hikey_optee/optee_os/lib/libutils/ext/snprintk.c:142
    7d68:	f9404fa0 	ldr	x0, [x29,#152]
    7d6c:	b4000160 	cbz	x0, 7d98 <__vsnprintf+0xb20>
    7d70:	f9404ba0 	ldr	x0, [x29,#144]
    7d74:	b4000120 	cbz	x0, 7d98 <__vsnprintf+0xb20>
/home/rahulmahadev/hikey_optee/optee_os/lib/libutils/ext/snprintk.c:144
    7d78:	f9404ba1 	ldr	x1, [x29,#144]
    7d7c:	93407f60 	sxtw	x0, w27
    7d80:	eb00003f 	cmp	x1, x0
    7d84:	54000068 	b.hi	7d90 <__vsnprintf+0xb18>
/home/rahulmahadev/hikey_optee/optee_os/lib/libutils/ext/snprintk.c:145
    7d88:	381ff31f 	strb	wzr, [x24,#-1]
    7d8c:	14000003 	b	7d98 <__vsnprintf+0xb20>
/home/rahulmahadev/hikey_optee/optee_os/lib/libutils/ext/snprintk.c:147
    7d90:	f9404fa1 	ldr	x1, [x29,#152]
    7d94:	3820683f 	strb	wzr, [x1,x0]
/home/rahulmahadev/hikey_optee/optee_os/lib/libutils/ext/snprintk.c:150
    7d98:	910003bf 	mov	sp, x29
    7d9c:	2a1b03e0 	mov	w0, w27
    7da0:	a94153f3 	ldp	x19, x20, [sp,#16]
    7da4:	a9425bf5 	ldp	x21, x22, [sp,#32]
    7da8:	a94363f7 	ldp	x23, x24, [sp,#48]
    7dac:	a9446bf9 	ldp	x25, x26, [sp,#64]
    7db0:	a94573fb 	ldp	x27, x28, [sp,#80]
    7db4:	a8cd7bfd 	ldp	x29, x30, [sp],#208
    7db8:	d65f03c0 	ret

0000000000007dbc <vsnprintk>:
vsnprintk():
/home/rahulmahadev/hikey_optee/optee_os/lib/libutils/ext/snprintk.c:128
    7dbc:	a9bb7bfd 	stp	x29, x30, [sp,#-80]!
    7dc0:	910003fd 	mov	x29, sp
/home/rahulmahadev/hikey_optee/optee_os/lib/libutils/ext/snprintk.c:129
    7dc4:	9100c3a4 	add	x4, x29, #0x30
/home/rahulmahadev/hikey_optee/optee_os/lib/libutils/ext/snprintk.c:128
    7dc8:	f90013f5 	str	x21, [sp,#32]
    7dcc:	a90153f3 	stp	x19, x20, [sp,#16]
    7dd0:	aa0203f5 	mov	x21, x2
    7dd4:	aa0003f3 	mov	x19, x0
    7dd8:	aa0103f4 	mov	x20, x1
/home/rahulmahadev/hikey_optee/optee_os/lib/libutils/ext/snprintk.c:129
    7ddc:	d2800402 	mov	x2, #0x20                  	// #32
    7de0:	aa0303e1 	mov	x1, x3
    7de4:	aa0403e0 	mov	x0, x4
    7de8:	97fffcee 	bl	71a0 <memcpy>
    7dec:	aa0003e3 	mov	x3, x0
    7df0:	aa1503e2 	mov	x2, x21
    7df4:	aa1403e1 	mov	x1, x20
    7df8:	52800024 	mov	w4, #0x1                   	// #1
    7dfc:	aa1303e0 	mov	x0, x19
    7e00:	97fffd1e 	bl	7278 <__vsnprintf>
/home/rahulmahadev/hikey_optee/optee_os/lib/libutils/ext/snprintk.c:130
    7e04:	f94013f5 	ldr	x21, [sp,#32]
    7e08:	a94153f3 	ldp	x19, x20, [sp,#16]
    7e0c:	a8c57bfd 	ldp	x29, x30, [sp],#80
    7e10:	d65f03c0 	ret

0000000000007e14 <snprintk>:
snprintk():
/home/rahulmahadev/hikey_optee/optee_os/lib/libutils/ext/snprintk.c:111
    7e14:	a9b87bfd 	stp	x29, x30, [sp,#-128]!
    7e18:	910003fd 	mov	x29, sp
    7e1c:	f9002fa3 	str	x3, [x29,#88]
/home/rahulmahadev/hikey_optee/optee_os/lib/libutils/ext/snprintk.c:115
    7e20:	910203a3 	add	x3, x29, #0x80
    7e24:	f9001ba3 	str	x3, [x29,#48]
    7e28:	f9001fa3 	str	x3, [x29,#56]
    7e2c:	910143a3 	add	x3, x29, #0x50
    7e30:	b9004fbf 	str	wzr, [x29,#76]
    7e34:	f90023a3 	str	x3, [x29,#64]
    7e38:	128004e3 	mov	w3, #0xffffffd8            	// #-40
    7e3c:	b9004ba3 	str	w3, [x29,#72]
/home/rahulmahadev/hikey_optee/optee_os/lib/libutils/ext/snprintk.c:116
    7e40:	910043a3 	add	x3, x29, #0x10
/home/rahulmahadev/hikey_optee/optee_os/lib/libutils/ext/snprintk.c:111
    7e44:	f90033a4 	str	x4, [x29,#96]
    7e48:	f90037a5 	str	x5, [x29,#104]
/home/rahulmahadev/hikey_optee/optee_os/lib/libutils/ext/snprintk.c:116
    7e4c:	a94317a4 	ldp	x4, x5, [x29,#48]
    7e50:	a90117a4 	stp	x4, x5, [x29,#16]
    7e54:	a94417a4 	ldp	x4, x5, [x29,#64]
/home/rahulmahadev/hikey_optee/optee_os/lib/libutils/ext/snprintk.c:111
    7e58:	f9003ba6 	str	x6, [x29,#112]
    7e5c:	f9003fa7 	str	x7, [x29,#120]
/home/rahulmahadev/hikey_optee/optee_os/lib/libutils/ext/snprintk.c:116
    7e60:	a90217a4 	stp	x4, x5, [x29,#32]
    7e64:	97ffffd6 	bl	7dbc <vsnprintk>
/home/rahulmahadev/hikey_optee/optee_os/lib/libutils/ext/snprintk.c:120
    7e68:	a8c87bfd 	ldp	x29, x30, [sp],#128
    7e6c:	d65f03c0 	ret

0000000000007e70 <strlcpy>:
strlcpy():
/home/rahulmahadev/hikey_optee/optee_os/lib/libutils/ext/strlcpy.c:46
    7e70:	aa0103e3 	mov	x3, x1
/home/rahulmahadev/hikey_optee/optee_os/lib/libutils/ext/strlcpy.c:52
    7e74:	b4000102 	cbz	x2, 7e94 <strlcpy+0x24>
/home/rahulmahadev/hikey_optee/optee_os/lib/libutils/ext/strlcpy.c:52 (discriminator 1)
    7e78:	f1000442 	subs	x2, x2, #0x1
    7e7c:	540000a0 	b.eq	7e90 <strlcpy+0x20>
/home/rahulmahadev/hikey_optee/optee_os/lib/libutils/ext/strlcpy.c:54
    7e80:	38401464 	ldrb	w4, [x3],#1
    7e84:	38001404 	strb	w4, [x0],#1
    7e88:	35ffff84 	cbnz	w4, 7e78 <strlcpy+0x8>
    7e8c:	14000004 	b	7e9c <strlcpy+0x2c>
/home/rahulmahadev/hikey_optee/optee_os/lib/libutils/ext/strlcpy.c:62
    7e90:	3900001f 	strb	wzr, [x0]
/home/rahulmahadev/hikey_optee/optee_os/lib/libutils/ext/strlcpy.c:63 (discriminator 1)
    7e94:	38401460 	ldrb	w0, [x3],#1
    7e98:	35ffffe0 	cbnz	w0, 7e94 <strlcpy+0x24>
/home/rahulmahadev/hikey_optee/optee_os/lib/libutils/ext/strlcpy.c:67
    7e9c:	cb010060 	sub	x0, x3, x1
    7ea0:	d1000400 	sub	x0, x0, #0x1
/home/rahulmahadev/hikey_optee/optee_os/lib/libutils/ext/strlcpy.c:68
    7ea4:	d65f03c0 	ret

0000000000007ea8 <buf_compare_ct>:
buf_compare_ct():
/home/rahulmahadev/hikey_optee/optee_os/lib/libutils/ext/buf_compare_ct.c:35
    7ea8:	d2800004 	mov	x4, #0x0                   	// #0
/home/rahulmahadev/hikey_optee/optee_os/lib/libutils/ext/buf_compare_ct.c:31
    7eac:	52800003 	mov	w3, #0x0                   	// #0
/home/rahulmahadev/hikey_optee/optee_os/lib/libutils/ext/buf_compare_ct.c:35
    7eb0:	eb02009f 	cmp	x4, x2
    7eb4:	54000100 	b.eq	7ed4 <buf_compare_ct+0x2c>
/home/rahulmahadev/hikey_optee/optee_os/lib/libutils/ext/buf_compare_ct.c:36
    7eb8:	38646826 	ldrb	w6, [x1,x4]
    7ebc:	38646805 	ldrb	w5, [x0,x4]
    7ec0:	91000484 	add	x4, x4, #0x1
    7ec4:	4a0500c5 	eor	w5, w6, w5
    7ec8:	53001ca5 	uxtb	w5, w5
    7ecc:	2a050063 	orr	w3, w3, w5
    7ed0:	17fffff8 	b	7eb0 <buf_compare_ct+0x8>
/home/rahulmahadev/hikey_optee/optee_os/lib/libutils/ext/buf_compare_ct.c:41
    7ed4:	2a831063 	orr	w3, w3, w3, asr #4
/home/rahulmahadev/hikey_optee/optee_os/lib/libutils/ext/buf_compare_ct.c:42
    7ed8:	2a830863 	orr	w3, w3, w3, asr #2
/home/rahulmahadev/hikey_optee/optee_os/lib/libutils/ext/buf_compare_ct.c:43
    7edc:	2a830460 	orr	w0, w3, w3, asr #1
/home/rahulmahadev/hikey_optee/optee_os/lib/libutils/ext/buf_compare_ct.c:47
    7ee0:	12000000 	and	w0, w0, #0x1
    7ee4:	d65f03c0 	ret

0000000000007ee8 <trace_set_level>:
trace_set_level():
/home/rahulmahadev/hikey_optee/optee_os/lib/libutils/ext/trace.c:43
    7ee8:	51000401 	sub	w1, w0, #0x1
    7eec:	71000c3f 	cmp	w1, #0x3
    7ef0:	f0000021 	adrp	x1, e000 <__compound_literal.2+0x72a>
/home/rahulmahadev/hikey_optee/optee_os/lib/libutils/ext/trace.c:44
    7ef4:	f9409821 	ldr	x1, [x1,#304]
/home/rahulmahadev/hikey_optee/optee_os/lib/libutils/ext/trace.c:43
    7ef8:	54000049 	b.ls	7f00 <trace_set_level+0x18>
/home/rahulmahadev/hikey_optee/optee_os/lib/libutils/ext/trace.c:46
    7efc:	52800080 	mov	w0, #0x4                   	// #4
    7f00:	b9000020 	str	w0, [x1]
/home/rahulmahadev/hikey_optee/optee_os/lib/libutils/ext/trace.c:47
    7f04:	d65f03c0 	ret

0000000000007f08 <trace_get_level>:
trace_get_level():
/home/rahulmahadev/hikey_optee/optee_os/lib/libutils/ext/trace.c:51
    7f08:	f0000020 	adrp	x0, e000 <__compound_literal.2+0x72a>
    7f0c:	f9409800 	ldr	x0, [x0,#304]
/home/rahulmahadev/hikey_optee/optee_os/lib/libutils/ext/trace.c:52
    7f10:	b9400000 	ldr	w0, [x0]
    7f14:	d65f03c0 	ret

0000000000007f18 <trace_printf>:
trace_printf():
/home/rahulmahadev/hikey_optee/optee_os/lib/libutils/ext/trace.c:72
    7f18:	a9a57bfd 	stp	x29, x30, [sp,#-432]!
    7f1c:	910003fd 	mov	x29, sp
    7f20:	a9025bf5 	stp	x21, x22, [sp,#32]
    7f24:	a90153f3 	stp	x19, x20, [sp,#16]
    7f28:	f9001bf7 	str	x23, [sp,#48]
    7f2c:	53001c77 	uxtb	w23, w3
    7f30:	f900cfa5 	str	x5, [x29,#408]
    7f34:	aa0003f5 	mov	x21, x0
    7f38:	f900d3a6 	str	x6, [x29,#416]
    7f3c:	2a0203f3 	mov	w19, w2
    7f40:	f900d7a7 	str	x7, [x29,#424]
    7f44:	aa0403f6 	mov	x22, x4
/home/rahulmahadev/hikey_optee/optee_os/lib/libutils/ext/trace.c:78
    7f48:	340000d7 	cbz	w23, 7f60 <trace_printf+0x48>
/home/rahulmahadev/hikey_optee/optee_os/lib/libutils/ext/trace.c:78 (discriminator 1)
    7f4c:	f0000020 	adrp	x0, e000 <__compound_literal.2+0x72a>
    7f50:	f9409800 	ldr	x0, [x0,#304]
    7f54:	b9400000 	ldr	w0, [x0]
    7f58:	6b00005f 	cmp	w2, w0
    7f5c:	54000aec 	b.gt	80b8 <trace_printf+0x1a0>
    7f60:	b9004fa1 	str	w1, [x29,#76]
    7f64:	910243b4 	add	x20, x29, #0x90
/home/rahulmahadev/hikey_optee/optee_os/lib/libutils/ext/trace.c:81
    7f68:	b40005d5 	cbz	x21, 8020 <trace_printf+0x108>
/home/rahulmahadev/hikey_optee/optee_os/lib/libutils/ext/trace.c:82
    7f6c:	97fff914 	bl	63bc <trace_ext_get_thread_id>
    7f70:	f0000024 	adrp	x4, e000 <__compound_literal.2+0x72a>
/home/rahulmahadev/hikey_optee/optee_os/lib/libutils/ext/trace.c:84
    7f74:	b9404fa1 	ldr	w1, [x29,#76]
    7f78:	37f802a0 	tbnz	w0, #31, 7fcc <trace_printf+0xb4>
trace_level_to_string():
/home/rahulmahadev/hikey_optee/optee_os/lib/libutils/ext/trace.c:60
    7f7c:	34000117 	cbz	w23, 7f9c <trace_printf+0x84>
/home/rahulmahadev/hikey_optee/optee_os/lib/libutils/ext/trace.c:63
    7f80:	51000663 	sub	w3, w19, #0x1
/home/rahulmahadev/hikey_optee/optee_os/lib/libutils/ext/trace.c:58
    7f84:	7100107f 	cmp	w3, #0x4
/home/rahulmahadev/hikey_optee/optee_os/lib/libutils/ext/trace.c:66
    7f88:	b0000023 	adrp	x3, c000 <utee_authenc_update_aad>
/home/rahulmahadev/hikey_optee/optee_os/lib/libutils/ext/trace.c:58
    7f8c:	1a9f3273 	csel	w19, w19, wzr, cc
/home/rahulmahadev/hikey_optee/optee_os/lib/libutils/ext/trace.c:66
    7f90:	912ce063 	add	x3, x3, #0xb38
    7f94:	8b33c863 	add	x3, x3, w19, sxtw #2
    7f98:	14000003 	b	7fa4 <trace_printf+0x8c>
/home/rahulmahadev/hikey_optee/optee_os/lib/libutils/ext/trace.c:61
    7f9c:	d0000023 	adrp	x3, d000 <PRIME_TABLE+0x388>
    7fa0:	91387863 	add	x3, x3, #0xe1e
trace_printf():
/home/rahulmahadev/hikey_optee/optee_os/lib/libutils/ext/trace.c:85
    7fa4:	f940a085 	ldr	x5, [x4,#320]
    7fa8:	d0000022 	adrp	x2, d000 <PRIME_TABLE+0x388>
    7fac:	2a0103e7 	mov	w7, w1
    7fb0:	2a0003e4 	mov	w4, w0
    7fb4:	aa1503e6 	mov	x6, x21
    7fb8:	91388842 	add	x2, x2, #0xe22
    7fbc:	d2802001 	mov	x1, #0x100                 	// #256
    7fc0:	aa1403e0 	mov	x0, x20
    7fc4:	97ffff94 	bl	7e14 <snprintk>
    7fc8:	14000013 	b	8014 <trace_printf+0xfc>
trace_level_to_string():
/home/rahulmahadev/hikey_optee/optee_os/lib/libutils/ext/trace.c:60
    7fcc:	34000117 	cbz	w23, 7fec <trace_printf+0xd4>
/home/rahulmahadev/hikey_optee/optee_os/lib/libutils/ext/trace.c:63
    7fd0:	51000660 	sub	w0, w19, #0x1
/home/rahulmahadev/hikey_optee/optee_os/lib/libutils/ext/trace.c:66
    7fd4:	b0000023 	adrp	x3, c000 <utee_authenc_update_aad>
/home/rahulmahadev/hikey_optee/optee_os/lib/libutils/ext/trace.c:58
    7fd8:	7100101f 	cmp	w0, #0x4
/home/rahulmahadev/hikey_optee/optee_os/lib/libutils/ext/trace.c:66
    7fdc:	912ce063 	add	x3, x3, #0xb38
/home/rahulmahadev/hikey_optee/optee_os/lib/libutils/ext/trace.c:58
    7fe0:	1a9f3273 	csel	w19, w19, wzr, cc
/home/rahulmahadev/hikey_optee/optee_os/lib/libutils/ext/trace.c:66
    7fe4:	8b33c863 	add	x3, x3, w19, sxtw #2
    7fe8:	14000003 	b	7ff4 <trace_printf+0xdc>
/home/rahulmahadev/hikey_optee/optee_os/lib/libutils/ext/trace.c:61
    7fec:	d0000023 	adrp	x3, d000 <PRIME_TABLE+0x388>
    7ff0:	91387863 	add	x3, x3, #0xe1e
trace_printf():
/home/rahulmahadev/hikey_optee/optee_os/lib/libutils/ext/trace.c:90
    7ff4:	d0000022 	adrp	x2, d000 <PRIME_TABLE+0x388>
    7ff8:	f940a084 	ldr	x4, [x4,#320]
    7ffc:	2a0103e6 	mov	w6, w1
    8000:	aa1503e5 	mov	x5, x21
    8004:	9138dc42 	add	x2, x2, #0xe37
    8008:	d2802001 	mov	x1, #0x100                 	// #256
    800c:	aa1403e0 	mov	x0, x20
    8010:	97ffff81 	bl	7e14 <snprintk>
/home/rahulmahadev/hikey_optee/optee_os/lib/libutils/ext/trace.c:95
    8014:	93407c13 	sxtw	x19, w0
/home/rahulmahadev/hikey_optee/optee_os/lib/libutils/ext/trace.c:93
    8018:	36f80060 	tbz	w0, #31, 8024 <trace_printf+0x10c>
    801c:	14000027 	b	80b8 <trace_printf+0x1a0>
/home/rahulmahadev/hikey_optee/optee_os/lib/libutils/ext/trace.c:75
    8020:	d2800013 	mov	x19, #0x0                   	// #0
/home/rahulmahadev/hikey_optee/optee_os/lib/libutils/ext/trace.c:98
    8024:	9106c3a0 	add	x0, x29, #0x1b0
    8028:	f9003ba0 	str	x0, [x29,#112]
    802c:	f9003fa0 	str	x0, [x29,#120]
    8030:	910643a0 	add	x0, x29, #0x190
    8034:	b9008fbf 	str	wzr, [x29,#140]
/home/rahulmahadev/hikey_optee/optee_os/lib/libutils/ext/trace.c:99
    8038:	910143a3 	add	x3, x29, #0x50
/home/rahulmahadev/hikey_optee/optee_os/lib/libutils/ext/trace.c:98
    803c:	f90043a0 	str	x0, [x29,#128]
    8040:	128002e0 	mov	w0, #0xffffffe8            	// #-24
    8044:	b9008ba0 	str	w0, [x29,#136]
/home/rahulmahadev/hikey_optee/optee_os/lib/libutils/ext/trace.c:99
    8048:	aa1603e2 	mov	x2, x22
    804c:	a94707a0 	ldp	x0, x1, [x29,#112]
    8050:	a90507a0 	stp	x0, x1, [x29,#80]
    8054:	a94807a0 	ldp	x0, x1, [x29,#128]
    8058:	a90607a0 	stp	x0, x1, [x29,#96]
    805c:	d2802001 	mov	x1, #0x100                 	// #256
    8060:	8b130280 	add	x0, x20, x19
    8064:	cb130021 	sub	x1, x1, x19
    8068:	97ffff55 	bl	7dbc <vsnprintk>
/home/rahulmahadev/hikey_optee/optee_os/lib/libutils/ext/trace.c:102
    806c:	6b1f001f 	cmp	w0, wzr
    8070:	8b20c261 	add	x1, x19, w0, sxtw
    8074:	9a93c033 	csel	x19, x1, x19, gt
/home/rahulmahadev/hikey_optee/optee_os/lib/libutils/ext/trace.c:104
    8078:	f103fe7f 	cmp	x19, #0xff
    807c:	54000089 	b.ls	808c <trace_printf+0x174>
/home/rahulmahadev/hikey_optee/optee_os/lib/libutils/ext/trace.c:107
    8080:	52800140 	mov	w0, #0xa                   	// #10
    8084:	39063ba0 	strb	w0, [x29,#398]
    8088:	1400000a 	b	80b0 <trace_printf+0x198>
/home/rahulmahadev/hikey_optee/optee_os/lib/libutils/ext/trace.c:108
    808c:	91023fa0 	add	x0, x29, #0x8f
    8090:	38736800 	ldrb	w0, [x0,x19]
    8094:	7100281f 	cmp	w0, #0xa
    8098:	540000c0 	b.eq	80b0 <trace_printf+0x198>
/home/rahulmahadev/hikey_optee/optee_os/lib/libutils/ext/trace.c:110
    809c:	910643a0 	add	x0, x29, #0x190
    80a0:	8b130013 	add	x19, x0, x19
    80a4:	52800140 	mov	w0, #0xa                   	// #10
/home/rahulmahadev/hikey_optee/optee_os/lib/libutils/ext/trace.c:111
    80a8:	3810127f 	strb	wzr, [x19,#-255]
/home/rahulmahadev/hikey_optee/optee_os/lib/libutils/ext/trace.c:110
    80ac:	38100260 	strb	w0, [x19,#-256]
/home/rahulmahadev/hikey_optee/optee_os/lib/libutils/ext/trace.c:114
    80b0:	aa1403e0 	mov	x0, x20
    80b4:	97fff8b8 	bl	6394 <trace_ext_puts>
/home/rahulmahadev/hikey_optee/optee_os/lib/libutils/ext/trace.c:115
    80b8:	a94153f3 	ldp	x19, x20, [sp,#16]
    80bc:	a9425bf5 	ldp	x21, x22, [sp,#32]
    80c0:	f9401bf7 	ldr	x23, [sp,#48]
    80c4:	a8db7bfd 	ldp	x29, x30, [sp],#432
    80c8:	d65f03c0 	ret

00000000000080cc <dhex_dump>:
dhex_dump():
/home/rahulmahadev/hikey_optee/optee_os/lib/libutils/ext/trace.c:227
    80cc:	d65f03c0 	ret

00000000000080d0 <memchr>:
memchr():
/home/rahulmahadev/hikey_optee/optee_os/lib/libutils/isoc/newlib/memchr.c:107
    80d0:	53001c21 	uxtb	w1, w1
    80d4:	8b020002 	add	x2, x0, x2
/home/rahulmahadev/hikey_optee/optee_os/lib/libutils/isoc/newlib/memchr.c:151
    80d8:	eb02001f 	cmp	x0, x2
    80dc:	540000c0 	b.eq	80f4 <memchr+0x24>
/home/rahulmahadev/hikey_optee/optee_os/lib/libutils/isoc/newlib/memchr.c:152
    80e0:	39400003 	ldrb	w3, [x0]
    80e4:	6b01007f 	cmp	w3, w1
    80e8:	54000080 	b.eq	80f8 <memchr+0x28>
/home/rahulmahadev/hikey_optee/optee_os/lib/libutils/isoc/newlib/memchr.c:154
    80ec:	91000400 	add	x0, x0, #0x1
    80f0:	17fffffa 	b	80d8 <memchr+0x8>
/home/rahulmahadev/hikey_optee/optee_os/lib/libutils/isoc/newlib/memchr.c:157
    80f4:	d2800000 	mov	x0, #0x0                   	// #0
/home/rahulmahadev/hikey_optee/optee_os/lib/libutils/isoc/newlib/memchr.c:158
    80f8:	d65f03c0 	ret

00000000000080fc <__mpa_set_unused_digits_to_zero>:
__mpa_set_unused_digits_to_zero():
/home/rahulmahadev/hikey_optee/optee_os/lib/libmpa/mpa_misc.c:59
    80fc:	b9800402 	ldrsw	x2, [x0,#4]
    8100:	ca82fc43 	eor	x3, x2, x2, asr #63
    8104:	cb82fc61 	sub	x1, x3, x2, asr #63
/home/rahulmahadev/hikey_optee/optee_os/lib/libmpa/mpa_misc.c:60
    8108:	b9400002 	ldr	w2, [x0]
    810c:	8b21c800 	add	x0, x0, w1, sxtw #2
    8110:	91002000 	add	x0, x0, #0x8
    8114:	4b010042 	sub	w2, w2, w1
    8118:	52800001 	mov	w1, #0x0                   	// #0
    811c:	d37e7442 	ubfiz	x2, x2, #2, #30
    8120:	17fffc3c 	b	7210 <memset>

0000000000008124 <mpa_wipe>:
mpa_wipe():
/home/rahulmahadev/hikey_optee/optee_os/lib/libmpa/mpa_misc.c:77
    8124:	a9be7bfd 	stp	x29, x30, [sp,#-32]!
/home/rahulmahadev/hikey_optee/optee_os/lib/libmpa/mpa_misc.c:78
    8128:	52800001 	mov	w1, #0x0                   	// #0
/home/rahulmahadev/hikey_optee/optee_os/lib/libmpa/mpa_misc.c:77
    812c:	910003fd 	mov	x29, sp
    8130:	f9000bf3 	str	x19, [sp,#16]
    8134:	aa0003f3 	mov	x19, x0
/home/rahulmahadev/hikey_optee/optee_os/lib/libmpa/mpa_misc.c:78
    8138:	b8408402 	ldr	w2, [x0],#8
    813c:	d37e7442 	ubfiz	x2, x2, #2, #30
    8140:	97fffc34 	bl	7210 <memset>
/home/rahulmahadev/hikey_optee/optee_os/lib/libmpa/mpa_misc.c:79
    8144:	b900067f 	str	wzr, [x19,#4]
/home/rahulmahadev/hikey_optee/optee_os/lib/libmpa/mpa_misc.c:80
    8148:	f9400bf3 	ldr	x19, [sp,#16]
    814c:	a8c27bfd 	ldp	x29, x30, [sp],#32
    8150:	d65f03c0 	ret

0000000000008154 <mpa_copy>:
mpa_copy():
/home/rahulmahadev/hikey_optee/optee_os/lib/libmpa/mpa_misc.c:92
    8154:	a9be7bfd 	stp	x29, x30, [sp,#-32]!
/home/rahulmahadev/hikey_optee/optee_os/lib/libmpa/mpa_misc.c:93
    8158:	eb01001f 	cmp	x0, x1
/home/rahulmahadev/hikey_optee/optee_os/lib/libmpa/mpa_misc.c:92
    815c:	910003fd 	mov	x29, sp
    8160:	a90153f3 	stp	x19, x20, [sp,#16]
/home/rahulmahadev/hikey_optee/optee_os/lib/libmpa/mpa_misc.c:93
    8164:	540001a0 	b.eq	8198 <mpa_copy+0x44>
/home/rahulmahadev/hikey_optee/optee_os/lib/libmpa/mpa_misc.c:96
    8168:	b9800422 	ldrsw	x2, [x1,#4]
    816c:	aa0003f4 	mov	x20, x0
    8170:	aa0103f3 	mov	x19, x1
    8174:	91002021 	add	x1, x1, #0x8
    8178:	ca82fc40 	eor	x0, x2, x2, asr #63
    817c:	cb82fc02 	sub	x2, x0, x2, asr #63
    8180:	91002280 	add	x0, x20, #0x8
    8184:	531e7442 	lsl	w2, w2, #2
    8188:	93407c42 	sxtw	x2, w2
    818c:	97fffc05 	bl	71a0 <memcpy>
/home/rahulmahadev/hikey_optee/optee_os/lib/libmpa/mpa_misc.c:97
    8190:	b9400660 	ldr	w0, [x19,#4]
    8194:	b9000680 	str	w0, [x20,#4]
/home/rahulmahadev/hikey_optee/optee_os/lib/libmpa/mpa_misc.c:98
    8198:	a94153f3 	ldp	x19, x20, [sp,#16]
    819c:	a8c27bfd 	ldp	x29, x30, [sp],#32
    81a0:	d65f03c0 	ret

00000000000081a4 <mpa_abs>:
mpa_abs():
/home/rahulmahadev/hikey_optee/optee_os/lib/libmpa/mpa_misc.c:106
    81a4:	a9be7bfd 	stp	x29, x30, [sp,#-32]!
    81a8:	910003fd 	mov	x29, sp
    81ac:	f9000bf3 	str	x19, [sp,#16]
    81b0:	aa0003f3 	mov	x19, x0
/home/rahulmahadev/hikey_optee/optee_os/lib/libmpa/mpa_misc.c:107
    81b4:	97ffffe8 	bl	8154 <mpa_copy>
/home/rahulmahadev/hikey_optee/optee_os/lib/libmpa/mpa_misc.c:108
    81b8:	b9400661 	ldr	w1, [x19,#4]
    81bc:	36f80061 	tbz	w1, #31, 81c8 <mpa_abs+0x24>
/home/rahulmahadev/hikey_optee/optee_os/lib/libmpa/mpa_misc.c:108 (discriminator 1)
    81c0:	4b0103e1 	neg	w1, w1
    81c4:	b9000661 	str	w1, [x19,#4]
/home/rahulmahadev/hikey_optee/optee_os/lib/libmpa/mpa_misc.c:109
    81c8:	f9400bf3 	ldr	x19, [sp,#16]
    81cc:	a8c27bfd 	ldp	x29, x30, [sp],#32
    81d0:	d65f03c0 	ret

00000000000081d4 <mpa_highest_bit_index>:
mpa_highest_bit_index():
/home/rahulmahadev/hikey_optee/optee_os/lib/libmpa/mpa_misc.c:123
    81d4:	b9400401 	ldr	w1, [x0,#4]
/home/rahulmahadev/hikey_optee/optee_os/lib/libmpa/mpa_misc.c:119
    81d8:	aa0003e2 	mov	x2, x0
/home/rahulmahadev/hikey_optee/optee_os/lib/libmpa/mpa_misc.c:124
    81dc:	12800000 	mov	w0, #0xffffffff            	// #-1
/home/rahulmahadev/hikey_optee/optee_os/lib/libmpa/mpa_misc.c:123
    81e0:	340001c1 	cbz	w1, 8218 <mpa_highest_bit_index+0x44>
/home/rahulmahadev/hikey_optee/optee_os/lib/libmpa/mpa_misc.c:126
    81e4:	93407c21 	sxtw	x1, w1
    81e8:	ca81fc20 	eor	x0, x1, x1, asr #63
    81ec:	cb81fc01 	sub	x1, x0, x1, asr #63
/home/rahulmahadev/hikey_optee/optee_os/lib/libmpa/mpa_misc.c:128
    81f0:	52800000 	mov	w0, #0x0                   	// #0
/home/rahulmahadev/hikey_optee/optee_os/lib/libmpa/mpa_misc.c:126
    81f4:	51000421 	sub	w1, w1, #0x1
    81f8:	8b21c842 	add	x2, x2, w1, sxtw #2
    81fc:	b9400842 	ldr	w2, [x2,#8]
/home/rahulmahadev/hikey_optee/optee_os/lib/libmpa/mpa_misc.c:129
    8200:	53017c42 	lsr	w2, w2, #1
/home/rahulmahadev/hikey_optee/optee_os/lib/libmpa/mpa_misc.c:130
    8204:	34000082 	cbz	w2, 8214 <mpa_highest_bit_index+0x40>
/home/rahulmahadev/hikey_optee/optee_os/lib/libmpa/mpa_misc.c:128 (discriminator 2)
    8208:	11000400 	add	w0, w0, #0x1
    820c:	7100801f 	cmp	w0, #0x20
    8210:	54ffff81 	b.ne	8200 <mpa_highest_bit_index+0x2c>
/home/rahulmahadev/hikey_optee/optee_os/lib/libmpa/mpa_misc.c:133
    8214:	0b011400 	add	w0, w0, w1, lsl #5
/home/rahulmahadev/hikey_optee/optee_os/lib/libmpa/mpa_misc.c:134
    8218:	d65f03c0 	ret

000000000000821c <mpa_get_bit>:
mpa_get_bit():
/home/rahulmahadev/hikey_optee/optee_os/lib/libmpa/mpa_misc.c:153
    821c:	b9800403 	ldrsw	x3, [x0,#4]
/home/rahulmahadev/hikey_optee/optee_os/lib/libmpa/mpa_misc.c:150
    8220:	53057c22 	lsr	w2, w1, #5
/home/rahulmahadev/hikey_optee/optee_os/lib/libmpa/mpa_misc.c:153
    8224:	ca83fc64 	eor	x4, x3, x3, asr #63
    8228:	cb83fc83 	sub	x3, x4, x3, asr #63
/home/rahulmahadev/hikey_optee/optee_os/lib/libmpa/mpa_misc.c:154
    822c:	52800004 	mov	w4, #0x0                   	// #0
/home/rahulmahadev/hikey_optee/optee_os/lib/libmpa/mpa_misc.c:153
    8230:	6b03005f 	cmp	w2, w3
    8234:	54000128 	b.hi	8258 <mpa_get_bit+0x3c>
/home/rahulmahadev/hikey_optee/optee_os/lib/libmpa/mpa_misc.c:156
    8238:	d37e6842 	ubfiz	x2, x2, #2, #27
/home/rahulmahadev/hikey_optee/optee_os/lib/libmpa/mpa_misc.c:155
    823c:	52800023 	mov	w3, #0x1                   	// #1
/home/rahulmahadev/hikey_optee/optee_os/lib/libmpa/mpa_misc.c:156
    8240:	8b020000 	add	x0, x0, x2
/home/rahulmahadev/hikey_optee/optee_os/lib/libmpa/mpa_misc.c:155
    8244:	1ac12061 	lsl	w1, w3, w1
    8248:	93407c21 	sxtw	x1, w1
/home/rahulmahadev/hikey_optee/optee_os/lib/libmpa/mpa_misc.c:156
    824c:	b9400800 	ldr	w0, [x0,#8]
    8250:	ea00003f 	tst	x1, x0
    8254:	1a9f07e4 	cset	w4, ne
/home/rahulmahadev/hikey_optee/optee_os/lib/libmpa/mpa_misc.c:157
    8258:	2a0403e0 	mov	w0, w4
    825c:	d65f03c0 	ret

0000000000008260 <mpa_can_hold>:
mpa_can_hold():
/home/rahulmahadev/hikey_optee/optee_os/lib/libmpa/mpa_misc.c:167
    8260:	b9800421 	ldrsw	x1, [x1,#4]
    8264:	b9400000 	ldr	w0, [x0]
    8268:	ca81fc22 	eor	x2, x1, x1, asr #63
    826c:	cb81fc41 	sub	x1, x2, x1, asr #63
    8270:	6b01001f 	cmp	w0, w1
/home/rahulmahadev/hikey_optee/optee_os/lib/libmpa/mpa_misc.c:168
    8274:	1a9f37e0 	cset	w0, cs
    8278:	d65f03c0 	ret

000000000000827c <mpa_parity>:
mpa_parity():
/home/rahulmahadev/hikey_optee/optee_os/lib/libmpa/mpa_misc.c:177
    827c:	b9400800 	ldr	w0, [x0,#8]
/home/rahulmahadev/hikey_optee/optee_os/lib/libmpa/mpa_misc.c:179
    8280:	12000000 	and	w0, w0, #0x1
    8284:	d65f03c0 	ret

0000000000008288 <mpa_constant_one>:
mpa_constant_one():
/home/rahulmahadev/hikey_optee/optee_os/lib/libmpa/mpa_misc.c:189
    8288:	90000020 	adrp	x0, c000 <utee_authenc_update_aad>
    828c:	912dc000 	add	x0, x0, #0xb70
    8290:	d65f03c0 	ret

0000000000008294 <__mpa_montgomery_mul_add>:
__mpa_montgomery_mul_add():
/home/rahulmahadev/hikey_optee/optee_os/lib/libmpa/mpa_montgomery.c:56
    8294:	340003a2 	cbz	w2, 8308 <__mpa_montgomery_mul_add+0x74>
/home/rahulmahadev/hikey_optee/optee_os/lib/libmpa/mpa_montgomery.c:58
    8298:	91002007 	add	x7, x0, #0x8
/home/rahulmahadev/hikey_optee/optee_os/lib/libmpa/mpa_montgomery.c:60
    829c:	52800004 	mov	w4, #0x0                   	// #0
/home/rahulmahadev/hikey_optee/optee_os/lib/libmpa/mpa_montgomery.c:59
    82a0:	aa0703e3 	mov	x3, x7
/home/rahulmahadev/hikey_optee/optee_os/lib/libmpa/mpa_montgomery.c:61
    82a4:	52800005 	mov	w5, #0x0                   	// #0
    82a8:	b9400426 	ldr	w6, [x1,#4]
    82ac:	6b0600bf 	cmp	w5, w6
    82b0:	5400014a 	b.ge	82d8 <__mpa_montgomery_mul_add+0x44>
/home/rahulmahadev/hikey_optee/optee_os/lib/libmpa/mpa_montgomery.c:63
    82b4:	8b25c826 	add	x6, x1, w5, sxtw #2
    82b8:	b94008c6 	ldr	w6, [x6,#8]
/home/rahulmahadev/hikey_optee/optee_os/lib/libmpa/mpa_montgomery.c:62
    82bc:	b9400068 	ldr	w8, [x3]
    82c0:	8b244104 	add	x4, x8, w4, uxtw
/home/rahulmahadev/hikey_optee/optee_os/lib/libmpa/mpa_montgomery.c:61
    82c4:	110004a5 	add	w5, w5, #0x1
/home/rahulmahadev/hikey_optee/optee_os/lib/libmpa/mpa_montgomery.c:62
    82c8:	9ba210c4 	umaddl	x4, w6, w2, x4
/home/rahulmahadev/hikey_optee/optee_os/lib/libmpa/mpa_montgomery.c:65
    82cc:	b8004464 	str	w4, [x3],#4
/home/rahulmahadev/hikey_optee/optee_os/lib/libmpa/mpa_montgomery.c:66
    82d0:	d360fc84 	lsr	x4, x4, #32
    82d4:	17fffff5 	b	82a8 <__mpa_montgomery_mul_add+0x14>
/home/rahulmahadev/hikey_optee/optee_os/lib/libmpa/mpa_montgomery.c:68
    82d8:	340000c4 	cbz	w4, 82f0 <__mpa_montgomery_mul_add+0x5c>
/home/rahulmahadev/hikey_optee/optee_os/lib/libmpa/mpa_montgomery.c:69
    82dc:	b9400061 	ldr	w1, [x3]
    82e0:	8b244024 	add	x4, x1, w4, uxtw
/home/rahulmahadev/hikey_optee/optee_os/lib/libmpa/mpa_montgomery.c:70
    82e4:	b8004464 	str	w4, [x3],#4
/home/rahulmahadev/hikey_optee/optee_os/lib/libmpa/mpa_montgomery.c:71
    82e8:	d360fc84 	lsr	x4, x4, #32
    82ec:	17fffffb 	b	82d8 <__mpa_montgomery_mul_add+0x44>
/home/rahulmahadev/hikey_optee/optee_os/lib/libmpa/mpa_montgomery.c:73
    82f0:	cb070063 	sub	x3, x3, x7
/home/rahulmahadev/hikey_optee/optee_os/lib/libmpa/mpa_montgomery.c:74
    82f4:	b9400401 	ldr	w1, [x0,#4]
/home/rahulmahadev/hikey_optee/optee_os/lib/libmpa/mpa_montgomery.c:73
    82f8:	9342fc63 	asr	x3, x3, #2
/home/rahulmahadev/hikey_optee/optee_os/lib/libmpa/mpa_montgomery.c:74
    82fc:	6b01007f 	cmp	w3, w1
    8300:	5400004d 	b.le	8308 <__mpa_montgomery_mul_add+0x74>
/home/rahulmahadev/hikey_optee/optee_os/lib/libmpa/mpa_montgomery.c:75
    8304:	b9000403 	str	w3, [x0,#4]
/home/rahulmahadev/hikey_optee/optee_os/lib/libmpa/mpa_montgomery.c:80
    8308:	d65f03c0 	ret

000000000000830c <__mpa_montgomery_sub_ack>:
__mpa_montgomery_sub_ack():
/home/rahulmahadev/hikey_optee/optee_os/lib/libmpa/mpa_montgomery.c:97
    830c:	91002002 	add	x2, x0, #0x8
/home/rahulmahadev/hikey_optee/optee_os/lib/libmpa/mpa_montgomery.c:99
    8310:	52800005 	mov	w5, #0x0                   	// #0
/home/rahulmahadev/hikey_optee/optee_os/lib/libmpa/mpa_montgomery.c:98
    8314:	52800003 	mov	w3, #0x0                   	// #0
/home/rahulmahadev/hikey_optee/optee_os/lib/libmpa/mpa_montgomery.c:100
    8318:	b9400424 	ldr	w4, [x1,#4]
    831c:	6b0400bf 	cmp	w5, w4
    8320:	5400016a 	b.ge	834c <__mpa_montgomery_sub_ack+0x40>
/home/rahulmahadev/hikey_optee/optee_os/lib/libmpa/mpa_montgomery.c:101
    8324:	b9400044 	ldr	w4, [x2]
    8328:	8b25c826 	add	x6, x1, w5, sxtw #2
    832c:	b94008c6 	ldr	w6, [x6,#8]
/home/rahulmahadev/hikey_optee/optee_os/lib/libmpa/mpa_montgomery.c:105
    8330:	110004a5 	add	w5, w5, #0x1
/home/rahulmahadev/hikey_optee/optee_os/lib/libmpa/mpa_montgomery.c:101
    8334:	cb060084 	sub	x4, x4, x6
    8338:	cb234083 	sub	x3, x4, w3, uxtw
/home/rahulmahadev/hikey_optee/optee_os/lib/libmpa/mpa_montgomery.c:103
    833c:	b8004443 	str	w3, [x2],#4
/home/rahulmahadev/hikey_optee/optee_os/lib/libmpa/mpa_montgomery.c:104
    8340:	d360fc63 	lsr	x3, x3, #32
    8344:	4b0303e3 	neg	w3, w3
    8348:	17fffff4 	b	8318 <__mpa_montgomery_sub_ack+0xc>
/home/rahulmahadev/hikey_optee/optee_os/lib/libmpa/mpa_montgomery.c:109
    834c:	34000103 	cbz	w3, 836c <__mpa_montgomery_sub_ack+0x60>
/home/rahulmahadev/hikey_optee/optee_os/lib/libmpa/mpa_montgomery.c:110
    8350:	b9400041 	ldr	w1, [x2]
    8354:	cb234023 	sub	x3, x1, w3, uxtw
/home/rahulmahadev/hikey_optee/optee_os/lib/libmpa/mpa_montgomery.c:111
    8358:	b8004443 	str	w3, [x2],#4
/home/rahulmahadev/hikey_optee/optee_os/lib/libmpa/mpa_montgomery.c:112
    835c:	d360fc63 	lsr	x3, x3, #32
    8360:	4b0303e3 	neg	w3, w3
/home/rahulmahadev/hikey_optee/optee_os/lib/libmpa/mpa_montgomery.c:113
    8364:	110004a5 	add	w5, w5, #0x1
    8368:	17fffff9 	b	834c <__mpa_montgomery_sub_ack+0x40>
/home/rahulmahadev/hikey_optee/optee_os/lib/libmpa/mpa_montgomery.c:115
    836c:	b9400401 	ldr	w1, [x0,#4]
    8370:	6b0100bf 	cmp	w5, w1
    8374:	5400012b 	b.lt	8398 <__mpa_montgomery_sub_ack+0x8c>
/home/rahulmahadev/hikey_optee/optee_os/lib/libmpa/mpa_montgomery.c:117
    8378:	b9400401 	ldr	w1, [x0,#4]
    837c:	6b1f003f 	cmp	w1, wzr
    8380:	540000cd 	b.le	8398 <__mpa_montgomery_sub_ack+0x8c>
/home/rahulmahadev/hikey_optee/optee_os/lib/libmpa/mpa_montgomery.c:117 (discriminator 1)
    8384:	b85fcc43 	ldr	w3, [x2,#-4]!
    8388:	35000083 	cbnz	w3, 8398 <__mpa_montgomery_sub_ack+0x8c>
/home/rahulmahadev/hikey_optee/optee_os/lib/libmpa/mpa_montgomery.c:118
    838c:	51000421 	sub	w1, w1, #0x1
    8390:	b9000401 	str	w1, [x0,#4]
    8394:	17fffff9 	b	8378 <__mpa_montgomery_sub_ack+0x6c>
/home/rahulmahadev/hikey_optee/optee_os/lib/libmpa/mpa_montgomery.c:123
    8398:	d65f03c0 	ret

000000000000839c <__mpa_montgomery_mul>:
__mpa_montgomery_mul():
/home/rahulmahadev/hikey_optee/optee_os/lib/libmpa/mpa_montgomery.c:137
    839c:	a9bb7bfd 	stp	x29, x30, [sp,#-80]!
    83a0:	910003fd 	mov	x29, sp
    83a4:	a90153f3 	stp	x19, x20, [sp,#16]
/home/rahulmahadev/hikey_optee/optee_os/lib/libmpa/mpa_montgomery.c:144
    83a8:	52800014 	mov	w20, #0x0                   	// #0
/home/rahulmahadev/hikey_optee/optee_os/lib/libmpa/mpa_montgomery.c:137
    83ac:	f90023f9 	str	x25, [sp,#64]
    83b0:	a90363f7 	stp	x23, x24, [sp,#48]
    83b4:	a9025bf5 	stp	x21, x22, [sp,#32]
    83b8:	aa0003f3 	mov	x19, x0
    83bc:	aa0103f8 	mov	x24, x1
    83c0:	aa0203f9 	mov	x25, x2
    83c4:	aa0303f6 	mov	x22, x3
    83c8:	2a0403f7 	mov	w23, w4
/home/rahulmahadev/hikey_optee/optee_os/lib/libmpa/mpa_montgomery.c:142
    83cc:	97ffff56 	bl	8124 <mpa_wipe>
/home/rahulmahadev/hikey_optee/optee_os/lib/libmpa/mpa_montgomery.c:144 (discriminator 1)
    83d0:	b94006c0 	ldr	w0, [x22,#4]
    83d4:	6b00029f 	cmp	w20, w0
    83d8:	5400058a 	b.ge	8488 <__mpa_montgomery_mul+0xec>
/home/rahulmahadev/hikey_optee/optee_os/lib/libmpa/mpa_montgomery.c:146
    83dc:	b9800703 	ldrsw	x3, [x24,#4]
    83e0:	52800001 	mov	w1, #0x0                   	// #0
/home/rahulmahadev/hikey_optee/optee_os/lib/libmpa/mpa_montgomery.c:145
    83e4:	b9400a75 	ldr	w21, [x19,#8]
/home/rahulmahadev/hikey_optee/optee_os/lib/libmpa/mpa_montgomery.c:146
    83e8:	ca83fc60 	eor	x0, x3, x3, asr #63
    83ec:	cb83fc03 	sub	x3, x0, x3, asr #63
    83f0:	6b03029f 	cmp	w20, w3
    83f4:	5400006a 	b.ge	8400 <__mpa_montgomery_mul+0x64>
/home/rahulmahadev/hikey_optee/optee_os/lib/libmpa/mpa_montgomery.c:146 (discriminator 1)
    83f8:	8b34cb00 	add	x0, x24, w20, sxtw #2
    83fc:	b9400801 	ldr	w1, [x0,#8]
/home/rahulmahadev/hikey_optee/optee_os/lib/libmpa/mpa_montgomery.c:147
    8400:	b9400722 	ldr	w2, [x25,#4]
    8404:	52800000 	mov	w0, #0x0                   	// #0
    8408:	34000042 	cbz	w2, 8410 <__mpa_montgomery_mul+0x74>
/home/rahulmahadev/hikey_optee/optee_os/lib/libmpa/mpa_montgomery.c:147 (discriminator 1)
    840c:	b9400b20 	ldr	w0, [x25,#8]
/home/rahulmahadev/hikey_optee/optee_os/lib/libmpa/mpa_montgomery.c:145
    8410:	1b015400 	madd	w0, w0, w1, w21
/home/rahulmahadev/hikey_optee/optee_os/lib/libmpa/mpa_montgomery.c:149
    8414:	6b03029f 	cmp	w20, w3
    8418:	52800002 	mov	w2, #0x0                   	// #0
/home/rahulmahadev/hikey_optee/optee_os/lib/libmpa/mpa_montgomery.c:145
    841c:	1b177c15 	mul	w21, w0, w23
/home/rahulmahadev/hikey_optee/optee_os/lib/libmpa/mpa_montgomery.c:149
    8420:	5400006a 	b.ge	842c <__mpa_montgomery_mul+0x90>
/home/rahulmahadev/hikey_optee/optee_os/lib/libmpa/mpa_montgomery.c:149 (discriminator 1)
    8424:	8b34cb00 	add	x0, x24, w20, sxtw #2
    8428:	b9400802 	ldr	w2, [x0,#8]
/home/rahulmahadev/hikey_optee/optee_os/lib/libmpa/mpa_montgomery.c:149 (discriminator 4)
    842c:	aa1903e1 	mov	x1, x25
    8430:	aa1303e0 	mov	x0, x19
    8434:	97ffff98 	bl	8294 <__mpa_montgomery_mul_add>
/home/rahulmahadev/hikey_optee/optee_os/lib/libmpa/mpa_montgomery.c:151 (discriminator 4)
    8438:	aa1603e1 	mov	x1, x22
    843c:	aa1303e0 	mov	x0, x19
    8440:	2a1503e2 	mov	w2, w21
    8444:	97ffff94 	bl	8294 <__mpa_montgomery_mul_add>
/home/rahulmahadev/hikey_optee/optee_os/lib/libmpa/mpa_montgomery.c:154 (discriminator 4)
    8448:	b9400660 	ldr	w0, [x19,#4]
    844c:	91003263 	add	x3, x19, #0xc
/home/rahulmahadev/hikey_optee/optee_os/lib/libmpa/mpa_montgomery.c:155 (discriminator 4)
    8450:	52800001 	mov	w1, #0x0                   	// #0
/home/rahulmahadev/hikey_optee/optee_os/lib/libmpa/mpa_montgomery.c:154 (discriminator 4)
    8454:	51000400 	sub	w0, w0, #0x1
    8458:	b9000660 	str	w0, [x19,#4]
/home/rahulmahadev/hikey_optee/optee_os/lib/libmpa/mpa_montgomery.c:155 (discriminator 1)
    845c:	6b00003f 	cmp	w1, w0
    8460:	540000ca 	b.ge	8478 <__mpa_montgomery_mul+0xdc>
/home/rahulmahadev/hikey_optee/optee_os/lib/libmpa/mpa_montgomery.c:156 (discriminator 3)
    8464:	b9400062 	ldr	w2, [x3]
    8468:	11000421 	add	w1, w1, #0x1
    846c:	b81fc062 	str	w2, [x3,#-4]
    8470:	91001063 	add	x3, x3, #0x4
    8474:	17fffffa 	b	845c <__mpa_montgomery_mul+0xc0>
/home/rahulmahadev/hikey_optee/optee_os/lib/libmpa/mpa_montgomery.c:157 (discriminator 2)
    8478:	8b20ca60 	add	x0, x19, w0, sxtw #2
/home/rahulmahadev/hikey_optee/optee_os/lib/libmpa/mpa_montgomery.c:144 (discriminator 2)
    847c:	11000694 	add	w20, w20, #0x1
/home/rahulmahadev/hikey_optee/optee_os/lib/libmpa/mpa_montgomery.c:157 (discriminator 2)
    8480:	b900081f 	str	wzr, [x0,#8]
    8484:	17ffffd3 	b	83d0 <__mpa_montgomery_mul+0x34>
/home/rahulmahadev/hikey_optee/optee_os/lib/libmpa/mpa_montgomery.c:161
    8488:	aa1603e1 	mov	x1, x22
    848c:	aa1303e0 	mov	x0, x19
    8490:	94000ae4 	bl	b020 <__mpa_abs_cmp>
    8494:	37f80120 	tbnz	w0, #31, 84b8 <__mpa_montgomery_mul+0x11c>
/home/rahulmahadev/hikey_optee/optee_os/lib/libmpa/mpa_montgomery.c:162
    8498:	aa1603e1 	mov	x1, x22
    849c:	aa1303e0 	mov	x0, x19
/home/rahulmahadev/hikey_optee/optee_os/lib/libmpa/mpa_montgomery.c:163
    84a0:	a9425bf5 	ldp	x21, x22, [sp,#32]
    84a4:	a94153f3 	ldp	x19, x20, [sp,#16]
    84a8:	a94363f7 	ldp	x23, x24, [sp,#48]
    84ac:	f94023f9 	ldr	x25, [sp,#64]
    84b0:	a8c57bfd 	ldp	x29, x30, [sp],#80
/home/rahulmahadev/hikey_optee/optee_os/lib/libmpa/mpa_montgomery.c:162
    84b4:	17ffff96 	b	830c <__mpa_montgomery_sub_ack>
/home/rahulmahadev/hikey_optee/optee_os/lib/libmpa/mpa_montgomery.c:163
    84b8:	a94153f3 	ldp	x19, x20, [sp,#16]
    84bc:	a9425bf5 	ldp	x21, x22, [sp,#32]
    84c0:	a94363f7 	ldp	x23, x24, [sp,#48]
    84c4:	f94023f9 	ldr	x25, [sp,#64]
    84c8:	a8c57bfd 	ldp	x29, x30, [sp],#80
    84cc:	d65f03c0 	ret

00000000000084d0 <mpa_compute_fmm_context>:
mpa_compute_fmm_context():
/home/rahulmahadev/hikey_optee/optee_os/lib/libmpa/mpa_montgomery.c:179
    84d0:	a9b97bfd 	stp	x29, x30, [sp,#-112]!
    84d4:	910003fd 	mov	x29, sp
    84d8:	a9025bf5 	stp	x21, x22, [sp,#32]
/home/rahulmahadev/hikey_optee/optee_os/lib/libmpa/mpa_montgomery.c:193
    84dc:	b9800416 	ldrsw	x22, [x0,#4]
/home/rahulmahadev/hikey_optee/optee_os/lib/libmpa/mpa_montgomery.c:179
    84e0:	aa0003f5 	mov	x21, x0
    84e4:	a90153f3 	stp	x19, x20, [sp,#16]
    84e8:	aa0103f4 	mov	x20, x1
/home/rahulmahadev/hikey_optee/optee_os/lib/libmpa/mpa_montgomery.c:194
    84ec:	52800021 	mov	w1, #0x1                   	// #1
/home/rahulmahadev/hikey_optee/optee_os/lib/libmpa/mpa_montgomery.c:193
    84f0:	ca96fec0 	eor	x0, x22, x22, asr #63
/home/rahulmahadev/hikey_optee/optee_os/lib/libmpa/mpa_montgomery.c:179
    84f4:	aa0403f3 	mov	x19, x4
/home/rahulmahadev/hikey_optee/optee_os/lib/libmpa/mpa_montgomery.c:193
    84f8:	cb96fc16 	sub	x22, x0, x22, asr #63
/home/rahulmahadev/hikey_optee/optee_os/lib/libmpa/mpa_montgomery.c:194
    84fc:	aa1403e0 	mov	x0, x20
/home/rahulmahadev/hikey_optee/optee_os/lib/libmpa/mpa_montgomery.c:179
    8500:	a90363f7 	stp	x23, x24, [sp,#48]
    8504:	f90023f9 	str	x25, [sp,#64]
    8508:	aa0203f8 	mov	x24, x2
    850c:	aa0303f7 	mov	x23, x3
/home/rahulmahadev/hikey_optee/optee_os/lib/libmpa/mpa_montgomery.c:194
    8510:	94000179 	bl	8af4 <mpa_set_word>
/home/rahulmahadev/hikey_optee/optee_os/lib/libmpa/mpa_montgomery.c:195
    8514:	531b6ac2 	lsl	w2, w22, #5
    8518:	aa1403e1 	mov	x1, x20
    851c:	aa1403e0 	mov	x0, x20
/home/rahulmahadev/hikey_optee/optee_os/lib/libmpa/mpa_montgomery.c:202
    8520:	52800036 	mov	w22, #0x1                   	// #1
/home/rahulmahadev/hikey_optee/optee_os/lib/libmpa/mpa_montgomery.c:207
    8524:	910163b9 	add	x25, x29, #0x58
/home/rahulmahadev/hikey_optee/optee_os/lib/libmpa/mpa_montgomery.c:195
    8528:	940007b9 	bl	a40c <mpa_shift_left>
/home/rahulmahadev/hikey_optee/optee_os/lib/libmpa/mpa_montgomery.c:196
    852c:	aa1503e2 	mov	x2, x21
    8530:	aa1403e1 	mov	x1, x20
    8534:	aa1403e0 	mov	x0, x20
    8538:	aa1303e3 	mov	x3, x19
    853c:	94000d92 	bl	bb84 <mpa_mod>
/home/rahulmahadev/hikey_optee/optee_os/lib/libmpa/mpa_montgomery.c:199
    8540:	aa1503e3 	mov	x3, x21
    8544:	aa1403e2 	mov	x2, x20
    8548:	aa1303e4 	mov	x4, x19
    854c:	aa1403e1 	mov	x1, x20
    8550:	aa1803e0 	mov	x0, x24
/home/rahulmahadev/hikey_optee/optee_os/lib/libmpa/mpa_montgomery.c:206
    8554:	910143b8 	add	x24, x29, #0x50
/home/rahulmahadev/hikey_optee/optee_os/lib/libmpa/mpa_montgomery.c:209
    8558:	d0000034 	adrp	x20, e000 <__compound_literal.2+0x72a>
/home/rahulmahadev/hikey_optee/optee_os/lib/libmpa/mpa_montgomery.c:199
    855c:	94000dd2 	bl	bca4 <mpa_mul_mod>
/home/rahulmahadev/hikey_optee/optee_os/lib/libmpa/mpa_montgomery.c:202
    8560:	b90063b6 	str	w22, [x29,#96]
/home/rahulmahadev/hikey_optee/optee_os/lib/libmpa/mpa_montgomery.c:204
    8564:	b9400aa0 	ldr	w0, [x21,#8]
/home/rahulmahadev/hikey_optee/optee_os/lib/libmpa/mpa_montgomery.c:206
    8568:	aa1303e1 	mov	x1, x19
/home/rahulmahadev/hikey_optee/optee_os/lib/libmpa/mpa_montgomery.c:204
    856c:	b9006ba0 	str	w0, [x29,#104]
/home/rahulmahadev/hikey_optee/optee_os/lib/libmpa/mpa_montgomery.c:206
    8570:	aa1803e0 	mov	x0, x24
/home/rahulmahadev/hikey_optee/optee_os/lib/libmpa/mpa_montgomery.c:203
    8574:	b90067b6 	str	w22, [x29,#100]
/home/rahulmahadev/hikey_optee/optee_os/lib/libmpa/mpa_montgomery.c:206
    8578:	94000629 	bl	9e1c <mpa_alloc_static_temp_var>
/home/rahulmahadev/hikey_optee/optee_os/lib/libmpa/mpa_montgomery.c:207
    857c:	aa1303e1 	mov	x1, x19
    8580:	aa1903e0 	mov	x0, x25
    8584:	94000626 	bl	9e1c <mpa_alloc_static_temp_var>
/home/rahulmahadev/hikey_optee/optee_os/lib/libmpa/mpa_montgomery.c:209
    8588:	f940c294 	ldr	x20, [x20,#384]
    858c:	f9402ba1 	ldr	x1, [x29,#80]
    8590:	aa1303e5 	mov	x5, x19
    8594:	f9402fa0 	ldr	x0, [x29,#88]
    8598:	aa1403e4 	mov	x4, x20
    859c:	910183a3 	add	x3, x29, #0x60
    85a0:	d2800002 	mov	x2, #0x0                   	// #0
    85a4:	94000556 	bl	9afc <mpa_extended_gcd>
/home/rahulmahadev/hikey_optee/optee_os/lib/libmpa/mpa_montgomery.c:211
    85a8:	f9402fa0 	ldr	x0, [x29,#88]
    85ac:	2a1603e1 	mov	w1, w22
    85b0:	94000aef 	bl	b16c <mpa_cmp_short>
    85b4:	2a0003f5 	mov	w21, w0
/home/rahulmahadev/hikey_optee/optee_os/lib/libmpa/mpa_montgomery.c:213
    85b8:	35000160 	cbnz	w0, 85e4 <mpa_compute_fmm_context+0x114>
/home/rahulmahadev/hikey_optee/optee_os/lib/libmpa/mpa_montgomery.c:229
    85bc:	f9402ba1 	ldr	x1, [x29,#80]
    85c0:	b9400420 	ldr	w0, [x1,#4]
    85c4:	37f800a0 	tbnz	w0, #31, 85d8 <mpa_compute_fmm_context+0x108>
/home/rahulmahadev/hikey_optee/optee_os/lib/libmpa/mpa_montgomery.c:230
    85c8:	aa1303e3 	mov	x3, x19
    85cc:	aa1403e2 	mov	x2, x20
    85d0:	aa0103e0 	mov	x0, x1
    85d4:	9400097b 	bl	abc0 <mpa_sub>
/home/rahulmahadev/hikey_optee/optee_os/lib/libmpa/mpa_montgomery.c:234
    85d8:	f9402ba0 	ldr	x0, [x29,#80]
    85dc:	b9400800 	ldr	w0, [x0,#8]
    85e0:	b90002e0 	str	w0, [x23]
/home/rahulmahadev/hikey_optee/optee_os/lib/libmpa/mpa_montgomery.c:238
    85e4:	aa1303e1 	mov	x1, x19
    85e8:	aa1903e0 	mov	x0, x25
    85ec:	94000610 	bl	9e2c <mpa_free_static_temp_var>
/home/rahulmahadev/hikey_optee/optee_os/lib/libmpa/mpa_montgomery.c:239
    85f0:	aa1303e1 	mov	x1, x19
    85f4:	aa1803e0 	mov	x0, x24
    85f8:	9400060d 	bl	9e2c <mpa_free_static_temp_var>
/home/rahulmahadev/hikey_optee/optee_os/lib/libmpa/mpa_montgomery.c:244
    85fc:	f94023f9 	ldr	x25, [sp,#64]
/home/rahulmahadev/hikey_optee/optee_os/lib/libmpa/mpa_montgomery.c:241
    8600:	6b1f02bf 	cmp	w21, wzr
/home/rahulmahadev/hikey_optee/optee_os/lib/libmpa/mpa_montgomery.c:244
    8604:	5a9f03e0 	csetm	w0, ne
    8608:	a94153f3 	ldp	x19, x20, [sp,#16]
    860c:	a9425bf5 	ldp	x21, x22, [sp,#32]
    8610:	a94363f7 	ldp	x23, x24, [sp,#48]
    8614:	a8c77bfd 	ldp	x29, x30, [sp],#112
    8618:	d65f03c0 	ret

000000000000861c <mpa_montgomery_mul>:
mpa_montgomery_mul():
/home/rahulmahadev/hikey_optee/optee_os/lib/libmpa/mpa_montgomery.c:257
    861c:	a9ba7bfd 	stp	x29, x30, [sp,#-96]!
    8620:	910003fd 	mov	x29, sp
    8624:	a90153f3 	stp	x19, x20, [sp,#16]
/home/rahulmahadev/hikey_optee/optee_os/lib/libmpa/mpa_montgomery.c:260
    8628:	910163b3 	add	x19, x29, #0x58
/home/rahulmahadev/hikey_optee/optee_os/lib/libmpa/mpa_montgomery.c:257
    862c:	f90013f5 	str	x21, [sp,#32]
    8630:	aa0003f4 	mov	x20, x0
    8634:	aa0103f5 	mov	x21, x1
/home/rahulmahadev/hikey_optee/optee_os/lib/libmpa/mpa_montgomery.c:260
    8638:	aa1303e0 	mov	x0, x19
    863c:	aa0503e1 	mov	x1, x5
    8640:	f90027a5 	str	x5, [x29,#72]
/home/rahulmahadev/hikey_optee/optee_os/lib/libmpa/mpa_montgomery.c:257
    8644:	f9001ba2 	str	x2, [x29,#48]
    8648:	f9001fa3 	str	x3, [x29,#56]
    864c:	b90047a4 	str	w4, [x29,#68]
/home/rahulmahadev/hikey_optee/optee_os/lib/libmpa/mpa_montgomery.c:260
    8650:	940005f3 	bl	9e1c <mpa_alloc_static_temp_var>
/home/rahulmahadev/hikey_optee/optee_os/lib/libmpa/mpa_montgomery.c:262
    8654:	b94047a4 	ldr	w4, [x29,#68]
    8658:	aa1503e1 	mov	x1, x21
    865c:	f9401fa3 	ldr	x3, [x29,#56]
    8660:	f9401ba2 	ldr	x2, [x29,#48]
    8664:	f9402fa0 	ldr	x0, [x29,#88]
    8668:	97ffff4d 	bl	839c <__mpa_montgomery_mul>
/home/rahulmahadev/hikey_optee/optee_os/lib/libmpa/mpa_montgomery.c:264
    866c:	f9402fa1 	ldr	x1, [x29,#88]
    8670:	aa1403e0 	mov	x0, x20
    8674:	97fffeb8 	bl	8154 <mpa_copy>
/home/rahulmahadev/hikey_optee/optee_os/lib/libmpa/mpa_montgomery.c:265
    8678:	f94027a5 	ldr	x5, [x29,#72]
    867c:	aa1303e0 	mov	x0, x19
    8680:	aa0503e1 	mov	x1, x5
    8684:	940005ea 	bl	9e2c <mpa_free_static_temp_var>
/home/rahulmahadev/hikey_optee/optee_os/lib/libmpa/mpa_montgomery.c:266
    8688:	f94013f5 	ldr	x21, [sp,#32]
    868c:	a94153f3 	ldp	x19, x20, [sp,#16]
    8690:	a8c67bfd 	ldp	x29, x30, [sp],#96
    8694:	d65f03c0 	ret

0000000000008698 <mpa_is_prob_prime>:
mpa_is_prob_prime():
/home/rahulmahadev/hikey_optee/optee_os/lib/libmpa/mpa_primetest.c:89
    8698:	a9b47bfd 	stp	x29, x30, [sp,#-192]!
    869c:	910003fd 	mov	x29, sp
    86a0:	a9025bf5 	stp	x21, x22, [sp,#32]
    86a4:	2a0103f6 	mov	w22, w1
is_small_prime():
/home/rahulmahadev/hikey_optee/optee_os/lib/libmpa/mpa_primetest.c:136
    86a8:	b9800401 	ldrsw	x1, [x0,#4]
mpa_is_prob_prime():
/home/rahulmahadev/hikey_optee/optee_os/lib/libmpa/mpa_primetest.c:89
    86ac:	a90153f3 	stp	x19, x20, [sp,#16]
    86b0:	aa0203f3 	mov	x19, x2
    86b4:	aa0003f4 	mov	x20, x0
is_small_prime():
/home/rahulmahadev/hikey_optee/optee_os/lib/libmpa/mpa_primetest.c:136
    86b8:	ca81fc22 	eor	x2, x1, x1, asr #63
    86bc:	cb81fc41 	sub	x1, x2, x1, asr #63
mpa_is_prob_prime():
/home/rahulmahadev/hikey_optee/optee_os/lib/libmpa/mpa_primetest.c:89
    86c0:	a90363f7 	stp	x23, x24, [sp,#48]
    86c4:	a9046bf9 	stp	x25, x26, [sp,#64]
    86c8:	a90573fb 	stp	x27, x28, [sp,#80]
is_small_prime():
/home/rahulmahadev/hikey_optee/optee_os/lib/libmpa/mpa_primetest.c:136
    86cc:	7100043f 	cmp	w1, #0x1
    86d0:	5400008d 	b.le	86e0 <mpa_is_prob_prime+0x48>
/home/rahulmahadev/hikey_optee/optee_os/lib/libmpa/mpa_primetest.c:137
    86d4:	97fffeea 	bl	827c <mpa_parity>
    86d8:	35000360 	cbnz	w0, 8744 <mpa_is_prob_prime+0xac>
    86dc:	14000018 	b	873c <mpa_is_prob_prime+0xa4>
/home/rahulmahadev/hikey_optee/optee_os/lib/libmpa/mpa_primetest.c:139
    86e0:	9400010a 	bl	8b08 <mpa_get_word>
    86e4:	2a0003f5 	mov	w21, w0
/home/rahulmahadev/hikey_optee/optee_os/lib/libmpa/mpa_primetest.c:140
    86e8:	32000000 	orr	w0, w0, #0x1
    86ec:	7100041f 	cmp	w0, #0x1
    86f0:	54000260 	b.eq	873c <mpa_is_prob_prime+0xa4>
/home/rahulmahadev/hikey_optee/optee_os/lib/libmpa/mpa_primetest.c:142
    86f4:	71000abf 	cmp	w21, #0x2
/home/rahulmahadev/hikey_optee/optee_os/lib/libmpa/mpa_primetest.c:143
    86f8:	52800038 	mov	w24, #0x1                   	// #1
/home/rahulmahadev/hikey_optee/optee_os/lib/libmpa/mpa_primetest.c:142
    86fc:	54001980 	b.eq	8a2c <mpa_is_prob_prime+0x394>
/home/rahulmahadev/hikey_optee/optee_os/lib/libmpa/mpa_primetest.c:144
    8700:	360001f5 	tbz	w21, #0, 873c <mpa_is_prob_prime+0xa4>
/home/rahulmahadev/hikey_optee/optee_os/lib/libmpa/mpa_primetest.c:148
    8704:	529869e1 	mov	w1, #0xc34f                	// #49999
    8708:	aa1403e0 	mov	x0, x20
    870c:	94000a98 	bl	b16c <mpa_cmp_short>
    8710:	6b1f001f 	cmp	w0, wzr
    8714:	5400018c 	b.gt	8744 <mpa_is_prob_prime+0xac>
/home/rahulmahadev/hikey_optee/optee_os/lib/libmpa/mpa_primetest.c:150
    8718:	51000eb5 	sub	w21, w21, #0x3
check_table():
/home/rahulmahadev/hikey_optee/optee_os/lib/libmpa/mpa_primetest.c:117
    871c:	90000020 	adrp	x0, c000 <utee_authenc_update_aad>
    8720:	53067ea1 	lsr	w1, w21, #6
    8724:	9131e000 	add	x0, x0, #0xc78
    8728:	d34116a2 	ubfx	x2, x21, #1, #5
    872c:	b8615801 	ldr	w1, [x0,w1,uxtw #2]
    8730:	1ac22422 	lsr	w2, w1, w2
    8734:	0a180058 	and	w24, w2, w24
    8738:	140000bd 	b	8a2c <mpa_is_prob_prime+0x394>
is_small_prime():
/home/rahulmahadev/hikey_optee/optee_os/lib/libmpa/mpa_primetest.c:137
    873c:	52800018 	mov	w24, #0x0                   	// #0
    8740:	140000bb 	b	8a2c <mpa_is_prob_prime+0x394>
has_small_factors():
/home/rahulmahadev/hikey_optee/optee_os/lib/libmpa/mpa_primetest.c:170
    8744:	9102e3b5 	add	x21, x29, #0xb8
    8748:	aa1303e1 	mov	x1, x19
    874c:	aa1503e0 	mov	x0, x21
mpa_is_prob_prime():
/home/rahulmahadev/hikey_optee/optee_os/lib/libmpa/mpa_primetest.c:99
    8750:	52800018 	mov	w24, #0x0                   	// #0
has_small_factors():
/home/rahulmahadev/hikey_optee/optee_os/lib/libmpa/mpa_primetest.c:170
    8754:	940005b2 	bl	9e1c <mpa_alloc_static_temp_var>
/home/rahulmahadev/hikey_optee/optee_os/lib/libmpa/mpa_primetest.c:171
    8758:	f9405fa0 	ldr	x0, [x29,#184]
    875c:	90000022 	adrp	x2, c000 <utee_authenc_update_aad>
    8760:	aa1303e3 	mov	x3, x19
    8764:	912e8042 	add	x2, x2, #0xba0
    8768:	aa1403e1 	mov	x1, x20
    876c:	9400049d 	bl	99e0 <mpa_gcd>
/home/rahulmahadev/hikey_optee/optee_os/lib/libmpa/mpa_primetest.c:172
    8770:	f9405fa0 	ldr	x0, [x29,#184]
    8774:	52800021 	mov	w1, #0x1                   	// #1
    8778:	94000a7d 	bl	b16c <mpa_cmp_short>
    877c:	2a0003f7 	mov	w23, w0
/home/rahulmahadev/hikey_optee/optee_os/lib/libmpa/mpa_primetest.c:173
    8780:	aa1303e1 	mov	x1, x19
    8784:	aa1503e0 	mov	x0, x21
    8788:	940005a9 	bl	9e2c <mpa_free_static_temp_var>
mpa_is_prob_prime():
/home/rahulmahadev/hikey_optee/optee_os/lib/libmpa/mpa_primetest.c:98
    878c:	35001517 	cbnz	w23, 8a2c <mpa_is_prob_prime+0x394>
primality_test_miller_rabin():
/home/rahulmahadev/hikey_optee/optee_os/lib/libmpa/mpa_primetest.c:202
    8790:	9102c3a0 	add	x0, x29, #0xb0
    8794:	aa1303e1 	mov	x1, x19
    8798:	f9003ba0 	str	x0, [x29,#112]
/home/rahulmahadev/hikey_optee/optee_os/lib/libmpa/mpa_primetest.c:206
    879c:	2a1703f8 	mov	w24, w23
/home/rahulmahadev/hikey_optee/optee_os/lib/libmpa/mpa_primetest.c:202
    87a0:	9400059f 	bl	9e1c <mpa_alloc_static_temp_var>
/home/rahulmahadev/hikey_optee/optee_os/lib/libmpa/mpa_primetest.c:203
    87a4:	aa1303e1 	mov	x1, x19
    87a8:	aa1503e0 	mov	x0, x21
    87ac:	9400059c 	bl	9e1c <mpa_alloc_static_temp_var>
/home/rahulmahadev/hikey_optee/optee_os/lib/libmpa/mpa_primetest.c:205
    87b0:	f9405fa2 	ldr	x2, [x29,#184]
    87b4:	aa1303e4 	mov	x4, x19
    87b8:	f9405ba1 	ldr	x1, [x29,#176]
    87bc:	910233a3 	add	x3, x29, #0x8c
    87c0:	aa1403e0 	mov	x0, x20
    87c4:	97ffff43 	bl	84d0 <mpa_compute_fmm_context>
    87c8:	3100041f 	cmn	w0, #0x1
    87cc:	54001240 	b.eq	8a14 <mpa_is_prob_prime+0x37c>
/home/rahulmahadev/hikey_optee/optee_os/lib/libmpa/mpa_primetest.c:210
    87d0:	910243bc 	add	x28, x29, #0x90
    87d4:	aa1303e1 	mov	x1, x19
    87d8:	aa1c03e0 	mov	x0, x28
/home/rahulmahadev/hikey_optee/optee_os/lib/libmpa/mpa_primetest.c:211
    87dc:	910263bb 	add	x27, x29, #0x98
/home/rahulmahadev/hikey_optee/optee_os/lib/libmpa/mpa_primetest.c:212
    87e0:	910283ba 	add	x26, x29, #0xa0
/home/rahulmahadev/hikey_optee/optee_os/lib/libmpa/mpa_primetest.c:210
    87e4:	9400058e 	bl	9e1c <mpa_alloc_static_temp_var>
/home/rahulmahadev/hikey_optee/optee_os/lib/libmpa/mpa_primetest.c:211
    87e8:	aa1303e1 	mov	x1, x19
    87ec:	aa1b03e0 	mov	x0, x27
    87f0:	9400058b 	bl	9e1c <mpa_alloc_static_temp_var>
/home/rahulmahadev/hikey_optee/optee_os/lib/libmpa/mpa_primetest.c:212
    87f4:	aa1303e1 	mov	x1, x19
    87f8:	aa1a03e0 	mov	x0, x26
    87fc:	94000588 	bl	9e1c <mpa_alloc_static_temp_var>
/home/rahulmahadev/hikey_optee/optee_os/lib/libmpa/mpa_primetest.c:213
    8800:	9102a3a0 	add	x0, x29, #0xa8
    8804:	aa1303e1 	mov	x1, x19
    8808:	f90037a0 	str	x0, [x29,#104]
    880c:	94000584 	bl	9e1c <mpa_alloc_static_temp_var>
/home/rahulmahadev/hikey_optee/optee_os/lib/libmpa/mpa_primetest.c:216
    8810:	90000021 	adrp	x1, c000 <utee_authenc_update_aad>
    8814:	aa1403e0 	mov	x0, x20
    8818:	912e0021 	add	x1, x1, #0xb80
    881c:	94000a39 	bl	b100 <mpa_cmp>
/home/rahulmahadev/hikey_optee/optee_os/lib/libmpa/mpa_primetest.c:215
    8820:	531f7c17 	lsr	w23, w0, #31
/home/rahulmahadev/hikey_optee/optee_os/lib/libmpa/mpa_primetest.c:219
    8824:	528000e0 	mov	w0, #0x7                   	// #7
    8828:	b9007fa0 	str	w0, [x29,#124]
/home/rahulmahadev/hikey_optee/optee_os/lib/libmpa/mpa_primetest.c:218
    882c:	350000b7 	cbnz	w23, 8840 <mpa_is_prob_prime+0x1a8>
/home/rahulmahadev/hikey_optee/optee_os/lib/libmpa/mpa_primetest.c:221
    8830:	110006d6 	add	w22, w22, #0x1
    8834:	52800040 	mov	w0, #0x2                   	// #2
    8838:	1ac00ec0 	sdiv	w0, w22, w0
    883c:	b9007fa0 	str	w0, [x29,#124]
/home/rahulmahadev/hikey_optee/optee_os/lib/libmpa/mpa_primetest.c:223
    8840:	f94053a0 	ldr	x0, [x29,#160]
    8844:	aa1303e3 	mov	x3, x19
    8848:	52800022 	mov	w2, #0x1                   	// #1
    884c:	aa1403e1 	mov	x1, x20
/home/rahulmahadev/hikey_optee/optee_os/lib/libmpa/mpa_primetest.c:225
    8850:	52800019 	mov	w25, #0x0                   	// #0
/home/rahulmahadev/hikey_optee/optee_os/lib/libmpa/mpa_primetest.c:223
    8854:	940009a2 	bl	aedc <mpa_sub_word>
/home/rahulmahadev/hikey_optee/optee_os/lib/libmpa/mpa_primetest.c:224
    8858:	f94053a1 	ldr	x1, [x29,#160]
    885c:	f9404fa0 	ldr	x0, [x29,#152]
    8860:	97fffe3d 	bl	8154 <mpa_copy>
/home/rahulmahadev/hikey_optee/optee_os/lib/libmpa/mpa_primetest.c:227
    8864:	f9404fa0 	ldr	x0, [x29,#152]
    8868:	97fffe85 	bl	827c <mpa_parity>
    886c:	350000e0 	cbnz	w0, 8888 <mpa_is_prob_prime+0x1f0>
/home/rahulmahadev/hikey_optee/optee_os/lib/libmpa/mpa_primetest.c:228
    8870:	f9404fa1 	ldr	x1, [x29,#152]
    8874:	52800022 	mov	w2, #0x1                   	// #1
/home/rahulmahadev/hikey_optee/optee_os/lib/libmpa/mpa_primetest.c:229
    8878:	11000739 	add	w25, w25, #0x1
/home/rahulmahadev/hikey_optee/optee_os/lib/libmpa/mpa_primetest.c:228
    887c:	aa0103e0 	mov	x0, x1
    8880:	94000744 	bl	a590 <mpa_shift_right>
    8884:	17fffff8 	b	8864 <mpa_is_prob_prime+0x1cc>
/home/rahulmahadev/hikey_optee/optee_os/lib/libmpa/mpa_primetest.c:272
    8888:	90000020 	adrp	x0, c000 <utee_authenc_update_aad>
/home/rahulmahadev/hikey_optee/optee_os/lib/libmpa/mpa_primetest.c:227
    888c:	d2800016 	mov	x22, #0x0                   	// #0
/home/rahulmahadev/hikey_optee/optee_os/lib/libmpa/mpa_primetest.c:272
    8890:	912e4000 	add	x0, x0, #0xb90
/home/rahulmahadev/hikey_optee/optee_os/lib/libmpa/mpa_primetest.c:227
    8894:	12800018 	mov	w24, #0xffffffff            	// #-1
/home/rahulmahadev/hikey_optee/optee_os/lib/libmpa/mpa_primetest.c:272
    8898:	f90033a0 	str	x0, [x29,#96]
/home/rahulmahadev/hikey_optee/optee_os/lib/libmpa/mpa_primetest.c:233
    889c:	b9407fa1 	ldr	w1, [x29,#124]
    88a0:	3100071f 	cmn	w24, #0x1
    88a4:	1a9f17e0 	cset	w0, eq
    88a8:	6b16003f 	cmp	w1, w22
    88ac:	5400096d 	b.le	89d8 <mpa_is_prob_prime+0x340>
    88b0:	340009a0 	cbz	w0, 89e4 <mpa_is_prob_prime+0x34c>
/home/rahulmahadev/hikey_optee/optee_os/lib/libmpa/mpa_primetest.c:234
    88b4:	34000197 	cbz	w23, 88e4 <mpa_is_prob_prime+0x24c>
/home/rahulmahadev/hikey_optee/optee_os/lib/libmpa/mpa_primetest.c:235
    88b8:	90000020 	adrp	x0, c000 <utee_authenc_update_aad>
/home/rahulmahadev/hikey_optee/optee_os/lib/libmpa/mpa_primetest.c:237
    88bc:	52800038 	mov	w24, #0x1                   	// #1
/home/rahulmahadev/hikey_optee/optee_os/lib/libmpa/mpa_primetest.c:235
    88c0:	91316000 	add	x0, x0, #0xc58
    88c4:	b8767801 	ldr	w1, [x0,x22,lsl #2]
    88c8:	f9404ba0 	ldr	x0, [x29,#144]
    88cc:	94000060 	bl	8a4c <mpa_set_S32>
/home/rahulmahadev/hikey_optee/optee_os/lib/libmpa/mpa_primetest.c:236
    88d0:	f9404ba1 	ldr	x1, [x29,#144]
    88d4:	aa1403e0 	mov	x0, x20
    88d8:	94000a0a 	bl	b100 <mpa_cmp>
    88dc:	340007a0 	cbz	w0, 89d0 <mpa_is_prob_prime+0x338>
    88e0:	14000013 	b	892c <mpa_is_prob_prime+0x294>
/home/rahulmahadev/hikey_optee/optee_os/lib/libmpa/mpa_primetest.c:246
    88e4:	f94053a1 	ldr	x1, [x29,#160]
    88e8:	aa1303e3 	mov	x3, x19
    88ec:	52800022 	mov	w2, #0x1                   	// #1
    88f0:	aa0103e0 	mov	x0, x1
    88f4:	9400097a 	bl	aedc <mpa_sub_word>
/home/rahulmahadev/hikey_optee/optee_os/lib/libmpa/mpa_primetest.c:248
    88f8:	f94053a1 	ldr	x1, [x29,#160]
    88fc:	f9404ba0 	ldr	x0, [x29,#144]
    8900:	9400063d 	bl	a1f4 <mpa_get_random>
/home/rahulmahadev/hikey_optee/optee_os/lib/libmpa/mpa_primetest.c:249
    8904:	f94053a1 	ldr	x1, [x29,#160]
    8908:	aa1303e3 	mov	x3, x19
    890c:	52800022 	mov	w2, #0x1                   	// #1
    8910:	aa0103e0 	mov	x0, x1
    8914:	94000920 	bl	ad94 <mpa_add_word>
/home/rahulmahadev/hikey_optee/optee_os/lib/libmpa/mpa_primetest.c:251
    8918:	f9404ba1 	ldr	x1, [x29,#144]
    891c:	aa1303e3 	mov	x3, x19
    8920:	52800042 	mov	w2, #0x2                   	// #2
    8924:	aa0103e0 	mov	x0, x1
    8928:	9400091b 	bl	ad94 <mpa_add_word>
/home/rahulmahadev/hikey_optee/optee_os/lib/libmpa/mpa_primetest.c:254
    892c:	b9408fa6 	ldr	w6, [x29,#140]
    8930:	aa1303e7 	mov	x7, x19
    8934:	f9405fa5 	ldr	x5, [x29,#184]
    8938:	aa1403e3 	mov	x3, x20
    893c:	f9405ba4 	ldr	x4, [x29,#176]
/home/rahulmahadev/hikey_optee/optee_os/lib/libmpa/mpa_primetest.c:255
    8940:	52800018 	mov	w24, #0x0                   	// #0
/home/rahulmahadev/hikey_optee/optee_os/lib/libmpa/mpa_primetest.c:254
    8944:	f9404fa2 	ldr	x2, [x29,#152]
    8948:	f9404ba1 	ldr	x1, [x29,#144]
    894c:	f94057a0 	ldr	x0, [x29,#168]
    8950:	94000a25 	bl	b1e4 <mpa_exp_mod>
/home/rahulmahadev/hikey_optee/optee_os/lib/libmpa/mpa_primetest.c:258
    8954:	f94057a0 	ldr	x0, [x29,#168]
    8958:	52800021 	mov	w1, #0x1                   	// #1
    895c:	94000a04 	bl	b16c <mpa_cmp_short>
    8960:	2a0003e2 	mov	w2, w0
/home/rahulmahadev/hikey_optee/optee_os/lib/libmpa/mpa_primetest.c:259
    8964:	6b1f031f 	cmp	w24, wzr
    8968:	5400008d 	b.le	8978 <mpa_is_prob_prime+0x2e0>
    896c:	35000060 	cbnz	w0, 8978 <mpa_is_prob_prime+0x2e0>
/home/rahulmahadev/hikey_optee/optee_os/lib/libmpa/mpa_primetest.c:260
    8970:	52800018 	mov	w24, #0x0                   	// #0
    8974:	14000017 	b	89d0 <mpa_is_prob_prime+0x338>
/home/rahulmahadev/hikey_optee/optee_os/lib/libmpa/mpa_primetest.c:264
    8978:	f94053a1 	ldr	x1, [x29,#160]
    897c:	f94057a0 	ldr	x0, [x29,#168]
    8980:	b9007ba2 	str	w2, [x29,#120]
    8984:	940009df 	bl	b100 <mpa_cmp>
    8988:	b9407ba2 	ldr	w2, [x29,#120]
    898c:	34000200 	cbz	w0, 89cc <mpa_is_prob_prime+0x334>
/home/rahulmahadev/hikey_optee/optee_os/lib/libmpa/mpa_primetest.c:265
    8990:	2a180042 	orr	w2, w2, w24
/home/rahulmahadev/hikey_optee/optee_os/lib/libmpa/mpa_primetest.c:264
    8994:	340001c2 	cbz	w2, 89cc <mpa_is_prob_prime+0x334>
/home/rahulmahadev/hikey_optee/optee_os/lib/libmpa/mpa_primetest.c:270
    8998:	11000718 	add	w24, w24, #0x1
/home/rahulmahadev/hikey_optee/optee_os/lib/libmpa/mpa_primetest.c:271
    899c:	6b19031f 	cmp	w24, w25
    89a0:	54fffe8a 	b.ge	8970 <mpa_is_prob_prime+0x2d8>
/home/rahulmahadev/hikey_optee/optee_os/lib/libmpa/mpa_primetest.c:272
    89a4:	f94057a1 	ldr	x1, [x29,#168]
    89a8:	aa1303e7 	mov	x7, x19
    89ac:	b9408fa6 	ldr	w6, [x29,#140]
    89b0:	aa1403e3 	mov	x3, x20
    89b4:	f9405fa5 	ldr	x5, [x29,#184]
    89b8:	aa0103e0 	mov	x0, x1
    89bc:	f9405ba4 	ldr	x4, [x29,#176]
    89c0:	f94033a2 	ldr	x2, [x29,#96]
    89c4:	94000a08 	bl	b1e4 <mpa_exp_mod>
    89c8:	17ffffe3 	b	8954 <mpa_is_prob_prime+0x2bc>
/home/rahulmahadev/hikey_optee/optee_os/lib/libmpa/mpa_primetest.c:264
    89cc:	12800018 	mov	w24, #0xffffffff            	// #-1
    89d0:	910006d6 	add	x22, x22, #0x1
    89d4:	17ffffb2 	b	889c <mpa_is_prob_prime+0x204>
/home/rahulmahadev/hikey_optee/optee_os/lib/libmpa/mpa_primetest.c:279
    89d8:	34000060 	cbz	w0, 89e4 <mpa_is_prob_prime+0x34c>
/home/rahulmahadev/hikey_optee/optee_os/lib/libmpa/mpa_primetest.c:280
    89dc:	6b1f02ff 	cmp	w23, wzr
    89e0:	1a9f0718 	csinc	w24, w24, wzr, eq
/home/rahulmahadev/hikey_optee/optee_os/lib/libmpa/mpa_primetest.c:282
    89e4:	aa1303e1 	mov	x1, x19
    89e8:	aa1c03e0 	mov	x0, x28
    89ec:	94000510 	bl	9e2c <mpa_free_static_temp_var>
/home/rahulmahadev/hikey_optee/optee_os/lib/libmpa/mpa_primetest.c:283
    89f0:	aa1303e1 	mov	x1, x19
    89f4:	aa1b03e0 	mov	x0, x27
    89f8:	9400050d 	bl	9e2c <mpa_free_static_temp_var>
/home/rahulmahadev/hikey_optee/optee_os/lib/libmpa/mpa_primetest.c:284
    89fc:	aa1303e1 	mov	x1, x19
    8a00:	aa1a03e0 	mov	x0, x26
    8a04:	9400050a 	bl	9e2c <mpa_free_static_temp_var>
/home/rahulmahadev/hikey_optee/optee_os/lib/libmpa/mpa_primetest.c:285
    8a08:	f94037a0 	ldr	x0, [x29,#104]
    8a0c:	aa1303e1 	mov	x1, x19
    8a10:	94000507 	bl	9e2c <mpa_free_static_temp_var>
/home/rahulmahadev/hikey_optee/optee_os/lib/libmpa/mpa_primetest.c:287
    8a14:	f9403ba0 	ldr	x0, [x29,#112]
    8a18:	aa1303e1 	mov	x1, x19
    8a1c:	94000504 	bl	9e2c <mpa_free_static_temp_var>
/home/rahulmahadev/hikey_optee/optee_os/lib/libmpa/mpa_primetest.c:288
    8a20:	aa1303e1 	mov	x1, x19
    8a24:	aa1503e0 	mov	x0, x21
    8a28:	94000501 	bl	9e2c <mpa_free_static_temp_var>
mpa_is_prob_prime():
/home/rahulmahadev/hikey_optee/optee_os/lib/libmpa/mpa_primetest.c:107
    8a2c:	2a1803e0 	mov	w0, w24
    8a30:	a94153f3 	ldp	x19, x20, [sp,#16]
    8a34:	a9425bf5 	ldp	x21, x22, [sp,#32]
    8a38:	a94363f7 	ldp	x23, x24, [sp,#48]
    8a3c:	a9446bf9 	ldp	x25, x26, [sp,#64]
    8a40:	a94573fb 	ldp	x27, x28, [sp,#80]
    8a44:	a8cc7bfd 	ldp	x29, x30, [sp],#192
    8a48:	d65f03c0 	ret

0000000000008a4c <mpa_set_S32>:
mpa_set_S32():
/home/rahulmahadev/hikey_optee/optee_os/lib/libmpa/mpa_conv.c:37
    8a4c:	6b1f003f 	cmp	w1, wzr
    8a50:	540000a0 	b.eq	8a64 <mpa_set_S32+0x18>
/home/rahulmahadev/hikey_optee/optee_os/lib/libmpa/mpa_conv.c:38
    8a54:	12800002 	mov	w2, #0xffffffff            	// #-1
    8a58:	1a9fb442 	csinc	w2, w2, wzr, lt
    8a5c:	b9000402 	str	w2, [x0,#4]
    8a60:	14000002 	b	8a68 <mpa_set_S32+0x1c>
/home/rahulmahadev/hikey_optee/optee_os/lib/libmpa/mpa_conv.c:40
    8a64:	b900041f 	str	wzr, [x0,#4]
/home/rahulmahadev/hikey_optee/optee_os/lib/libmpa/mpa_conv.c:41
    8a68:	93407c21 	sxtw	x1, w1
    8a6c:	ca81fc22 	eor	x2, x1, x1, asr #63
    8a70:	cb81fc41 	sub	x1, x2, x1, asr #63
    8a74:	b9000801 	str	w1, [x0,#8]
/home/rahulmahadev/hikey_optee/optee_os/lib/libmpa/mpa_conv.c:45
    8a78:	d65f03c0 	ret

0000000000008a7c <mpa_get_S32>:
mpa_get_S32():
/home/rahulmahadev/hikey_optee/optee_os/lib/libmpa/mpa_conv.c:57
    8a7c:	b9400422 	ldr	w2, [x1,#4]
/home/rahulmahadev/hikey_optee/optee_os/lib/libmpa/mpa_conv.c:55
    8a80:	aa0003e4 	mov	x4, x0
/home/rahulmahadev/hikey_optee/optee_os/lib/libmpa/mpa_conv.c:57
    8a84:	93407c43 	sxtw	x3, w2
    8a88:	ca83fc60 	eor	x0, x3, x3, asr #63
    8a8c:	cb83fc03 	sub	x3, x0, x3, asr #63
/home/rahulmahadev/hikey_optee/optee_os/lib/libmpa/mpa_conv.c:58
    8a90:	12800000 	mov	w0, #0xffffffff            	// #-1
/home/rahulmahadev/hikey_optee/optee_os/lib/libmpa/mpa_conv.c:57
    8a94:	7100047f 	cmp	w3, #0x1
    8a98:	540002cc 	b.gt	8af0 <mpa_get_S32+0x74>
/home/rahulmahadev/hikey_optee/optee_os/lib/libmpa/mpa_conv.c:59
    8a9c:	b9400821 	ldr	w1, [x1,#8]
    8aa0:	52b00000 	mov	w0, #0x80000000            	// #-2147483648
    8aa4:	6b00003f 	cmp	w1, w0
    8aa8:	54000069 	b.ls	8ab4 <mpa_get_S32+0x38>
/home/rahulmahadev/hikey_optee/optee_os/lib/libmpa/mpa_conv.c:58
    8aac:	12800000 	mov	w0, #0xffffffff            	// #-1
/home/rahulmahadev/hikey_optee/optee_os/lib/libmpa/mpa_conv.c:59
    8ab0:	37f80202 	tbnz	w2, #31, 8af0 <mpa_get_S32+0x74>
/home/rahulmahadev/hikey_optee/optee_os/lib/libmpa/mpa_conv.c:61
    8ab4:	36f800a1 	tbz	w1, #31, 8ac8 <mpa_get_S32+0x4c>
/home/rahulmahadev/hikey_optee/optee_os/lib/libmpa/mpa_conv.c:58 (discriminator 1)
    8ab8:	12800000 	mov	w0, #0xffffffff            	// #-1
/home/rahulmahadev/hikey_optee/optee_os/lib/libmpa/mpa_conv.c:61 (discriminator 1)
    8abc:	36f801a2 	tbz	w2, #31, 8af0 <mpa_get_S32+0x74>
/home/rahulmahadev/hikey_optee/optee_os/lib/libmpa/mpa_conv.c:64
    8ac0:	2a0003e2 	mov	w2, w0
    8ac4:	14000008 	b	8ae4 <mpa_get_S32+0x68>
    8ac8:	6b1f005f 	cmp	w2, wzr
    8acc:	54000080 	b.eq	8adc <mpa_get_S32+0x60>
/home/rahulmahadev/hikey_optee/optee_os/lib/libmpa/mpa_conv.c:64 (discriminator 4)
    8ad0:	52800022 	mov	w2, #0x1                   	// #1
    8ad4:	5a9fa042 	csinv	w2, w2, wzr, ge
    8ad8:	14000003 	b	8ae4 <mpa_get_S32+0x68>
/home/rahulmahadev/hikey_optee/optee_os/lib/libmpa/mpa_conv.c:64
    8adc:	52800001 	mov	w1, #0x0                   	// #0
    8ae0:	52800022 	mov	w2, #0x1                   	// #1
/home/rahulmahadev/hikey_optee/optee_os/lib/libmpa/mpa_conv.c:64 (discriminator 8)
    8ae4:	1b027c21 	mul	w1, w1, w2
    8ae8:	b9000081 	str	w1, [x4]
/home/rahulmahadev/hikey_optee/optee_os/lib/libmpa/mpa_conv.c:65 (discriminator 8)
    8aec:	52800000 	mov	w0, #0x0                   	// #0
/home/rahulmahadev/hikey_optee/optee_os/lib/libmpa/mpa_conv.c:70
    8af0:	d65f03c0 	ret

0000000000008af4 <mpa_set_word>:
mpa_set_word():
/home/rahulmahadev/hikey_optee/optee_os/lib/libmpa/mpa_conv.c:80
    8af4:	6b1f003f 	cmp	w1, wzr
/home/rahulmahadev/hikey_optee/optee_os/lib/libmpa/mpa_conv.c:79
    8af8:	b9000801 	str	w1, [x0,#8]
/home/rahulmahadev/hikey_optee/optee_os/lib/libmpa/mpa_conv.c:80
    8afc:	1a9f07e1 	cset	w1, ne
    8b00:	b9000401 	str	w1, [x0,#4]
/home/rahulmahadev/hikey_optee/optee_os/lib/libmpa/mpa_conv.c:81
    8b04:	d65f03c0 	ret

0000000000008b08 <mpa_get_word>:
mpa_get_word():
/home/rahulmahadev/hikey_optee/optee_os/lib/libmpa/mpa_conv.c:91
    8b08:	b9400402 	ldr	w2, [x0,#4]
/home/rahulmahadev/hikey_optee/optee_os/lib/libmpa/mpa_conv.c:90
    8b0c:	aa0003e1 	mov	x1, x0
/home/rahulmahadev/hikey_optee/optee_os/lib/libmpa/mpa_conv.c:91
    8b10:	52800000 	mov	w0, #0x0                   	// #0
    8b14:	34000042 	cbz	w2, 8b1c <mpa_get_word+0x14>
/home/rahulmahadev/hikey_optee/optee_os/lib/libmpa/mpa_conv.c:91 (discriminator 1)
    8b18:	b9400820 	ldr	w0, [x1,#8]
/home/rahulmahadev/hikey_optee/optee_os/lib/libmpa/mpa_conv.c:92 (discriminator 4)
    8b1c:	d65f03c0 	ret

0000000000008b20 <__mpa_div_dword>:
__mpa_div_dword():
/home/rahulmahadev/hikey_optee/optee_os/lib/libmpa/mpa_div.c:81
    8b20:	2a0003e0 	mov	w0, w0
__mpa_soft_div():
/home/rahulmahadev/hikey_optee/optee_os/lib/libmpa/mpa_div.c:46
    8b24:	2a0203e2 	mov	w2, w2
__mpa_div_dword():
/home/rahulmahadev/hikey_optee/optee_os/lib/libmpa/mpa_div.c:81
    8b28:	8b018001 	add	x1, x0, x1, lsl #32
__mpa_soft_div():
/home/rahulmahadev/hikey_optee/optee_os/lib/libmpa/mpa_div.c:45
    8b2c:	d2800024 	mov	x4, #0x1                   	// #1
/home/rahulmahadev/hikey_optee/optee_os/lib/libmpa/mpa_div.c:48
    8b30:	b7f80082 	tbnz	x2, #63, 8b40 <__mpa_div_dword+0x20>
/home/rahulmahadev/hikey_optee/optee_os/lib/libmpa/mpa_div.c:49
    8b34:	d37ff842 	lsl	x2, x2, #1
/home/rahulmahadev/hikey_optee/optee_os/lib/libmpa/mpa_div.c:50
    8b38:	d37ff884 	lsl	x4, x4, #1
    8b3c:	17fffffd 	b	8b30 <__mpa_div_dword+0x10>
/home/rahulmahadev/hikey_optee/optee_os/lib/libmpa/mpa_div.c:48
    8b40:	d2800000 	mov	x0, #0x0                   	// #0
/home/rahulmahadev/hikey_optee/optee_os/lib/libmpa/mpa_div.c:53
    8b44:	b4000104 	cbz	x4, 8b64 <__mpa_div_dword+0x44>
/home/rahulmahadev/hikey_optee/optee_os/lib/libmpa/mpa_div.c:54
    8b48:	eb01005f 	cmp	x2, x1
    8b4c:	54000068 	b.hi	8b58 <__mpa_div_dword+0x38>
/home/rahulmahadev/hikey_optee/optee_os/lib/libmpa/mpa_div.c:55
    8b50:	cb020021 	sub	x1, x1, x2
/home/rahulmahadev/hikey_optee/optee_os/lib/libmpa/mpa_div.c:56
    8b54:	8b040000 	add	x0, x0, x4
/home/rahulmahadev/hikey_optee/optee_os/lib/libmpa/mpa_div.c:58
    8b58:	d341fc42 	lsr	x2, x2, #1
/home/rahulmahadev/hikey_optee/optee_os/lib/libmpa/mpa_div.c:59
    8b5c:	d341fc84 	lsr	x4, x4, #1
    8b60:	17fffff9 	b	8b44 <__mpa_div_dword+0x24>
/home/rahulmahadev/hikey_optee/optee_os/lib/libmpa/mpa_div.c:62
    8b64:	b4000043 	cbz	x3, 8b6c <__mpa_div_dword+0x4c>
/home/rahulmahadev/hikey_optee/optee_os/lib/libmpa/mpa_div.c:63
    8b68:	b9000061 	str	w1, [x3]
__mpa_div_dword():
/home/rahulmahadev/hikey_optee/optee_os/lib/libmpa/mpa_div.c:89
    8b6c:	d65f03c0 	ret

0000000000008b70 <__mpa_div_q_r_internal_word>:
__mpa_div_q_r_internal_word():
/home/rahulmahadev/hikey_optee/optee_os/lib/libmpa/mpa_div.c:269
    8b70:	a9bb7bfd 	stp	x29, x30, [sp,#-80]!
    8b74:	910003fd 	mov	x29, sp
    8b78:	a90153f3 	stp	x19, x20, [sp,#16]
    8b7c:	aa0103f4 	mov	x20, x1
/home/rahulmahadev/hikey_optee/optee_os/lib/libmpa/mpa_div.c:277
    8b80:	b9800441 	ldrsw	x1, [x2,#4]
/home/rahulmahadev/hikey_optee/optee_os/lib/libmpa/mpa_div.c:269
    8b84:	a9025bf5 	stp	x21, x22, [sp,#32]
    8b88:	aa0203f5 	mov	x21, x2
    8b8c:	aa0003f6 	mov	x22, x0
/home/rahulmahadev/hikey_optee/optee_os/lib/libmpa/mpa_div.c:277
    8b90:	ca81fc22 	eor	x2, x1, x1, asr #63
    8b94:	cb81fc41 	sub	x1, x2, x1, asr #63
/home/rahulmahadev/hikey_optee/optee_os/lib/libmpa/mpa_div.c:269
    8b98:	a90363f7 	stp	x23, x24, [sp,#48]
/home/rahulmahadev/hikey_optee/optee_os/lib/libmpa/mpa_div.c:277
    8b9c:	7100043f 	cmp	w1, #0x1
/home/rahulmahadev/hikey_optee/optee_os/lib/libmpa/mpa_div.c:269
    8ba0:	2a0303f7 	mov	w23, w3
/home/rahulmahadev/hikey_optee/optee_os/lib/libmpa/mpa_div.c:277
    8ba4:	54000141 	b.ne	8bcc <__mpa_div_q_r_internal_word+0x5c>
/home/rahulmahadev/hikey_optee/optee_os/lib/libmpa/mpa_div.c:278
    8ba8:	b9400aa1 	ldr	w1, [x21,#8]
    8bac:	1ac30821 	udiv	w1, w1, w3
    8bb0:	97ffffd1 	bl	8af4 <mpa_set_word>
/home/rahulmahadev/hikey_optee/optee_os/lib/libmpa/mpa_div.c:279
    8bb4:	b9400aa0 	ldr	w0, [x21,#8]
    8bb8:	1ad70801 	udiv	w1, w0, w23
    8bbc:	1b178021 	msub	w1, w1, w23, w0
    8bc0:	aa1403e0 	mov	x0, x20
    8bc4:	97ffffcc 	bl	8af4 <mpa_set_word>
    8bc8:	1400002c 	b	8c78 <__mpa_div_q_r_internal_word+0x108>
/home/rahulmahadev/hikey_optee/optee_os/lib/libmpa/mpa_div.c:282
    8bcc:	aa1503e1 	mov	x1, x21
    8bd0:	aa1403e0 	mov	x0, x20
/home/rahulmahadev/hikey_optee/optee_os/lib/libmpa/mpa_div.c:289
    8bd4:	910133b8 	add	x24, x29, #0x4c
/home/rahulmahadev/hikey_optee/optee_os/lib/libmpa/mpa_div.c:282
    8bd8:	97fffd5f 	bl	8154 <mpa_copy>
/home/rahulmahadev/hikey_optee/optee_os/lib/libmpa/mpa_div.c:283
    8bdc:	52800001 	mov	w1, #0x0                   	// #0
    8be0:	aa1603e0 	mov	x0, x22
    8be4:	97ffffc4 	bl	8af4 <mpa_set_word>
/home/rahulmahadev/hikey_optee/optee_os/lib/libmpa/mpa_div.c:285
    8be8:	b9800693 	ldrsw	x19, [x20,#4]
/home/rahulmahadev/hikey_optee/optee_os/lib/libmpa/mpa_div.c:286
    8bec:	52800001 	mov	w1, #0x0                   	// #0
/home/rahulmahadev/hikey_optee/optee_os/lib/libmpa/mpa_div.c:285
    8bf0:	ca93fe60 	eor	x0, x19, x19, asr #63
    8bf4:	cb93fc13 	sub	x19, x0, x19, asr #63
    8bf8:	51000673 	sub	w19, w19, #0x1
/home/rahulmahadev/hikey_optee/optee_os/lib/libmpa/mpa_div.c:287
    8bfc:	8b33ca80 	add	x0, x20, w19, sxtw #2
    8c00:	b9400800 	ldr	w0, [x0,#8]
/home/rahulmahadev/hikey_optee/optee_os/lib/libmpa/mpa_div.c:288
    8c04:	3100067f 	cmn	w19, #0x1
    8c08:	540001a0 	b.eq	8c3c <__mpa_div_q_r_internal_word+0xcc>
/home/rahulmahadev/hikey_optee/optee_os/lib/libmpa/mpa_div.c:289
    8c0c:	aa1803e3 	mov	x3, x24
    8c10:	2a1703e2 	mov	w2, w23
    8c14:	97ffffc3 	bl	8b20 <__mpa_div_dword>
/home/rahulmahadev/hikey_optee/optee_os/lib/libmpa/mpa_div.c:290
    8c18:	937e7e64 	sbfiz	x4, x19, #2, #32
/home/rahulmahadev/hikey_optee/optee_os/lib/libmpa/mpa_div.c:293
    8c1c:	51000673 	sub	w19, w19, #0x1
/home/rahulmahadev/hikey_optee/optee_os/lib/libmpa/mpa_div.c:290
    8c20:	8b0402c1 	add	x1, x22, x4
    8c24:	8b040284 	add	x4, x20, x4
    8c28:	b9000820 	str	w0, [x1,#8]
/home/rahulmahadev/hikey_optee/optee_os/lib/libmpa/mpa_div.c:291
    8c2c:	b9404fa1 	ldr	w1, [x29,#76]
    8c30:	b9000881 	str	w1, [x4,#8]
/home/rahulmahadev/hikey_optee/optee_os/lib/libmpa/mpa_div.c:293
    8c34:	b9400480 	ldr	w0, [x4,#4]
    8c38:	17fffff3 	b	8c04 <__mpa_div_q_r_internal_word+0x94>
/home/rahulmahadev/hikey_optee/optee_os/lib/libmpa/mpa_div.c:296
    8c3c:	b9400a80 	ldr	w0, [x20,#8]
    8c40:	6b1f001f 	cmp	w0, wzr
    8c44:	1a9f07e0 	cset	w0, ne
    8c48:	b9000680 	str	w0, [x20,#4]
/home/rahulmahadev/hikey_optee/optee_os/lib/libmpa/mpa_div.c:297
    8c4c:	b98006a1 	ldrsw	x1, [x21,#4]
    8c50:	ca81fc20 	eor	x0, x1, x1, asr #63
    8c54:	cb81fc01 	sub	x1, x0, x1, asr #63
/home/rahulmahadev/hikey_optee/optee_os/lib/libmpa/mpa_div.c:299
    8c58:	51000421 	sub	w1, w1, #0x1
/home/rahulmahadev/hikey_optee/optee_os/lib/libmpa/mpa_div.c:298
    8c5c:	3100043f 	cmn	w1, #0x1
    8c60:	54000080 	b.eq	8c70 <__mpa_div_q_r_internal_word+0x100>
/home/rahulmahadev/hikey_optee/optee_os/lib/libmpa/mpa_div.c:298 (discriminator 1)
    8c64:	8b21cac0 	add	x0, x22, w1, sxtw #2
    8c68:	b9400800 	ldr	w0, [x0,#8]
    8c6c:	34ffff60 	cbz	w0, 8c58 <__mpa_div_q_r_internal_word+0xe8>
/home/rahulmahadev/hikey_optee/optee_os/lib/libmpa/mpa_div.c:300
    8c70:	11000421 	add	w1, w1, #0x1
    8c74:	b90006c1 	str	w1, [x22,#4]
/home/rahulmahadev/hikey_optee/optee_os/lib/libmpa/mpa_div.c:301
    8c78:	a94153f3 	ldp	x19, x20, [sp,#16]
    8c7c:	a9425bf5 	ldp	x21, x22, [sp,#32]
    8c80:	a94363f7 	ldp	x23, x24, [sp,#48]
    8c84:	a8c57bfd 	ldp	x29, x30, [sp],#80
    8c88:	d65f03c0 	ret

0000000000008c8c <__mpa_div_q_r>:
__mpa_div_q_r():
/home/rahulmahadev/hikey_optee/optee_os/lib/libmpa/mpa_div.c:324
    8c8c:	a9b07bfd 	stp	x29, x30, [sp,#-256]!
    8c90:	910003fd 	mov	x29, sp
    8c94:	a90363f7 	stp	x23, x24, [sp,#48]
    8c98:	aa0103f8 	mov	x24, x1
/home/rahulmahadev/hikey_optee/optee_os/lib/libmpa/mpa_div.c:328
    8c9c:	b9400441 	ldr	w1, [x2,#4]
/home/rahulmahadev/hikey_optee/optee_os/lib/libmpa/mpa_div.c:324
    8ca0:	a90153f3 	stp	x19, x20, [sp,#16]
    8ca4:	a9025bf5 	stp	x21, x22, [sp,#32]
    8ca8:	a9046bf9 	stp	x25, x26, [sp,#64]
    8cac:	a90573fb 	stp	x27, x28, [sp,#80]
    8cb0:	aa0003f3 	mov	x19, x0
    8cb4:	aa0203fa 	mov	x26, x2
    8cb8:	aa0303f4 	mov	x20, x3
    8cbc:	aa0403f6 	mov	x22, x4
/home/rahulmahadev/hikey_optee/optee_os/lib/libmpa/mpa_div.c:328
    8cc0:	34000261 	cbz	w1, 8d0c <__mpa_div_q_r+0x80>
/home/rahulmahadev/hikey_optee/optee_os/lib/libmpa/mpa_div.c:333
    8cc4:	b9400460 	ldr	w0, [x3,#4]
    8cc8:	340032a0 	cbz	w0, 931c <__mpa_div_q_r+0x690>
/home/rahulmahadev/hikey_optee/optee_os/lib/libmpa/mpa_div.c:340
    8ccc:	37f800a1 	tbnz	w1, #31, 8ce0 <__mpa_div_q_r+0x54>
/home/rahulmahadev/hikey_optee/optee_os/lib/libmpa/mpa_div.c:341
    8cd0:	6b1f001f 	cmp	w0, wzr
    8cd4:	52800020 	mov	w0, #0x1                   	// #1
    8cd8:	5a9fa000 	csinv	w0, w0, wzr, ge
    8cdc:	14000004 	b	8cec <__mpa_div_q_r+0x60>
    8ce0:	6b1f001f 	cmp	w0, wzr
    8ce4:	12800000 	mov	w0, #0xffffffff            	// #-1
    8ce8:	1a9fa400 	csinc	w0, w0, wzr, ge
    8cec:	b900bfa0 	str	w0, [x29,#188]
/home/rahulmahadev/hikey_optee/optee_os/lib/libmpa/mpa_div.c:342
    8cf0:	aa1403e1 	mov	x1, x20
    8cf4:	aa1a03e0 	mov	x0, x26
    8cf8:	940008ca 	bl	b020 <__mpa_abs_cmp>
/home/rahulmahadev/hikey_optee/optee_os/lib/libmpa/mpa_div.c:343
    8cfc:	6b1f001f 	cmp	w0, wzr
    8d00:	54000101 	b.ne	8d20 <__mpa_div_q_r+0x94>
/home/rahulmahadev/hikey_optee/optee_os/lib/libmpa/mpa_div.c:344
    8d04:	52800021 	mov	w1, #0x1                   	// #1
    8d08:	aa1303e0 	mov	x0, x19
    8d0c:	97ffff7a 	bl	8af4 <mpa_set_word>
/home/rahulmahadev/hikey_optee/optee_os/lib/libmpa/mpa_div.c:345
    8d10:	52800001 	mov	w1, #0x0                   	// #0
    8d14:	aa1803e0 	mov	x0, x24
    8d18:	97ffff77 	bl	8af4 <mpa_set_word>
/home/rahulmahadev/hikey_optee/optee_os/lib/libmpa/mpa_div.c:346
    8d1c:	14000180 	b	931c <__mpa_div_q_r+0x690>
/home/rahulmahadev/hikey_optee/optee_os/lib/libmpa/mpa_div.c:348
    8d20:	54002bed 	b.le	929c <__mpa_div_q_r+0x610>
/home/rahulmahadev/hikey_optee/optee_os/lib/libmpa/mpa_div.c:349
    8d24:	b9800680 	ldrsw	x0, [x20,#4]
    8d28:	ca80fc01 	eor	x1, x0, x0, asr #63
    8d2c:	cb80fc20 	sub	x0, x1, x0, asr #63
    8d30:	7100041f 	cmp	w0, #0x1
    8d34:	54002a8d 	b.le	9284 <__mpa_div_q_r+0x5f8>
__mpa_div_q_r_internal():
/home/rahulmahadev/hikey_optee/optee_os/lib/libmpa/mpa_div.c:125
    8d38:	9103a3a0 	add	x0, x29, #0xe8
    8d3c:	aa1603e1 	mov	x1, x22
    8d40:	f9005ba0 	str	x0, [x29,#176]
    8d44:	94000436 	bl	9e1c <mpa_alloc_static_temp_var>
/home/rahulmahadev/hikey_optee/optee_os/lib/libmpa/mpa_div.c:126
    8d48:	9103c3a0 	add	x0, x29, #0xf0
    8d4c:	aa1603e1 	mov	x1, x22
    8d50:	f90057a0 	str	x0, [x29,#168]
    8d54:	94000432 	bl	9e1c <mpa_alloc_static_temp_var>
/home/rahulmahadev/hikey_optee/optee_os/lib/libmpa/mpa_div.c:127
    8d58:	f9407ba0 	ldr	x0, [x29,#240]
    8d5c:	aa1403e1 	mov	x1, x20
    8d60:	97fffcfd 	bl	8154 <mpa_copy>
/home/rahulmahadev/hikey_optee/optee_os/lib/libmpa/mpa_div.c:134
    8d64:	9103e3a0 	add	x0, x29, #0xf8
    8d68:	aa1603e1 	mov	x1, x22
    8d6c:	f90053a0 	str	x0, [x29,#160]
    8d70:	9400042b 	bl	9e1c <mpa_alloc_static_temp_var>
/home/rahulmahadev/hikey_optee/optee_os/lib/libmpa/mpa_div.c:135
    8d74:	f9407fa0 	ldr	x0, [x29,#248]
    8d78:	aa1a03e1 	mov	x1, x26
    8d7c:	97fffcf6 	bl	8154 <mpa_copy>
/home/rahulmahadev/hikey_optee/optee_os/lib/libmpa/mpa_div.c:136
    8d80:	f9407fa1 	ldr	x1, [x29,#248]
    8d84:	b9400420 	ldr	w0, [x1,#4]
    8d88:	36f80060 	tbz	w0, #31, 8d94 <__mpa_div_q_r+0x108>
    8d8c:	4b0003e0 	neg	w0, w0
    8d90:	b9000420 	str	w0, [x1,#4]
/home/rahulmahadev/hikey_optee/optee_os/lib/libmpa/mpa_div.c:137
    8d94:	f9407ba2 	ldr	x2, [x29,#240]
    8d98:	b9400440 	ldr	w0, [x2,#4]
    8d9c:	36f80060 	tbz	w0, #31, 8da8 <__mpa_div_q_r+0x11c>
    8da0:	4b0003e0 	neg	w0, w0
    8da4:	b9000440 	str	w0, [x2,#4]
/home/rahulmahadev/hikey_optee/optee_os/lib/libmpa/mpa_div.c:143
    8da8:	b9800440 	ldrsw	x0, [x2,#4]
/home/rahulmahadev/hikey_optee/optee_os/lib/libmpa/mpa_div.c:142
    8dac:	52800019 	mov	w25, #0x0                   	// #0
/home/rahulmahadev/hikey_optee/optee_os/lib/libmpa/mpa_div.c:143
    8db0:	ca80fc03 	eor	x3, x0, x0, asr #63
    8db4:	cb80fc60 	sub	x0, x3, x0, asr #63
    8db8:	51000400 	sub	w0, w0, #0x1
    8dbc:	8b20c840 	add	x0, x2, w0, sxtw #2
    8dc0:	b9400800 	ldr	w0, [x0,#8]
/home/rahulmahadev/hikey_optee/optee_os/lib/libmpa/mpa_div.c:144
    8dc4:	37f80080 	tbnz	w0, #31, 8dd4 <__mpa_div_q_r+0x148>
/home/rahulmahadev/hikey_optee/optee_os/lib/libmpa/mpa_div.c:145
    8dc8:	11000739 	add	w25, w25, #0x1
/home/rahulmahadev/hikey_optee/optee_os/lib/libmpa/mpa_div.c:146
    8dcc:	531f7800 	lsl	w0, w0, #1
    8dd0:	17fffffd 	b	8dc4 <__mpa_div_q_r+0x138>
    8dd4:	b900d7a0 	str	w0, [x29,#212]
/home/rahulmahadev/hikey_optee/optee_os/lib/libmpa/mpa_div.c:148
    8dd8:	34000119 	cbz	w25, 8df8 <__mpa_div_q_r+0x16c>
/home/rahulmahadev/hikey_optee/optee_os/lib/libmpa/mpa_div.c:149
    8ddc:	aa0103e0 	mov	x0, x1
    8de0:	2a1903e2 	mov	w2, w25
    8de4:	9400058a 	bl	a40c <mpa_shift_left>
/home/rahulmahadev/hikey_optee/optee_os/lib/libmpa/mpa_div.c:150
    8de8:	f9407ba1 	ldr	x1, [x29,#240]
    8dec:	2a1903e2 	mov	w2, w25
    8df0:	aa0103e0 	mov	x0, x1
    8df4:	94000586 	bl	a40c <mpa_shift_left>
/home/rahulmahadev/hikey_optee/optee_os/lib/libmpa/mpa_div.c:153
    8df8:	f9407fa0 	ldr	x0, [x29,#248]
    8dfc:	b9400414 	ldr	w20, [x0,#4]
/home/rahulmahadev/hikey_optee/optee_os/lib/libmpa/mpa_div.c:154
    8e00:	f9407ba0 	ldr	x0, [x29,#240]
    8e04:	b940041b 	ldr	w27, [x0,#4]
/home/rahulmahadev/hikey_optee/optee_os/lib/libmpa/mpa_div.c:157
    8e08:	aa1303e0 	mov	x0, x19
    8e0c:	97fffcc6 	bl	8124 <mpa_wipe>
/home/rahulmahadev/hikey_optee/optee_os/lib/libmpa/mpa_div.c:155
    8e10:	4b1b0295 	sub	w21, w20, w27
/home/rahulmahadev/hikey_optee/optee_os/lib/libmpa/mpa_div.c:163
    8e14:	f9407ba0 	ldr	x0, [x29,#240]
    8e18:	2a1503e1 	mov	w1, w21
    8e1c:	94000539 	bl	a300 <__mpa_shift_words_left>
/home/rahulmahadev/hikey_optee/optee_os/lib/libmpa/mpa_div.c:165
    8e20:	f9407ba2 	ldr	x2, [x29,#240]
/home/rahulmahadev/hikey_optee/optee_os/lib/libmpa/mpa_div.c:166
    8e24:	52800024 	mov	w4, #0x1                   	// #1
/home/rahulmahadev/hikey_optee/optee_os/lib/libmpa/mpa_div.c:169
    8e28:	f9407fa1 	ldr	x1, [x29,#248]
/home/rahulmahadev/hikey_optee/optee_os/lib/libmpa/mpa_div.c:165
    8e2c:	b9800443 	ldrsw	x3, [x2,#4]
    8e30:	ca83fc60 	eor	x0, x3, x3, asr #63
    8e34:	cb83fc03 	sub	x3, x0, x3, asr #63
    8e38:	2a0303e6 	mov	w6, w3
    8e3c:	2a0303e0 	mov	w0, w3
/home/rahulmahadev/hikey_optee/optee_os/lib/libmpa/mpa_div.c:167
    8e40:	6b1f001f 	cmp	w0, wzr
    8e44:	5400026d 	b.le	8e90 <__mpa_div_q_r+0x204>
    8e48:	34000244 	cbz	w4, 8e90 <__mpa_div_q_r+0x204>
/home/rahulmahadev/hikey_optee/optee_os/lib/libmpa/mpa_div.c:169
    8e4c:	b9800424 	ldrsw	x4, [x1,#4]
/home/rahulmahadev/hikey_optee/optee_os/lib/libmpa/mpa_div.c:168
    8e50:	51000400 	sub	w0, w0, #0x1
/home/rahulmahadev/hikey_optee/optee_os/lib/libmpa/mpa_div.c:169
    8e54:	ca84fc85 	eor	x5, x4, x4, asr #63
    8e58:	cb84fca4 	sub	x4, x5, x4, asr #63
    8e5c:	52800005 	mov	w5, #0x0                   	// #0
    8e60:	6b04001f 	cmp	w0, w4
    8e64:	5400006a 	b.ge	8e70 <__mpa_div_q_r+0x1e4>
    8e68:	8b20c824 	add	x4, x1, w0, sxtw #2
    8e6c:	b9400885 	ldr	w5, [x4,#8]
    8e70:	6b06001f 	cmp	w0, w6
    8e74:	52800004 	mov	w4, #0x0                   	// #0
    8e78:	5400006a 	b.ge	8e84 <__mpa_div_q_r+0x1f8>
    8e7c:	8b20c844 	add	x4, x2, w0, sxtw #2
    8e80:	b9400884 	ldr	w4, [x4,#8]
    8e84:	6b0400bf 	cmp	w5, w4
    8e88:	1a9f17e4 	cset	w4, eq
    8e8c:	17ffffed 	b	8e40 <__mpa_div_q_r+0x1b4>
/home/rahulmahadev/hikey_optee/optee_os/lib/libmpa/mpa_div.c:171
    8e90:	35000324 	cbnz	w4, 8ef4 <__mpa_div_q_r+0x268>
    8e94:	b9800424 	ldrsw	x4, [x1,#4]
    8e98:	ca84fc85 	eor	x5, x4, x4, asr #63
    8e9c:	cb84fca4 	sub	x4, x5, x4, asr #63
    8ea0:	6b04001f 	cmp	w0, w4
    8ea4:	540000ea 	b.ge	8ec0 <__mpa_div_q_r+0x234>
    8ea8:	6b03001f 	cmp	w0, w3
    8eac:	8b20c824 	add	x4, x1, w0, sxtw #2
    8eb0:	b9400885 	ldr	w5, [x4,#8]
    8eb4:	52800004 	mov	w4, #0x0                   	// #0
    8eb8:	540000ea 	b.ge	8ed4 <__mpa_div_q_r+0x248>
    8ebc:	14000004 	b	8ecc <__mpa_div_q_r+0x240>
    8ec0:	6b03001f 	cmp	w0, w3
    8ec4:	5400018a 	b.ge	8ef4 <__mpa_div_q_r+0x268>
    8ec8:	52800005 	mov	w5, #0x0                   	// #0
    8ecc:	8b20c840 	add	x0, x2, w0, sxtw #2
    8ed0:	b9400804 	ldr	w4, [x0,#8]
    8ed4:	6b0400bf 	cmp	w5, w4
    8ed8:	540000e9 	b.ls	8ef4 <__mpa_div_q_r+0x268>
/home/rahulmahadev/hikey_optee/optee_os/lib/libmpa/mpa_div.c:172
    8edc:	8b35ca60 	add	x0, x19, w21, sxtw #2
    8ee0:	52800023 	mov	w3, #0x1                   	// #1
    8ee4:	b9000803 	str	w3, [x0,#8]
/home/rahulmahadev/hikey_optee/optee_os/lib/libmpa/mpa_div.c:173
    8ee8:	aa1603e3 	mov	x3, x22
    8eec:	aa0103e0 	mov	x0, x1
    8ef0:	94000734 	bl	abc0 <mpa_sub>
/home/rahulmahadev/hikey_optee/optee_os/lib/libmpa/mpa_div.c:177
    8ef4:	f9407fa0 	ldr	x0, [x29,#248]
    8ef8:	51000694 	sub	w20, w20, #0x1
    8efc:	b9400400 	ldr	w0, [x0,#4]
    8f00:	51000401 	sub	w1, w0, #0x1
    8f04:	51000817 	sub	w23, w0, #0x2
    8f08:	4b0002a0 	sub	w0, w21, w0
    8f0c:	4b1b0021 	sub	w1, w1, w27
    8f10:	0b1b0000 	add	w0, w0, w27
    8f14:	b900bba0 	str	w0, [x29,#184]
/home/rahulmahadev/hikey_optee/optee_os/lib/libmpa/mpa_div.c:195
    8f18:	910363a0 	add	x0, x29, #0xd8
    8f1c:	f9004fa0 	str	x0, [x29,#152]
/home/rahulmahadev/hikey_optee/optee_os/lib/libmpa/mpa_div.c:202
    8f20:	910373a0 	add	x0, x29, #0xdc
    8f24:	b900c7a1 	str	w1, [x29,#196]
    8f28:	f9004ba0 	str	x0, [x29,#144]
/home/rahulmahadev/hikey_optee/optee_os/lib/libmpa/mpa_div.c:195
    8f2c:	910353a1 	add	x1, x29, #0xd4
/home/rahulmahadev/hikey_optee/optee_os/lib/libmpa/mpa_div.c:202
    8f30:	910383a0 	add	x0, x29, #0xe0
/home/rahulmahadev/hikey_optee/optee_os/lib/libmpa/mpa_div.c:195
    8f34:	f90043a1 	str	x1, [x29,#128]
/home/rahulmahadev/hikey_optee/optee_os/lib/libmpa/mpa_div.c:202
    8f38:	f9003fa0 	str	x0, [x29,#120]
    8f3c:	110006fc 	add	w28, w23, #0x1
/home/rahulmahadev/hikey_optee/optee_os/lib/libmpa/mpa_div.c:178
    8f40:	6b1b039f 	cmp	w28, w27
    8f44:	5400178b 	b.lt	9234 <__mpa_div_q_r+0x5a8>
/home/rahulmahadev/hikey_optee/optee_os/lib/libmpa/mpa_div.c:179
    8f48:	f9407fa2 	ldr	x2, [x29,#248]
    8f4c:	52800001 	mov	w1, #0x0                   	// #0
    8f50:	b9800445 	ldrsw	x5, [x2,#4]
    8f54:	ca85fca0 	eor	x0, x5, x5, asr #63
    8f58:	cb85fc05 	sub	x5, x0, x5, asr #63
    8f5c:	6b05039f 	cmp	w28, w5
    8f60:	5400006a 	b.ge	8f6c <__mpa_div_q_r+0x2e0>
    8f64:	8b3cc840 	add	x0, x2, w28, sxtw #2
    8f68:	b9400801 	ldr	w1, [x0,#8]
/home/rahulmahadev/hikey_optee/optee_os/lib/libmpa/mpa_div.c:180
    8f6c:	f9407ba3 	ldr	x3, [x29,#240]
    8f70:	11000680 	add	w0, w20, #0x1
    8f74:	b900c3a0 	str	w0, [x29,#192]
    8f78:	b9800466 	ldrsw	x6, [x3,#4]
    8f7c:	b940c3a4 	ldr	w4, [x29,#192]
    8f80:	ca86fcc0 	eor	x0, x6, x6, asr #63
    8f84:	cb86fc06 	sub	x6, x0, x6, asr #63
    8f88:	52800000 	mov	w0, #0x0                   	// #0
    8f8c:	6b06009f 	cmp	w4, w6
    8f90:	5400006c 	b.gt	8f9c <__mpa_div_q_r+0x310>
    8f94:	8b34c860 	add	x0, x3, w20, sxtw #2
    8f98:	b9400800 	ldr	w0, [x0,#8]
/home/rahulmahadev/hikey_optee/optee_os/lib/libmpa/mpa_div.c:179
    8f9c:	6b00003f 	cmp	w1, w0
    8fa0:	b980c7a0 	ldrsw	x0, [x29,#196]
    8fa4:	f90067a0 	str	x0, [x29,#200]
    8fa8:	54000121 	b.ne	8fcc <__mpa_div_q_r+0x340>
/home/rahulmahadev/hikey_optee/optee_os/lib/libmpa/mpa_div.c:181
    8fac:	8b000a60 	add	x0, x19, x0, lsl #2
    8fb0:	12800001 	mov	w1, #0xffffffff            	// #-1
    8fb4:	b9000801 	str	w1, [x0,#8]
    8fb8:	b940bba0 	ldr	w0, [x29,#184]
    8fbc:	0b170000 	add	w0, w0, w23
/home/rahulmahadev/hikey_optee/optee_os/lib/libmpa/mpa_div.c:202
    8fc0:	937e7c00 	sbfiz	x0, x0, #2, #32
    8fc4:	f90047a0 	str	x0, [x29,#136]
    8fc8:	1400002b 	b	9074 <__mpa_div_q_r+0x3e8>
/home/rahulmahadev/hikey_optee/optee_os/lib/libmpa/mpa_div.c:184
    8fcc:	6b05039f 	cmp	w28, w5
    8fd0:	52800000 	mov	w0, #0x0                   	// #0
    8fd4:	5400006c 	b.gt	8fe0 <__mpa_div_q_r+0x354>
    8fd8:	8b37c840 	add	x0, x2, w23, sxtw #2
    8fdc:	b9400800 	ldr	w0, [x0,#8]
    8fe0:	6b05039f 	cmp	w28, w5
    8fe4:	52800001 	mov	w1, #0x0                   	// #0
    8fe8:	5400006a 	b.ge	8ff4 <__mpa_div_q_r+0x368>
    8fec:	8b3cc842 	add	x2, x2, w28, sxtw #2
    8ff0:	b9400841 	ldr	w1, [x2,#8]
    8ff4:	b940c3a4 	ldr	w4, [x29,#192]
    8ff8:	52800002 	mov	w2, #0x0                   	// #0
    8ffc:	6b06009f 	cmp	w4, w6
    9000:	5400006c 	b.gt	900c <__mpa_div_q_r+0x380>
    9004:	8b34c863 	add	x3, x3, w20, sxtw #2
    9008:	b9400862 	ldr	w2, [x3,#8]
    900c:	d2800003 	mov	x3, #0x0                   	// #0
    9010:	97fffec4 	bl	8b20 <__mpa_div_dword>
/home/rahulmahadev/hikey_optee/optee_os/lib/libmpa/mpa_div.c:183
    9014:	f94067a1 	ldr	x1, [x29,#200]
    9018:	8b010a61 	add	x1, x19, x1, lsl #2
    901c:	b9000820 	str	w0, [x1,#8]
    9020:	17ffffe6 	b	8fb8 <__mpa_div_q_r+0x32c>
/home/rahulmahadev/hikey_optee/optee_os/lib/libmpa/mpa_div.c:195
    9024:	f94043a3 	ldr	x3, [x29,#128]
    9028:	f9404fa2 	ldr	x2, [x29,#152]
    902c:	f9003ba5 	str	x5, [x29,#112]
    9030:	94000392 	bl	9e78 <__mpa_mul_add_word>
/home/rahulmahadev/hikey_optee/optee_os/lib/libmpa/mpa_div.c:199
    9034:	f9407fa0 	ldr	x0, [x29,#248]
    9038:	b940d7a3 	ldr	w3, [x29,#212]
    903c:	f9403ba5 	ldr	x5, [x29,#112]
    9040:	b9800401 	ldrsw	x1, [x0,#4]
    9044:	ca81fc22 	eor	x2, x1, x1, asr #63
    9048:	cb81fc41 	sub	x1, x2, x1, asr #63
    904c:	52800002 	mov	w2, #0x0                   	// #0
    9050:	6b01039f 	cmp	w28, w1
    9054:	5400006a 	b.ge	9060 <__mpa_div_q_r+0x3d4>
    9058:	8b3cc800 	add	x0, x0, w28, sxtw #2
    905c:	b9400802 	ldr	w2, [x0,#8]
    9060:	6b02007f 	cmp	w3, w2
    9064:	540002a9 	b.ls	90b8 <__mpa_div_q_r+0x42c>
/home/rahulmahadev/hikey_optee/optee_os/lib/libmpa/mpa_div.c:221
    9068:	b94008a0 	ldr	w0, [x5,#8]
    906c:	51000400 	sub	w0, w0, #0x1
    9070:	b90008a0 	str	w0, [x5,#8]
/home/rahulmahadev/hikey_optee/optee_os/lib/libmpa/mpa_div.c:196
    9074:	f9407ba2 	ldr	x2, [x29,#240]
    9078:	f94067a0 	ldr	x0, [x29,#200]
/home/rahulmahadev/hikey_optee/optee_os/lib/libmpa/mpa_div.c:195
    907c:	b940c3a4 	ldr	w4, [x29,#192]
/home/rahulmahadev/hikey_optee/optee_os/lib/libmpa/mpa_div.c:196
    9080:	b9800443 	ldrsw	x3, [x2,#4]
    9084:	8b000a65 	add	x5, x19, x0, lsl #2
/home/rahulmahadev/hikey_optee/optee_os/lib/libmpa/mpa_div.c:192
    9088:	b900d7bf 	str	wzr, [x29,#212]
/home/rahulmahadev/hikey_optee/optee_os/lib/libmpa/mpa_div.c:193
    908c:	b900dfbf 	str	wzr, [x29,#220]
/home/rahulmahadev/hikey_optee/optee_os/lib/libmpa/mpa_div.c:196
    9090:	ca83fc61 	eor	x1, x3, x3, asr #63
/home/rahulmahadev/hikey_optee/optee_os/lib/libmpa/mpa_div.c:194
    9094:	b900e7bf 	str	wzr, [x29,#228]
/home/rahulmahadev/hikey_optee/optee_os/lib/libmpa/mpa_div.c:196
    9098:	cb83fc23 	sub	x3, x1, x3, asr #63
/home/rahulmahadev/hikey_optee/optee_os/lib/libmpa/mpa_div.c:195
    909c:	b94008a0 	ldr	w0, [x5,#8]
    90a0:	6b03009f 	cmp	w4, w3
    90a4:	52800001 	mov	w1, #0x0                   	// #0
    90a8:	54fffbec 	b.gt	9024 <__mpa_div_q_r+0x398>
    90ac:	8b34c842 	add	x2, x2, w20, sxtw #2
    90b0:	b9400841 	ldr	w1, [x2,#8]
    90b4:	17ffffdc 	b	9024 <__mpa_div_q_r+0x398>
/home/rahulmahadev/hikey_optee/optee_os/lib/libmpa/mpa_div.c:203
    90b8:	f9407ba2 	ldr	x2, [x29,#240]
/home/rahulmahadev/hikey_optee/optee_os/lib/libmpa/mpa_div.c:202
    90bc:	b94008a0 	ldr	w0, [x5,#8]
/home/rahulmahadev/hikey_optee/optee_os/lib/libmpa/mpa_div.c:203
    90c0:	b9800443 	ldrsw	x3, [x2,#4]
    90c4:	ca83fc61 	eor	x1, x3, x3, asr #63
    90c8:	cb83fc23 	sub	x3, x1, x3, asr #63
/home/rahulmahadev/hikey_optee/optee_os/lib/libmpa/mpa_div.c:202
    90cc:	52800001 	mov	w1, #0x0                   	// #0
    90d0:	6b03029f 	cmp	w20, w3
    90d4:	5400008c 	b.gt	90e4 <__mpa_div_q_r+0x458>
    90d8:	f94047a1 	ldr	x1, [x29,#136]
    90dc:	8b010042 	add	x2, x2, x1
    90e0:	b9400841 	ldr	w1, [x2,#8]
    90e4:	f9404ba3 	ldr	x3, [x29,#144]
    90e8:	f9403fa2 	ldr	x2, [x29,#120]
    90ec:	f90037a5 	str	x5, [x29,#104]
    90f0:	94000362 	bl	9e78 <__mpa_mul_add_word>
/home/rahulmahadev/hikey_optee/optee_os/lib/libmpa/mpa_div.c:206
    90f4:	910393a6 	add	x6, x29, #0xe4
    90f8:	f9404ba2 	ldr	x2, [x29,#144]
    90fc:	b940dfa1 	ldr	w1, [x29,#220]
    9100:	aa0603e3 	mov	x3, x6
    9104:	b940dba0 	ldr	w0, [x29,#216]
    9108:	f9003ba6 	str	x6, [x29,#112]
    910c:	9400057b 	bl	a6f8 <__mpa_full_adder>
/home/rahulmahadev/hikey_optee/optee_os/lib/libmpa/mpa_div.c:207
    9110:	b900dbbf 	str	wzr, [x29,#216]
/home/rahulmahadev/hikey_optee/optee_os/lib/libmpa/mpa_div.c:208
    9114:	f9403ba6 	ldr	x6, [x29,#112]
    9118:	f9404fa3 	ldr	x3, [x29,#152]
    911c:	b940e7a1 	ldr	w1, [x29,#228]
    9120:	aa0603e2 	mov	x2, x6
    9124:	b940d7a0 	ldr	w0, [x29,#212]
    9128:	94000574 	bl	a6f8 <__mpa_full_adder>
/home/rahulmahadev/hikey_optee/optee_os/lib/libmpa/mpa_div.c:209
    912c:	b940dba2 	ldr	w2, [x29,#216]
    9130:	f94037a5 	ldr	x5, [x29,#104]
    9134:	35fff9a2 	cbnz	w2, 9068 <__mpa_div_q_r+0x3dc>
    9138:	f9407fa1 	ldr	x1, [x29,#248]
    913c:	b940e7a3 	ldr	w3, [x29,#228]
    9140:	b9800420 	ldrsw	x0, [x1,#4]
    9144:	ca80fc04 	eor	x4, x0, x0, asr #63
    9148:	cb80fc80 	sub	x0, x4, x0, asr #63
    914c:	6b00039f 	cmp	w28, w0
    9150:	54000dea 	b.ge	930c <__mpa_div_q_r+0x680>
    9154:	8b3cc826 	add	x6, x1, w28, sxtw #2
    9158:	b94008c6 	ldr	w6, [x6,#8]
    915c:	6b06007f 	cmp	w3, w6
    9160:	54fff848 	b.hi	9068 <__mpa_div_q_r+0x3dc>
/home/rahulmahadev/hikey_optee/optee_os/lib/libmpa/mpa_div.c:211
    9164:	54000223 	b.cc	91a8 <__mpa_div_q_r+0x51c>
/home/rahulmahadev/hikey_optee/optee_os/lib/libmpa/mpa_div.c:213
    9168:	6b00039f 	cmp	w28, w0
    916c:	b940dfa3 	ldr	w3, [x29,#220]
    9170:	54000d2c 	b.gt	9314 <__mpa_div_q_r+0x688>
    9174:	8b37c826 	add	x6, x1, w23, sxtw #2
    9178:	b94008c6 	ldr	w6, [x6,#8]
    917c:	6b06007f 	cmp	w3, w6
    9180:	54fff748 	b.hi	9068 <__mpa_div_q_r+0x3dc>
/home/rahulmahadev/hikey_optee/optee_os/lib/libmpa/mpa_div.c:215
    9184:	54000123 	b.cc	91a8 <__mpa_div_q_r+0x51c>
/home/rahulmahadev/hikey_optee/optee_os/lib/libmpa/mpa_div.c:217
    9188:	6b0002ff 	cmp	w23, w0
    918c:	b940e3a3 	ldr	w3, [x29,#224]
    9190:	5400008c 	b.gt	91a0 <__mpa_div_q_r+0x514>
    9194:	510006e0 	sub	w0, w23, #0x1
    9198:	8b20c821 	add	x1, x1, w0, sxtw #2
    919c:	b9400822 	ldr	w2, [x1,#8]
    91a0:	6b02007f 	cmp	w3, w2
    91a4:	54fff628 	b.hi	9068 <__mpa_div_q_r+0x3dc>
/home/rahulmahadev/hikey_optee/optee_os/lib/libmpa/mpa_div.c:225
    91a8:	f9407ba0 	ldr	x0, [x29,#240]
    91ac:	52800021 	mov	w1, #0x1                   	// #1
    91b0:	9400047a 	bl	a398 <__mpa_shift_words_right>
    91b4:	f94067a0 	ldr	x0, [x29,#200]
/home/rahulmahadev/hikey_optee/optee_os/lib/libmpa/mpa_div.c:227
    91b8:	aa1603e3 	mov	x3, x22
    91bc:	f9407ba1 	ldr	x1, [x29,#240]
    91c0:	8b000a7c 	add	x28, x19, x0, lsl #2
    91c4:	f94077a0 	ldr	x0, [x29,#232]
    91c8:	b9400b82 	ldr	w2, [x28,#8]
    91cc:	940003d6 	bl	a124 <mpa_mul_word>
/home/rahulmahadev/hikey_optee/optee_os/lib/libmpa/mpa_div.c:228
    91d0:	f9407fa1 	ldr	x1, [x29,#248]
    91d4:	aa1603e3 	mov	x3, x22
    91d8:	f94077a2 	ldr	x2, [x29,#232]
    91dc:	aa0103e0 	mov	x0, x1
    91e0:	94000678 	bl	abc0 <mpa_sub>
/home/rahulmahadev/hikey_optee/optee_os/lib/libmpa/mpa_div.c:229
    91e4:	f9407fa1 	ldr	x1, [x29,#248]
    91e8:	b9400420 	ldr	w0, [x1,#4]
    91ec:	36f80100 	tbz	w0, #31, 920c <__mpa_div_q_r+0x580>
/home/rahulmahadev/hikey_optee/optee_os/lib/libmpa/mpa_div.c:230
    91f0:	f9407ba2 	ldr	x2, [x29,#240]
    91f4:	aa0103e0 	mov	x0, x1
    91f8:	aa1603e3 	mov	x3, x22
    91fc:	9400060a 	bl	aa24 <mpa_add>
/home/rahulmahadev/hikey_optee/optee_os/lib/libmpa/mpa_div.c:231
    9200:	b9400b80 	ldr	w0, [x28,#8]
    9204:	51000400 	sub	w0, w0, #0x1
    9208:	b9000b80 	str	w0, [x28,#8]
    920c:	b940c7a0 	ldr	w0, [x29,#196]
    9210:	510006f7 	sub	w23, w23, #0x1
    9214:	51000694 	sub	w20, w20, #0x1
    9218:	51000400 	sub	w0, w0, #0x1
    921c:	b900c7a0 	str	w0, [x29,#196]
    9220:	17ffff47 	b	8f3c <__mpa_div_q_r+0x2b0>
/home/rahulmahadev/hikey_optee/optee_os/lib/libmpa/mpa_div.c:239
    9224:	8b35ca60 	add	x0, x19, w21, sxtw #2
    9228:	b9400800 	ldr	w0, [x0,#8]
    922c:	35000060 	cbnz	w0, 9238 <__mpa_div_q_r+0x5ac>
/home/rahulmahadev/hikey_optee/optee_os/lib/libmpa/mpa_div.c:240
    9230:	510006b5 	sub	w21, w21, #0x1
/home/rahulmahadev/hikey_optee/optee_os/lib/libmpa/mpa_div.c:239
    9234:	36ffff95 	tbz	w21, #31, 9224 <__mpa_div_q_r+0x598>
/home/rahulmahadev/hikey_optee/optee_os/lib/libmpa/mpa_div.c:245
    9238:	f9407fa1 	ldr	x1, [x29,#248]
    923c:	2a1903e2 	mov	w2, w25
/home/rahulmahadev/hikey_optee/optee_os/lib/libmpa/mpa_div.c:241
    9240:	110006b5 	add	w21, w21, #0x1
    9244:	b9000675 	str	w21, [x19,#4]
/home/rahulmahadev/hikey_optee/optee_os/lib/libmpa/mpa_div.c:245
    9248:	aa0103e0 	mov	x0, x1
    924c:	940004d1 	bl	a590 <mpa_shift_right>
/home/rahulmahadev/hikey_optee/optee_os/lib/libmpa/mpa_div.c:246
    9250:	f9407fa1 	ldr	x1, [x29,#248]
    9254:	aa1803e0 	mov	x0, x24
    9258:	97fffbbf 	bl	8154 <mpa_copy>
/home/rahulmahadev/hikey_optee/optee_os/lib/libmpa/mpa_div.c:251
    925c:	f9405ba0 	ldr	x0, [x29,#176]
    9260:	aa1603e1 	mov	x1, x22
    9264:	940002f2 	bl	9e2c <mpa_free_static_temp_var>
/home/rahulmahadev/hikey_optee/optee_os/lib/libmpa/mpa_div.c:252
    9268:	f94057a0 	ldr	x0, [x29,#168]
    926c:	aa1603e1 	mov	x1, x22
    9270:	940002ef 	bl	9e2c <mpa_free_static_temp_var>
/home/rahulmahadev/hikey_optee/optee_os/lib/libmpa/mpa_div.c:253
    9274:	f94053a0 	ldr	x0, [x29,#160]
    9278:	aa1603e1 	mov	x1, x22
    927c:	940002ec 	bl	9e2c <mpa_free_static_temp_var>
    9280:	1400000e 	b	92b8 <__mpa_div_q_r+0x62c>
__mpa_div_q_r():
/home/rahulmahadev/hikey_optee/optee_os/lib/libmpa/mpa_div.c:352
    9284:	b9400a83 	ldr	w3, [x20,#8]
    9288:	aa1a03e2 	mov	x2, x26
    928c:	aa1803e1 	mov	x1, x24
    9290:	aa1303e0 	mov	x0, x19
    9294:	97fffe37 	bl	8b70 <__mpa_div_q_r_internal_word>
    9298:	14000008 	b	92b8 <__mpa_div_q_r+0x62c>
/home/rahulmahadev/hikey_optee/optee_os/lib/libmpa/mpa_div.c:354
    929c:	aa1303e0 	mov	x0, x19
    92a0:	52800001 	mov	w1, #0x0                   	// #0
    92a4:	97fffe14 	bl	8af4 <mpa_set_word>
/home/rahulmahadev/hikey_optee/optee_os/lib/libmpa/mpa_div.c:355
    92a8:	aa1a03e1 	mov	x1, x26
    92ac:	aa1803e0 	mov	x0, x24
    92b0:	97fffba9 	bl	8154 <mpa_copy>
/home/rahulmahadev/hikey_optee/optee_os/lib/libmpa/mpa_div.c:356
    92b4:	1400001a 	b	931c <__mpa_div_q_r+0x690>
/home/rahulmahadev/hikey_optee/optee_os/lib/libmpa/mpa_div.c:358
    92b8:	b9400660 	ldr	w0, [x19,#4]
    92bc:	52800021 	mov	w1, #0x1                   	// #1
    92c0:	b940bfa2 	ldr	w2, [x29,#188]
    92c4:	6b1f001f 	cmp	w0, wzr
    92c8:	5a9fa021 	csinv	w1, w1, wzr, ge
    92cc:	6b02003f 	cmp	w1, w2
    92d0:	54000060 	b.eq	92dc <__mpa_div_q_r+0x650>
/home/rahulmahadev/hikey_optee/optee_os/lib/libmpa/mpa_div.c:358 (discriminator 5)
    92d4:	4b0003e0 	neg	w0, w0
    92d8:	b9000660 	str	w0, [x19,#4]
/home/rahulmahadev/hikey_optee/optee_os/lib/libmpa/mpa_div.c:359
    92dc:	b9400700 	ldr	w0, [x24,#4]
    92e0:	52800021 	mov	w1, #0x1                   	// #1
    92e4:	b9400743 	ldr	w3, [x26,#4]
    92e8:	6b1f001f 	cmp	w0, wzr
    92ec:	5a9fa022 	csinv	w2, w1, wzr, ge
    92f0:	6b1f007f 	cmp	w3, wzr
    92f4:	5a9fa021 	csinv	w1, w1, wzr, ge
    92f8:	6b01005f 	cmp	w2, w1
    92fc:	54000100 	b.eq	931c <__mpa_div_q_r+0x690>
/home/rahulmahadev/hikey_optee/optee_os/lib/libmpa/mpa_div.c:359 (discriminator 9)
    9300:	4b0003e0 	neg	w0, w0
    9304:	b9000700 	str	w0, [x24,#4]
    9308:	14000005 	b	931c <__mpa_div_q_r+0x690>
__mpa_div_q_r_internal():
/home/rahulmahadev/hikey_optee/optee_os/lib/libmpa/mpa_div.c:209
    930c:	35ffeae3 	cbnz	w3, 9068 <__mpa_div_q_r+0x3dc>
    9310:	17ffff96 	b	9168 <__mpa_div_q_r+0x4dc>
/home/rahulmahadev/hikey_optee/optee_os/lib/libmpa/mpa_div.c:213
    9314:	35ffeaa3 	cbnz	w3, 9068 <__mpa_div_q_r+0x3dc>
    9318:	17ffff9c 	b	9188 <__mpa_div_q_r+0x4fc>
__mpa_div_q_r():
/home/rahulmahadev/hikey_optee/optee_os/lib/libmpa/mpa_div.c:360
    931c:	a94153f3 	ldp	x19, x20, [sp,#16]
    9320:	a9425bf5 	ldp	x21, x22, [sp,#32]
    9324:	a94363f7 	ldp	x23, x24, [sp,#48]
    9328:	a9446bf9 	ldp	x25, x26, [sp,#64]
    932c:	a94573fb 	ldp	x27, x28, [sp,#80]
    9330:	a8d07bfd 	ldp	x29, x30, [sp],#256
    9334:	d65f03c0 	ret

0000000000009338 <mpa_div>:
mpa_div():
/home/rahulmahadev/hikey_optee/optee_os/lib/libmpa/mpa_div.c:379
    9338:	a9ba7bfd 	stp	x29, x30, [sp,#-96]!
/home/rahulmahadev/hikey_optee/optee_os/lib/libmpa/mpa_div.c:386
    933c:	eb03001f 	cmp	x0, x3
/home/rahulmahadev/hikey_optee/optee_os/lib/libmpa/mpa_div.c:379
    9340:	910003fd 	mov	x29, sp
    9344:	a90153f3 	stp	x19, x20, [sp,#16]
    9348:	aa0103f3 	mov	x19, x1
/home/rahulmahadev/hikey_optee/optee_os/lib/libmpa/mpa_div.c:386
    934c:	1a9f17e1 	cset	w1, eq
    9350:	eb02001f 	cmp	x0, x2
/home/rahulmahadev/hikey_optee/optee_os/lib/libmpa/mpa_div.c:379
    9354:	aa0003f4 	mov	x20, x0
/home/rahulmahadev/hikey_optee/optee_os/lib/libmpa/mpa_div.c:386
    9358:	1a9f17e0 	cset	w0, eq
/home/rahulmahadev/hikey_optee/optee_os/lib/libmpa/mpa_div.c:379
    935c:	f9001bf7 	str	x23, [sp,#48]
    9360:	a9025bf5 	stp	x21, x22, [sp,#32]
/home/rahulmahadev/hikey_optee/optee_os/lib/libmpa/mpa_div.c:386
    9364:	2a000020 	orr	w0, w1, w0
/home/rahulmahadev/hikey_optee/optee_os/lib/libmpa/mpa_div.c:379
    9368:	aa0403f5 	mov	x21, x4
/home/rahulmahadev/hikey_optee/optee_os/lib/libmpa/mpa_div.c:386
    936c:	35000040 	cbnz	w0, 9374 <mpa_div+0x3c>
    9370:	b5000154 	cbnz	x20, 9398 <mpa_div+0x60>
/home/rahulmahadev/hikey_optee/optee_os/lib/libmpa/mpa_div.c:387
    9374:	aa1503e1 	mov	x1, x21
    9378:	910143a0 	add	x0, x29, #0x50
    937c:	f90023a3 	str	x3, [x29,#64]
/home/rahulmahadev/hikey_optee/optee_os/lib/libmpa/mpa_div.c:388
    9380:	52800037 	mov	w23, #0x1                   	// #1
    9384:	f90027a2 	str	x2, [x29,#72]
/home/rahulmahadev/hikey_optee/optee_os/lib/libmpa/mpa_div.c:387
    9388:	940002a5 	bl	9e1c <mpa_alloc_static_temp_var>
/home/rahulmahadev/hikey_optee/optee_os/lib/libmpa/mpa_div.c:388
    938c:	f94027a2 	ldr	x2, [x29,#72]
    9390:	f94023a3 	ldr	x3, [x29,#64]
    9394:	14000003 	b	93a0 <mpa_div+0x68>
/home/rahulmahadev/hikey_optee/optee_os/lib/libmpa/mpa_div.c:390
    9398:	f9002bb4 	str	x20, [x29,#80]
/home/rahulmahadev/hikey_optee/optee_os/lib/libmpa/mpa_div.c:391
    939c:	52800017 	mov	w23, #0x0                   	// #0
/home/rahulmahadev/hikey_optee/optee_os/lib/libmpa/mpa_div.c:395
    93a0:	eb03027f 	cmp	x19, x3
    93a4:	1a9f17e1 	cset	w1, eq
    93a8:	eb1f027f 	cmp	x19, xzr
    93ac:	1a9f17e0 	cset	w0, eq
    93b0:	2a000020 	orr	w0, w1, w0
    93b4:	35000060 	cbnz	w0, 93c0 <mpa_div+0x88>
    93b8:	eb02027f 	cmp	x19, x2
    93bc:	54000141 	b.ne	93e4 <mpa_div+0xac>
/home/rahulmahadev/hikey_optee/optee_os/lib/libmpa/mpa_div.c:396
    93c0:	aa1503e1 	mov	x1, x21
    93c4:	910163a0 	add	x0, x29, #0x58
    93c8:	f90023a3 	str	x3, [x29,#64]
/home/rahulmahadev/hikey_optee/optee_os/lib/libmpa/mpa_div.c:397
    93cc:	52800036 	mov	w22, #0x1                   	// #1
    93d0:	f90027a2 	str	x2, [x29,#72]
/home/rahulmahadev/hikey_optee/optee_os/lib/libmpa/mpa_div.c:396
    93d4:	94000292 	bl	9e1c <mpa_alloc_static_temp_var>
/home/rahulmahadev/hikey_optee/optee_os/lib/libmpa/mpa_div.c:397
    93d8:	f94027a2 	ldr	x2, [x29,#72]
    93dc:	f94023a3 	ldr	x3, [x29,#64]
    93e0:	14000003 	b	93ec <mpa_div+0xb4>
/home/rahulmahadev/hikey_optee/optee_os/lib/libmpa/mpa_div.c:399
    93e4:	f9002fb3 	str	x19, [x29,#88]
/home/rahulmahadev/hikey_optee/optee_os/lib/libmpa/mpa_div.c:400
    93e8:	52800016 	mov	w22, #0x0                   	// #0
/home/rahulmahadev/hikey_optee/optee_os/lib/libmpa/mpa_div.c:403
    93ec:	f9402fa1 	ldr	x1, [x29,#88]
    93f0:	aa1503e4 	mov	x4, x21
    93f4:	f9402ba0 	ldr	x0, [x29,#80]
    93f8:	97fffe25 	bl	8c8c <__mpa_div_q_r>
/home/rahulmahadev/hikey_optee/optee_os/lib/libmpa/mpa_div.c:405
    93fc:	b4000094 	cbz	x20, 940c <mpa_div+0xd4>
/home/rahulmahadev/hikey_optee/optee_os/lib/libmpa/mpa_div.c:406
    9400:	f9402ba1 	ldr	x1, [x29,#80]
    9404:	aa1403e0 	mov	x0, x20
    9408:	97fffb53 	bl	8154 <mpa_copy>
/home/rahulmahadev/hikey_optee/optee_os/lib/libmpa/mpa_div.c:407
    940c:	34000097 	cbz	w23, 941c <mpa_div+0xe4>
/home/rahulmahadev/hikey_optee/optee_os/lib/libmpa/mpa_div.c:408
    9410:	aa1503e1 	mov	x1, x21
    9414:	910143a0 	add	x0, x29, #0x50
    9418:	94000285 	bl	9e2c <mpa_free_static_temp_var>
/home/rahulmahadev/hikey_optee/optee_os/lib/libmpa/mpa_div.c:409
    941c:	b4000093 	cbz	x19, 942c <mpa_div+0xf4>
/home/rahulmahadev/hikey_optee/optee_os/lib/libmpa/mpa_div.c:410
    9420:	f9402fa1 	ldr	x1, [x29,#88]
    9424:	aa1303e0 	mov	x0, x19
    9428:	97fffb4b 	bl	8154 <mpa_copy>
/home/rahulmahadev/hikey_optee/optee_os/lib/libmpa/mpa_div.c:411
    942c:	34000096 	cbz	w22, 943c <mpa_div+0x104>
/home/rahulmahadev/hikey_optee/optee_os/lib/libmpa/mpa_div.c:412
    9430:	aa1503e1 	mov	x1, x21
    9434:	910163a0 	add	x0, x29, #0x58
    9438:	9400027d 	bl	9e2c <mpa_free_static_temp_var>
/home/rahulmahadev/hikey_optee/optee_os/lib/libmpa/mpa_div.c:413
    943c:	a94153f3 	ldp	x19, x20, [sp,#16]
    9440:	a9425bf5 	ldp	x21, x22, [sp,#32]
    9444:	f9401bf7 	ldr	x23, [sp,#48]
    9448:	a8c67bfd 	ldp	x29, x30, [sp],#96
    944c:	d65f03c0 	ret

0000000000009450 <__mpa_divby2>:
__mpa_divby2():
/home/rahulmahadev/hikey_optee/optee_os/lib/libmpa/mpa_gcd.c:47
    9450:	b9400402 	ldr	w2, [x0,#4]
    9454:	34000402 	cbz	w2, 94d4 <__mpa_divby2+0x84>
/home/rahulmahadev/hikey_optee/optee_os/lib/libmpa/mpa_gcd.c:50
    9458:	93407c41 	sxtw	x1, w2
/home/rahulmahadev/hikey_optee/optee_os/lib/libmpa/mpa_gcd.c:53
    945c:	52800025 	mov	w5, #0x1                   	// #1
/home/rahulmahadev/hikey_optee/optee_os/lib/libmpa/mpa_gcd.c:50
    9460:	ca81fc23 	eor	x3, x1, x1, asr #63
    9464:	cb81fc61 	sub	x1, x3, x1, asr #63
    9468:	2a0103e6 	mov	w6, w1
    946c:	51000421 	sub	w1, w1, #0x1
    9470:	8b21c801 	add	x1, x0, w1, sxtw #2
    9474:	b9400821 	ldr	w1, [x1,#8]
    9478:	53017c21 	lsr	w1, w1, #1
    947c:	6b1f003f 	cmp	w1, wzr
/home/rahulmahadev/hikey_optee/optee_os/lib/libmpa/mpa_gcd.c:52
    9480:	b9400801 	ldr	w1, [x0,#8]
/home/rahulmahadev/hikey_optee/optee_os/lib/libmpa/mpa_gcd.c:50
    9484:	1a9f17e3 	cset	w3, eq
/home/rahulmahadev/hikey_optee/optee_os/lib/libmpa/mpa_gcd.c:52
    9488:	53017c21 	lsr	w1, w1, #1
    948c:	b9000801 	str	w1, [x0,#8]
    9490:	91003001 	add	x1, x0, #0xc
/home/rahulmahadev/hikey_optee/optee_os/lib/libmpa/mpa_gcd.c:53 (discriminator 1)
    9494:	6b0600bf 	cmp	w5, w6
    9498:	54000142 	b.cs	94c0 <__mpa_divby2+0x70>
/home/rahulmahadev/hikey_optee/optee_os/lib/libmpa/mpa_gcd.c:54 (discriminator 3)
    949c:	b9400024 	ldr	w4, [x1]
/home/rahulmahadev/hikey_optee/optee_os/lib/libmpa/mpa_gcd.c:53 (discriminator 3)
    94a0:	110004a5 	add	w5, w5, #0x1
    94a4:	91001021 	add	x1, x1, #0x4
/home/rahulmahadev/hikey_optee/optee_os/lib/libmpa/mpa_gcd.c:55 (discriminator 3)
    94a8:	53017c87 	lsr	w7, w4, #1
    94ac:	b81fc027 	str	w7, [x1,#-4]
/home/rahulmahadev/hikey_optee/optee_os/lib/libmpa/mpa_gcd.c:56 (discriminator 3)
    94b0:	b85f8027 	ldr	w7, [x1,#-8]
    94b4:	4a047ce4 	eor	w4, w7, w4, lsl #31
    94b8:	b81f8024 	str	w4, [x1,#-8]
    94bc:	17fffff6 	b	9494 <__mpa_divby2+0x44>
/home/rahulmahadev/hikey_optee/optee_os/lib/libmpa/mpa_gcd.c:59
    94c0:	36f80062 	tbz	w2, #31, 94cc <__mpa_divby2+0x7c>
/home/rahulmahadev/hikey_optee/optee_os/lib/libmpa/mpa_gcd.c:60
    94c4:	0b030042 	add	w2, w2, w3
    94c8:	14000002 	b	94d0 <__mpa_divby2+0x80>
/home/rahulmahadev/hikey_optee/optee_os/lib/libmpa/mpa_gcd.c:62
    94cc:	4b030042 	sub	w2, w2, w3
    94d0:	b9000402 	str	w2, [x0,#4]
/home/rahulmahadev/hikey_optee/optee_os/lib/libmpa/mpa_gcd.c:63
    94d4:	d65f03c0 	ret

00000000000094d8 <__mpa_gcd.part.0>:
__mpa_gcd():
/home/rahulmahadev/hikey_optee/optee_os/lib/libmpa/mpa_gcd.c:212
    94d8:	a9b97bfd 	stp	x29, x30, [sp,#-112]!
    94dc:	910003fd 	mov	x29, sp
    94e0:	a9025bf5 	stp	x21, x22, [sp,#32]
/home/rahulmahadev/hikey_optee/optee_os/lib/libmpa/mpa_gcd.c:226
    94e4:	910163b6 	add	x22, x29, #0x58
/home/rahulmahadev/hikey_optee/optee_os/lib/libmpa/mpa_gcd.c:228
    94e8:	910183b5 	add	x21, x29, #0x60
/home/rahulmahadev/hikey_optee/optee_os/lib/libmpa/mpa_gcd.c:212
    94ec:	a90153f3 	stp	x19, x20, [sp,#16]
    94f0:	a90363f7 	stp	x23, x24, [sp,#48]
    94f4:	aa0103f4 	mov	x20, x1
    94f8:	aa0003f8 	mov	x24, x0
/home/rahulmahadev/hikey_optee/optee_os/lib/libmpa/mpa_gcd.c:226
    94fc:	aa0303e1 	mov	x1, x3
    9500:	aa1603e0 	mov	x0, x22
/home/rahulmahadev/hikey_optee/optee_os/lib/libmpa/mpa_gcd.c:212
    9504:	aa0303f3 	mov	x19, x3
    9508:	f90027a2 	str	x2, [x29,#72]
/home/rahulmahadev/hikey_optee/optee_os/lib/libmpa/mpa_gcd.c:226
    950c:	94000244 	bl	9e1c <mpa_alloc_static_temp_var>
/home/rahulmahadev/hikey_optee/optee_os/lib/libmpa/mpa_gcd.c:227
    9510:	f9402fa0 	ldr	x0, [x29,#88]
    9514:	aa1403e1 	mov	x1, x20
/home/rahulmahadev/hikey_optee/optee_os/lib/libmpa/mpa_gcd.c:231
    9518:	52800014 	mov	w20, #0x0                   	// #0
/home/rahulmahadev/hikey_optee/optee_os/lib/libmpa/mpa_gcd.c:227
    951c:	97fffb0e 	bl	8154 <mpa_copy>
/home/rahulmahadev/hikey_optee/optee_os/lib/libmpa/mpa_gcd.c:228
    9520:	aa1303e1 	mov	x1, x19
    9524:	aa1503e0 	mov	x0, x21
    9528:	9400023d 	bl	9e1c <mpa_alloc_static_temp_var>
/home/rahulmahadev/hikey_optee/optee_os/lib/libmpa/mpa_gcd.c:229
    952c:	f94027a2 	ldr	x2, [x29,#72]
    9530:	f94033a0 	ldr	x0, [x29,#96]
    9534:	aa0203e1 	mov	x1, x2
    9538:	97fffb07 	bl	8154 <mpa_copy>
/home/rahulmahadev/hikey_optee/optee_os/lib/libmpa/mpa_gcd.c:232
    953c:	f9402fa0 	ldr	x0, [x29,#88]
    9540:	97fffb4f 	bl	827c <mpa_parity>
    9544:	340000c0 	cbz	w0, 955c <__mpa_gcd.part.0+0x84>
/home/rahulmahadev/hikey_optee/optee_os/lib/libmpa/mpa_gcd.c:238
    9548:	9101a3b7 	add	x23, x29, #0x68
    954c:	aa1303e1 	mov	x1, x19
    9550:	aa1703e0 	mov	x0, x23
    9554:	94000232 	bl	9e1c <mpa_alloc_static_temp_var>
    9558:	1400001c 	b	95c8 <__mpa_gcd.part.0+0xf0>
/home/rahulmahadev/hikey_optee/optee_os/lib/libmpa/mpa_gcd.c:232
    955c:	f94033a0 	ldr	x0, [x29,#96]
    9560:	97fffb47 	bl	827c <mpa_parity>
    9564:	35ffff20 	cbnz	w0, 9548 <__mpa_gcd.part.0+0x70>
/home/rahulmahadev/hikey_optee/optee_os/lib/libmpa/mpa_gcd.c:234
    9568:	f9402fa0 	ldr	x0, [x29,#88]
/home/rahulmahadev/hikey_optee/optee_os/lib/libmpa/mpa_gcd.c:233
    956c:	11000694 	add	w20, w20, #0x1
/home/rahulmahadev/hikey_optee/optee_os/lib/libmpa/mpa_gcd.c:234
    9570:	97ffffb8 	bl	9450 <__mpa_divby2>
/home/rahulmahadev/hikey_optee/optee_os/lib/libmpa/mpa_gcd.c:235
    9574:	f94033a0 	ldr	x0, [x29,#96]
    9578:	97ffffb6 	bl	9450 <__mpa_divby2>
    957c:	17fffff0 	b	953c <__mpa_gcd.part.0+0x64>
/home/rahulmahadev/hikey_optee/optee_os/lib/libmpa/mpa_gcd.c:246
    9580:	f9402fa1 	ldr	x1, [x29,#88]
    9584:	aa1303e3 	mov	x3, x19
    9588:	f94037a0 	ldr	x0, [x29,#104]
    958c:	f94033a2 	ldr	x2, [x29,#96]
    9590:	9400058c 	bl	abc0 <mpa_sub>
/home/rahulmahadev/hikey_optee/optee_os/lib/libmpa/mpa_gcd.c:248
    9594:	f94037a0 	ldr	x0, [x29,#104]
    9598:	b9400401 	ldr	w1, [x0,#4]
    959c:	36f80061 	tbz	w1, #31, 95a8 <__mpa_gcd.part.0+0xd0>
    95a0:	4b0103e1 	neg	w1, w1
    95a4:	b9000401 	str	w1, [x0,#4]
/home/rahulmahadev/hikey_optee/optee_os/lib/libmpa/mpa_gcd.c:249
    95a8:	97ffffaa 	bl	9450 <__mpa_divby2>
/home/rahulmahadev/hikey_optee/optee_os/lib/libmpa/mpa_gcd.c:250
    95ac:	f94033a1 	ldr	x1, [x29,#96]
    95b0:	f9402fa0 	ldr	x0, [x29,#88]
    95b4:	940006d3 	bl	b100 <mpa_cmp>
/home/rahulmahadev/hikey_optee/optee_os/lib/libmpa/mpa_gcd.c:251
    95b8:	f94037a1 	ldr	x1, [x29,#104]
/home/rahulmahadev/hikey_optee/optee_os/lib/libmpa/mpa_gcd.c:250
    95bc:	37f80240 	tbnz	w0, #31, 9604 <__mpa_gcd.part.0+0x12c>
/home/rahulmahadev/hikey_optee/optee_os/lib/libmpa/mpa_gcd.c:251
    95c0:	f9402fa0 	ldr	x0, [x29,#88]
/home/rahulmahadev/hikey_optee/optee_os/lib/libmpa/mpa_gcd.c:253
    95c4:	97fffae4 	bl	8154 <mpa_copy>
/home/rahulmahadev/hikey_optee/optee_os/lib/libmpa/mpa_gcd.c:239
    95c8:	f9402fa0 	ldr	x0, [x29,#88]
    95cc:	b9400400 	ldr	w0, [x0,#4]
    95d0:	340001e0 	cbz	w0, 960c <__mpa_gcd.part.0+0x134>
/home/rahulmahadev/hikey_optee/optee_os/lib/libmpa/mpa_gcd.c:240
    95d4:	f9402fa0 	ldr	x0, [x29,#88]
    95d8:	97fffb29 	bl	827c <mpa_parity>
    95dc:	35000080 	cbnz	w0, 95ec <__mpa_gcd.part.0+0x114>
/home/rahulmahadev/hikey_optee/optee_os/lib/libmpa/mpa_gcd.c:241
    95e0:	f9402fa0 	ldr	x0, [x29,#88]
    95e4:	97ffff9b 	bl	9450 <__mpa_divby2>
    95e8:	17fffffb 	b	95d4 <__mpa_gcd.part.0+0xfc>
/home/rahulmahadev/hikey_optee/optee_os/lib/libmpa/mpa_gcd.c:243
    95ec:	f94033a0 	ldr	x0, [x29,#96]
    95f0:	97fffb23 	bl	827c <mpa_parity>
    95f4:	35fffc60 	cbnz	w0, 9580 <__mpa_gcd.part.0+0xa8>
/home/rahulmahadev/hikey_optee/optee_os/lib/libmpa/mpa_gcd.c:244
    95f8:	f94033a0 	ldr	x0, [x29,#96]
    95fc:	97ffff95 	bl	9450 <__mpa_divby2>
    9600:	17fffffb 	b	95ec <__mpa_gcd.part.0+0x114>
/home/rahulmahadev/hikey_optee/optee_os/lib/libmpa/mpa_gcd.c:253
    9604:	f94033a0 	ldr	x0, [x29,#96]
    9608:	17ffffef 	b	95c4 <__mpa_gcd.part.0+0xec>
/home/rahulmahadev/hikey_optee/optee_os/lib/libmpa/mpa_gcd.c:256
    960c:	f94033a1 	ldr	x1, [x29,#96]
    9610:	2a1403e2 	mov	w2, w20
    9614:	aa1803e0 	mov	x0, x24
    9618:	9400037d 	bl	a40c <mpa_shift_left>
/home/rahulmahadev/hikey_optee/optee_os/lib/libmpa/mpa_gcd.c:257
    961c:	aa1303e1 	mov	x1, x19
    9620:	aa1703e0 	mov	x0, x23
    9624:	94000202 	bl	9e2c <mpa_free_static_temp_var>
/home/rahulmahadev/hikey_optee/optee_os/lib/libmpa/mpa_gcd.c:258
    9628:	aa1303e1 	mov	x1, x19
    962c:	aa1603e0 	mov	x0, x22
    9630:	940001ff 	bl	9e2c <mpa_free_static_temp_var>
/home/rahulmahadev/hikey_optee/optee_os/lib/libmpa/mpa_gcd.c:259
    9634:	aa1303e1 	mov	x1, x19
    9638:	aa1503e0 	mov	x0, x21
    963c:	940001fc 	bl	9e2c <mpa_free_static_temp_var>
/home/rahulmahadev/hikey_optee/optee_os/lib/libmpa/mpa_gcd.c:260
    9640:	a94153f3 	ldp	x19, x20, [sp,#16]
    9644:	a9425bf5 	ldp	x21, x22, [sp,#32]
    9648:	a94363f7 	ldp	x23, x24, [sp,#48]
    964c:	a8c77bfd 	ldp	x29, x30, [sp],#112
    9650:	d65f03c0 	ret

0000000000009654 <__mpa_egcd>:
__mpa_egcd():
/home/rahulmahadev/hikey_optee/optee_os/lib/libmpa/mpa_gcd.c:116
    9654:	a9b57bfd 	stp	x29, x30, [sp,#-176]!
    9658:	910003fd 	mov	x29, sp
    965c:	a90153f3 	stp	x19, x20, [sp,#16]
    9660:	aa0003f4 	mov	x20, x0
/home/rahulmahadev/hikey_optee/optee_os/lib/libmpa/mpa_gcd.c:127
    9664:	b9400480 	ldr	w0, [x4,#4]
/home/rahulmahadev/hikey_optee/optee_os/lib/libmpa/mpa_gcd.c:116
    9668:	a9025bf5 	stp	x21, x22, [sp,#32]
    966c:	a90363f7 	stp	x23, x24, [sp,#48]
    9670:	a9046bf9 	stp	x25, x26, [sp,#64]
    9674:	a90573fb 	stp	x27, x28, [sp,#80]
    9678:	aa0103f6 	mov	x22, x1
    967c:	aa0203f5 	mov	x21, x2
    9680:	aa0303f7 	mov	x23, x3
    9684:	aa0503f3 	mov	x19, x5
/home/rahulmahadev/hikey_optee/optee_os/lib/libmpa/mpa_gcd.c:127
    9688:	350001a0 	cbnz	w0, 96bc <__mpa_egcd+0x68>
/home/rahulmahadev/hikey_optee/optee_os/lib/libmpa/mpa_gcd.c:128
    968c:	b4000081 	cbz	x1, 969c <__mpa_egcd+0x48>
/home/rahulmahadev/hikey_optee/optee_os/lib/libmpa/mpa_gcd.c:129
    9690:	52800021 	mov	w1, #0x1                   	// #1
    9694:	aa1603e0 	mov	x0, x22
    9698:	97fffd17 	bl	8af4 <mpa_set_word>
/home/rahulmahadev/hikey_optee/optee_os/lib/libmpa/mpa_gcd.c:130
    969c:	b4000095 	cbz	x21, 96ac <__mpa_egcd+0x58>
/home/rahulmahadev/hikey_optee/optee_os/lib/libmpa/mpa_gcd.c:131
    96a0:	52800001 	mov	w1, #0x0                   	// #0
    96a4:	aa1503e0 	mov	x0, x21
    96a8:	97fffd13 	bl	8af4 <mpa_set_word>
/home/rahulmahadev/hikey_optee/optee_os/lib/libmpa/mpa_gcd.c:132
    96ac:	aa1703e1 	mov	x1, x23
    96b0:	aa1403e0 	mov	x0, x20
    96b4:	97fffaa8 	bl	8154 <mpa_copy>
    96b8:	140000c3 	b	99c4 <__mpa_egcd+0x370>
/home/rahulmahadev/hikey_optee/optee_os/lib/libmpa/mpa_gcd.c:135
    96bc:	910263b8 	add	x24, x29, #0x98
    96c0:	aa0503e1 	mov	x1, x5
    96c4:	aa1803e0 	mov	x0, x24
    96c8:	f90033a4 	str	x4, [x29,#96]
    96cc:	940001d4 	bl	9e1c <mpa_alloc_static_temp_var>
/home/rahulmahadev/hikey_optee/optee_os/lib/libmpa/mpa_gcd.c:136
    96d0:	f9404fa0 	ldr	x0, [x29,#152]
    96d4:	aa1703e1 	mov	x1, x23
/home/rahulmahadev/hikey_optee/optee_os/lib/libmpa/mpa_gcd.c:140
    96d8:	52800017 	mov	w23, #0x0                   	// #0
/home/rahulmahadev/hikey_optee/optee_os/lib/libmpa/mpa_gcd.c:136
    96dc:	97fffa9e 	bl	8154 <mpa_copy>
/home/rahulmahadev/hikey_optee/optee_os/lib/libmpa/mpa_gcd.c:137
    96e0:	910283a0 	add	x0, x29, #0xa0
    96e4:	aa1303e1 	mov	x1, x19
    96e8:	f90037a0 	str	x0, [x29,#104]
    96ec:	940001cc 	bl	9e1c <mpa_alloc_static_temp_var>
/home/rahulmahadev/hikey_optee/optee_os/lib/libmpa/mpa_gcd.c:138
    96f0:	f94033a4 	ldr	x4, [x29,#96]
    96f4:	f94053a0 	ldr	x0, [x29,#160]
    96f8:	aa0403e1 	mov	x1, x4
    96fc:	97fffa96 	bl	8154 <mpa_copy>
/home/rahulmahadev/hikey_optee/optee_os/lib/libmpa/mpa_gcd.c:141
    9700:	f9404fa0 	ldr	x0, [x29,#152]
    9704:	97fffade 	bl	827c <mpa_parity>
    9708:	34000500 	cbz	w0, 97a8 <__mpa_egcd+0x154>
/home/rahulmahadev/hikey_optee/optee_os/lib/libmpa/mpa_gcd.c:147
    970c:	9102a3a0 	add	x0, x29, #0xa8
    9710:	aa1303e1 	mov	x1, x19
    9714:	f90033a0 	str	x0, [x29,#96]
/home/rahulmahadev/hikey_optee/optee_os/lib/libmpa/mpa_gcd.c:150
    9718:	9101e3bc 	add	x28, x29, #0x78
/home/rahulmahadev/hikey_optee/optee_os/lib/libmpa/mpa_gcd.c:147
    971c:	940001c0 	bl	9e1c <mpa_alloc_static_temp_var>
/home/rahulmahadev/hikey_optee/optee_os/lib/libmpa/mpa_gcd.c:152
    9720:	910203bb 	add	x27, x29, #0x80
/home/rahulmahadev/hikey_optee/optee_os/lib/libmpa/mpa_gcd.c:148
    9724:	f9404fa1 	ldr	x1, [x29,#152]
/home/rahulmahadev/hikey_optee/optee_os/lib/libmpa/mpa_gcd.c:154
    9728:	910223ba 	add	x26, x29, #0x88
/home/rahulmahadev/hikey_optee/optee_os/lib/libmpa/mpa_gcd.c:148
    972c:	f94057a0 	ldr	x0, [x29,#168]
/home/rahulmahadev/hikey_optee/optee_os/lib/libmpa/mpa_gcd.c:156
    9730:	910243b9 	add	x25, x29, #0x90
/home/rahulmahadev/hikey_optee/optee_os/lib/libmpa/mpa_gcd.c:148
    9734:	97fffa88 	bl	8154 <mpa_copy>
/home/rahulmahadev/hikey_optee/optee_os/lib/libmpa/mpa_gcd.c:149
    9738:	f94053a1 	ldr	x1, [x29,#160]
    973c:	aa1403e0 	mov	x0, x20
    9740:	97fffa85 	bl	8154 <mpa_copy>
/home/rahulmahadev/hikey_optee/optee_os/lib/libmpa/mpa_gcd.c:150
    9744:	aa1303e1 	mov	x1, x19
    9748:	aa1c03e0 	mov	x0, x28
    974c:	940001b4 	bl	9e1c <mpa_alloc_static_temp_var>
/home/rahulmahadev/hikey_optee/optee_os/lib/libmpa/mpa_gcd.c:151
    9750:	f9403fa0 	ldr	x0, [x29,#120]
    9754:	52800021 	mov	w1, #0x1                   	// #1
    9758:	97fffce7 	bl	8af4 <mpa_set_word>
/home/rahulmahadev/hikey_optee/optee_os/lib/libmpa/mpa_gcd.c:152
    975c:	aa1303e1 	mov	x1, x19
    9760:	aa1b03e0 	mov	x0, x27
    9764:	940001ae 	bl	9e1c <mpa_alloc_static_temp_var>
/home/rahulmahadev/hikey_optee/optee_os/lib/libmpa/mpa_gcd.c:153
    9768:	f94043a0 	ldr	x0, [x29,#128]
    976c:	52800001 	mov	w1, #0x0                   	// #0
    9770:	97fffce1 	bl	8af4 <mpa_set_word>
/home/rahulmahadev/hikey_optee/optee_os/lib/libmpa/mpa_gcd.c:154
    9774:	aa1303e1 	mov	x1, x19
    9778:	aa1a03e0 	mov	x0, x26
    977c:	940001a8 	bl	9e1c <mpa_alloc_static_temp_var>
/home/rahulmahadev/hikey_optee/optee_os/lib/libmpa/mpa_gcd.c:155
    9780:	f94047a0 	ldr	x0, [x29,#136]
    9784:	52800001 	mov	w1, #0x0                   	// #0
    9788:	97fffcdb 	bl	8af4 <mpa_set_word>
/home/rahulmahadev/hikey_optee/optee_os/lib/libmpa/mpa_gcd.c:156
    978c:	aa1303e1 	mov	x1, x19
    9790:	aa1903e0 	mov	x0, x25
    9794:	940001a2 	bl	9e1c <mpa_alloc_static_temp_var>
/home/rahulmahadev/hikey_optee/optee_os/lib/libmpa/mpa_gcd.c:157
    9798:	f9404ba0 	ldr	x0, [x29,#144]
    979c:	52800021 	mov	w1, #0x1                   	// #1
    97a0:	97fffcd5 	bl	8af4 <mpa_set_word>
    97a4:	14000037 	b	9880 <__mpa_egcd+0x22c>
/home/rahulmahadev/hikey_optee/optee_os/lib/libmpa/mpa_gcd.c:141
    97a8:	f94053a0 	ldr	x0, [x29,#160]
    97ac:	97fffab4 	bl	827c <mpa_parity>
    97b0:	35fffae0 	cbnz	w0, 970c <__mpa_egcd+0xb8>
/home/rahulmahadev/hikey_optee/optee_os/lib/libmpa/mpa_gcd.c:143
    97b4:	f9404fa0 	ldr	x0, [x29,#152]
/home/rahulmahadev/hikey_optee/optee_os/lib/libmpa/mpa_gcd.c:142
    97b8:	110006f7 	add	w23, w23, #0x1
/home/rahulmahadev/hikey_optee/optee_os/lib/libmpa/mpa_gcd.c:143
    97bc:	97ffff25 	bl	9450 <__mpa_divby2>
/home/rahulmahadev/hikey_optee/optee_os/lib/libmpa/mpa_gcd.c:144
    97c0:	f94053a0 	ldr	x0, [x29,#160]
    97c4:	97ffff23 	bl	9450 <__mpa_divby2>
    97c8:	17ffffce 	b	9700 <__mpa_egcd+0xac>
/home/rahulmahadev/hikey_optee/optee_os/lib/libmpa/mpa_gcd.c:161
    97cc:	f94057a0 	ldr	x0, [x29,#168]
    97d0:	97ffff20 	bl	9450 <__mpa_divby2>
/home/rahulmahadev/hikey_optee/optee_os/lib/libmpa/mpa_gcd.c:162
    97d4:	f9403fa0 	ldr	x0, [x29,#120]
    97d8:	97fffaa9 	bl	827c <mpa_parity>
    97dc:	7100041f 	cmp	w0, #0x1
    97e0:	54000581 	b.ne	9890 <__mpa_egcd+0x23c>
/home/rahulmahadev/hikey_optee/optee_os/lib/libmpa/mpa_gcd.c:163
    97e4:	f9403fa1 	ldr	x1, [x29,#120]
    97e8:	aa1303e3 	mov	x3, x19
    97ec:	f94053a2 	ldr	x2, [x29,#160]
    97f0:	aa0103e0 	mov	x0, x1
    97f4:	9400048c 	bl	aa24 <mpa_add>
/home/rahulmahadev/hikey_optee/optee_os/lib/libmpa/mpa_gcd.c:164
    97f8:	f94043a1 	ldr	x1, [x29,#128]
    97fc:	aa1303e3 	mov	x3, x19
    9800:	f9404fa2 	ldr	x2, [x29,#152]
    9804:	aa0103e0 	mov	x0, x1
    9808:	940004ee 	bl	abc0 <mpa_sub>
/home/rahulmahadev/hikey_optee/optee_os/lib/libmpa/mpa_gcd.c:166
    980c:	f9403fa0 	ldr	x0, [x29,#120]
    9810:	97ffff10 	bl	9450 <__mpa_divby2>
/home/rahulmahadev/hikey_optee/optee_os/lib/libmpa/mpa_gcd.c:167
    9814:	f94043a0 	ldr	x0, [x29,#128]
    9818:	97ffff0e 	bl	9450 <__mpa_divby2>
/home/rahulmahadev/hikey_optee/optee_os/lib/libmpa/mpa_gcd.c:160
    981c:	f94057a0 	ldr	x0, [x29,#168]
    9820:	97fffa97 	bl	827c <mpa_parity>
    9824:	34fffd40 	cbz	w0, 97cc <__mpa_egcd+0x178>
/home/rahulmahadev/hikey_optee/optee_os/lib/libmpa/mpa_gcd.c:170
    9828:	aa1403e0 	mov	x0, x20
    982c:	97fffa94 	bl	827c <mpa_parity>
    9830:	340003a0 	cbz	w0, 98a4 <__mpa_egcd+0x250>
/home/rahulmahadev/hikey_optee/optee_os/lib/libmpa/mpa_gcd.c:180
    9834:	f94057a0 	ldr	x0, [x29,#168]
    9838:	aa1403e1 	mov	x1, x20
    983c:	94000631 	bl	b100 <mpa_cmp>
/home/rahulmahadev/hikey_optee/optee_os/lib/libmpa/mpa_gcd.c:181
    9840:	aa1303e3 	mov	x3, x19
/home/rahulmahadev/hikey_optee/optee_os/lib/libmpa/mpa_gcd.c:180
    9844:	37f80640 	tbnz	w0, #31, 990c <__mpa_egcd+0x2b8>
/home/rahulmahadev/hikey_optee/optee_os/lib/libmpa/mpa_gcd.c:181
    9848:	f94057a1 	ldr	x1, [x29,#168]
    984c:	aa1403e2 	mov	x2, x20
    9850:	aa0103e0 	mov	x0, x1
    9854:	940004db 	bl	abc0 <mpa_sub>
/home/rahulmahadev/hikey_optee/optee_os/lib/libmpa/mpa_gcd.c:182
    9858:	f9403fa1 	ldr	x1, [x29,#120]
    985c:	aa1303e3 	mov	x3, x19
    9860:	f94047a2 	ldr	x2, [x29,#136]
    9864:	aa0103e0 	mov	x0, x1
    9868:	940004d6 	bl	abc0 <mpa_sub>
/home/rahulmahadev/hikey_optee/optee_os/lib/libmpa/mpa_gcd.c:183
    986c:	f9404ba2 	ldr	x2, [x29,#144]
    9870:	aa1303e3 	mov	x3, x19
    9874:	f94043a1 	ldr	x1, [x29,#128]
/home/rahulmahadev/hikey_optee/optee_os/lib/libmpa/mpa_gcd.c:187
    9878:	aa0103e0 	mov	x0, x1
    987c:	940004d1 	bl	abc0 <mpa_sub>
/home/rahulmahadev/hikey_optee/optee_os/lib/libmpa/mpa_gcd.c:159
    9880:	f94057a0 	ldr	x0, [x29,#168]
    9884:	b9400400 	ldr	w0, [x0,#4]
    9888:	35fffca0 	cbnz	w0, 981c <__mpa_egcd+0x1c8>
    988c:	1400002d 	b	9940 <__mpa_egcd+0x2ec>
/home/rahulmahadev/hikey_optee/optee_os/lib/libmpa/mpa_gcd.c:162
    9890:	f94043a0 	ldr	x0, [x29,#128]
    9894:	97fffa7a 	bl	827c <mpa_parity>
    9898:	7100041f 	cmp	w0, #0x1
    989c:	54fffb81 	b.ne	980c <__mpa_egcd+0x1b8>
    98a0:	17ffffd1 	b	97e4 <__mpa_egcd+0x190>
/home/rahulmahadev/hikey_optee/optee_os/lib/libmpa/mpa_gcd.c:171
    98a4:	aa1403e0 	mov	x0, x20
    98a8:	97fffeea 	bl	9450 <__mpa_divby2>
/home/rahulmahadev/hikey_optee/optee_os/lib/libmpa/mpa_gcd.c:172
    98ac:	f94047a0 	ldr	x0, [x29,#136]
    98b0:	97fffa73 	bl	827c <mpa_parity>
    98b4:	7100041f 	cmp	w0, #0x1
    98b8:	54000181 	b.ne	98e8 <__mpa_egcd+0x294>
/home/rahulmahadev/hikey_optee/optee_os/lib/libmpa/mpa_gcd.c:173
    98bc:	f94047a1 	ldr	x1, [x29,#136]
    98c0:	aa1303e3 	mov	x3, x19
    98c4:	f94053a2 	ldr	x2, [x29,#160]
    98c8:	aa0103e0 	mov	x0, x1
    98cc:	94000456 	bl	aa24 <mpa_add>
/home/rahulmahadev/hikey_optee/optee_os/lib/libmpa/mpa_gcd.c:174
    98d0:	f9404ba1 	ldr	x1, [x29,#144]
    98d4:	aa1303e3 	mov	x3, x19
    98d8:	f9404fa2 	ldr	x2, [x29,#152]
    98dc:	aa0103e0 	mov	x0, x1
    98e0:	940004b8 	bl	abc0 <mpa_sub>
    98e4:	14000005 	b	98f8 <__mpa_egcd+0x2a4>
/home/rahulmahadev/hikey_optee/optee_os/lib/libmpa/mpa_gcd.c:172
    98e8:	f9404ba0 	ldr	x0, [x29,#144]
    98ec:	97fffa64 	bl	827c <mpa_parity>
    98f0:	7100041f 	cmp	w0, #0x1
    98f4:	54fffe40 	b.eq	98bc <__mpa_egcd+0x268>
/home/rahulmahadev/hikey_optee/optee_os/lib/libmpa/mpa_gcd.c:176
    98f8:	f94047a0 	ldr	x0, [x29,#136]
    98fc:	97fffed5 	bl	9450 <__mpa_divby2>
/home/rahulmahadev/hikey_optee/optee_os/lib/libmpa/mpa_gcd.c:177
    9900:	f9404ba0 	ldr	x0, [x29,#144]
    9904:	97fffed3 	bl	9450 <__mpa_divby2>
    9908:	17ffffc8 	b	9828 <__mpa_egcd+0x1d4>
/home/rahulmahadev/hikey_optee/optee_os/lib/libmpa/mpa_gcd.c:185
    990c:	f94057a2 	ldr	x2, [x29,#168]
    9910:	aa1403e1 	mov	x1, x20
    9914:	aa1403e0 	mov	x0, x20
    9918:	940004aa 	bl	abc0 <mpa_sub>
/home/rahulmahadev/hikey_optee/optee_os/lib/libmpa/mpa_gcd.c:186
    991c:	f94047a1 	ldr	x1, [x29,#136]
    9920:	aa1303e3 	mov	x3, x19
    9924:	f9403fa2 	ldr	x2, [x29,#120]
    9928:	aa0103e0 	mov	x0, x1
    992c:	940004a5 	bl	abc0 <mpa_sub>
/home/rahulmahadev/hikey_optee/optee_os/lib/libmpa/mpa_gcd.c:187
    9930:	aa1303e3 	mov	x3, x19
    9934:	f94043a2 	ldr	x2, [x29,#128]
    9938:	f9404ba1 	ldr	x1, [x29,#144]
    993c:	17ffffcf 	b	9878 <__mpa_egcd+0x224>
/home/rahulmahadev/hikey_optee/optee_os/lib/libmpa/mpa_gcd.c:192
    9940:	b4000096 	cbz	x22, 9950 <__mpa_egcd+0x2fc>
/home/rahulmahadev/hikey_optee/optee_os/lib/libmpa/mpa_gcd.c:193
    9944:	f94047a1 	ldr	x1, [x29,#136]
    9948:	aa1603e0 	mov	x0, x22
    994c:	97fffa02 	bl	8154 <mpa_copy>
/home/rahulmahadev/hikey_optee/optee_os/lib/libmpa/mpa_gcd.c:194
    9950:	b4000095 	cbz	x21, 9960 <__mpa_egcd+0x30c>
/home/rahulmahadev/hikey_optee/optee_os/lib/libmpa/mpa_gcd.c:195
    9954:	f9404ba1 	ldr	x1, [x29,#144]
    9958:	aa1503e0 	mov	x0, x21
    995c:	97fff9fe 	bl	8154 <mpa_copy>
/home/rahulmahadev/hikey_optee/optee_os/lib/libmpa/mpa_gcd.c:196
    9960:	2a1703e2 	mov	w2, w23
    9964:	aa1403e1 	mov	x1, x20
    9968:	aa1403e0 	mov	x0, x20
    996c:	940002a8 	bl	a40c <mpa_shift_left>
/home/rahulmahadev/hikey_optee/optee_os/lib/libmpa/mpa_gcd.c:198
    9970:	aa1303e1 	mov	x1, x19
    9974:	aa1c03e0 	mov	x0, x28
    9978:	9400012d 	bl	9e2c <mpa_free_static_temp_var>
/home/rahulmahadev/hikey_optee/optee_os/lib/libmpa/mpa_gcd.c:199
    997c:	aa1303e1 	mov	x1, x19
    9980:	aa1b03e0 	mov	x0, x27
    9984:	9400012a 	bl	9e2c <mpa_free_static_temp_var>
/home/rahulmahadev/hikey_optee/optee_os/lib/libmpa/mpa_gcd.c:200
    9988:	aa1303e1 	mov	x1, x19
    998c:	aa1a03e0 	mov	x0, x26
    9990:	94000127 	bl	9e2c <mpa_free_static_temp_var>
/home/rahulmahadev/hikey_optee/optee_os/lib/libmpa/mpa_gcd.c:201
    9994:	aa1303e1 	mov	x1, x19
    9998:	aa1903e0 	mov	x0, x25
    999c:	94000124 	bl	9e2c <mpa_free_static_temp_var>
/home/rahulmahadev/hikey_optee/optee_os/lib/libmpa/mpa_gcd.c:202
    99a0:	aa1303e1 	mov	x1, x19
    99a4:	aa1803e0 	mov	x0, x24
    99a8:	94000121 	bl	9e2c <mpa_free_static_temp_var>
/home/rahulmahadev/hikey_optee/optee_os/lib/libmpa/mpa_gcd.c:203
    99ac:	f94037a0 	ldr	x0, [x29,#104]
    99b0:	aa1303e1 	mov	x1, x19
    99b4:	9400011e 	bl	9e2c <mpa_free_static_temp_var>
/home/rahulmahadev/hikey_optee/optee_os/lib/libmpa/mpa_gcd.c:204
    99b8:	f94033a0 	ldr	x0, [x29,#96]
    99bc:	aa1303e1 	mov	x1, x19
    99c0:	9400011b 	bl	9e2c <mpa_free_static_temp_var>
/home/rahulmahadev/hikey_optee/optee_os/lib/libmpa/mpa_gcd.c:205
    99c4:	a94153f3 	ldp	x19, x20, [sp,#16]
    99c8:	a9425bf5 	ldp	x21, x22, [sp,#32]
    99cc:	a94363f7 	ldp	x23, x24, [sp,#48]
    99d0:	a9446bf9 	ldp	x25, x26, [sp,#64]
    99d4:	a94573fb 	ldp	x27, x28, [sp,#80]
    99d8:	a8cb7bfd 	ldp	x29, x30, [sp],#176
    99dc:	d65f03c0 	ret

00000000000099e0 <mpa_gcd>:
mpa_gcd():
/home/rahulmahadev/hikey_optee/optee_os/lib/libmpa/mpa_gcd.c:275
    99e0:	a9bb7bfd 	stp	x29, x30, [sp,#-80]!
    99e4:	910003fd 	mov	x29, sp
    99e8:	a90153f3 	stp	x19, x20, [sp,#16]
    99ec:	aa0103f4 	mov	x20, x1
    99f0:	aa0203f3 	mov	x19, x2
/home/rahulmahadev/hikey_optee/optee_os/lib/libmpa/mpa_gcd.c:281
    99f4:	b9400421 	ldr	w1, [x1,#4]
/home/rahulmahadev/hikey_optee/optee_os/lib/libmpa/mpa_gcd.c:282
    99f8:	b9400442 	ldr	w2, [x2,#4]
/home/rahulmahadev/hikey_optee/optee_os/lib/libmpa/mpa_gcd.c:275
    99fc:	a9025bf5 	stp	x21, x22, [sp,#32]
    9a00:	f9001bf7 	str	x23, [sp,#48]
/home/rahulmahadev/hikey_optee/optee_os/lib/libmpa/mpa_gcd.c:281
    9a04:	52800035 	mov	w21, #0x1                   	// #1
    9a08:	6b1f003f 	cmp	w1, wzr
/home/rahulmahadev/hikey_optee/optee_os/lib/libmpa/mpa_gcd.c:275
    9a0c:	aa0003f6 	mov	x22, x0
/home/rahulmahadev/hikey_optee/optee_os/lib/libmpa/mpa_gcd.c:281
    9a10:	5a9fa2b7 	csinv	w23, w21, wzr, ge
/home/rahulmahadev/hikey_optee/optee_os/lib/libmpa/mpa_gcd.c:282
    9a14:	36f80662 	tbz	w2, #31, 9ae0 <mpa_gcd+0x100>
    9a18:	12800015 	mov	w21, #0xffffffff            	// #-1
/home/rahulmahadev/hikey_optee/optee_os/lib/libmpa/mpa_gcd.c:283
    9a1c:	36f800a1 	tbz	w1, #31, 9a30 <mpa_gcd+0x50>
/home/rahulmahadev/hikey_optee/optee_os/lib/libmpa/mpa_gcd.c:283 (discriminator 1)
    9a20:	4b0103e1 	neg	w1, w1
    9a24:	b9000681 	str	w1, [x20,#4]
/home/rahulmahadev/hikey_optee/optee_os/lib/libmpa/mpa_gcd.c:284 (discriminator 1)
    9a28:	b9400662 	ldr	w2, [x19,#4]
    9a2c:	36f80062 	tbz	w2, #31, 9a38 <mpa_gcd+0x58>
    9a30:	4b0203e2 	neg	w2, w2
    9a34:	b9000662 	str	w2, [x19,#4]
/home/rahulmahadev/hikey_optee/optee_os/lib/libmpa/mpa_gcd.c:286
    9a38:	aa1303e1 	mov	x1, x19
    9a3c:	aa1403e0 	mov	x0, x20
    9a40:	f90027a3 	str	x3, [x29,#72]
    9a44:	940005af 	bl	b100 <mpa_cmp>
/home/rahulmahadev/hikey_optee/optee_os/lib/libmpa/mpa_gcd.c:287
    9a48:	6b1f001f 	cmp	w0, wzr
    9a4c:	f94027a3 	ldr	x3, [x29,#72]
    9a50:	54000061 	b.ne	9a5c <mpa_gcd+0x7c>
/home/rahulmahadev/hikey_optee/optee_os/lib/libmpa/mpa_gcd.c:288
    9a54:	aa1403e1 	mov	x1, x20
    9a58:	14000005 	b	9a6c <mpa_gcd+0x8c>
/home/rahulmahadev/hikey_optee/optee_os/lib/libmpa/mpa_gcd.c:291
    9a5c:	5400014a 	b.ge	9a84 <mpa_gcd+0xa4>
__mpa_gcd():
/home/rahulmahadev/hikey_optee/optee_os/lib/libmpa/mpa_gcd.c:222
    9a60:	b9400680 	ldr	w0, [x20,#4]
    9a64:	350000a0 	cbnz	w0, 9a78 <mpa_gcd+0x98>
/home/rahulmahadev/hikey_optee/optee_os/lib/libmpa/mpa_gcd.c:223
    9a68:	aa1303e1 	mov	x1, x19
    9a6c:	aa1603e0 	mov	x0, x22
    9a70:	97fff9b9 	bl	8154 <mpa_copy>
    9a74:	1400000a 	b	9a9c <mpa_gcd+0xbc>
    9a78:	aa1403e2 	mov	x2, x20
    9a7c:	aa1303e1 	mov	x1, x19
    9a80:	14000005 	b	9a94 <mpa_gcd+0xb4>
/home/rahulmahadev/hikey_optee/optee_os/lib/libmpa/mpa_gcd.c:222
    9a84:	b9400660 	ldr	w0, [x19,#4]
    9a88:	34fffe60 	cbz	w0, 9a54 <mpa_gcd+0x74>
    9a8c:	aa1303e2 	mov	x2, x19
    9a90:	aa1403e1 	mov	x1, x20
    9a94:	aa1603e0 	mov	x0, x22
    9a98:	97fffe90 	bl	94d8 <__mpa_gcd.part.0>
mpa_gcd():
/home/rahulmahadev/hikey_optee/optee_os/lib/libmpa/mpa_gcd.c:299
    9a9c:	b9400680 	ldr	w0, [x20,#4]
    9aa0:	52800021 	mov	w1, #0x1                   	// #1
    9aa4:	6b1f001f 	cmp	w0, wzr
    9aa8:	5a9fa021 	csinv	w1, w1, wzr, ge
    9aac:	6b17003f 	cmp	w1, w23
    9ab0:	54000060 	b.eq	9abc <mpa_gcd+0xdc>
/home/rahulmahadev/hikey_optee/optee_os/lib/libmpa/mpa_gcd.c:299 (discriminator 5)
    9ab4:	4b0003e0 	neg	w0, w0
    9ab8:	b9000680 	str	w0, [x20,#4]
/home/rahulmahadev/hikey_optee/optee_os/lib/libmpa/mpa_gcd.c:300
    9abc:	b9400660 	ldr	w0, [x19,#4]
    9ac0:	52800021 	mov	w1, #0x1                   	// #1
    9ac4:	6b1f001f 	cmp	w0, wzr
    9ac8:	5a9fa021 	csinv	w1, w1, wzr, ge
    9acc:	6b15003f 	cmp	w1, w21
    9ad0:	540000c0 	b.eq	9ae8 <mpa_gcd+0x108>
/home/rahulmahadev/hikey_optee/optee_os/lib/libmpa/mpa_gcd.c:300 (discriminator 5)
    9ad4:	4b0003e0 	neg	w0, w0
    9ad8:	b9000660 	str	w0, [x19,#4]
    9adc:	14000003 	b	9ae8 <mpa_gcd+0x108>
/home/rahulmahadev/hikey_optee/optee_os/lib/libmpa/mpa_gcd.c:283
    9ae0:	36fffac1 	tbz	w1, #31, 9a38 <mpa_gcd+0x58>
    9ae4:	17ffffcf 	b	9a20 <mpa_gcd+0x40>
/home/rahulmahadev/hikey_optee/optee_os/lib/libmpa/mpa_gcd.c:301
    9ae8:	a94153f3 	ldp	x19, x20, [sp,#16]
    9aec:	a9425bf5 	ldp	x21, x22, [sp,#32]
    9af0:	f9401bf7 	ldr	x23, [sp,#48]
    9af4:	a8c57bfd 	ldp	x29, x30, [sp],#80
    9af8:	d65f03c0 	ret

0000000000009afc <mpa_extended_gcd>:
mpa_extended_gcd():
/home/rahulmahadev/hikey_optee/optee_os/lib/libmpa/mpa_gcd.c:317
    9afc:	a9b97bfd 	stp	x29, x30, [sp,#-112]!
    9b00:	910003fd 	mov	x29, sp
    9b04:	a90153f3 	stp	x19, x20, [sp,#16]
    9b08:	a90363f7 	stp	x23, x24, [sp,#48]
    9b0c:	a9025bf5 	stp	x21, x22, [sp,#32]
    9b10:	a9046bf9 	stp	x25, x26, [sp,#64]
    9b14:	a90573fb 	stp	x27, x28, [sp,#80]
    9b18:	aa0003f6 	mov	x22, x0
    9b1c:	aa0103f7 	mov	x23, x1
    9b20:	aa0203f8 	mov	x24, x2
    9b24:	aa0303f3 	mov	x19, x3
    9b28:	aa0403f4 	mov	x20, x4
    9b2c:	aa0503f9 	mov	x25, x5
/home/rahulmahadev/hikey_optee/optee_os/lib/libmpa/mpa_gcd.c:324
    9b30:	b5000101 	cbnz	x1, 9b50 <mpa_extended_gcd+0x54>
    9b34:	b50000e2 	cbnz	x2, 9b50 <mpa_extended_gcd+0x54>
/home/rahulmahadev/hikey_optee/optee_os/lib/libmpa/mpa_gcd.c:325
    9b38:	b4000d20 	cbz	x0, 9cdc <mpa_extended_gcd+0x1e0>
/home/rahulmahadev/hikey_optee/optee_os/lib/libmpa/mpa_gcd.c:326
    9b3c:	aa0503e3 	mov	x3, x5
    9b40:	aa0403e2 	mov	x2, x4
    9b44:	aa1303e1 	mov	x1, x19
    9b48:	97ffffa6 	bl	99e0 <mpa_gcd>
    9b4c:	14000064 	b	9cdc <mpa_extended_gcd+0x1e0>
/home/rahulmahadev/hikey_optee/optee_os/lib/libmpa/mpa_gcd.c:331
    9b50:	b9400660 	ldr	w0, [x19,#4]
    9b54:	52800035 	mov	w21, #0x1                   	// #1
/home/rahulmahadev/hikey_optee/optee_os/lib/libmpa/mpa_gcd.c:332
    9b58:	b9400681 	ldr	w1, [x20,#4]
/home/rahulmahadev/hikey_optee/optee_os/lib/libmpa/mpa_gcd.c:331
    9b5c:	6b1f001f 	cmp	w0, wzr
    9b60:	5a9fa2ba 	csinv	w26, w21, wzr, ge
/home/rahulmahadev/hikey_optee/optee_os/lib/libmpa/mpa_gcd.c:332
    9b64:	36f80b81 	tbz	w1, #31, 9cd4 <mpa_extended_gcd+0x1d8>
    9b68:	12800015 	mov	w21, #0xffffffff            	// #-1
/home/rahulmahadev/hikey_optee/optee_os/lib/libmpa/mpa_gcd.c:333
    9b6c:	36f800a0 	tbz	w0, #31, 9b80 <mpa_extended_gcd+0x84>
/home/rahulmahadev/hikey_optee/optee_os/lib/libmpa/mpa_gcd.c:333 (discriminator 1)
    9b70:	4b0003e0 	neg	w0, w0
    9b74:	b9000660 	str	w0, [x19,#4]
/home/rahulmahadev/hikey_optee/optee_os/lib/libmpa/mpa_gcd.c:334 (discriminator 1)
    9b78:	b9400681 	ldr	w1, [x20,#4]
    9b7c:	36f80061 	tbz	w1, #31, 9b88 <mpa_extended_gcd+0x8c>
    9b80:	4b0103e1 	neg	w1, w1
    9b84:	b9000681 	str	w1, [x20,#4]
/home/rahulmahadev/hikey_optee/optee_os/lib/libmpa/mpa_gcd.c:336
    9b88:	aa1403e1 	mov	x1, x20
    9b8c:	aa1303e0 	mov	x0, x19
    9b90:	9400055c 	bl	b100 <mpa_cmp>
    9b94:	2a0003fc 	mov	w28, w0
/home/rahulmahadev/hikey_optee/optee_os/lib/libmpa/mpa_gcd.c:337
    9b98:	350001c0 	cbnz	w0, 9bd0 <mpa_extended_gcd+0xd4>
/home/rahulmahadev/hikey_optee/optee_os/lib/libmpa/mpa_gcd.c:338
    9b9c:	b4000096 	cbz	x22, 9bac <mpa_extended_gcd+0xb0>
/home/rahulmahadev/hikey_optee/optee_os/lib/libmpa/mpa_gcd.c:339
    9ba0:	aa1303e1 	mov	x1, x19
    9ba4:	aa1603e0 	mov	x0, x22
    9ba8:	97fff96b 	bl	8154 <mpa_copy>
/home/rahulmahadev/hikey_optee/optee_os/lib/libmpa/mpa_gcd.c:340
    9bac:	b4000097 	cbz	x23, 9bbc <mpa_extended_gcd+0xc0>
/home/rahulmahadev/hikey_optee/optee_os/lib/libmpa/mpa_gcd.c:341
    9bb0:	52800021 	mov	w1, #0x1                   	// #1
    9bb4:	aa1703e0 	mov	x0, x23
    9bb8:	97fffbcf 	bl	8af4 <mpa_set_word>
/home/rahulmahadev/hikey_optee/optee_os/lib/libmpa/mpa_gcd.c:342
    9bbc:	b4000438 	cbz	x24, 9c40 <mpa_extended_gcd+0x144>
/home/rahulmahadev/hikey_optee/optee_os/lib/libmpa/mpa_gcd.c:343
    9bc0:	52800001 	mov	w1, #0x0                   	// #0
    9bc4:	aa1803e0 	mov	x0, x24
    9bc8:	97fffbcb 	bl	8af4 <mpa_set_word>
    9bcc:	1400001d 	b	9c40 <mpa_extended_gcd+0x144>
/home/rahulmahadev/hikey_optee/optee_os/lib/libmpa/mpa_gcd.c:347
    9bd0:	eb1402df 	cmp	x22, x20
    9bd4:	1a9f17e0 	cset	w0, eq
    9bd8:	eb1f02df 	cmp	x22, xzr
    9bdc:	1a9f17e1 	cset	w1, eq
    9be0:	2a010001 	orr	w1, w0, w1
    9be4:	35000061 	cbnz	w1, 9bf0 <mpa_extended_gcd+0xf4>
    9be8:	eb1302df 	cmp	x22, x19
    9bec:	540006e1 	b.ne	9cc8 <mpa_extended_gcd+0x1cc>
/home/rahulmahadev/hikey_optee/optee_os/lib/libmpa/mpa_gcd.c:349
    9bf0:	aa1903e1 	mov	x1, x25
    9bf4:	9101a3a0 	add	x0, x29, #0x68
    9bf8:	5280003b 	mov	w27, #0x1                   	// #1
    9bfc:	94000088 	bl	9e1c <mpa_alloc_static_temp_var>
/home/rahulmahadev/hikey_optee/optee_os/lib/libmpa/mpa_gcd.c:354
    9c00:	aa1903e5 	mov	x5, x25
/home/rahulmahadev/hikey_optee/optee_os/lib/libmpa/mpa_gcd.c:353
    9c04:	36f8059c 	tbz	w28, #31, 9cb4 <mpa_extended_gcd+0x1b8>
/home/rahulmahadev/hikey_optee/optee_os/lib/libmpa/mpa_gcd.c:354
    9c08:	aa1303e4 	mov	x4, x19
    9c0c:	aa1403e3 	mov	x3, x20
    9c10:	aa1703e2 	mov	x2, x23
    9c14:	aa1803e1 	mov	x1, x24
/home/rahulmahadev/hikey_optee/optee_os/lib/libmpa/mpa_gcd.c:356
    9c18:	f94037a0 	ldr	x0, [x29,#104]
    9c1c:	97fffe8e 	bl	9654 <__mpa_egcd>
/home/rahulmahadev/hikey_optee/optee_os/lib/libmpa/mpa_gcd.c:358
    9c20:	b4000096 	cbz	x22, 9c30 <mpa_extended_gcd+0x134>
/home/rahulmahadev/hikey_optee/optee_os/lib/libmpa/mpa_gcd.c:359
    9c24:	f94037a1 	ldr	x1, [x29,#104]
    9c28:	aa1603e0 	mov	x0, x22
    9c2c:	97fff94a 	bl	8154 <mpa_copy>
/home/rahulmahadev/hikey_optee/optee_os/lib/libmpa/mpa_gcd.c:360
    9c30:	3400009b 	cbz	w27, 9c40 <mpa_extended_gcd+0x144>
/home/rahulmahadev/hikey_optee/optee_os/lib/libmpa/mpa_gcd.c:361
    9c34:	aa1903e1 	mov	x1, x25
    9c38:	9101a3a0 	add	x0, x29, #0x68
    9c3c:	9400007c 	bl	9e2c <mpa_free_static_temp_var>
/home/rahulmahadev/hikey_optee/optee_os/lib/libmpa/mpa_gcd.c:365
    9c40:	b9400660 	ldr	w0, [x19,#4]
    9c44:	52800021 	mov	w1, #0x1                   	// #1
    9c48:	6b1f001f 	cmp	w0, wzr
    9c4c:	5a9fa021 	csinv	w1, w1, wzr, ge
    9c50:	6b1a003f 	cmp	w1, w26
    9c54:	54000060 	b.eq	9c60 <mpa_extended_gcd+0x164>
/home/rahulmahadev/hikey_optee/optee_os/lib/libmpa/mpa_gcd.c:365 (discriminator 5)
    9c58:	4b0003e0 	neg	w0, w0
    9c5c:	b9000660 	str	w0, [x19,#4]
/home/rahulmahadev/hikey_optee/optee_os/lib/libmpa/mpa_gcd.c:366
    9c60:	b9400680 	ldr	w0, [x20,#4]
    9c64:	52800021 	mov	w1, #0x1                   	// #1
    9c68:	6b1f001f 	cmp	w0, wzr
    9c6c:	5a9fa021 	csinv	w1, w1, wzr, ge
    9c70:	6b15003f 	cmp	w1, w21
    9c74:	54000060 	b.eq	9c80 <mpa_extended_gcd+0x184>
/home/rahulmahadev/hikey_optee/optee_os/lib/libmpa/mpa_gcd.c:366 (discriminator 5)
    9c78:	4b0003e0 	neg	w0, w0
    9c7c:	b9000680 	str	w0, [x20,#4]
/home/rahulmahadev/hikey_optee/optee_os/lib/libmpa/mpa_gcd.c:368
    9c80:	3100075f 	cmn	w26, #0x1
    9c84:	540000a1 	b.ne	9c98 <mpa_extended_gcd+0x19c>
    9c88:	b4000097 	cbz	x23, 9c98 <mpa_extended_gcd+0x19c>
/home/rahulmahadev/hikey_optee/optee_os/lib/libmpa/mpa_gcd.c:369
    9c8c:	b94006e0 	ldr	w0, [x23,#4]
    9c90:	4b0003e0 	neg	w0, w0
    9c94:	b90006e0 	str	w0, [x23,#4]
/home/rahulmahadev/hikey_optee/optee_os/lib/libmpa/mpa_gcd.c:370
    9c98:	310006bf 	cmn	w21, #0x1
    9c9c:	54000201 	b.ne	9cdc <mpa_extended_gcd+0x1e0>
    9ca0:	b40001f8 	cbz	x24, 9cdc <mpa_extended_gcd+0x1e0>
/home/rahulmahadev/hikey_optee/optee_os/lib/libmpa/mpa_gcd.c:371
    9ca4:	b9400700 	ldr	w0, [x24,#4]
    9ca8:	4b0003e0 	neg	w0, w0
    9cac:	b9000700 	str	w0, [x24,#4]
    9cb0:	1400000b 	b	9cdc <mpa_extended_gcd+0x1e0>
/home/rahulmahadev/hikey_optee/optee_os/lib/libmpa/mpa_gcd.c:356
    9cb4:	aa1403e4 	mov	x4, x20
    9cb8:	aa1303e3 	mov	x3, x19
    9cbc:	aa1803e2 	mov	x2, x24
    9cc0:	aa1703e1 	mov	x1, x23
    9cc4:	17ffffd5 	b	9c18 <mpa_extended_gcd+0x11c>
/home/rahulmahadev/hikey_optee/optee_os/lib/libmpa/mpa_gcd.c:351
    9cc8:	f90037b6 	str	x22, [x29,#104]
/home/rahulmahadev/hikey_optee/optee_os/lib/libmpa/mpa_gcd.c:347
    9ccc:	5280001b 	mov	w27, #0x0                   	// #0
    9cd0:	17ffffcc 	b	9c00 <mpa_extended_gcd+0x104>
/home/rahulmahadev/hikey_optee/optee_os/lib/libmpa/mpa_gcd.c:333
    9cd4:	36fff5a0 	tbz	w0, #31, 9b88 <mpa_extended_gcd+0x8c>
    9cd8:	17ffffa6 	b	9b70 <mpa_extended_gcd+0x74>
/home/rahulmahadev/hikey_optee/optee_os/lib/libmpa/mpa_gcd.c:372
    9cdc:	a94153f3 	ldp	x19, x20, [sp,#16]
    9ce0:	a9425bf5 	ldp	x21, x22, [sp,#32]
    9ce4:	a94363f7 	ldp	x23, x24, [sp,#48]
    9ce8:	a9446bf9 	ldp	x25, x26, [sp,#64]
    9cec:	a94573fb 	ldp	x27, x28, [sp,#80]
    9cf0:	a8c77bfd 	ldp	x29, x30, [sp],#112
    9cf4:	d65f03c0 	ret

0000000000009cf8 <mpa_init_scratch_mem_sync>:
mpa_init_scratch_mem_sync():
/home/rahulmahadev/hikey_optee/optee_os/lib/libmpa/mpa_mem_static.c:41
    9cf8:	531f7842 	lsl	w2, w2, #1
/home/rahulmahadev/hikey_optee/optee_os/lib/libmpa/mpa_mem_static.c:39
    9cfc:	b9000001 	str	w1, [x0]
/home/rahulmahadev/hikey_optee/optee_os/lib/libmpa/mpa_mem_static.c:40
    9d00:	b900081f 	str	wzr, [x0,#8]
/home/rahulmahadev/hikey_optee/optee_os/lib/libmpa/mpa_mem_static.c:41
    9d04:	b9000402 	str	w2, [x0,#4]
/home/rahulmahadev/hikey_optee/optee_os/lib/libmpa/mpa_mem_static.c:42
    9d08:	f9000803 	str	x3, [x0,#16]
/home/rahulmahadev/hikey_optee/optee_os/lib/libmpa/mpa_mem_static.c:43
    9d0c:	f9000c04 	str	x4, [x0,#24]
/home/rahulmahadev/hikey_optee/optee_os/lib/libmpa/mpa_mem_static.c:44
    9d10:	f9001005 	str	x5, [x0,#32]
/home/rahulmahadev/hikey_optee/optee_os/lib/libmpa/mpa_mem_static.c:45
    9d14:	d65f03c0 	ret

0000000000009d18 <mpa_init_scratch_mem>:
/home/rahulmahadev/hikey_optee/optee_os/lib/libmpa/mpa_mem_static.c:41
    9d18:	531f7842 	lsl	w2, w2, #1
/home/rahulmahadev/hikey_optee/optee_os/lib/libmpa/mpa_mem_static.c:39
    9d1c:	b9000001 	str	w1, [x0]
/home/rahulmahadev/hikey_optee/optee_os/lib/libmpa/mpa_mem_static.c:40
    9d20:	b900081f 	str	wzr, [x0,#8]
/home/rahulmahadev/hikey_optee/optee_os/lib/libmpa/mpa_mem_static.c:41
    9d24:	b9000402 	str	w2, [x0,#4]
/home/rahulmahadev/hikey_optee/optee_os/lib/libmpa/mpa_mem_static.c:42
    9d28:	f900081f 	str	xzr, [x0,#16]
/home/rahulmahadev/hikey_optee/optee_os/lib/libmpa/mpa_mem_static.c:43
    9d2c:	f9000c1f 	str	xzr, [x0,#24]
/home/rahulmahadev/hikey_optee/optee_os/lib/libmpa/mpa_mem_static.c:44
    9d30:	f900101f 	str	xzr, [x0,#32]
mpa_init_scratch_mem():
/home/rahulmahadev/hikey_optee/optee_os/lib/libmpa/mpa_mem_static.c:50
    9d34:	d65f03c0 	ret

0000000000009d38 <mpa_alloc_static_temp_var_size>:
mpa_alloc_static_temp_var_size():
/home/rahulmahadev/hikey_optee/optee_os/lib/libmpa/mpa_mem_static.c:89
    9d38:	a9bd7bfd 	stp	x29, x30, [sp,#-48]!
    9d3c:	910003fd 	mov	x29, sp
    9d40:	a90153f3 	stp	x19, x20, [sp,#16]
    9d44:	aa0103f4 	mov	x20, x1
/home/rahulmahadev/hikey_optee/optee_os/lib/libmpa/mpa_mem_static.c:95
    9d48:	f9400841 	ldr	x1, [x2,#16]
/home/rahulmahadev/hikey_optee/optee_os/lib/libmpa/mpa_mem_static.c:89
    9d4c:	2a0003f3 	mov	w19, w0
/home/rahulmahadev/hikey_optee/optee_os/lib/libmpa/mpa_mem_static.c:95
    9d50:	b40000a1 	cbz	x1, 9d64 <mpa_alloc_static_temp_var_size+0x2c>
/home/rahulmahadev/hikey_optee/optee_os/lib/libmpa/mpa_mem_static.c:96
    9d54:	f9401040 	ldr	x0, [x2,#32]
    9d58:	f90017a2 	str	x2, [x29,#40]
    9d5c:	d63f0020 	blr	x1
    9d60:	f94017a2 	ldr	x2, [x29,#40]
/home/rahulmahadev/hikey_optee/optee_os/lib/libmpa/mpa_mem_static.c:98
    9d64:	b9400844 	ldr	w4, [x2,#8]
    9d68:	340000c4 	cbz	w4, 9d80 <mpa_alloc_static_temp_var_size+0x48>
/home/rahulmahadev/hikey_optee/optee_os/lib/libmpa/mpa_mem_static.c:103
    9d6c:	2a0403e0 	mov	w0, w4
    9d70:	8b000046 	add	x6, x2, x0
/home/rahulmahadev/hikey_optee/optee_os/lib/libmpa/mpa_mem_static.c:104
    9d74:	b8606843 	ldr	w3, [x2,x0]
    9d78:	0b030083 	add	w3, w4, w3
    9d7c:	14000003 	b	9d88 <mpa_alloc_static_temp_var_size+0x50>
/home/rahulmahadev/hikey_optee/optee_os/lib/libmpa/mpa_mem_static.c:93
    9d80:	d2800006 	mov	x6, #0x0                   	// #0
/home/rahulmahadev/hikey_optee/optee_os/lib/libmpa/mpa_mem_static.c:99
    9d84:	52800503 	mov	w3, #0x28                  	// #40
/home/rahulmahadev/hikey_optee/optee_os/lib/libmpa/mpa_mem_static.c:107
    9d88:	11000c63 	add	w3, w3, #0x3
/home/rahulmahadev/hikey_optee/optee_os/lib/libmpa/mpa_mem_static.c:108
    9d8c:	b9400040 	ldr	w0, [x2]
/home/rahulmahadev/hikey_optee/optee_os/lib/libmpa/mpa_mem_static.c:107
    9d90:	121e7463 	and	w3, w3, #0xfffffffc
/home/rahulmahadev/hikey_optee/optee_os/lib/libmpa/mpa_mem_static.c:108
    9d94:	6b00007f 	cmp	w3, w0
    9d98:	540002e8 	b.hi	9df4 <mpa_alloc_static_temp_var_size+0xbc>
/home/rahulmahadev/hikey_optee/optee_os/lib/libmpa/mpa_mem_static.c:112
    9d9c:	52800401 	mov	w1, #0x20                  	// #32
    9da0:	11007e73 	add	w19, w19, #0x1f
/home/rahulmahadev/hikey_optee/optee_os/lib/libmpa/mpa_mem_static.c:114
    9da4:	2a0303e7 	mov	w7, w3
/home/rahulmahadev/hikey_optee/optee_os/lib/libmpa/mpa_mem_static.c:112
    9da8:	1ac10e73 	sdiv	w19, w19, w1
    9dac:	11000a61 	add	w1, w19, #0x2
/home/rahulmahadev/hikey_optee/optee_os/lib/libmpa/mpa_mem_static.c:111
    9db0:	937e7c25 	sbfiz	x5, x1, #2, #32
/home/rahulmahadev/hikey_optee/optee_os/lib/libmpa/mpa_mem_static.c:113
    9db4:	910030a5 	add	x5, x5, #0xc
/home/rahulmahadev/hikey_optee/optee_os/lib/libmpa/mpa_mem_static.c:114
    9db8:	8b0500e8 	add	x8, x7, x5
    9dbc:	eb20411f 	cmp	x8, w0, uxtw
    9dc0:	540001a8 	b.hi	9df4 <mpa_alloc_static_temp_var_size+0xbc>
/home/rahulmahadev/hikey_optee/optee_os/lib/libmpa/mpa_mem_static.c:117
    9dc4:	8b070040 	add	x0, x2, x7
/home/rahulmahadev/hikey_optee/optee_os/lib/libmpa/mpa_mem_static.c:118
    9dc8:	b8276845 	str	w5, [x2,x7]
/home/rahulmahadev/hikey_optee/optee_os/lib/libmpa/mpa_mem_static.c:119
    9dcc:	b9000404 	str	w4, [x0,#4]
/home/rahulmahadev/hikey_optee/optee_os/lib/libmpa/mpa_mem_static.c:120
    9dd0:	b4000046 	cbz	x6, 9dd8 <mpa_alloc_static_temp_var_size+0xa0>
/home/rahulmahadev/hikey_optee/optee_os/lib/libmpa/mpa_mem_static.c:121
    9dd4:	b90008c3 	str	w3, [x6,#8]
/home/rahulmahadev/hikey_optee/optee_os/lib/libmpa/mpa_mem_static.c:122
    9dd8:	b900081f 	str	wzr, [x0,#8]
/home/rahulmahadev/hikey_optee/optee_os/lib/libmpa/mpa_mem_static.c:125
    9ddc:	91003000 	add	x0, x0, #0xc
/home/rahulmahadev/hikey_optee/optee_os/lib/libmpa/mpa_mem_static.c:123
    9de0:	b9000843 	str	w3, [x2,#8]
/home/rahulmahadev/hikey_optee/optee_os/lib/libmpa/mpa_mem_static.c:125
    9de4:	f9000280 	str	x0, [x20]
/home/rahulmahadev/hikey_optee/optee_os/lib/libmpa/mpa_mem_static.c:126
    9de8:	9400055d 	bl	b35c <mpa_init_static>
/home/rahulmahadev/hikey_optee/optee_os/lib/libmpa/mpa_mem_static.c:127
    9dec:	f9400280 	ldr	x0, [x20]
    9df0:	14000008 	b	9e10 <mpa_alloc_static_temp_var_size+0xd8>
/home/rahulmahadev/hikey_optee/optee_os/lib/libmpa/mpa_mem_static.c:130
    9df4:	f900029f 	str	xzr, [x20]
/home/rahulmahadev/hikey_optee/optee_os/lib/libmpa/mpa_mem_static.c:133
    9df8:	d2800000 	mov	x0, #0x0                   	// #0
/home/rahulmahadev/hikey_optee/optee_os/lib/libmpa/mpa_mem_static.c:131
    9dfc:	f9400c41 	ldr	x1, [x2,#24]
    9e00:	b4000081 	cbz	x1, 9e10 <mpa_alloc_static_temp_var_size+0xd8>
/home/rahulmahadev/hikey_optee/optee_os/lib/libmpa/mpa_mem_static.c:132
    9e04:	f9401040 	ldr	x0, [x2,#32]
    9e08:	d63f0020 	blr	x1
/home/rahulmahadev/hikey_optee/optee_os/lib/libmpa/mpa_mem_static.c:133
    9e0c:	d2800000 	mov	x0, #0x0                   	// #0
/home/rahulmahadev/hikey_optee/optee_os/lib/libmpa/mpa_mem_static.c:134
    9e10:	a94153f3 	ldp	x19, x20, [sp,#16]
    9e14:	a8c37bfd 	ldp	x29, x30, [sp],#48
    9e18:	d65f03c0 	ret

0000000000009e1c <mpa_alloc_static_temp_var>:
mpa_alloc_static_temp_var():
/home/rahulmahadev/hikey_optee/optee_os/lib/libmpa/mpa_mem_static.c:139
    9e1c:	aa0103e2 	mov	x2, x1
    9e20:	aa0003e1 	mov	x1, x0
    9e24:	b9400440 	ldr	w0, [x2,#4]
    9e28:	17ffffc4 	b	9d38 <mpa_alloc_static_temp_var_size>

0000000000009e2c <mpa_free_static_temp_var>:
mpa_free_static_temp_var():
/home/rahulmahadev/hikey_optee/optee_os/lib/libmpa/mpa_mem_static.c:154
    9e2c:	b4000240 	cbz	x0, 9e74 <mpa_free_static_temp_var+0x48>
/home/rahulmahadev/hikey_optee/optee_os/lib/libmpa/mpa_mem_static.c:154 (discriminator 1)
    9e30:	f9400002 	ldr	x2, [x0]
    9e34:	b4000202 	cbz	x2, 9e74 <mpa_free_static_temp_var+0x48>
/home/rahulmahadev/hikey_optee/optee_os/lib/libmpa/mpa_mem_static.c:159
    9e38:	b85f8040 	ldr	w0, [x2,#-8]
    9e3c:	34000080 	cbz	w0, 9e4c <mpa_free_static_temp_var+0x20>
/home/rahulmahadev/hikey_optee/optee_os/lib/libmpa/mpa_mem_static.c:162
    9e40:	b85fc044 	ldr	w4, [x2,#-4]
    9e44:	8b204023 	add	x3, x1, w0, uxtw
    9e48:	b9000864 	str	w4, [x3,#8]
/home/rahulmahadev/hikey_optee/optee_os/lib/libmpa/mpa_mem_static.c:166
    9e4c:	b85fc042 	ldr	w2, [x2,#-4]
    9e50:	34000082 	cbz	w2, 9e60 <mpa_free_static_temp_var+0x34>
/home/rahulmahadev/hikey_optee/optee_os/lib/libmpa/mpa_mem_static.c:169
    9e54:	8b224022 	add	x2, x1, w2, uxtw
    9e58:	b9000440 	str	w0, [x2,#4]
/home/rahulmahadev/hikey_optee/optee_os/lib/libmpa/mpa_mem_static.c:170
    9e5c:	b9400820 	ldr	w0, [x1,#8]
/home/rahulmahadev/hikey_optee/optee_os/lib/libmpa/mpa_mem_static.c:174
    9e60:	f9400c22 	ldr	x2, [x1,#24]
/home/rahulmahadev/hikey_optee/optee_os/lib/libmpa/mpa_mem_static.c:173
    9e64:	b9000820 	str	w0, [x1,#8]
/home/rahulmahadev/hikey_optee/optee_os/lib/libmpa/mpa_mem_static.c:174
    9e68:	b4000062 	cbz	x2, 9e74 <mpa_free_static_temp_var+0x48>
/home/rahulmahadev/hikey_optee/optee_os/lib/libmpa/mpa_mem_static.c:175
    9e6c:	f9401020 	ldr	x0, [x1,#32]
    9e70:	d61f0040 	br	x2
/home/rahulmahadev/hikey_optee/optee_os/lib/libmpa/mpa_mem_static.c:176
    9e74:	d65f03c0 	ret

0000000000009e78 <__mpa_mul_add_word>:
__mpa_mul_add_word():
/home/rahulmahadev/hikey_optee/optee_os/lib/libmpa/mpa_mul.c:54
    9e78:	b9400064 	ldr	w4, [x3]
    9e7c:	9ba11000 	umaddl	x0, w0, w1, x4
/home/rahulmahadev/hikey_optee/optee_os/lib/libmpa/mpa_mul.c:55
    9e80:	b9000040 	str	w0, [x2]
/home/rahulmahadev/hikey_optee/optee_os/lib/libmpa/mpa_mul.c:56
    9e84:	d360fc00 	lsr	x0, x0, #32
    9e88:	b9000060 	str	w0, [x3]
/home/rahulmahadev/hikey_optee/optee_os/lib/libmpa/mpa_mul.c:60
    9e8c:	d65f03c0 	ret

0000000000009e90 <__mpa_mul_add_word_cum>:
__mpa_mul_add_word_cum():
/home/rahulmahadev/hikey_optee/optee_os/lib/libmpa/mpa_mul.c:76
    9e90:	b9400045 	ldr	w5, [x2]
/home/rahulmahadev/hikey_optee/optee_os/lib/libmpa/mpa_mul.c:77
    9e94:	b9400064 	ldr	w4, [x3]
    9e98:	8b0400a4 	add	x4, x5, x4
/home/rahulmahadev/hikey_optee/optee_os/lib/libmpa/mpa_mul.c:75
    9e9c:	9ba11000 	umaddl	x0, w0, w1, x4
/home/rahulmahadev/hikey_optee/optee_os/lib/libmpa/mpa_mul.c:78
    9ea0:	b9000040 	str	w0, [x2]
/home/rahulmahadev/hikey_optee/optee_os/lib/libmpa/mpa_mul.c:79
    9ea4:	d360fc00 	lsr	x0, x0, #32
    9ea8:	b9000060 	str	w0, [x3]
/home/rahulmahadev/hikey_optee/optee_os/lib/libmpa/mpa_mul.c:83
    9eac:	d65f03c0 	ret

0000000000009eb0 <__mpa_abs_mul_word>:
__mpa_abs_mul_word():
/home/rahulmahadev/hikey_optee/optee_os/lib/libmpa/mpa_mul.c:95
    9eb0:	a9bd7bfd 	stp	x29, x30, [sp,#-48]!
    9eb4:	910003fd 	mov	x29, sp
    9eb8:	a9025bf5 	stp	x21, x22, [sp,#32]
    9ebc:	2a0203f6 	mov	w22, w2
/home/rahulmahadev/hikey_optee/optee_os/lib/libmpa/mpa_mul.c:102
    9ec0:	b9400002 	ldr	w2, [x0]
/home/rahulmahadev/hikey_optee/optee_os/lib/libmpa/mpa_mul.c:95
    9ec4:	a90153f3 	stp	x19, x20, [sp,#16]
/home/rahulmahadev/hikey_optee/optee_os/lib/libmpa/mpa_mul.c:102
    9ec8:	91002014 	add	x20, x0, #0x8
/home/rahulmahadev/hikey_optee/optee_os/lib/libmpa/mpa_mul.c:95
    9ecc:	aa0103f5 	mov	x21, x1
    9ed0:	aa0003f3 	mov	x19, x0
/home/rahulmahadev/hikey_optee/optee_os/lib/libmpa/mpa_mul.c:102
    9ed4:	d37e7442 	ubfiz	x2, x2, #2, #30
    9ed8:	52800001 	mov	w1, #0x0                   	// #0
    9edc:	aa1403e0 	mov	x0, x20
    9ee0:	97fff4cc 	bl	7210 <memset>
/home/rahulmahadev/hikey_optee/optee_os/lib/libmpa/mpa_mul.c:104
    9ee4:	910022a6 	add	x6, x21, #0x8
/home/rahulmahadev/hikey_optee/optee_os/lib/libmpa/mpa_mul.c:107
    9ee8:	d2800003 	mov	x3, #0x0                   	// #0
/home/rahulmahadev/hikey_optee/optee_os/lib/libmpa/mpa_mul.c:106
    9eec:	52800004 	mov	w4, #0x0                   	// #0
/home/rahulmahadev/hikey_optee/optee_os/lib/libmpa/mpa_mul.c:107 (discriminator 1)
    9ef0:	b98006a0 	ldrsw	x0, [x21,#4]
    9ef4:	2a0303e1 	mov	w1, w3
    9ef8:	ca80fc02 	eor	x2, x0, x0, asr #63
    9efc:	cb80fc40 	sub	x0, x2, x0, asr #63
    9f00:	6b00007f 	cmp	w3, w0
    9f04:	54000102 	b.cs	9f24 <__mpa_abs_mul_word+0x74>
/home/rahulmahadev/hikey_optee/optee_os/lib/libmpa/mpa_mul.c:108 (discriminator 3)
    9f08:	b86378c5 	ldr	w5, [x6,x3,lsl #2]
__mpa_mul_add_word():
/home/rahulmahadev/hikey_optee/optee_os/lib/libmpa/mpa_mul.c:54 (discriminator 3)
    9f0c:	2a0403e4 	mov	w4, w4
    9f10:	9bb610a4 	umaddl	x4, w5, w22, x4
/home/rahulmahadev/hikey_optee/optee_os/lib/libmpa/mpa_mul.c:55 (discriminator 3)
    9f14:	b8235a84 	str	w4, [x20,w3,uxtw #2]
    9f18:	91000463 	add	x3, x3, #0x1
/home/rahulmahadev/hikey_optee/optee_os/lib/libmpa/mpa_mul.c:56 (discriminator 3)
    9f1c:	d360fc84 	lsr	x4, x4, #32
    9f20:	17fffff4 	b	9ef0 <__mpa_abs_mul_word+0x40>
__mpa_abs_mul_word():
/home/rahulmahadev/hikey_optee/optee_os/lib/libmpa/mpa_mul.c:111
    9f24:	b9000663 	str	w3, [x19,#4]
/home/rahulmahadev/hikey_optee/optee_os/lib/libmpa/mpa_mul.c:112
    9f28:	340000a4 	cbz	w4, 9f3c <__mpa_abs_mul_word+0x8c>
/home/rahulmahadev/hikey_optee/optee_os/lib/libmpa/mpa_mul.c:113
    9f2c:	b8215a84 	str	w4, [x20,w1,uxtw #2]
/home/rahulmahadev/hikey_optee/optee_os/lib/libmpa/mpa_mul.c:114
    9f30:	b9400660 	ldr	w0, [x19,#4]
    9f34:	11000400 	add	w0, w0, #0x1
    9f38:	b9000660 	str	w0, [x19,#4]
/home/rahulmahadev/hikey_optee/optee_os/lib/libmpa/mpa_mul.c:116
    9f3c:	a94153f3 	ldp	x19, x20, [sp,#16]
    9f40:	a9425bf5 	ldp	x21, x22, [sp,#32]
    9f44:	a8c37bfd 	ldp	x29, x30, [sp],#48
    9f48:	d65f03c0 	ret

0000000000009f4c <__mpa_abs_mul>:
__mpa_abs_mul():
/home/rahulmahadev/hikey_optee/optee_os/lib/libmpa/mpa_mul.c:126
    9f4c:	a9b97bfd 	stp	x29, x30, [sp,#-112]!
    9f50:	910003fd 	mov	x29, sp
    9f54:	a90363f7 	stp	x23, x24, [sp,#48]
    9f58:	aa0203f8 	mov	x24, x2
/home/rahulmahadev/hikey_optee/optee_os/lib/libmpa/mpa_mul.c:135
    9f5c:	b9400002 	ldr	w2, [x0]
/home/rahulmahadev/hikey_optee/optee_os/lib/libmpa/mpa_mul.c:126
    9f60:	a9046bf9 	stp	x25, x26, [sp,#64]
/home/rahulmahadev/hikey_optee/optee_os/lib/libmpa/mpa_mul.c:135
    9f64:	91002017 	add	x23, x0, #0x8
/home/rahulmahadev/hikey_optee/optee_os/lib/libmpa/mpa_mul.c:129
    9f68:	9101c3b9 	add	x25, x29, #0x70
/home/rahulmahadev/hikey_optee/optee_os/lib/libmpa/mpa_mul.c:126
    9f6c:	a9025bf5 	stp	x21, x22, [sp,#32]
/home/rahulmahadev/hikey_optee/optee_os/lib/libmpa/mpa_mul.c:135
    9f70:	d37e7442 	ubfiz	x2, x2, #2, #30
/home/rahulmahadev/hikey_optee/optee_os/lib/libmpa/mpa_mul.c:126
    9f74:	aa0103f6 	mov	x22, x1
    9f78:	aa0003f5 	mov	x21, x0
/home/rahulmahadev/hikey_optee/optee_os/lib/libmpa/mpa_mul.c:135
    9f7c:	52800001 	mov	w1, #0x0                   	// #0
    9f80:	aa1703e0 	mov	x0, x23
/home/rahulmahadev/hikey_optee/optee_os/lib/libmpa/mpa_mul.c:129
    9f84:	b81fcf3f 	str	wzr, [x25,#-4]!
/home/rahulmahadev/hikey_optee/optee_os/lib/libmpa/mpa_mul.c:126
    9f88:	a90153f3 	stp	x19, x20, [sp,#16]
    9f8c:	a90573fb 	stp	x27, x28, [sp,#80]
/home/rahulmahadev/hikey_optee/optee_os/lib/libmpa/mpa_mul.c:135
    9f90:	97fff4a0 	bl	7210 <memset>
/home/rahulmahadev/hikey_optee/optee_os/lib/libmpa/mpa_mul.c:137
    9f94:	910022db 	add	x27, x22, #0x8
/home/rahulmahadev/hikey_optee/optee_os/lib/libmpa/mpa_mul.c:139
    9f98:	d2800013 	mov	x19, #0x0                   	// #0
/home/rahulmahadev/hikey_optee/optee_os/lib/libmpa/mpa_mul.c:128
    9f9c:	52800005 	mov	w5, #0x0                   	// #0
/home/rahulmahadev/hikey_optee/optee_os/lib/libmpa/mpa_mul.c:139 (discriminator 1)
    9fa0:	b98006c6 	ldrsw	x6, [x22,#4]
    9fa4:	8b130afa 	add	x26, x23, x19, lsl #2
    9fa8:	ca86fcc0 	eor	x0, x6, x6, asr #63
    9fac:	cb86fc06 	sub	x6, x0, x6, asr #63
    9fb0:	6b06027f 	cmp	w19, w6
    9fb4:	540002c2 	b.cs	a00c <__mpa_abs_mul+0xc0>
/home/rahulmahadev/hikey_optee/optee_os/lib/libmpa/mpa_mul.c:140
    9fb8:	9100231c 	add	x28, x24, #0x8
/home/rahulmahadev/hikey_optee/optee_os/lib/libmpa/mpa_mul.c:141
    9fbc:	b9006fbf 	str	wzr, [x29,#108]
/home/rahulmahadev/hikey_optee/optee_os/lib/libmpa/mpa_mul.c:142
    9fc0:	d2800014 	mov	x20, #0x0                   	// #0
/home/rahulmahadev/hikey_optee/optee_os/lib/libmpa/mpa_mul.c:142 (discriminator 1)
    9fc4:	b9800700 	ldrsw	x0, [x24,#4]
    9fc8:	2a1403e5 	mov	w5, w20
    9fcc:	ca80fc01 	eor	x1, x0, x0, asr #63
    9fd0:	cb80fc20 	sub	x0, x1, x0, asr #63
    9fd4:	6b00029f 	cmp	w20, w0
    9fd8:	54000102 	b.cs	9ff8 <__mpa_abs_mul+0xac>
/home/rahulmahadev/hikey_optee/optee_os/lib/libmpa/mpa_mul.c:143 (discriminator 3)
    9fdc:	b8747b81 	ldr	w1, [x28,x20,lsl #2]
    9fe0:	aa1903e3 	mov	x3, x25
    9fe4:	b8737b60 	ldr	w0, [x27,x19,lsl #2]
    9fe8:	8b344b42 	add	x2, x26, w20, uxtw #2
    9fec:	91000694 	add	x20, x20, #0x1
    9ff0:	97ffffa8 	bl	9e90 <__mpa_mul_add_word_cum>
    9ff4:	17fffff4 	b	9fc4 <__mpa_abs_mul+0x78>
/home/rahulmahadev/hikey_optee/optee_os/lib/libmpa/mpa_mul.c:146
    9ff8:	b9406fa0 	ldr	w0, [x29,#108]
    9ffc:	34000040 	cbz	w0, a004 <__mpa_abs_mul+0xb8>
/home/rahulmahadev/hikey_optee/optee_os/lib/libmpa/mpa_mul.c:147
    a000:	b8255b40 	str	w0, [x26,w5,uxtw #2]
    a004:	91000673 	add	x19, x19, #0x1
    a008:	17ffffe6 	b	9fa0 <__mpa_abs_mul+0x54>
/home/rahulmahadev/hikey_optee/optee_os/lib/libmpa/mpa_mul.c:151
    a00c:	0b1300a0 	add	w0, w5, w19
    a010:	51000401 	sub	w1, w0, #0x1
    a014:	b90006a1 	str	w1, [x21,#4]
/home/rahulmahadev/hikey_optee/optee_os/lib/libmpa/mpa_mul.c:152
    a018:	b9406fa1 	ldr	w1, [x29,#108]
    a01c:	34000041 	cbz	w1, a024 <__mpa_abs_mul+0xd8>
/home/rahulmahadev/hikey_optee/optee_os/lib/libmpa/mpa_mul.c:153
    a020:	b90006a0 	str	w0, [x21,#4]
/home/rahulmahadev/hikey_optee/optee_os/lib/libmpa/mpa_mul.c:154
    a024:	a94153f3 	ldp	x19, x20, [sp,#16]
    a028:	a9425bf5 	ldp	x21, x22, [sp,#32]
    a02c:	a94363f7 	ldp	x23, x24, [sp,#48]
    a030:	a9446bf9 	ldp	x25, x26, [sp,#64]
    a034:	a94573fb 	ldp	x27, x28, [sp,#80]
    a038:	a8c77bfd 	ldp	x29, x30, [sp],#112
    a03c:	d65f03c0 	ret

000000000000a040 <mpa_mul>:
mpa_mul():
/home/rahulmahadev/hikey_optee/optee_os/lib/libmpa/mpa_mul.c:169
    a040:	a9bb7bfd 	stp	x29, x30, [sp,#-80]!
    a044:	910003fd 	mov	x29, sp
    a048:	a90153f3 	stp	x19, x20, [sp,#16]
    a04c:	aa0003f3 	mov	x19, x0
/home/rahulmahadev/hikey_optee/optee_os/lib/libmpa/mpa_mul.c:173
    a050:	b9400420 	ldr	w0, [x1,#4]
/home/rahulmahadev/hikey_optee/optee_os/lib/libmpa/mpa_mul.c:169
    a054:	a9025bf5 	stp	x21, x22, [sp,#32]
    a058:	f9001bf7 	str	x23, [sp,#48]
    a05c:	aa0103f6 	mov	x22, x1
    a060:	aa0203f5 	mov	x21, x2
    a064:	aa0303f7 	mov	x23, x3
/home/rahulmahadev/hikey_optee/optee_os/lib/libmpa/mpa_mul.c:173
    a068:	34000060 	cbz	w0, a074 <mpa_mul+0x34>
/home/rahulmahadev/hikey_optee/optee_os/lib/libmpa/mpa_mul.c:173 (discriminator 1)
    a06c:	b9400440 	ldr	w0, [x2,#4]
    a070:	350000a0 	cbnz	w0, a084 <mpa_mul+0x44>
/home/rahulmahadev/hikey_optee/optee_os/lib/libmpa/mpa_mul.c:174
    a074:	52800001 	mov	w1, #0x0                   	// #0
    a078:	aa1303e0 	mov	x0, x19
    a07c:	97fffa9e 	bl	8af4 <mpa_set_word>
    a080:	14000024 	b	a110 <mpa_mul+0xd0>
/home/rahulmahadev/hikey_optee/optee_os/lib/libmpa/mpa_mul.c:179
    a084:	eb01027f 	cmp	x19, x1
    a088:	1a9f17f4 	cset	w20, eq
    a08c:	eb02027f 	cmp	x19, x2
    a090:	1a9f17e0 	cset	w0, eq
    a094:	2a000294 	orr	w20, w20, w0
/home/rahulmahadev/hikey_optee/optee_os/lib/libmpa/mpa_mul.c:180
    a098:	340000b4 	cbz	w20, a0ac <mpa_mul+0x6c>
/home/rahulmahadev/hikey_optee/optee_os/lib/libmpa/mpa_mul.c:181
    a09c:	aa0303e1 	mov	x1, x3
    a0a0:	910123a0 	add	x0, x29, #0x48
    a0a4:	97ffff5e 	bl	9e1c <mpa_alloc_static_temp_var>
    a0a8:	14000002 	b	a0b0 <mpa_mul+0x70>
/home/rahulmahadev/hikey_optee/optee_os/lib/libmpa/mpa_mul.c:183
    a0ac:	f90027b3 	str	x19, [x29,#72]
/home/rahulmahadev/hikey_optee/optee_os/lib/libmpa/mpa_mul.c:185
    a0b0:	f94027a0 	ldr	x0, [x29,#72]
    a0b4:	aa1503e2 	mov	x2, x21
    a0b8:	aa1603e1 	mov	x1, x22
    a0bc:	97ffffa4 	bl	9f4c <__mpa_abs_mul>
/home/rahulmahadev/hikey_optee/optee_os/lib/libmpa/mpa_mul.c:187
    a0c0:	b94006c1 	ldr	w1, [x22,#4]
    a0c4:	52800020 	mov	w0, #0x1                   	// #1
    a0c8:	b94006a2 	ldr	w2, [x21,#4]
    a0cc:	6b1f003f 	cmp	w1, wzr
    a0d0:	5a9fa001 	csinv	w1, w0, wzr, ge
    a0d4:	6b1f005f 	cmp	w2, wzr
    a0d8:	5a9fa000 	csinv	w0, w0, wzr, ge
    a0dc:	6b00003f 	cmp	w1, w0
    a0e0:	540000a0 	b.eq	a0f4 <mpa_mul+0xb4>
/home/rahulmahadev/hikey_optee/optee_os/lib/libmpa/mpa_mul.c:188
    a0e4:	f94027a1 	ldr	x1, [x29,#72]
    a0e8:	b9400420 	ldr	w0, [x1,#4]
    a0ec:	4b0003e0 	neg	w0, w0
    a0f0:	b9000420 	str	w0, [x1,#4]
/home/rahulmahadev/hikey_optee/optee_os/lib/libmpa/mpa_mul.c:190
    a0f4:	f94027a1 	ldr	x1, [x29,#72]
    a0f8:	aa1303e0 	mov	x0, x19
    a0fc:	97fff816 	bl	8154 <mpa_copy>
/home/rahulmahadev/hikey_optee/optee_os/lib/libmpa/mpa_mul.c:191
    a100:	34000094 	cbz	w20, a110 <mpa_mul+0xd0>
/home/rahulmahadev/hikey_optee/optee_os/lib/libmpa/mpa_mul.c:192
    a104:	aa1703e1 	mov	x1, x23
    a108:	910123a0 	add	x0, x29, #0x48
    a10c:	97ffff48 	bl	9e2c <mpa_free_static_temp_var>
/home/rahulmahadev/hikey_optee/optee_os/lib/libmpa/mpa_mul.c:193
    a110:	a94153f3 	ldp	x19, x20, [sp,#16]
    a114:	a9425bf5 	ldp	x21, x22, [sp,#32]
    a118:	f9401bf7 	ldr	x23, [sp,#48]
    a11c:	a8c57bfd 	ldp	x29, x30, [sp],#80
    a120:	d65f03c0 	ret

000000000000a124 <mpa_mul_word>:
mpa_mul_word():
/home/rahulmahadev/hikey_optee/optee_os/lib/libmpa/mpa_mul.c:202
    a124:	a9ba7bfd 	stp	x29, x30, [sp,#-96]!
    a128:	910003fd 	mov	x29, sp
    a12c:	a9025bf5 	stp	x21, x22, [sp,#32]
    a130:	a90153f3 	stp	x19, x20, [sp,#16]
    a134:	f9001bf7 	str	x23, [sp,#48]
    a138:	aa0003f3 	mov	x19, x0
    a13c:	aa0103f5 	mov	x21, x1
    a140:	aa0303f6 	mov	x22, x3
/home/rahulmahadev/hikey_optee/optee_os/lib/libmpa/mpa_mul.c:207
    a144:	b9400420 	ldr	w0, [x1,#4]
    a148:	34000042 	cbz	w2, a150 <mpa_mul_word+0x2c>
    a14c:	350000a0 	cbnz	w0, a160 <mpa_mul_word+0x3c>
/home/rahulmahadev/hikey_optee/optee_os/lib/libmpa/mpa_mul.c:208
    a150:	52800001 	mov	w1, #0x0                   	// #0
    a154:	aa1303e0 	mov	x0, x19
    a158:	97fffa67 	bl	8af4 <mpa_set_word>
    a15c:	1400001e 	b	a1d4 <mpa_mul_word+0xb0>
/home/rahulmahadev/hikey_optee/optee_os/lib/libmpa/mpa_mul.c:212
    a160:	6b1f001f 	cmp	w0, wzr
    a164:	52800034 	mov	w20, #0x1                   	// #1
    a168:	5a9fa294 	csinv	w20, w20, wzr, ge
/home/rahulmahadev/hikey_optee/optee_os/lib/libmpa/mpa_mul.c:215
    a16c:	eb01027f 	cmp	x19, x1
    a170:	1a9f17f7 	cset	w23, eq
/home/rahulmahadev/hikey_optee/optee_os/lib/libmpa/mpa_mul.c:216
    a174:	340000f7 	cbz	w23, a190 <mpa_mul_word+0x6c>
/home/rahulmahadev/hikey_optee/optee_os/lib/libmpa/mpa_mul.c:217
    a178:	aa0303e1 	mov	x1, x3
    a17c:	910163a0 	add	x0, x29, #0x58
    a180:	b9004fa2 	str	w2, [x29,#76]
    a184:	97ffff26 	bl	9e1c <mpa_alloc_static_temp_var>
    a188:	b9404fa2 	ldr	w2, [x29,#76]
    a18c:	14000002 	b	a194 <mpa_mul_word+0x70>
/home/rahulmahadev/hikey_optee/optee_os/lib/libmpa/mpa_mul.c:219
    a190:	f9002fb3 	str	x19, [x29,#88]
/home/rahulmahadev/hikey_optee/optee_os/lib/libmpa/mpa_mul.c:221
    a194:	f9402fa0 	ldr	x0, [x29,#88]
    a198:	aa1503e1 	mov	x1, x21
    a19c:	97ffff45 	bl	9eb0 <__mpa_abs_mul_word>
/home/rahulmahadev/hikey_optee/optee_os/lib/libmpa/mpa_mul.c:223
    a1a0:	3100069f 	cmn	w20, #0x1
    a1a4:	540000a1 	b.ne	a1b8 <mpa_mul_word+0x94>
/home/rahulmahadev/hikey_optee/optee_os/lib/libmpa/mpa_mul.c:224
    a1a8:	f9402fa1 	ldr	x1, [x29,#88]
    a1ac:	b9400420 	ldr	w0, [x1,#4]
    a1b0:	4b0003e0 	neg	w0, w0
    a1b4:	b9000420 	str	w0, [x1,#4]
/home/rahulmahadev/hikey_optee/optee_os/lib/libmpa/mpa_mul.c:225
    a1b8:	f9402fa1 	ldr	x1, [x29,#88]
    a1bc:	aa1303e0 	mov	x0, x19
    a1c0:	97fff7e5 	bl	8154 <mpa_copy>
/home/rahulmahadev/hikey_optee/optee_os/lib/libmpa/mpa_mul.c:226
    a1c4:	34000097 	cbz	w23, a1d4 <mpa_mul_word+0xb0>
/home/rahulmahadev/hikey_optee/optee_os/lib/libmpa/mpa_mul.c:227
    a1c8:	aa1603e1 	mov	x1, x22
    a1cc:	910163a0 	add	x0, x29, #0x58
    a1d0:	97ffff17 	bl	9e2c <mpa_free_static_temp_var>
/home/rahulmahadev/hikey_optee/optee_os/lib/libmpa/mpa_mul.c:228
    a1d4:	a94153f3 	ldp	x19, x20, [sp,#16]
    a1d8:	a9425bf5 	ldp	x21, x22, [sp,#32]
    a1dc:	f9401bf7 	ldr	x23, [sp,#48]
    a1e0:	a8c67bfd 	ldp	x29, x30, [sp],#96
    a1e4:	d65f03c0 	ret

000000000000a1e8 <mpa_set_random_generator>:
mpa_set_random_generator():
/home/rahulmahadev/hikey_optee/optee_os/lib/libmpa/mpa_random.c:34
    a1e8:	d0000061 	adrp	x1, 18000 <mempool_u32+0xe58>
    a1ec:	f9067c20 	str	x0, [x1,#3320]
/home/rahulmahadev/hikey_optee/optee_os/lib/libmpa/mpa_random.c:35
    a1f0:	d65f03c0 	ret

000000000000a1f4 <mpa_get_random>:
mpa_get_random():
/home/rahulmahadev/hikey_optee/optee_os/lib/libmpa/mpa_random.c:52
    a1f4:	a9ba7bfd 	stp	x29, x30, [sp,#-96]!
    a1f8:	910003fd 	mov	x29, sp
    a1fc:	a90153f3 	stp	x19, x20, [sp,#16]
    a200:	aa0103f4 	mov	x20, x1
    a204:	aa0003f3 	mov	x19, x0
    a208:	a9025bf5 	stp	x21, x22, [sp,#32]
    a20c:	a90363f7 	stp	x23, x24, [sp,#48]
    a210:	a9046bf9 	stp	x25, x26, [sp,#64]
/home/rahulmahadev/hikey_optee/optee_os/lib/libmpa/mpa_random.c:55
    a214:	97fff7c4 	bl	8124 <mpa_wipe>
get_random_byte():
/home/rahulmahadev/hikey_optee/optee_os/lib/libmpa/mpa_random.c:40
    a218:	d0000075 	adrp	x21, 18000 <mempool_u32+0xe58>
mpa_get_random():
/home/rahulmahadev/hikey_optee/optee_os/lib/libmpa/mpa_random.c:56
    a21c:	b9800681 	ldrsw	x1, [x20,#4]
get_random_byte():
/home/rahulmahadev/hikey_optee/optee_os/lib/libmpa/mpa_random.c:40
    a220:	91017fb6 	add	x22, x29, #0x5f
mpa_get_random():
/home/rahulmahadev/hikey_optee/optee_os/lib/libmpa/mpa_random.c:56
    a224:	b9400260 	ldr	w0, [x19]
/home/rahulmahadev/hikey_optee/optee_os/lib/libmpa/mpa_random.c:75
    a228:	52800037 	mov	w23, #0x1                   	// #1
/home/rahulmahadev/hikey_optee/optee_os/lib/libmpa/mpa_random.c:56
    a22c:	ca81fc22 	eor	x2, x1, x1, asr #63
    a230:	cb81fc41 	sub	x1, x2, x1, asr #63
/home/rahulmahadev/hikey_optee/optee_os/lib/libmpa/mpa_random.c:57
    a234:	6b01001f 	cmp	w0, w1
    a238:	1a813000 	csel	w0, w0, w1, cc
    a23c:	b9000660 	str	w0, [x19,#4]
    a240:	52800019 	mov	w25, #0x0                   	// #0
/home/rahulmahadev/hikey_optee/optee_os/lib/libmpa/mpa_random.c:61 (discriminator 1)
    a244:	b9400661 	ldr	w1, [x19,#4]
    a248:	6b01033f 	cmp	w25, w1
    a24c:	5400022a 	b.ge	a290 <mpa_get_random+0x9c>
    a250:	5280009a 	mov	w26, #0x4                   	// #4
    a254:	52800000 	mov	w0, #0x0                   	// #0
/home/rahulmahadev/hikey_optee/optee_os/lib/libmpa/mpa_random.c:64 (discriminator 3)
    a258:	53185c18 	lsl	w24, w0, #8
get_random_byte():
/home/rahulmahadev/hikey_optee/optee_os/lib/libmpa/mpa_random.c:40
    a25c:	f9467ea2 	ldr	x2, [x21,#3320]
    a260:	d2800021 	mov	x1, #0x1                   	// #1
    a264:	aa1603e0 	mov	x0, x22
    a268:	d63f0040 	blr	x2
    a26c:	35ffff80 	cbnz	w0, a25c <mpa_get_random+0x68>
/home/rahulmahadev/hikey_optee/optee_os/lib/libmpa/mpa_random.c:43
    a270:	39417fa0 	ldrb	w0, [x29,#95]
mpa_get_random():
/home/rahulmahadev/hikey_optee/optee_os/lib/libmpa/mpa_random.c:63
    a274:	7100075a 	subs	w26, w26, #0x1
/home/rahulmahadev/hikey_optee/optee_os/lib/libmpa/mpa_random.c:64
    a278:	4a000300 	eor	w0, w24, w0
/home/rahulmahadev/hikey_optee/optee_os/lib/libmpa/mpa_random.c:63
    a27c:	54fffee1 	b.ne	a258 <mpa_get_random+0x64>
/home/rahulmahadev/hikey_optee/optee_os/lib/libmpa/mpa_random.c:65 (discriminator 2)
    a280:	8b39ca61 	add	x1, x19, w25, sxtw #2
/home/rahulmahadev/hikey_optee/optee_os/lib/libmpa/mpa_random.c:61 (discriminator 2)
    a284:	11000739 	add	w25, w25, #0x1
/home/rahulmahadev/hikey_optee/optee_os/lib/libmpa/mpa_random.c:65 (discriminator 2)
    a288:	b9000820 	str	w0, [x1,#8]
    a28c:	17ffffee 	b	a244 <mpa_get_random+0x50>
/home/rahulmahadev/hikey_optee/optee_os/lib/libmpa/mpa_random.c:67
    a290:	b9800680 	ldrsw	x0, [x20,#4]
    a294:	ca80fc02 	eor	x2, x0, x0, asr #63
    a298:	cb80fc40 	sub	x0, x2, x0, asr #63
    a29c:	6b00003f 	cmp	w1, w0
    a2a0:	5400024b 	b.lt	a2e8 <mpa_get_random+0xf4>
/home/rahulmahadev/hikey_optee/optee_os/lib/libmpa/mpa_random.c:71
    a2a4:	aa1403e0 	mov	x0, x20
    a2a8:	97fff7cb 	bl	81d4 <mpa_highest_bit_index>
/home/rahulmahadev/hikey_optee/optee_os/lib/libmpa/mpa_random.c:73
    a2ac:	12001000 	and	w0, w0, #0x1f
    a2b0:	11000402 	add	w2, w0, #0x1
/home/rahulmahadev/hikey_optee/optee_os/lib/libmpa/mpa_random.c:74
    a2b4:	7100805f 	cmp	w2, #0x20
    a2b8:	54000100 	b.eq	a2d8 <mpa_get_random+0xe4>
    a2bc:	b9800661 	ldrsw	x1, [x19,#4]
/home/rahulmahadev/hikey_optee/optee_os/lib/libmpa/mpa_random.c:75
    a2c0:	1ac222e2 	lsl	w2, w23, w2
    a2c4:	51000442 	sub	w2, w2, #0x1
    a2c8:	8b010a61 	add	x1, x19, x1, lsl #2
/home/rahulmahadev/hikey_optee/optee_os/lib/libmpa/mpa_random.c:76
    a2cc:	b9400420 	ldr	w0, [x1,#4]
    a2d0:	0a020002 	and	w2, w0, w2
    a2d4:	b9000422 	str	w2, [x1,#4]
/home/rahulmahadev/hikey_optee/optee_os/lib/libmpa/mpa_random.c:78
    a2d8:	aa1403e1 	mov	x1, x20
    a2dc:	aa1303e0 	mov	x0, x19
    a2e0:	94000388 	bl	b100 <mpa_cmp>
/home/rahulmahadev/hikey_optee/optee_os/lib/libmpa/mpa_random.c:60
    a2e4:	36fffae0 	tbz	w0, #31, a240 <mpa_get_random+0x4c>
/home/rahulmahadev/hikey_optee/optee_os/lib/libmpa/mpa_random.c:81
    a2e8:	a94153f3 	ldp	x19, x20, [sp,#16]
    a2ec:	a9425bf5 	ldp	x21, x22, [sp,#32]
    a2f0:	a94363f7 	ldp	x23, x24, [sp,#48]
    a2f4:	a9446bf9 	ldp	x25, x26, [sp,#64]
    a2f8:	a8c67bfd 	ldp	x29, x30, [sp],#96
    a2fc:	d65f03c0 	ret

000000000000a300 <__mpa_shift_words_left>:
__mpa_shift_words_left():
/home/rahulmahadev/hikey_optee/optee_os/lib/libmpa/mpa_shift.c:41
    a300:	a9bd7bfd 	stp	x29, x30, [sp,#-48]!
    a304:	910003fd 	mov	x29, sp
    a308:	a90153f3 	stp	x19, x20, [sp,#16]
    a30c:	f90013f5 	str	x21, [sp,#32]
    a310:	2a0103f4 	mov	w20, w1
    a314:	aa0003f5 	mov	x21, x0
/home/rahulmahadev/hikey_optee/optee_os/lib/libmpa/mpa_shift.c:44
    a318:	34000381 	cbz	w1, a388 <__mpa_shift_words_left+0x88>
/home/rahulmahadev/hikey_optee/optee_os/lib/libmpa/mpa_shift.c:44 (discriminator 1)
    a31c:	b9400413 	ldr	w19, [x0,#4]
    a320:	34000353 	cbz	w19, a388 <__mpa_shift_words_left+0x88>
/home/rahulmahadev/hikey_optee/optee_os/lib/libmpa/mpa_shift.c:46
    a324:	93407e62 	sxtw	x2, w19
    a328:	ca82fc40 	eor	x0, x2, x2, asr #63
    a32c:	cb82fc02 	sub	x2, x0, x2, asr #63
    a330:	51000442 	sub	w2, w2, #0x1
    a334:	0b010042 	add	w2, w2, w1
    a338:	51000421 	sub	w1, w1, #0x1
/home/rahulmahadev/hikey_optee/optee_os/lib/libmpa/mpa_shift.c:46 (discriminator 1)
    a33c:	6b01005f 	cmp	w2, w1
    a340:	54000109 	b.ls	a360 <__mpa_shift_words_left+0x60>
/home/rahulmahadev/hikey_optee/optee_os/lib/libmpa/mpa_shift.c:47 (discriminator 3)
    a344:	4b140040 	sub	w0, w2, w20
    a348:	8b000aa0 	add	x0, x21, x0, lsl #2
    a34c:	b9400803 	ldr	w3, [x0,#8]
    a350:	8b224aa0 	add	x0, x21, w2, uxtw #2
/home/rahulmahadev/hikey_optee/optee_os/lib/libmpa/mpa_shift.c:46 (discriminator 3)
    a354:	51000442 	sub	w2, w2, #0x1
/home/rahulmahadev/hikey_optee/optee_os/lib/libmpa/mpa_shift.c:47 (discriminator 3)
    a358:	b9000803 	str	w3, [x0,#8]
    a35c:	17fffff8 	b	a33c <__mpa_shift_words_left+0x3c>
/home/rahulmahadev/hikey_optee/optee_os/lib/libmpa/mpa_shift.c:49
    a360:	d37e7682 	ubfiz	x2, x20, #2, #30
    a364:	52800001 	mov	w1, #0x0                   	// #0
    a368:	910022a0 	add	x0, x21, #0x8
    a36c:	97fff3a9 	bl	7210 <memset>
/home/rahulmahadev/hikey_optee/optee_os/lib/libmpa/mpa_shift.c:52
    a370:	6b1f027f 	cmp	w19, wzr
    a374:	5400006d 	b.le	a380 <__mpa_shift_words_left+0x80>
/home/rahulmahadev/hikey_optee/optee_os/lib/libmpa/mpa_shift.c:53
    a378:	0b130293 	add	w19, w20, w19
    a37c:	14000002 	b	a384 <__mpa_shift_words_left+0x84>
/home/rahulmahadev/hikey_optee/optee_os/lib/libmpa/mpa_shift.c:55
    a380:	4b140273 	sub	w19, w19, w20
    a384:	b90006b3 	str	w19, [x21,#4]
/home/rahulmahadev/hikey_optee/optee_os/lib/libmpa/mpa_shift.c:56
    a388:	a94153f3 	ldp	x19, x20, [sp,#16]
    a38c:	f94013f5 	ldr	x21, [sp,#32]
    a390:	a8c37bfd 	ldp	x29, x30, [sp],#48
    a394:	d65f03c0 	ret

000000000000a398 <__mpa_shift_words_right>:
__mpa_shift_words_right():
/home/rahulmahadev/hikey_optee/optee_os/lib/libmpa/mpa_shift.c:64
    a398:	aa0003e3 	mov	x3, x0
/home/rahulmahadev/hikey_optee/optee_os/lib/libmpa/mpa_shift.c:67
    a39c:	34000361 	cbz	w1, a408 <__mpa_shift_words_right+0x70>
/home/rahulmahadev/hikey_optee/optee_os/lib/libmpa/mpa_shift.c:67 (discriminator 1)
    a3a0:	b9400402 	ldr	w2, [x0,#4]
    a3a4:	34000322 	cbz	w2, a408 <__mpa_shift_words_right+0x70>
/home/rahulmahadev/hikey_optee/optee_os/lib/libmpa/mpa_shift.c:70
    a3a8:	93407c45 	sxtw	x5, w2
    a3ac:	ca85fca4 	eor	x4, x5, x5, asr #63
    a3b0:	cb85fc85 	sub	x5, x4, x5, asr #63
    a3b4:	d2800004 	mov	x4, #0x0                   	// #0
    a3b8:	6b05003f 	cmp	w1, w5
/home/rahulmahadev/hikey_optee/optee_os/lib/libmpa/mpa_shift.c:75
    a3bc:	4b0100a6 	sub	w6, w5, w1
/home/rahulmahadev/hikey_optee/optee_os/lib/libmpa/mpa_shift.c:70
    a3c0:	54000063 	b.cc	a3cc <__mpa_shift_words_right+0x34>
/home/rahulmahadev/hikey_optee/optee_os/lib/libmpa/mpa_shift.c:71
    a3c4:	52800001 	mov	w1, #0x0                   	// #0
    a3c8:	17fff9cb 	b	8af4 <mpa_set_word>
/home/rahulmahadev/hikey_optee/optee_os/lib/libmpa/mpa_shift.c:75 (discriminator 1)
    a3cc:	6b06009f 	cmp	w4, w6
    a3d0:	54000102 	b.cs	a3f0 <__mpa_shift_words_right+0x58>
/home/rahulmahadev/hikey_optee/optee_os/lib/libmpa/mpa_shift.c:76 (discriminator 3)
    a3d4:	0b040020 	add	w0, w1, w4
    a3d8:	8b000860 	add	x0, x3, x0, lsl #2
    a3dc:	b9400805 	ldr	w5, [x0,#8]
    a3e0:	8b040860 	add	x0, x3, x4, lsl #2
    a3e4:	91000484 	add	x4, x4, #0x1
    a3e8:	b9000805 	str	w5, [x0,#8]
    a3ec:	17fffff8 	b	a3cc <__mpa_shift_words_right+0x34>
/home/rahulmahadev/hikey_optee/optee_os/lib/libmpa/mpa_shift.c:79
    a3f0:	6b1f005f 	cmp	w2, wzr
    a3f4:	5400006d 	b.le	a400 <__mpa_shift_words_right+0x68>
/home/rahulmahadev/hikey_optee/optee_os/lib/libmpa/mpa_shift.c:80
    a3f8:	4b010042 	sub	w2, w2, w1
    a3fc:	14000002 	b	a404 <__mpa_shift_words_right+0x6c>
/home/rahulmahadev/hikey_optee/optee_os/lib/libmpa/mpa_shift.c:82
    a400:	0b020022 	add	w2, w1, w2
    a404:	b9000462 	str	w2, [x3,#4]
/home/rahulmahadev/hikey_optee/optee_os/lib/libmpa/mpa_shift.c:83
    a408:	d65f03c0 	ret

000000000000a40c <mpa_shift_left>:
mpa_shift_left():
/home/rahulmahadev/hikey_optee/optee_os/lib/libmpa/mpa_shift.c:98
    a40c:	a9bd7bfd 	stp	x29, x30, [sp,#-48]!
    a410:	910003fd 	mov	x29, sp
    a414:	a90153f3 	stp	x19, x20, [sp,#16]
    a418:	a9025bf5 	stp	x21, x22, [sp,#32]
    a41c:	2a0203f3 	mov	w19, w2
    a420:	aa0003f5 	mov	x21, x0
/home/rahulmahadev/hikey_optee/optee_os/lib/libmpa/mpa_shift.c:110
    a424:	97fff74c 	bl	8154 <mpa_copy>
/home/rahulmahadev/hikey_optee/optee_os/lib/libmpa/mpa_shift.c:111
    a428:	aa1503e0 	mov	x0, x21
    a42c:	97fff734 	bl	80fc <__mpa_set_unused_digits_to_zero>
/home/rahulmahadev/hikey_optee/optee_os/lib/libmpa/mpa_shift.c:112
    a430:	34000a93 	cbz	w19, a580 <mpa_shift_left+0x174>
/home/rahulmahadev/hikey_optee/optee_os/lib/libmpa/mpa_shift.c:112 (discriminator 1)
    a434:	b94006b6 	ldr	w22, [x21,#4]
    a438:	34000a56 	cbz	w22, a580 <mpa_shift_left+0x174>
/home/rahulmahadev/hikey_optee/optee_os/lib/libmpa/mpa_shift.c:131
    a43c:	93407ec3 	sxtw	x3, w22
/home/rahulmahadev/hikey_optee/optee_os/lib/libmpa/mpa_shift.c:115
    a440:	12001265 	and	w5, w19, #0x1f
/home/rahulmahadev/hikey_optee/optee_os/lib/libmpa/mpa_shift.c:131
    a444:	52800034 	mov	w20, #0x1                   	// #1
    a448:	52800406 	mov	w6, #0x20                  	// #32
    a44c:	ca83fc60 	eor	x0, x3, x3, asr #63
    a450:	1ac52284 	lsl	w4, w20, w5
    a454:	cb83fc03 	sub	x3, x0, x3, asr #63
    a458:	4b0500c6 	sub	w6, w6, w5
    a45c:	51000484 	sub	w4, w4, #0x1
    a460:	51000461 	sub	w1, w3, #0x1
    a464:	8b21caa0 	add	x0, x21, w1, sxtw #2
    a468:	b9400800 	ldr	w0, [x0,#8]
    a46c:	1ac62084 	lsl	w4, w4, w6
/home/rahulmahadev/hikey_optee/optee_os/lib/libmpa/mpa_shift.c:116
    a470:	53057e73 	lsr	w19, w19, #5
/home/rahulmahadev/hikey_optee/optee_os/lib/libmpa/mpa_shift.c:131
    a474:	6a00009f 	tst	w4, w0
    a478:	54000780 	b.eq	a568 <mpa_shift_left+0x15c>
/home/rahulmahadev/hikey_optee/optee_os/lib/libmpa/mpa_shift.c:134
    a47c:	35000325 	cbnz	w5, a4e0 <mpa_shift_left+0xd4>
/home/rahulmahadev/hikey_optee/optee_os/lib/libmpa/mpa_shift.c:138
    a480:	0b130021 	add	w1, w1, w19
    a484:	51000662 	sub	w2, w19, #0x1
/home/rahulmahadev/hikey_optee/optee_os/lib/libmpa/mpa_shift.c:138 (discriminator 1)
    a488:	6b02003f 	cmp	w1, w2
    a48c:	54000109 	b.ls	a4ac <mpa_shift_left+0xa0>
/home/rahulmahadev/hikey_optee/optee_os/lib/libmpa/mpa_shift.c:139 (discriminator 3)
    a490:	4b130020 	sub	w0, w1, w19
    a494:	8b000aa0 	add	x0, x21, x0, lsl #2
    a498:	b9400803 	ldr	w3, [x0,#8]
    a49c:	8b214aa0 	add	x0, x21, w1, uxtw #2
/home/rahulmahadev/hikey_optee/optee_os/lib/libmpa/mpa_shift.c:138 (discriminator 3)
    a4a0:	51000421 	sub	w1, w1, #0x1
/home/rahulmahadev/hikey_optee/optee_os/lib/libmpa/mpa_shift.c:139 (discriminator 3)
    a4a4:	b9000803 	str	w3, [x0,#8]
    a4a8:	17fffff8 	b	a488 <mpa_shift_left+0x7c>
/home/rahulmahadev/hikey_optee/optee_os/lib/libmpa/mpa_shift.c:161
    a4ac:	d37e6a62 	ubfiz	x2, x19, #2, #27
    a4b0:	52800001 	mov	w1, #0x0                   	// #0
    a4b4:	910022a0 	add	x0, x21, #0x8
    a4b8:	97fff356 	bl	7210 <memset>
/home/rahulmahadev/hikey_optee/optee_os/lib/libmpa/mpa_shift.c:163
    a4bc:	6b1f02df 	cmp	w22, wzr
    a4c0:	5400008d 	b.le	a4d0 <mpa_shift_left+0xc4>
    a4c4:	0b160273 	add	w19, w19, w22
/home/rahulmahadev/hikey_optee/optee_os/lib/libmpa/mpa_shift.c:164
    a4c8:	0b140274 	add	w20, w19, w20
    a4cc:	14000003 	b	a4d8 <mpa_shift_left+0xcc>
    a4d0:	4b1302d3 	sub	w19, w22, w19
/home/rahulmahadev/hikey_optee/optee_os/lib/libmpa/mpa_shift.c:166
    a4d4:	4b140274 	sub	w20, w19, w20
    a4d8:	b90006b4 	str	w20, [x21,#4]
    a4dc:	14000029 	b	a580 <mpa_shift_left+0x174>
    a4e0:	11000461 	add	w1, w3, #0x1
/home/rahulmahadev/hikey_optee/optee_os/lib/libmpa/mpa_shift.c:149
    a4e4:	8b234aa3 	add	x3, x21, w3, uxtw #2
    a4e8:	b9400863 	ldr	w3, [x3,#8]
/home/rahulmahadev/hikey_optee/optee_os/lib/libmpa/mpa_shift.c:147
    a4ec:	0b130021 	add	w1, w1, w19
    a4f0:	8b214aa0 	add	x0, x21, w1, uxtw #2
/home/rahulmahadev/hikey_optee/optee_os/lib/libmpa/mpa_shift.c:150
    a4f4:	b9400802 	ldr	w2, [x0,#8]
/home/rahulmahadev/hikey_optee/optee_os/lib/libmpa/mpa_shift.c:149
    a4f8:	1ac62463 	lsr	w3, w3, w6
/home/rahulmahadev/hikey_optee/optee_os/lib/libmpa/mpa_shift.c:150
    a4fc:	4a030043 	eor	w3, w2, w3
    a500:	b9000803 	str	w3, [x0,#8]
/home/rahulmahadev/hikey_optee/optee_os/lib/libmpa/mpa_shift.c:152
    a504:	51000423 	sub	w3, w1, #0x1
    a508:	4b130021 	sub	w1, w1, w19
/home/rahulmahadev/hikey_optee/optee_os/lib/libmpa/mpa_shift.c:153
    a50c:	4b130060 	sub	w0, w3, w19
    a510:	8b234aa2 	add	x2, x21, w3, uxtw #2
    a514:	51000821 	sub	w1, w1, #0x2
    a518:	8b000aa0 	add	x0, x21, x0, lsl #2
    a51c:	b9400800 	ldr	w0, [x0,#8]
    a520:	1ac52000 	lsl	w0, w0, w5
    a524:	b9000840 	str	w0, [x2,#8]
/home/rahulmahadev/hikey_optee/optee_os/lib/libmpa/mpa_shift.c:154
    a528:	6b13007f 	cmp	w3, w19
    a52c:	54fffc09 	b.ls	a4ac <mpa_shift_left+0xa0>
/home/rahulmahadev/hikey_optee/optee_os/lib/libmpa/mpa_shift.c:155
    a530:	8b214aa0 	add	x0, x21, w1, uxtw #2
    a534:	b9400804 	ldr	w4, [x0,#8]
    a538:	8b234aa2 	add	x2, x21, w3, uxtw #2
/home/rahulmahadev/hikey_optee/optee_os/lib/libmpa/mpa_shift.c:156
    a53c:	b9400847 	ldr	w7, [x2,#8]
/home/rahulmahadev/hikey_optee/optee_os/lib/libmpa/mpa_shift.c:155
    a540:	1ac62484 	lsr	w4, w4, w6
/home/rahulmahadev/hikey_optee/optee_os/lib/libmpa/mpa_shift.c:157
    a544:	51000463 	sub	w3, w3, #0x1
/home/rahulmahadev/hikey_optee/optee_os/lib/libmpa/mpa_shift.c:156
    a548:	4a0400e4 	eor	w4, w7, w4
    a54c:	b9000844 	str	w4, [x2,#8]
    a550:	51000421 	sub	w1, w1, #0x1
/home/rahulmahadev/hikey_optee/optee_os/lib/libmpa/mpa_shift.c:158
    a554:	8b234aa2 	add	x2, x21, w3, uxtw #2
    a558:	b9400800 	ldr	w0, [x0,#8]
    a55c:	1ac52000 	lsl	w0, w0, w5
    a560:	b9000840 	str	w0, [x2,#8]
    a564:	17fffff1 	b	a528 <mpa_shift_left+0x11c>
/home/rahulmahadev/hikey_optee/optee_os/lib/libmpa/mpa_shift.c:134
    a568:	35000065 	cbnz	w5, a574 <mpa_shift_left+0x168>
/home/rahulmahadev/hikey_optee/optee_os/lib/libmpa/mpa_shift.c:130
    a56c:	52800014 	mov	w20, #0x0                   	// #0
    a570:	17ffffc4 	b	a480 <mpa_shift_left+0x74>
/home/rahulmahadev/hikey_optee/optee_os/lib/libmpa/mpa_shift.c:147
    a574:	0b030261 	add	w1, w19, w3
/home/rahulmahadev/hikey_optee/optee_os/lib/libmpa/mpa_shift.c:130
    a578:	52800014 	mov	w20, #0x0                   	// #0
    a57c:	17ffffe2 	b	a504 <mpa_shift_left+0xf8>
/home/rahulmahadev/hikey_optee/optee_os/lib/libmpa/mpa_shift.c:167
    a580:	a94153f3 	ldp	x19, x20, [sp,#16]
    a584:	a9425bf5 	ldp	x21, x22, [sp,#32]
    a588:	a8c37bfd 	ldp	x29, x30, [sp],#48
    a58c:	d65f03c0 	ret

000000000000a590 <mpa_shift_right>:
mpa_shift_right():
/home/rahulmahadev/hikey_optee/optee_os/lib/libmpa/mpa_shift.c:178
    a590:	a9bd7bfd 	stp	x29, x30, [sp,#-48]!
    a594:	910003fd 	mov	x29, sp
    a598:	f9000bf3 	str	x19, [sp,#16]
    a59c:	aa0003f3 	mov	x19, x0
    a5a0:	b9002fa2 	str	w2, [x29,#44]
/home/rahulmahadev/hikey_optee/optee_os/lib/libmpa/mpa_shift.c:189
    a5a4:	97fff6ec 	bl	8154 <mpa_copy>
/home/rahulmahadev/hikey_optee/optee_os/lib/libmpa/mpa_shift.c:190
    a5a8:	aa1303e0 	mov	x0, x19
    a5ac:	97fff6d4 	bl	80fc <__mpa_set_unused_digits_to_zero>
/home/rahulmahadev/hikey_optee/optee_os/lib/libmpa/mpa_shift.c:191
    a5b0:	b9402fa2 	ldr	w2, [x29,#44]
    a5b4:	340009c2 	cbz	w2, a6ec <mpa_shift_right+0x15c>
/home/rahulmahadev/hikey_optee/optee_os/lib/libmpa/mpa_shift.c:191 (discriminator 1)
    a5b8:	b9400660 	ldr	w0, [x19,#4]
    a5bc:	34000980 	cbz	w0, a6ec <mpa_shift_right+0x15c>
/home/rahulmahadev/hikey_optee/optee_os/lib/libmpa/mpa_shift.c:197
    a5c0:	93407c01 	sxtw	x1, w0
/home/rahulmahadev/hikey_optee/optee_os/lib/libmpa/mpa_shift.c:194
    a5c4:	12001043 	and	w3, w2, #0x1f
/home/rahulmahadev/hikey_optee/optee_os/lib/libmpa/mpa_shift.c:195
    a5c8:	53057c42 	lsr	w2, w2, #5
/home/rahulmahadev/hikey_optee/optee_os/lib/libmpa/mpa_shift.c:197
    a5cc:	ca81fc24 	eor	x4, x1, x1, asr #63
    a5d0:	cb81fc81 	sub	x1, x4, x1, asr #63
    a5d4:	6b01005f 	cmp	w2, w1
    a5d8:	2a0103e4 	mov	w4, w1
    a5dc:	540000c3 	b.cc	a5f4 <mpa_shift_right+0x64>
/home/rahulmahadev/hikey_optee/optee_os/lib/libmpa/mpa_shift.c:198
    a5e0:	aa1303e0 	mov	x0, x19
/home/rahulmahadev/hikey_optee/optee_os/lib/libmpa/mpa_shift.c:236
    a5e4:	f9400bf3 	ldr	x19, [sp,#16]
    a5e8:	a8c37bfd 	ldp	x29, x30, [sp],#48
/home/rahulmahadev/hikey_optee/optee_os/lib/libmpa/mpa_shift.c:198
    a5ec:	52800001 	mov	w1, #0x0                   	// #0
    a5f0:	17fff941 	b	8af4 <mpa_set_word>
/home/rahulmahadev/hikey_optee/optee_os/lib/libmpa/mpa_shift.c:207
    a5f4:	34000123 	cbz	w3, a618 <mpa_shift_right+0x88>
/home/rahulmahadev/hikey_optee/optee_os/lib/libmpa/mpa_shift.c:215
    a5f8:	52800025 	mov	w5, #0x1                   	// #1
/home/rahulmahadev/hikey_optee/optee_os/lib/libmpa/mpa_shift.c:217
    a5fc:	52800409 	mov	w9, #0x20                  	// #32
/home/rahulmahadev/hikey_optee/optee_os/lib/libmpa/mpa_shift.c:215
    a600:	1ac320a5 	lsl	w5, w5, w3
    a604:	91002268 	add	x8, x19, #0x8
    a608:	510004a5 	sub	w5, w5, #0x1
    a60c:	2a0203e1 	mov	w1, w2
/home/rahulmahadev/hikey_optee/optee_os/lib/libmpa/mpa_shift.c:217
    a610:	4b030129 	sub	w9, w9, w3
    a614:	1400000c 	b	a644 <mpa_shift_right+0xb4>
    a618:	d2800001 	mov	x1, #0x0                   	// #0
/home/rahulmahadev/hikey_optee/optee_os/lib/libmpa/mpa_shift.c:209
    a61c:	4b020084 	sub	w4, w4, w2
/home/rahulmahadev/hikey_optee/optee_os/lib/libmpa/mpa_shift.c:209 (discriminator 1)
    a620:	6b04003f 	cmp	w1, w4
    a624:	540003c2 	b.cs	a69c <mpa_shift_right+0x10c>
/home/rahulmahadev/hikey_optee/optee_os/lib/libmpa/mpa_shift.c:210 (discriminator 3)
    a628:	0b010043 	add	w3, w2, w1
    a62c:	8b030a63 	add	x3, x19, x3, lsl #2
    a630:	b9400865 	ldr	w5, [x3,#8]
    a634:	8b010a63 	add	x3, x19, x1, lsl #2
    a638:	91000421 	add	x1, x1, #0x1
    a63c:	b9000865 	str	w5, [x3,#8]
    a640:	17fffff8 	b	a620 <mpa_shift_right+0x90>
    a644:	11000427 	add	w7, w1, #0x1
    a648:	51000486 	sub	w6, w4, #0x1
/home/rahulmahadev/hikey_optee/optee_os/lib/libmpa/mpa_shift.c:213 (discriminator 1)
    a64c:	6b0400ff 	cmp	w7, w4
    a650:	540001a0 	b.eq	a684 <mpa_shift_right+0xf4>
/home/rahulmahadev/hikey_optee/optee_os/lib/libmpa/mpa_shift.c:214 (discriminator 3)
    a654:	8b214a61 	add	x1, x19, w1, uxtw #2
    a658:	b9400821 	ldr	w1, [x1,#8]
    a65c:	b9000101 	str	w1, [x8]
/home/rahulmahadev/hikey_optee/optee_os/lib/libmpa/mpa_shift.c:215 (discriminator 3)
    a660:	8b274a66 	add	x6, x19, w7, uxtw #2
/home/rahulmahadev/hikey_optee/optee_os/lib/libmpa/mpa_shift.c:217 (discriminator 3)
    a664:	1ac32421 	lsr	w1, w1, w3
/home/rahulmahadev/hikey_optee/optee_os/lib/libmpa/mpa_shift.c:215 (discriminator 3)
    a668:	b94008c6 	ldr	w6, [x6,#8]
    a66c:	0a0600a6 	and	w6, w5, w6
/home/rahulmahadev/hikey_optee/optee_os/lib/libmpa/mpa_shift.c:217 (discriminator 3)
    a670:	1ac920c6 	lsl	w6, w6, w9
    a674:	4a0100c1 	eor	w1, w6, w1
/home/rahulmahadev/hikey_optee/optee_os/lib/libmpa/mpa_shift.c:216 (discriminator 3)
    a678:	b8004501 	str	w1, [x8],#4
    a67c:	2a0703e1 	mov	w1, w7
    a680:	17fffff1 	b	a644 <mpa_shift_right+0xb4>
/home/rahulmahadev/hikey_optee/optee_os/lib/libmpa/mpa_shift.c:220
    a684:	4b0200c1 	sub	w1, w6, w2
    a688:	8b264a66 	add	x6, x19, w6, uxtw #2
    a68c:	b94008c4 	ldr	w4, [x6,#8]
    a690:	8b010a61 	add	x1, x19, x1, lsl #2
    a694:	1ac32483 	lsr	w3, w4, w3
    a698:	b9000823 	str	w3, [x1,#8]
/home/rahulmahadev/hikey_optee/optee_os/lib/libmpa/mpa_shift.c:224
    a69c:	6b1f001f 	cmp	w0, wzr
    a6a0:	5400006d 	b.le	a6ac <mpa_shift_right+0x11c>
/home/rahulmahadev/hikey_optee/optee_os/lib/libmpa/mpa_shift.c:225
    a6a4:	4b020002 	sub	w2, w0, w2
    a6a8:	14000002 	b	a6b0 <mpa_shift_right+0x120>
/home/rahulmahadev/hikey_optee/optee_os/lib/libmpa/mpa_shift.c:227
    a6ac:	0b000042 	add	w2, w2, w0
    a6b0:	b9000662 	str	w2, [x19,#4]
/home/rahulmahadev/hikey_optee/optee_os/lib/libmpa/mpa_shift.c:230
    a6b4:	b9400660 	ldr	w0, [x19,#4]
    a6b8:	93407c01 	sxtw	x1, w0
    a6bc:	ca81fc22 	eor	x2, x1, x1, asr #63
    a6c0:	cb81fc41 	sub	x1, x2, x1, asr #63
    a6c4:	51000421 	sub	w1, w1, #0x1
    a6c8:	8b21ca61 	add	x1, x19, w1, sxtw #2
    a6cc:	b9400821 	ldr	w1, [x1,#8]
    a6d0:	350000e1 	cbnz	w1, a6ec <mpa_shift_right+0x15c>
/home/rahulmahadev/hikey_optee/optee_os/lib/libmpa/mpa_shift.c:231
    a6d4:	6b1f001f 	cmp	w0, wzr
    a6d8:	5400006d 	b.le	a6e4 <mpa_shift_right+0x154>
/home/rahulmahadev/hikey_optee/optee_os/lib/libmpa/mpa_shift.c:232
    a6dc:	51000400 	sub	w0, w0, #0x1
    a6e0:	14000002 	b	a6e8 <mpa_shift_right+0x158>
/home/rahulmahadev/hikey_optee/optee_os/lib/libmpa/mpa_shift.c:234
    a6e4:	11000400 	add	w0, w0, #0x1
    a6e8:	b9000660 	str	w0, [x19,#4]
/home/rahulmahadev/hikey_optee/optee_os/lib/libmpa/mpa_shift.c:236
    a6ec:	f9400bf3 	ldr	x19, [sp,#16]
    a6f0:	a8c37bfd 	ldp	x29, x30, [sp],#48
    a6f4:	d65f03c0 	ret

000000000000a6f8 <__mpa_full_adder>:
__mpa_full_adder():
/home/rahulmahadev/hikey_optee/optee_os/lib/libmpa/mpa_addsub.c:54
    a6f8:	b9400064 	ldr	w4, [x3]
    a6fc:	8b214081 	add	x1, x4, w1, uxtw
    a700:	8b204020 	add	x0, x1, w0, uxtw
/home/rahulmahadev/hikey_optee/optee_os/lib/libmpa/mpa_addsub.c:55
    a704:	b9000040 	str	w0, [x2]
/home/rahulmahadev/hikey_optee/optee_os/lib/libmpa/mpa_addsub.c:56
    a708:	d360fc00 	lsr	x0, x0, #32
    a70c:	b9000060 	str	w0, [x3]
/home/rahulmahadev/hikey_optee/optee_os/lib/libmpa/mpa_addsub.c:63
    a710:	d65f03c0 	ret

000000000000a714 <__mpa_full_sub>:
__mpa_full_sub():
/home/rahulmahadev/hikey_optee/optee_os/lib/libmpa/mpa_addsub.c:77
    a714:	2a0003e0 	mov	w0, w0
    a718:	cb214001 	sub	x1, x0, w1, uxtw
    a71c:	b9400060 	ldr	w0, [x3]
    a720:	cb000021 	sub	x1, x1, x0
/home/rahulmahadev/hikey_optee/optee_os/lib/libmpa/mpa_addsub.c:78
    a724:	b9000041 	str	w1, [x2]
/home/rahulmahadev/hikey_optee/optee_os/lib/libmpa/mpa_addsub.c:79
    a728:	d360fc21 	lsr	x1, x1, #32
    a72c:	4b0103e1 	neg	w1, w1
    a730:	b9000061 	str	w1, [x3]
/home/rahulmahadev/hikey_optee/optee_os/lib/libmpa/mpa_addsub.c:88
    a734:	d65f03c0 	ret

000000000000a738 <__mpa_full_adder_ackum>:
__mpa_full_adder_ackum():
/home/rahulmahadev/hikey_optee/optee_os/lib/libmpa/mpa_addsub.c:101
    a738:	b9400043 	ldr	w3, [x2]
    a73c:	8b214061 	add	x1, x3, w1, uxtw
    a740:	b9400003 	ldr	w3, [x0]
    a744:	8b030021 	add	x1, x1, x3
/home/rahulmahadev/hikey_optee/optee_os/lib/libmpa/mpa_addsub.c:102
    a748:	b9000001 	str	w1, [x0]
/home/rahulmahadev/hikey_optee/optee_os/lib/libmpa/mpa_addsub.c:103
    a74c:	d360fc21 	lsr	x1, x1, #32
    a750:	b9000041 	str	w1, [x2]
/home/rahulmahadev/hikey_optee/optee_os/lib/libmpa/mpa_addsub.c:111
    a754:	d65f03c0 	ret

000000000000a758 <__mpa_abs_add>:
__mpa_abs_add():
/home/rahulmahadev/hikey_optee/optee_os/lib/libmpa/mpa_addsub.c:127
    a758:	a9bd7bfd 	stp	x29, x30, [sp,#-48]!
/home/rahulmahadev/hikey_optee/optee_os/lib/libmpa/mpa_addsub.c:137
    a75c:	6b05007f 	cmp	w3, w5
/home/rahulmahadev/hikey_optee/optee_os/lib/libmpa/mpa_addsub.c:127
    a760:	910003fd 	mov	x29, sp
    a764:	a90153f3 	stp	x19, x20, [sp,#16]
    a768:	f90013f5 	str	x21, [sp,#32]
    a76c:	aa0003f4 	mov	x20, x0
    a770:	aa0103f5 	mov	x21, x1
/home/rahulmahadev/hikey_optee/optee_os/lib/libmpa/mpa_addsub.c:137
    a774:	540000ec 	b.gt	a790 <__mpa_abs_add+0x38>
    a778:	2a0503e0 	mov	w0, w5
    a77c:	2a0303e5 	mov	w5, w3
    a780:	2a0003e3 	mov	w3, w0
    a784:	aa0403e0 	mov	x0, x4
/home/rahulmahadev/hikey_optee/optee_os/lib/libmpa/mpa_addsub.c:144
    a788:	aa0203e4 	mov	x4, x2
/home/rahulmahadev/hikey_optee/optee_os/lib/libmpa/mpa_addsub.c:143
    a78c:	aa0003e2 	mov	x2, x0
/home/rahulmahadev/hikey_optee/optee_os/lib/libmpa/mpa_addsub.c:152
    a790:	d2800007 	mov	x7, #0x0                   	// #0
/home/rahulmahadev/hikey_optee/optee_os/lib/libmpa/mpa_addsub.c:150
    a794:	52800006 	mov	w6, #0x0                   	// #0
/home/rahulmahadev/hikey_optee/optee_os/lib/libmpa/mpa_addsub.c:152
    a798:	6b0700bf 	cmp	w5, w7
    a79c:	5400014d 	b.le	a7c4 <__mpa_abs_add+0x6c>
__mpa_full_adder():
/home/rahulmahadev/hikey_optee/optee_os/lib/libmpa/mpa_addsub.c:54
    a7a0:	b8677881 	ldr	w1, [x4,x7,lsl #2]
    a7a4:	2a0603e6 	mov	w6, w6
    a7a8:	b8677840 	ldr	w0, [x2,x7,lsl #2]
    a7ac:	8b000020 	add	x0, x1, x0
    a7b0:	8b060006 	add	x6, x0, x6
/home/rahulmahadev/hikey_optee/optee_os/lib/libmpa/mpa_addsub.c:55
    a7b4:	b8277a86 	str	w6, [x20,x7,lsl #2]
/home/rahulmahadev/hikey_optee/optee_os/lib/libmpa/mpa_addsub.c:56
    a7b8:	d360fcc6 	lsr	x6, x6, #32
    a7bc:	910004e7 	add	x7, x7, #0x1
    a7c0:	17fffff6 	b	a798 <__mpa_abs_add+0x40>
    a7c4:	6b1f00bf 	cmp	w5, wzr
    a7c8:	1a9fa0a5 	csel	w5, w5, wzr, ge
    a7cc:	937e7ca7 	sbfiz	x7, x5, #2, #32
    a7d0:	8b070284 	add	x4, x20, x7
    a7d4:	8b070041 	add	x1, x2, x7
__mpa_abs_add():
/home/rahulmahadev/hikey_optee/optee_os/lib/libmpa/mpa_addsub.c:156
    a7d8:	6b0300bf 	cmp	w5, w3
    a7dc:	34000166 	cbz	w6, a808 <__mpa_abs_add+0xb0>
    a7e0:	91001082 	add	x2, x4, #0x4
/home/rahulmahadev/hikey_optee/optee_os/lib/libmpa/mpa_addsub.c:156 (discriminator 1)
    a7e4:	5400022a 	b.ge	a828 <__mpa_abs_add+0xd0>
__mpa_full_adder():
/home/rahulmahadev/hikey_optee/optee_os/lib/libmpa/mpa_addsub.c:54
    a7e8:	b8404420 	ldr	w0, [x1],#4
    a7ec:	2a0603e6 	mov	w6, w6
__mpa_abs_add():
/home/rahulmahadev/hikey_optee/optee_os/lib/libmpa/mpa_addsub.c:157
    a7f0:	aa0203e4 	mov	x4, x2
/home/rahulmahadev/hikey_optee/optee_os/lib/libmpa/mpa_addsub.c:158
    a7f4:	110004a5 	add	w5, w5, #0x1
__mpa_full_adder():
/home/rahulmahadev/hikey_optee/optee_os/lib/libmpa/mpa_addsub.c:54
    a7f8:	8b060006 	add	x6, x0, x6
/home/rahulmahadev/hikey_optee/optee_os/lib/libmpa/mpa_addsub.c:55
    a7fc:	b81fc046 	str	w6, [x2,#-4]
/home/rahulmahadev/hikey_optee/optee_os/lib/libmpa/mpa_addsub.c:56
    a800:	d360fcc6 	lsr	x6, x6, #32
    a804:	17fffff5 	b	a7d8 <__mpa_abs_add+0x80>
__mpa_abs_add():
/home/rahulmahadev/hikey_optee/optee_os/lib/libmpa/mpa_addsub.c:161
    a808:	5400020a 	b.ge	a848 <__mpa_abs_add+0xf0>
/home/rahulmahadev/hikey_optee/optee_os/lib/libmpa/mpa_addsub.c:163
    a80c:	4b050073 	sub	w19, w3, w5
    a810:	aa0403e0 	mov	x0, x4
    a814:	531e7662 	lsl	w2, w19, #2
    a818:	93407c42 	sxtw	x2, w2
    a81c:	97fff261 	bl	71a0 <memcpy>
/home/rahulmahadev/hikey_optee/optee_os/lib/libmpa/mpa_addsub.c:164
    a820:	8b33c804 	add	x4, x0, w19, sxtw #2
    a824:	14000009 	b	a848 <__mpa_abs_add+0xf0>
/home/rahulmahadev/hikey_optee/optee_os/lib/libmpa/mpa_addsub.c:168
    a828:	b9000086 	str	w6, [x4]
/home/rahulmahadev/hikey_optee/optee_os/lib/libmpa/mpa_addsub.c:169
    a82c:	cb140042 	sub	x2, x2, x20
    a830:	9342fc42 	asr	x2, x2, #2
    a834:	b90002a2 	str	w2, [x21]
/home/rahulmahadev/hikey_optee/optee_os/lib/libmpa/mpa_addsub.c:170
    a838:	a94153f3 	ldp	x19, x20, [sp,#16]
    a83c:	f94013f5 	ldr	x21, [sp,#32]
    a840:	a8c37bfd 	ldp	x29, x30, [sp],#48
    a844:	d65f03c0 	ret
    a848:	aa0403e2 	mov	x2, x4
    a84c:	17fffff8 	b	a82c <__mpa_abs_add+0xd4>

000000000000a850 <__mpa_abs_add_ackum>:
__mpa_abs_add_ackum():
/home/rahulmahadev/hikey_optee/optee_os/lib/libmpa/mpa_addsub.c:179
    a850:	a9bb7bfd 	stp	x29, x30, [sp,#-80]!
    a854:	910003fd 	mov	x29, sp
    a858:	a90153f3 	stp	x19, x20, [sp,#16]
/home/rahulmahadev/hikey_optee/optee_os/lib/libmpa/mpa_addsub.c:187
    a85c:	b9400422 	ldr	w2, [x1,#4]
/home/rahulmahadev/hikey_optee/optee_os/lib/libmpa/mpa_addsub.c:179
    a860:	aa0003f3 	mov	x19, x0
/home/rahulmahadev/hikey_optee/optee_os/lib/libmpa/mpa_addsub.c:187
    a864:	b9400400 	ldr	w0, [x0,#4]
/home/rahulmahadev/hikey_optee/optee_os/lib/libmpa/mpa_addsub.c:197
    a868:	d2800014 	mov	x20, #0x0                   	// #0
/home/rahulmahadev/hikey_optee/optee_os/lib/libmpa/mpa_addsub.c:179
    a86c:	a9025bf5 	stp	x21, x22, [sp,#32]
    a870:	6b000042 	subs	w2, w2, w0
/home/rahulmahadev/hikey_optee/optee_os/lib/libmpa/mpa_addsub.c:196
    a874:	910143b6 	add	x22, x29, #0x50
    a878:	1a9f5042 	csel	w2, w2, wzr, pl
/home/rahulmahadev/hikey_optee/optee_os/lib/libmpa/mpa_addsub.c:179
    a87c:	aa0103f5 	mov	x21, x1
/home/rahulmahadev/hikey_optee/optee_os/lib/libmpa/mpa_addsub.c:190
    a880:	11000442 	add	w2, w2, #0x1
    a884:	8b20ca60 	add	x0, x19, w0, sxtw #2
    a888:	531e7442 	lsl	w2, w2, #2
    a88c:	52800001 	mov	w1, #0x0                   	// #0
    a890:	91002000 	add	x0, x0, #0x8
    a894:	93407c42 	sxtw	x2, w2
/home/rahulmahadev/hikey_optee/optee_os/lib/libmpa/mpa_addsub.c:179
    a898:	a90363f7 	stp	x23, x24, [sp,#48]
/home/rahulmahadev/hikey_optee/optee_os/lib/libmpa/mpa_addsub.c:190
    a89c:	97fff25d 	bl	7210 <memset>
/home/rahulmahadev/hikey_optee/optee_os/lib/libmpa/mpa_addsub.c:192
    a8a0:	91002277 	add	x23, x19, #0x8
/home/rahulmahadev/hikey_optee/optee_os/lib/libmpa/mpa_addsub.c:193
    a8a4:	910022b8 	add	x24, x21, #0x8
/home/rahulmahadev/hikey_optee/optee_os/lib/libmpa/mpa_addsub.c:196
    a8a8:	b81fcedf 	str	wzr, [x22,#-4]!
/home/rahulmahadev/hikey_optee/optee_os/lib/libmpa/mpa_addsub.c:197
    a8ac:	b94006a1 	ldr	w1, [x21,#4]
    a8b0:	8b140ae0 	add	x0, x23, x20, lsl #2
    a8b4:	6b14003f 	cmp	w1, w20
    a8b8:	540000cd 	b.le	a8d0 <__mpa_abs_add_ackum+0x80>
/home/rahulmahadev/hikey_optee/optee_os/lib/libmpa/mpa_addsub.c:198
    a8bc:	b8747b01 	ldr	w1, [x24,x20,lsl #2]
    a8c0:	aa1603e2 	mov	x2, x22
    a8c4:	91000694 	add	x20, x20, #0x1
    a8c8:	97ffff9c 	bl	a738 <__mpa_full_adder_ackum>
    a8cc:	17fffff8 	b	a8ac <__mpa_abs_add_ackum+0x5c>
/home/rahulmahadev/hikey_optee/optee_os/lib/libmpa/mpa_addsub.c:208
    a8d0:	910133b4 	add	x20, x29, #0x4c
/home/rahulmahadev/hikey_optee/optee_os/lib/libmpa/mpa_addsub.c:207
    a8d4:	b9404fa1 	ldr	w1, [x29,#76]
    a8d8:	340000e1 	cbz	w1, a8f4 <__mpa_abs_add_ackum+0xa4>
/home/rahulmahadev/hikey_optee/optee_os/lib/libmpa/mpa_addsub.c:208
    a8dc:	aa1403e2 	mov	x2, x20
    a8e0:	52800001 	mov	w1, #0x0                   	// #0
    a8e4:	91001015 	add	x21, x0, #0x4
    a8e8:	97ffff94 	bl	a738 <__mpa_full_adder_ackum>
    a8ec:	aa1503e0 	mov	x0, x21
    a8f0:	17fffff9 	b	a8d4 <__mpa_abs_add_ackum+0x84>
/home/rahulmahadev/hikey_optee/optee_os/lib/libmpa/mpa_addsub.c:215
    a8f4:	cb170001 	sub	x1, x0, x23
/home/rahulmahadev/hikey_optee/optee_os/lib/libmpa/mpa_addsub.c:216
    a8f8:	b9400660 	ldr	w0, [x19,#4]
/home/rahulmahadev/hikey_optee/optee_os/lib/libmpa/mpa_addsub.c:215
    a8fc:	9342fc21 	asr	x1, x1, #2
/home/rahulmahadev/hikey_optee/optee_os/lib/libmpa/mpa_addsub.c:216
    a900:	6b00003f 	cmp	w1, w0
    a904:	5400004d 	b.le	a90c <__mpa_abs_add_ackum+0xbc>
/home/rahulmahadev/hikey_optee/optee_os/lib/libmpa/mpa_addsub.c:217
    a908:	b9000661 	str	w1, [x19,#4]
/home/rahulmahadev/hikey_optee/optee_os/lib/libmpa/mpa_addsub.c:218
    a90c:	a94153f3 	ldp	x19, x20, [sp,#16]
    a910:	a9425bf5 	ldp	x21, x22, [sp,#32]
    a914:	a94363f7 	ldp	x23, x24, [sp,#48]
    a918:	a8c57bfd 	ldp	x29, x30, [sp],#80
    a91c:	d65f03c0 	ret

000000000000a920 <__mpa_abs_sub>:
__mpa_abs_sub():
/home/rahulmahadev/hikey_optee/optee_os/lib/libmpa/mpa_addsub.c:233
    a920:	a9b97bfd 	stp	x29, x30, [sp,#-112]!
    a924:	910003fd 	mov	x29, sp
    a928:	a90363f7 	stp	x23, x24, [sp,#48]
/home/rahulmahadev/hikey_optee/optee_os/lib/libmpa/mpa_addsub.c:237
    a92c:	9101c3b8 	add	x24, x29, #0x70
/home/rahulmahadev/hikey_optee/optee_os/lib/libmpa/mpa_addsub.c:233
    a930:	f90023f9 	str	x25, [sp,#64]
    a934:	a90153f3 	stp	x19, x20, [sp,#16]
    a938:	a9025bf5 	stp	x21, x22, [sp,#32]
    a93c:	aa0003f4 	mov	x20, x0
    a940:	aa0103f7 	mov	x23, x1
    a944:	aa0203f9 	mov	x25, x2
    a948:	2a0303f5 	mov	w21, w3
    a94c:	2a0503f3 	mov	w19, w5
/home/rahulmahadev/hikey_optee/optee_os/lib/libmpa/mpa_addsub.c:237
    a950:	b81fcf1f 	str	wzr, [x24,#-4]!
/home/rahulmahadev/hikey_optee/optee_os/lib/libmpa/mpa_addsub.c:239
    a954:	d2800016 	mov	x22, #0x0                   	// #0
    a958:	6b16027f 	cmp	w19, w22
    a95c:	8b160a82 	add	x2, x20, x22, lsl #2
    a960:	5400012d 	b.le	a984 <__mpa_abs_sub+0x64>
/home/rahulmahadev/hikey_optee/optee_os/lib/libmpa/mpa_addsub.c:240
    a964:	b8767881 	ldr	w1, [x4,x22,lsl #2]
    a968:	aa1803e3 	mov	x3, x24
    a96c:	b8767b20 	ldr	w0, [x25,x22,lsl #2]
    a970:	910006d6 	add	x22, x22, #0x1
    a974:	f9002fa4 	str	x4, [x29,#88]
    a978:	97ffff67 	bl	a714 <__mpa_full_sub>
    a97c:	f9402fa4 	ldr	x4, [x29,#88]
    a980:	17fffff6 	b	a958 <__mpa_abs_sub+0x38>
    a984:	6b1f027f 	cmp	w19, wzr
/home/rahulmahadev/hikey_optee/optee_os/lib/libmpa/mpa_addsub.c:248
    a988:	9101b3b6 	add	x22, x29, #0x6c
    a98c:	1a9fa273 	csel	w19, w19, wzr, ge
    a990:	937e7e60 	sbfiz	x0, x19, #2, #32
    a994:	8b000284 	add	x4, x20, x0
    a998:	8b000334 	add	x20, x25, x0
/home/rahulmahadev/hikey_optee/optee_os/lib/libmpa/mpa_addsub.c:247
    a99c:	b9406fa0 	ldr	w0, [x29,#108]
    a9a0:	6b15027f 	cmp	w19, w21
    a9a4:	34000160 	cbz	w0, a9d0 <__mpa_abs_sub+0xb0>
/home/rahulmahadev/hikey_optee/optee_os/lib/libmpa/mpa_addsub.c:247 (discriminator 1)
    a9a8:	540002ca 	b.ge	aa00 <__mpa_abs_sub+0xe0>
/home/rahulmahadev/hikey_optee/optee_os/lib/libmpa/mpa_addsub.c:248
    a9ac:	b8404680 	ldr	w0, [x20],#4
    a9b0:	aa0403e2 	mov	x2, x4
    a9b4:	aa1603e3 	mov	x3, x22
    a9b8:	52800001 	mov	w1, #0x0                   	// #0
    a9bc:	91001098 	add	x24, x4, #0x4
/home/rahulmahadev/hikey_optee/optee_os/lib/libmpa/mpa_addsub.c:249
    a9c0:	11000673 	add	w19, w19, #0x1
/home/rahulmahadev/hikey_optee/optee_os/lib/libmpa/mpa_addsub.c:248
    a9c4:	97ffff54 	bl	a714 <__mpa_full_sub>
    a9c8:	aa1803e4 	mov	x4, x24
    a9cc:	17fffff4 	b	a99c <__mpa_abs_sub+0x7c>
/home/rahulmahadev/hikey_optee/optee_os/lib/libmpa/mpa_addsub.c:252
    a9d0:	5400018a 	b.ge	aa00 <__mpa_abs_sub+0xe0>
/home/rahulmahadev/hikey_optee/optee_os/lib/libmpa/mpa_addsub.c:257
    a9d4:	4b1302b3 	sub	w19, w21, w19
    a9d8:	aa0403e0 	mov	x0, x4
    a9dc:	531e7662 	lsl	w2, w19, #2
    a9e0:	aa1403e1 	mov	x1, x20
    a9e4:	93407c42 	sxtw	x2, w2
    a9e8:	97fff1ee 	bl	71a0 <memcpy>
/home/rahulmahadev/hikey_optee/optee_os/lib/libmpa/mpa_addsub.c:258
    a9ec:	8b33c804 	add	x4, x0, w19, sxtw #2
/home/rahulmahadev/hikey_optee/optee_os/lib/libmpa/mpa_addsub.c:262
    a9f0:	14000004 	b	aa00 <__mpa_abs_sub+0xe0>
/home/rahulmahadev/hikey_optee/optee_os/lib/libmpa/mpa_addsub.c:262 (discriminator 1)
    a9f4:	b85fcc80 	ldr	w0, [x4,#-4]!
    a9f8:	35000080 	cbnz	w0, aa08 <__mpa_abs_sub+0xe8>
/home/rahulmahadev/hikey_optee/optee_os/lib/libmpa/mpa_addsub.c:263
    a9fc:	510006b5 	sub	w21, w21, #0x1
/home/rahulmahadev/hikey_optee/optee_os/lib/libmpa/mpa_addsub.c:262
    aa00:	6b1f02bf 	cmp	w21, wzr
    aa04:	54ffff8c 	b.gt	a9f4 <__mpa_abs_sub+0xd4>
/home/rahulmahadev/hikey_optee/optee_os/lib/libmpa/mpa_addsub.c:264
    aa08:	b90002f5 	str	w21, [x23]
/home/rahulmahadev/hikey_optee/optee_os/lib/libmpa/mpa_addsub.c:265
    aa0c:	a94153f3 	ldp	x19, x20, [sp,#16]
    aa10:	a9425bf5 	ldp	x21, x22, [sp,#32]
    aa14:	a94363f7 	ldp	x23, x24, [sp,#48]
    aa18:	f94023f9 	ldr	x25, [sp,#64]
    aa1c:	a8c77bfd 	ldp	x29, x30, [sp],#112
    aa20:	d65f03c0 	ret

000000000000aa24 <mpa_add>:
mpa_add():
/home/rahulmahadev/hikey_optee/optee_os/lib/libmpa/mpa_addsub.c:281
    aa24:	a9b87bfd 	stp	x29, x30, [sp,#-128]!
    aa28:	910003fd 	mov	x29, sp
    aa2c:	a90363f7 	stp	x23, x24, [sp,#48]
    aa30:	aa0203f7 	mov	x23, x2
/home/rahulmahadev/hikey_optee/optee_os/lib/libmpa/mpa_addsub.c:289
    aa34:	b9400422 	ldr	w2, [x1,#4]
/home/rahulmahadev/hikey_optee/optee_os/lib/libmpa/mpa_addsub.c:281
    aa38:	a9025bf5 	stp	x21, x22, [sp,#32]
    aa3c:	aa0103f6 	mov	x22, x1
    aa40:	aa0003f8 	mov	x24, x0
/home/rahulmahadev/hikey_optee/optee_os/lib/libmpa/mpa_addsub.c:290
    aa44:	b94006e1 	ldr	w1, [x23,#4]
/home/rahulmahadev/hikey_optee/optee_os/lib/libmpa/mpa_addsub.c:292
    aa48:	6b1f005f 	cmp	w2, wzr
/home/rahulmahadev/hikey_optee/optee_os/lib/libmpa/mpa_addsub.c:281
    aa4c:	a90153f3 	stp	x19, x20, [sp,#16]
/home/rahulmahadev/hikey_optee/optee_os/lib/libmpa/mpa_addsub.c:289
    aa50:	93407c54 	sxtw	x20, w2
/home/rahulmahadev/hikey_optee/optee_os/lib/libmpa/mpa_addsub.c:281
    aa54:	f9002bfb 	str	x27, [sp,#80]
/home/rahulmahadev/hikey_optee/optee_os/lib/libmpa/mpa_addsub.c:290
    aa58:	93407c33 	sxtw	x19, w1
/home/rahulmahadev/hikey_optee/optee_os/lib/libmpa/mpa_addsub.c:289
    aa5c:	ca94fe80 	eor	x0, x20, x20, asr #63
    aa60:	cb94fc14 	sub	x20, x0, x20, asr #63
/home/rahulmahadev/hikey_optee/optee_os/lib/libmpa/mpa_addsub.c:290
    aa64:	ca93fe60 	eor	x0, x19, x19, asr #63
    aa68:	cb93fc13 	sub	x19, x0, x19, asr #63
/home/rahulmahadev/hikey_optee/optee_os/lib/libmpa/mpa_addsub.c:292
    aa6c:	52800020 	mov	w0, #0x1                   	// #1
    aa70:	5a9fa01b 	csinv	w27, w0, wzr, ge
/home/rahulmahadev/hikey_optee/optee_os/lib/libmpa/mpa_addsub.c:293
    aa74:	6b1f003f 	cmp	w1, wzr
    aa78:	5a9fa015 	csinv	w21, w0, wzr, ge
/home/rahulmahadev/hikey_optee/optee_os/lib/libmpa/mpa_addsub.c:296
    aa7c:	eb16031f 	cmp	x24, x22
/home/rahulmahadev/hikey_optee/optee_os/lib/libmpa/mpa_addsub.c:281
    aa80:	a9046bf9 	stp	x25, x26, [sp,#64]
/home/rahulmahadev/hikey_optee/optee_os/lib/libmpa/mpa_addsub.c:296
    aa84:	1a9f17fa 	cset	w26, eq
    aa88:	eb17031f 	cmp	x24, x23
    aa8c:	1a9f17e0 	cset	w0, eq
/home/rahulmahadev/hikey_optee/optee_os/lib/libmpa/mpa_addsub.c:281
    aa90:	aa0303f9 	mov	x25, x3
/home/rahulmahadev/hikey_optee/optee_os/lib/libmpa/mpa_addsub.c:296
    aa94:	2a00035a 	orr	w26, w26, w0
/home/rahulmahadev/hikey_optee/optee_os/lib/libmpa/mpa_addsub.c:297
    aa98:	340000ba 	cbz	w26, aaac <mpa_add+0x88>
/home/rahulmahadev/hikey_optee/optee_os/lib/libmpa/mpa_addsub.c:298
    aa9c:	aa0303e1 	mov	x1, x3
    aaa0:	9101e3a0 	add	x0, x29, #0x78
    aaa4:	97fffcde 	bl	9e1c <mpa_alloc_static_temp_var>
    aaa8:	14000002 	b	aab0 <mpa_add+0x8c>
/home/rahulmahadev/hikey_optee/optee_os/lib/libmpa/mpa_addsub.c:300
    aaac:	f9003fb8 	str	x24, [x29,#120]
/home/rahulmahadev/hikey_optee/optee_os/lib/libmpa/mpa_addsub.c:306
    aab0:	6b15037f 	cmp	w27, w21
    aab4:	910022c2 	add	x2, x22, #0x8
    aab8:	910022f5 	add	x21, x23, #0x8
    aabc:	54000161 	b.ne	aae8 <mpa_add+0xc4>
/home/rahulmahadev/hikey_optee/optee_os/lib/libmpa/mpa_addsub.c:308
    aac0:	f9403fa0 	ldr	x0, [x29,#120]
    aac4:	2a1303e5 	mov	w5, w19
    aac8:	aa1503e4 	mov	x4, x21
    aacc:	2a1403e3 	mov	w3, w20
    aad0:	91001001 	add	x1, x0, #0x4
    aad4:	91002000 	add	x0, x0, #0x8
    aad8:	97ffff20 	bl	a758 <__mpa_abs_add>
/home/rahulmahadev/hikey_optee/optee_os/lib/libmpa/mpa_addsub.c:311
    aadc:	3100077f 	cmn	w27, #0x1
    aae0:	54000541 	b.ne	ab88 <mpa_add+0x164>
    aae4:	14000015 	b	ab38 <mpa_add+0x114>
    aae8:	f90037a2 	str	x2, [x29,#104]
/home/rahulmahadev/hikey_optee/optee_os/lib/libmpa/mpa_addsub.c:315
    aaec:	7100077f 	cmp	w27, #0x1
/home/rahulmahadev/hikey_optee/optee_os/lib/libmpa/mpa_addsub.c:316
    aaf0:	aa1703e1 	mov	x1, x23
    aaf4:	aa1603e0 	mov	x0, x22
/home/rahulmahadev/hikey_optee/optee_os/lib/libmpa/mpa_addsub.c:315
    aaf8:	540002a1 	b.ne	ab4c <mpa_add+0x128>
/home/rahulmahadev/hikey_optee/optee_os/lib/libmpa/mpa_addsub.c:316
    aafc:	94000174 	bl	b0cc <__mpa_abs_greater_than>
    ab00:	f9403fa6 	ldr	x6, [x29,#120]
    ab04:	f94037a2 	ldr	x2, [x29,#104]
    ab08:	340000a0 	cbz	w0, ab1c <mpa_add+0xf8>
/home/rahulmahadev/hikey_optee/optee_os/lib/libmpa/mpa_addsub.c:320
    ab0c:	2a1303e5 	mov	w5, w19
    ab10:	aa1503e4 	mov	x4, x21
    ab14:	2a1403e3 	mov	w3, w20
    ab18:	14000019 	b	ab7c <mpa_add+0x158>
/home/rahulmahadev/hikey_optee/optee_os/lib/libmpa/mpa_addsub.c:325
    ab1c:	aa0203e4 	mov	x4, x2
    ab20:	2a1403e5 	mov	w5, w20
    ab24:	2a1303e3 	mov	w3, w19
    ab28:	aa1503e2 	mov	x2, x21
    ab2c:	910010c1 	add	x1, x6, #0x4
    ab30:	910020c0 	add	x0, x6, #0x8
    ab34:	97ffff7b 	bl	a920 <__mpa_abs_sub>
/home/rahulmahadev/hikey_optee/optee_os/lib/libmpa/mpa_addsub.c:327
    ab38:	f9403fa1 	ldr	x1, [x29,#120]
    ab3c:	b9400420 	ldr	w0, [x1,#4]
    ab40:	4b0003e0 	neg	w0, w0
    ab44:	b9000420 	str	w0, [x1,#4]
    ab48:	14000010 	b	ab88 <mpa_add+0x164>
/home/rahulmahadev/hikey_optee/optee_os/lib/libmpa/mpa_addsub.c:331
    ab4c:	94000160 	bl	b0cc <__mpa_abs_greater_than>
    ab50:	f9403fa6 	ldr	x6, [x29,#120]
    ab54:	f94037a2 	ldr	x2, [x29,#104]
    ab58:	340000a0 	cbz	w0, ab6c <mpa_add+0x148>
/home/rahulmahadev/hikey_optee/optee_os/lib/libmpa/mpa_addsub.c:335
    ab5c:	2a1303e5 	mov	w5, w19
    ab60:	aa1503e4 	mov	x4, x21
    ab64:	2a1403e3 	mov	w3, w20
    ab68:	17fffff1 	b	ab2c <mpa_add+0x108>
/home/rahulmahadev/hikey_optee/optee_os/lib/libmpa/mpa_addsub.c:340
    ab6c:	aa0203e4 	mov	x4, x2
    ab70:	2a1403e5 	mov	w5, w20
    ab74:	2a1303e3 	mov	w3, w19
    ab78:	aa1503e2 	mov	x2, x21
    ab7c:	910010c1 	add	x1, x6, #0x4
    ab80:	910020c0 	add	x0, x6, #0x8
    ab84:	97ffff67 	bl	a920 <__mpa_abs_sub>
/home/rahulmahadev/hikey_optee/optee_os/lib/libmpa/mpa_addsub.c:346
    ab88:	f9403fa1 	ldr	x1, [x29,#120]
    ab8c:	aa1803e0 	mov	x0, x24
    ab90:	97fff571 	bl	8154 <mpa_copy>
/home/rahulmahadev/hikey_optee/optee_os/lib/libmpa/mpa_addsub.c:347
    ab94:	3400009a 	cbz	w26, aba4 <mpa_add+0x180>
/home/rahulmahadev/hikey_optee/optee_os/lib/libmpa/mpa_addsub.c:348
    ab98:	aa1903e1 	mov	x1, x25
    ab9c:	9101e3a0 	add	x0, x29, #0x78
    aba0:	97fffca3 	bl	9e2c <mpa_free_static_temp_var>
/home/rahulmahadev/hikey_optee/optee_os/lib/libmpa/mpa_addsub.c:349
    aba4:	a94153f3 	ldp	x19, x20, [sp,#16]
    aba8:	a9425bf5 	ldp	x21, x22, [sp,#32]
    abac:	a94363f7 	ldp	x23, x24, [sp,#48]
    abb0:	a9446bf9 	ldp	x25, x26, [sp,#64]
    abb4:	f9402bfb 	ldr	x27, [sp,#80]
    abb8:	a8c87bfd 	ldp	x29, x30, [sp],#128
    abbc:	d65f03c0 	ret

000000000000abc0 <mpa_sub>:
mpa_sub():
/home/rahulmahadev/hikey_optee/optee_os/lib/libmpa/mpa_addsub.c:359
    abc0:	a9b87bfd 	stp	x29, x30, [sp,#-128]!
    abc4:	910003fd 	mov	x29, sp
    abc8:	a9046bf9 	stp	x25, x26, [sp,#64]
    abcc:	aa0303f9 	mov	x25, x3
/home/rahulmahadev/hikey_optee/optee_os/lib/libmpa/mpa_addsub.c:367
    abd0:	b9400423 	ldr	w3, [x1,#4]
/home/rahulmahadev/hikey_optee/optee_os/lib/libmpa/mpa_addsub.c:359
    abd4:	a90363f7 	stp	x23, x24, [sp,#48]
    abd8:	aa0103f7 	mov	x23, x1
/home/rahulmahadev/hikey_optee/optee_os/lib/libmpa/mpa_addsub.c:368
    abdc:	b9400441 	ldr	w1, [x2,#4]
/home/rahulmahadev/hikey_optee/optee_os/lib/libmpa/mpa_addsub.c:359
    abe0:	a90153f3 	stp	x19, x20, [sp,#16]
/home/rahulmahadev/hikey_optee/optee_os/lib/libmpa/mpa_addsub.c:367
    abe4:	93407c73 	sxtw	x19, w3
/home/rahulmahadev/hikey_optee/optee_os/lib/libmpa/mpa_addsub.c:359
    abe8:	aa0003f8 	mov	x24, x0
/home/rahulmahadev/hikey_optee/optee_os/lib/libmpa/mpa_addsub.c:368
    abec:	93407c34 	sxtw	x20, w1
/home/rahulmahadev/hikey_optee/optee_os/lib/libmpa/mpa_addsub.c:370
    abf0:	6b1f007f 	cmp	w3, wzr
/home/rahulmahadev/hikey_optee/optee_os/lib/libmpa/mpa_addsub.c:367
    abf4:	ca93fe60 	eor	x0, x19, x19, asr #63
/home/rahulmahadev/hikey_optee/optee_os/lib/libmpa/mpa_addsub.c:359
    abf8:	f9002bfb 	str	x27, [sp,#80]
/home/rahulmahadev/hikey_optee/optee_os/lib/libmpa/mpa_addsub.c:367
    abfc:	cb93fc13 	sub	x19, x0, x19, asr #63
/home/rahulmahadev/hikey_optee/optee_os/lib/libmpa/mpa_addsub.c:368
    ac00:	ca94fe80 	eor	x0, x20, x20, asr #63
    ac04:	cb94fc14 	sub	x20, x0, x20, asr #63
/home/rahulmahadev/hikey_optee/optee_os/lib/libmpa/mpa_addsub.c:370
    ac08:	52800020 	mov	w0, #0x1                   	// #1
    ac0c:	5a9fa01b 	csinv	w27, w0, wzr, ge
/home/rahulmahadev/hikey_optee/optee_os/lib/libmpa/mpa_addsub.c:371
    ac10:	6b1f003f 	cmp	w1, wzr
/home/rahulmahadev/hikey_optee/optee_os/lib/libmpa/mpa_addsub.c:359
    ac14:	a9025bf5 	stp	x21, x22, [sp,#32]
/home/rahulmahadev/hikey_optee/optee_os/lib/libmpa/mpa_addsub.c:371
    ac18:	5a9fa015 	csinv	w21, w0, wzr, ge
/home/rahulmahadev/hikey_optee/optee_os/lib/libmpa/mpa_addsub.c:374
    ac1c:	eb17031f 	cmp	x24, x23
    ac20:	1a9f17fa 	cset	w26, eq
    ac24:	eb02031f 	cmp	x24, x2
    ac28:	1a9f17e0 	cset	w0, eq
    ac2c:	2a00035a 	orr	w26, w26, w0
/home/rahulmahadev/hikey_optee/optee_os/lib/libmpa/mpa_addsub.c:375
    ac30:	340000fa 	cbz	w26, ac4c <mpa_sub+0x8c>
/home/rahulmahadev/hikey_optee/optee_os/lib/libmpa/mpa_addsub.c:376
    ac34:	aa1903e1 	mov	x1, x25
    ac38:	9101e3a0 	add	x0, x29, #0x78
    ac3c:	f90037a2 	str	x2, [x29,#104]
    ac40:	97fffc77 	bl	9e1c <mpa_alloc_static_temp_var>
    ac44:	f94037a2 	ldr	x2, [x29,#104]
    ac48:	14000002 	b	ac50 <mpa_sub+0x90>
/home/rahulmahadev/hikey_optee/optee_os/lib/libmpa/mpa_addsub.c:378
    ac4c:	f9003fb8 	str	x24, [x29,#120]
/home/rahulmahadev/hikey_optee/optee_os/lib/libmpa/mpa_addsub.c:384
    ac50:	6b15037f 	cmp	w27, w21
    ac54:	91002056 	add	x22, x2, #0x8
    ac58:	910022f5 	add	x21, x23, #0x8
    ac5c:	540004a1 	b.ne	acf0 <mpa_sub+0x130>
/home/rahulmahadev/hikey_optee/optee_os/lib/libmpa/mpa_addsub.c:385
    ac60:	7100077f 	cmp	w27, #0x1
/home/rahulmahadev/hikey_optee/optee_os/lib/libmpa/mpa_addsub.c:386
    ac64:	aa0203e1 	mov	x1, x2
    ac68:	aa1703e0 	mov	x0, x23
/home/rahulmahadev/hikey_optee/optee_os/lib/libmpa/mpa_addsub.c:385
    ac6c:	540001c1 	b.ne	aca4 <mpa_sub+0xe4>
/home/rahulmahadev/hikey_optee/optee_os/lib/libmpa/mpa_addsub.c:386
    ac70:	94000117 	bl	b0cc <__mpa_abs_greater_than>
    ac74:	f9403fa6 	ldr	x6, [x29,#120]
    ac78:	340000c0 	cbz	w0, ac90 <mpa_sub+0xd0>
/home/rahulmahadev/hikey_optee/optee_os/lib/libmpa/mpa_addsub.c:389
    ac7c:	2a1403e5 	mov	w5, w20
    ac80:	aa1603e4 	mov	x4, x22
    ac84:	2a1303e3 	mov	w3, w19
    ac88:	aa1503e2 	mov	x2, x21
    ac8c:	14000015 	b	ace0 <mpa_sub+0x120>
/home/rahulmahadev/hikey_optee/optee_os/lib/libmpa/mpa_addsub.c:393
    ac90:	2a1303e5 	mov	w5, w19
    ac94:	aa1503e4 	mov	x4, x21
    ac98:	2a1403e3 	mov	w3, w20
    ac9c:	aa1603e2 	mov	x2, x22
    aca0:	14000008 	b	acc0 <mpa_sub+0x100>
/home/rahulmahadev/hikey_optee/optee_os/lib/libmpa/mpa_addsub.c:400
    aca4:	9400010a 	bl	b0cc <__mpa_abs_greater_than>
    aca8:	f9403fa6 	ldr	x6, [x29,#120]
    acac:	34000120 	cbz	w0, acd0 <mpa_sub+0x110>
/home/rahulmahadev/hikey_optee/optee_os/lib/libmpa/mpa_addsub.c:404
    acb0:	2a1403e5 	mov	w5, w20
    acb4:	aa1603e4 	mov	x4, x22
    acb8:	2a1303e3 	mov	w3, w19
    acbc:	aa1503e2 	mov	x2, x21
    acc0:	910010c1 	add	x1, x6, #0x4
    acc4:	910020c0 	add	x0, x6, #0x8
    acc8:	97ffff16 	bl	a920 <__mpa_abs_sub>
    accc:	14000015 	b	ad20 <mpa_sub+0x160>
/home/rahulmahadev/hikey_optee/optee_os/lib/libmpa/mpa_addsub.c:409
    acd0:	2a1303e5 	mov	w5, w19
    acd4:	aa1503e4 	mov	x4, x21
    acd8:	2a1403e3 	mov	w3, w20
    acdc:	aa1603e2 	mov	x2, x22
    ace0:	910010c1 	add	x1, x6, #0x4
    ace4:	910020c0 	add	x0, x6, #0x8
    ace8:	97ffff0e 	bl	a920 <__mpa_abs_sub>
    acec:	14000011 	b	ad30 <mpa_sub+0x170>
    acf0:	f9403fa0 	ldr	x0, [x29,#120]
/home/rahulmahadev/hikey_optee/optee_os/lib/libmpa/mpa_addsub.c:414
    acf4:	7100077f 	cmp	w27, #0x1
/home/rahulmahadev/hikey_optee/optee_os/lib/libmpa/mpa_addsub.c:416
    acf8:	2a1403e5 	mov	w5, w20
    acfc:	aa1603e4 	mov	x4, x22
    ad00:	91001001 	add	x1, x0, #0x4
    ad04:	2a1303e3 	mov	w3, w19
    ad08:	aa1503e2 	mov	x2, x21
    ad0c:	91002000 	add	x0, x0, #0x8
/home/rahulmahadev/hikey_optee/optee_os/lib/libmpa/mpa_addsub.c:414
    ad10:	54000061 	b.ne	ad1c <mpa_sub+0x15c>
/home/rahulmahadev/hikey_optee/optee_os/lib/libmpa/mpa_addsub.c:416
    ad14:	97fffe91 	bl	a758 <__mpa_abs_add>
    ad18:	14000006 	b	ad30 <mpa_sub+0x170>
/home/rahulmahadev/hikey_optee/optee_os/lib/libmpa/mpa_addsub.c:420
    ad1c:	97fffe8f 	bl	a758 <__mpa_abs_add>
/home/rahulmahadev/hikey_optee/optee_os/lib/libmpa/mpa_addsub.c:422
    ad20:	f9403fa1 	ldr	x1, [x29,#120]
    ad24:	b9400420 	ldr	w0, [x1,#4]
    ad28:	4b0003e0 	neg	w0, w0
    ad2c:	b9000420 	str	w0, [x1,#4]
/home/rahulmahadev/hikey_optee/optee_os/lib/libmpa/mpa_addsub.c:426
    ad30:	f9403fa1 	ldr	x1, [x29,#120]
    ad34:	aa1803e0 	mov	x0, x24
    ad38:	97fff507 	bl	8154 <mpa_copy>
/home/rahulmahadev/hikey_optee/optee_os/lib/libmpa/mpa_addsub.c:427
    ad3c:	3400009a 	cbz	w26, ad4c <mpa_sub+0x18c>
/home/rahulmahadev/hikey_optee/optee_os/lib/libmpa/mpa_addsub.c:428
    ad40:	aa1903e1 	mov	x1, x25
    ad44:	9101e3a0 	add	x0, x29, #0x78
    ad48:	97fffc39 	bl	9e2c <mpa_free_static_temp_var>
/home/rahulmahadev/hikey_optee/optee_os/lib/libmpa/mpa_addsub.c:429
    ad4c:	a94153f3 	ldp	x19, x20, [sp,#16]
    ad50:	a9425bf5 	ldp	x21, x22, [sp,#32]
    ad54:	a94363f7 	ldp	x23, x24, [sp,#48]
    ad58:	a9446bf9 	ldp	x25, x26, [sp,#64]
    ad5c:	f9402bfb 	ldr	x27, [sp,#80]
    ad60:	a8c87bfd 	ldp	x29, x30, [sp],#128
    ad64:	d65f03c0 	ret

000000000000ad68 <mpa_neg>:
mpa_neg():
/home/rahulmahadev/hikey_optee/optee_os/lib/libmpa/mpa_addsub.c:438
    ad68:	a9be7bfd 	stp	x29, x30, [sp,#-32]!
    ad6c:	910003fd 	mov	x29, sp
    ad70:	f9000bf3 	str	x19, [sp,#16]
    ad74:	aa0003f3 	mov	x19, x0
/home/rahulmahadev/hikey_optee/optee_os/lib/libmpa/mpa_addsub.c:439
    ad78:	97fff4f7 	bl	8154 <mpa_copy>
/home/rahulmahadev/hikey_optee/optee_os/lib/libmpa/mpa_addsub.c:440
    ad7c:	b9400661 	ldr	w1, [x19,#4]
    ad80:	4b0103e1 	neg	w1, w1
    ad84:	b9000661 	str	w1, [x19,#4]
/home/rahulmahadev/hikey_optee/optee_os/lib/libmpa/mpa_addsub.c:441
    ad88:	f9400bf3 	ldr	x19, [sp,#16]
    ad8c:	a8c27bfd 	ldp	x29, x30, [sp],#32
    ad90:	d65f03c0 	ret

000000000000ad94 <mpa_add_word>:
mpa_add_word():
/home/rahulmahadev/hikey_optee/optee_os/lib/libmpa/mpa_addsub.c:450
    ad94:	a9ba7bfd 	stp	x29, x30, [sp,#-96]!
    ad98:	910003fd 	mov	x29, sp
    ad9c:	a9025bf5 	stp	x21, x22, [sp,#32]
    ada0:	a90153f3 	stp	x19, x20, [sp,#16]
    ada4:	f9001bf7 	str	x23, [sp,#48]
    ada8:	aa0003f5 	mov	x21, x0
    adac:	b9004fa2 	str	w2, [x29,#76]
    adb0:	aa0103f4 	mov	x20, x1
    adb4:	aa0303f6 	mov	x22, x3
/home/rahulmahadev/hikey_optee/optee_os/lib/libmpa/mpa_addsub.c:456
    adb8:	35000062 	cbnz	w2, adc4 <mpa_add_word+0x30>
/home/rahulmahadev/hikey_optee/optee_os/lib/libmpa/mpa_addsub.c:457
    adbc:	97fff4e6 	bl	8154 <mpa_copy>
/home/rahulmahadev/hikey_optee/optee_os/lib/libmpa/mpa_addsub.c:458
    adc0:	14000042 	b	aec8 <mpa_add_word+0x134>
/home/rahulmahadev/hikey_optee/optee_os/lib/libmpa/mpa_addsub.c:461
    adc4:	b9400433 	ldr	w19, [x1,#4]
    adc8:	6b1f027f 	cmp	w19, wzr
    adcc:	540000a1 	b.ne	ade0 <mpa_add_word+0x4c>
/home/rahulmahadev/hikey_optee/optee_os/lib/libmpa/mpa_addsub.c:462
    add0:	52800020 	mov	w0, #0x1                   	// #1
/home/rahulmahadev/hikey_optee/optee_os/lib/libmpa/mpa_addsub.c:463
    add4:	b9000aa2 	str	w2, [x21,#8]
/home/rahulmahadev/hikey_optee/optee_os/lib/libmpa/mpa_addsub.c:462
    add8:	b90006a0 	str	w0, [x21,#4]
/home/rahulmahadev/hikey_optee/optee_os/lib/libmpa/mpa_addsub.c:464
    addc:	1400003b 	b	aec8 <mpa_add_word+0x134>
/home/rahulmahadev/hikey_optee/optee_os/lib/libmpa/mpa_addsub.c:467
    ade0:	52800025 	mov	w5, #0x1                   	// #1
/home/rahulmahadev/hikey_optee/optee_os/lib/libmpa/mpa_addsub.c:468
    ade4:	93407e73 	sxtw	x19, w19
/home/rahulmahadev/hikey_optee/optee_os/lib/libmpa/mpa_addsub.c:467
    ade8:	5a9fa0a5 	csinv	w5, w5, wzr, ge
/home/rahulmahadev/hikey_optee/optee_os/lib/libmpa/mpa_addsub.c:471
    adec:	eb0102bf 	cmp	x21, x1
    adf0:	1a9f17f7 	cset	w23, eq
/home/rahulmahadev/hikey_optee/optee_os/lib/libmpa/mpa_addsub.c:468
    adf4:	ca93fe60 	eor	x0, x19, x19, asr #63
    adf8:	cb93fc13 	sub	x19, x0, x19, asr #63
/home/rahulmahadev/hikey_optee/optee_os/lib/libmpa/mpa_addsub.c:472
    adfc:	340000f7 	cbz	w23, ae18 <mpa_add_word+0x84>
/home/rahulmahadev/hikey_optee/optee_os/lib/libmpa/mpa_addsub.c:473
    ae00:	aa0303e1 	mov	x1, x3
    ae04:	910163a0 	add	x0, x29, #0x58
    ae08:	b9004ba5 	str	w5, [x29,#72]
    ae0c:	97fffc04 	bl	9e1c <mpa_alloc_static_temp_var>
    ae10:	b9404ba5 	ldr	w5, [x29,#72]
    ae14:	14000002 	b	ae1c <mpa_add_word+0x88>
/home/rahulmahadev/hikey_optee/optee_os/lib/libmpa/mpa_addsub.c:475
    ae18:	f9002fb5 	str	x21, [x29,#88]
/home/rahulmahadev/hikey_optee/optee_os/lib/libmpa/mpa_addsub.c:478
    ae1c:	710004bf 	cmp	w5, #0x1
    ae20:	f9402fa6 	ldr	x6, [x29,#88]
    ae24:	54000101 	b.ne	ae44 <mpa_add_word+0xb0>
/home/rahulmahadev/hikey_optee/optee_os/lib/libmpa/mpa_addsub.c:480
    ae28:	910133a4 	add	x4, x29, #0x4c
    ae2c:	2a1303e3 	mov	w3, w19
    ae30:	91002282 	add	x2, x20, #0x8
    ae34:	910010c1 	add	x1, x6, #0x4
    ae38:	910020c0 	add	x0, x6, #0x8
    ae3c:	97fffe47 	bl	a758 <__mpa_abs_add>
    ae40:	1400001b 	b	aeac <mpa_add_word+0x118>
/home/rahulmahadev/hikey_optee/optee_os/lib/libmpa/mpa_addsub.c:483
    ae44:	b9800680 	ldrsw	x0, [x20,#4]
    ae48:	ca80fc01 	eor	x1, x0, x0, asr #63
    ae4c:	cb80fc20 	sub	x0, x1, x0, asr #63
    ae50:	7100041f 	cmp	w0, #0x1
    ae54:	540000ac 	b.gt	ae68 <mpa_add_word+0xd4>
/home/rahulmahadev/hikey_optee/optee_os/lib/libmpa/mpa_addsub.c:483 (discriminator 1)
    ae58:	b9400a81 	ldr	w1, [x20,#8]
    ae5c:	b9404fa0 	ldr	w0, [x29,#76]
    ae60:	6b00003f 	cmp	w1, w0
    ae64:	540001a9 	b.ls	ae98 <mpa_add_word+0x104>
/home/rahulmahadev/hikey_optee/optee_os/lib/libmpa/mpa_addsub.c:487
    ae68:	910010c1 	add	x1, x6, #0x4
    ae6c:	910020c0 	add	x0, x6, #0x8
    ae70:	52800025 	mov	w5, #0x1                   	// #1
    ae74:	910133a4 	add	x4, x29, #0x4c
    ae78:	2a1303e3 	mov	w3, w19
    ae7c:	91002282 	add	x2, x20, #0x8
    ae80:	97fffea8 	bl	a920 <__mpa_abs_sub>
/home/rahulmahadev/hikey_optee/optee_os/lib/libmpa/mpa_addsub.c:489
    ae84:	f9402fa1 	ldr	x1, [x29,#88]
    ae88:	b9400420 	ldr	w0, [x1,#4]
    ae8c:	4b0003e0 	neg	w0, w0
    ae90:	b9000420 	str	w0, [x1,#4]
    ae94:	14000006 	b	aeac <mpa_add_word+0x118>
/home/rahulmahadev/hikey_optee/optee_os/lib/libmpa/mpa_addsub.c:492
    ae98:	4b010000 	sub	w0, w0, w1
    ae9c:	b90008c0 	str	w0, [x6,#8]
/home/rahulmahadev/hikey_optee/optee_os/lib/libmpa/mpa_addsub.c:493
    aea0:	6b1f001f 	cmp	w0, wzr
    aea4:	1a9f07e0 	cset	w0, ne
    aea8:	b90004c0 	str	w0, [x6,#4]
/home/rahulmahadev/hikey_optee/optee_os/lib/libmpa/mpa_addsub.c:497
    aeac:	f9402fa1 	ldr	x1, [x29,#88]
    aeb0:	aa1503e0 	mov	x0, x21
    aeb4:	97fff4a8 	bl	8154 <mpa_copy>
/home/rahulmahadev/hikey_optee/optee_os/lib/libmpa/mpa_addsub.c:498
    aeb8:	34000097 	cbz	w23, aec8 <mpa_add_word+0x134>
/home/rahulmahadev/hikey_optee/optee_os/lib/libmpa/mpa_addsub.c:499
    aebc:	aa1603e1 	mov	x1, x22
    aec0:	910163a0 	add	x0, x29, #0x58
    aec4:	97fffbda 	bl	9e2c <mpa_free_static_temp_var>
/home/rahulmahadev/hikey_optee/optee_os/lib/libmpa/mpa_addsub.c:500
    aec8:	a94153f3 	ldp	x19, x20, [sp,#16]
    aecc:	a9425bf5 	ldp	x21, x22, [sp,#32]
    aed0:	f9401bf7 	ldr	x23, [sp,#48]
    aed4:	a8c67bfd 	ldp	x29, x30, [sp],#96
    aed8:	d65f03c0 	ret

000000000000aedc <mpa_sub_word>:
mpa_sub_word():
/home/rahulmahadev/hikey_optee/optee_os/lib/libmpa/mpa_addsub.c:509
    aedc:	a9ba7bfd 	stp	x29, x30, [sp,#-96]!
    aee0:	910003fd 	mov	x29, sp
    aee4:	a9025bf5 	stp	x21, x22, [sp,#32]
    aee8:	a90153f3 	stp	x19, x20, [sp,#16]
    aeec:	a90363f7 	stp	x23, x24, [sp,#48]
    aef0:	b9004fa2 	str	w2, [x29,#76]
    aef4:	aa0003f5 	mov	x21, x0
    aef8:	aa0103f4 	mov	x20, x1
    aefc:	aa0303f6 	mov	x22, x3
/home/rahulmahadev/hikey_optee/optee_os/lib/libmpa/mpa_addsub.c:515
    af00:	35000062 	cbnz	w2, af0c <mpa_sub_word+0x30>
/home/rahulmahadev/hikey_optee/optee_os/lib/libmpa/mpa_addsub.c:516
    af04:	97fff494 	bl	8154 <mpa_copy>
/home/rahulmahadev/hikey_optee/optee_os/lib/libmpa/mpa_addsub.c:517
    af08:	14000041 	b	b00c <mpa_sub_word+0x130>
/home/rahulmahadev/hikey_optee/optee_os/lib/libmpa/mpa_addsub.c:520
    af0c:	b9400433 	ldr	w19, [x1,#4]
    af10:	6b1f027f 	cmp	w19, wzr
    af14:	540000a1 	b.ne	af28 <mpa_sub_word+0x4c>
/home/rahulmahadev/hikey_optee/optee_os/lib/libmpa/mpa_addsub.c:521
    af18:	12800000 	mov	w0, #0xffffffff            	// #-1
/home/rahulmahadev/hikey_optee/optee_os/lib/libmpa/mpa_addsub.c:522
    af1c:	b9000aa2 	str	w2, [x21,#8]
/home/rahulmahadev/hikey_optee/optee_os/lib/libmpa/mpa_addsub.c:521
    af20:	b90006a0 	str	w0, [x21,#4]
/home/rahulmahadev/hikey_optee/optee_os/lib/libmpa/mpa_addsub.c:523
    af24:	1400003a 	b	b00c <mpa_sub_word+0x130>
/home/rahulmahadev/hikey_optee/optee_os/lib/libmpa/mpa_addsub.c:526
    af28:	52800038 	mov	w24, #0x1                   	// #1
/home/rahulmahadev/hikey_optee/optee_os/lib/libmpa/mpa_addsub.c:527
    af2c:	93407e73 	sxtw	x19, w19
/home/rahulmahadev/hikey_optee/optee_os/lib/libmpa/mpa_addsub.c:526
    af30:	5a9fa318 	csinv	w24, w24, wzr, ge
/home/rahulmahadev/hikey_optee/optee_os/lib/libmpa/mpa_addsub.c:530
    af34:	eb0102bf 	cmp	x21, x1
    af38:	1a9f17f7 	cset	w23, eq
/home/rahulmahadev/hikey_optee/optee_os/lib/libmpa/mpa_addsub.c:527
    af3c:	ca93fe60 	eor	x0, x19, x19, asr #63
    af40:	cb93fc13 	sub	x19, x0, x19, asr #63
/home/rahulmahadev/hikey_optee/optee_os/lib/libmpa/mpa_addsub.c:531
    af44:	340000b7 	cbz	w23, af58 <mpa_sub_word+0x7c>
/home/rahulmahadev/hikey_optee/optee_os/lib/libmpa/mpa_addsub.c:532
    af48:	aa0303e1 	mov	x1, x3
    af4c:	910163a0 	add	x0, x29, #0x58
    af50:	97fffbb3 	bl	9e1c <mpa_alloc_static_temp_var>
    af54:	14000002 	b	af5c <mpa_sub_word+0x80>
/home/rahulmahadev/hikey_optee/optee_os/lib/libmpa/mpa_addsub.c:534
    af58:	f9002fb5 	str	x21, [x29,#88]
/home/rahulmahadev/hikey_optee/optee_os/lib/libmpa/mpa_addsub.c:544
    af5c:	7100071f 	cmp	w24, #0x1
    af60:	f9402fa6 	ldr	x6, [x29,#88]
    af64:	54000301 	b.ne	afc4 <mpa_sub_word+0xe8>
/home/rahulmahadev/hikey_optee/optee_os/lib/libmpa/mpa_addsub.c:545
    af68:	b9800680 	ldrsw	x0, [x20,#4]
    af6c:	ca80fc01 	eor	x1, x0, x0, asr #63
    af70:	cb80fc20 	sub	x0, x1, x0, asr #63
    af74:	7100041f 	cmp	w0, #0x1
    af78:	540000ac 	b.gt	af8c <mpa_sub_word+0xb0>
/home/rahulmahadev/hikey_optee/optee_os/lib/libmpa/mpa_addsub.c:545 (discriminator 1)
    af7c:	b9400a81 	ldr	w1, [x20,#8]
    af80:	b9404fa0 	ldr	w0, [x29,#76]
    af84:	6b00003f 	cmp	w1, w0
    af88:	54000129 	b.ls	afac <mpa_sub_word+0xd0>
/home/rahulmahadev/hikey_optee/optee_os/lib/libmpa/mpa_addsub.c:546
    af8c:	52800025 	mov	w5, #0x1                   	// #1
    af90:	910133a4 	add	x4, x29, #0x4c
    af94:	2a1303e3 	mov	w3, w19
    af98:	91002282 	add	x2, x20, #0x8
    af9c:	910010c1 	add	x1, x6, #0x4
    afa0:	910020c0 	add	x0, x6, #0x8
    afa4:	97fffe5f 	bl	a920 <__mpa_abs_sub>
    afa8:	14000012 	b	aff0 <mpa_sub_word+0x114>
/home/rahulmahadev/hikey_optee/optee_os/lib/libmpa/mpa_addsub.c:549
    afac:	4b010000 	sub	w0, w0, w1
    afb0:	b90008c0 	str	w0, [x6,#8]
/home/rahulmahadev/hikey_optee/optee_os/lib/libmpa/mpa_addsub.c:550
    afb4:	6b1f001f 	cmp	w0, wzr
    afb8:	5a9f03e0 	csetm	w0, ne
    afbc:	b90004c0 	str	w0, [x6,#4]
    afc0:	1400000c 	b	aff0 <mpa_sub_word+0x114>
/home/rahulmahadev/hikey_optee/optee_os/lib/libmpa/mpa_addsub.c:553
    afc4:	910010c1 	add	x1, x6, #0x4
    afc8:	910020c0 	add	x0, x6, #0x8
    afcc:	52800025 	mov	w5, #0x1                   	// #1
    afd0:	910133a4 	add	x4, x29, #0x4c
    afd4:	2a1303e3 	mov	w3, w19
    afd8:	91002282 	add	x2, x20, #0x8
    afdc:	97fffddf 	bl	a758 <__mpa_abs_add>
/home/rahulmahadev/hikey_optee/optee_os/lib/libmpa/mpa_addsub.c:555
    afe0:	f9402fa1 	ldr	x1, [x29,#88]
    afe4:	b9400420 	ldr	w0, [x1,#4]
    afe8:	4b0003e0 	neg	w0, w0
    afec:	b9000420 	str	w0, [x1,#4]
/home/rahulmahadev/hikey_optee/optee_os/lib/libmpa/mpa_addsub.c:558
    aff0:	f9402fa1 	ldr	x1, [x29,#88]
    aff4:	aa1503e0 	mov	x0, x21
    aff8:	97fff457 	bl	8154 <mpa_copy>
/home/rahulmahadev/hikey_optee/optee_os/lib/libmpa/mpa_addsub.c:559
    affc:	34000097 	cbz	w23, b00c <mpa_sub_word+0x130>
/home/rahulmahadev/hikey_optee/optee_os/lib/libmpa/mpa_addsub.c:560
    b000:	aa1603e1 	mov	x1, x22
    b004:	910163a0 	add	x0, x29, #0x58
    b008:	97fffb89 	bl	9e2c <mpa_free_static_temp_var>
/home/rahulmahadev/hikey_optee/optee_os/lib/libmpa/mpa_addsub.c:561
    b00c:	a94153f3 	ldp	x19, x20, [sp,#16]
    b010:	a9425bf5 	ldp	x21, x22, [sp,#32]
    b014:	a94363f7 	ldp	x23, x24, [sp,#48]
    b018:	a8c67bfd 	ldp	x29, x30, [sp],#96
    b01c:	d65f03c0 	ret

000000000000b020 <__mpa_abs_cmp>:
__mpa_abs_cmp():
/home/rahulmahadev/hikey_optee/optee_os/lib/libmpa/mpa_cmp.c:43
    b020:	aa0003e5 	mov	x5, x0
/home/rahulmahadev/hikey_optee/optee_os/lib/libmpa/mpa_cmp.c:49
    b024:	52800000 	mov	w0, #0x0                   	// #0
/home/rahulmahadev/hikey_optee/optee_os/lib/libmpa/mpa_cmp.c:48
    b028:	eb0100bf 	cmp	x5, x1
    b02c:	540004e0 	b.eq	b0c8 <__mpa_abs_cmp+0xa8>
/home/rahulmahadev/hikey_optee/optee_os/lib/libmpa/mpa_cmp.c:52
    b030:	b94004a4 	ldr	w4, [x5,#4]
    b034:	93407c83 	sxtw	x3, w4
    b038:	ca83fc60 	eor	x0, x3, x3, asr #63
    b03c:	cb83fc02 	sub	x2, x0, x3, asr #63
    b040:	b9400423 	ldr	w3, [x1,#4]
    b044:	93407c60 	sxtw	x0, w3
    b048:	ca80fc06 	eor	x6, x0, x0, asr #63
    b04c:	cb80fcc0 	sub	x0, x6, x0, asr #63
    b050:	6b00005f 	cmp	w2, w0
    b054:	54000060 	b.eq	b060 <__mpa_abs_cmp+0x40>
/home/rahulmahadev/hikey_optee/optee_os/lib/libmpa/mpa_cmp.c:53
    b058:	4b000040 	sub	w0, w2, w0
    b05c:	1400001b 	b	b0c8 <__mpa_abs_cmp+0xa8>
/home/rahulmahadev/hikey_optee/optee_os/lib/libmpa/mpa_cmp.c:55 (discriminator 1)
    b060:	2a040060 	orr	w0, w3, w4
    b064:	34000320 	cbz	w0, b0c8 <__mpa_abs_cmp+0xa8>
/home/rahulmahadev/hikey_optee/optee_os/lib/libmpa/mpa_cmp.c:59
    b068:	51000442 	sub	w2, w2, #0x1
/home/rahulmahadev/hikey_optee/optee_os/lib/libmpa/mpa_cmp.c:60
    b06c:	52800023 	mov	w3, #0x1                   	// #1
/home/rahulmahadev/hikey_optee/optee_os/lib/libmpa/mpa_cmp.c:61
    b070:	37f80162 	tbnz	w2, #31, b09c <__mpa_abs_cmp+0x7c>
    b074:	34000143 	cbz	w3, b09c <__mpa_abs_cmp+0x7c>
/home/rahulmahadev/hikey_optee/optee_os/lib/libmpa/mpa_cmp.c:62
    b078:	937e7c40 	sbfiz	x0, x2, #2, #32
/home/rahulmahadev/hikey_optee/optee_os/lib/libmpa/mpa_cmp.c:63
    b07c:	51000442 	sub	w2, w2, #0x1
/home/rahulmahadev/hikey_optee/optee_os/lib/libmpa/mpa_cmp.c:62
    b080:	8b0000a3 	add	x3, x5, x0
    b084:	8b000020 	add	x0, x1, x0
    b088:	b9400863 	ldr	w3, [x3,#8]
    b08c:	b9400800 	ldr	w0, [x0,#8]
    b090:	6b00007f 	cmp	w3, w0
    b094:	1a9f17e3 	cset	w3, eq
    b098:	17fffff6 	b	b070 <__mpa_abs_cmp+0x50>
/home/rahulmahadev/hikey_optee/optee_os/lib/libmpa/mpa_cmp.c:49
    b09c:	52800000 	mov	w0, #0x0                   	// #0
/home/rahulmahadev/hikey_optee/optee_os/lib/libmpa/mpa_cmp.c:65
    b0a0:	35000143 	cbnz	w3, b0c8 <__mpa_abs_cmp+0xa8>
/home/rahulmahadev/hikey_optee/optee_os/lib/libmpa/mpa_cmp.c:67
    b0a4:	11000443 	add	w3, w2, #0x1
/home/rahulmahadev/hikey_optee/optee_os/lib/libmpa/mpa_cmp.c:68
    b0a8:	937e7c62 	sbfiz	x2, x3, #2, #32
    b0ac:	8b0200a5 	add	x5, x5, x2
    b0b0:	8b020022 	add	x2, x1, x2
    b0b4:	b94008a1 	ldr	w1, [x5,#8]
    b0b8:	b9400840 	ldr	w0, [x2,#8]
    b0bc:	6b00003f 	cmp	w1, w0
    b0c0:	52800020 	mov	w0, #0x1                   	// #1
    b0c4:	5a9f8000 	csinv	w0, w0, wzr, hi
/home/rahulmahadev/hikey_optee/optee_os/lib/libmpa/mpa_cmp.c:69
    b0c8:	d65f03c0 	ret

000000000000b0cc <__mpa_abs_greater_than>:
__mpa_abs_greater_than():
/home/rahulmahadev/hikey_optee/optee_os/lib/libmpa/mpa_cmp.c:77
    b0cc:	a9bf7bfd 	stp	x29, x30, [sp,#-16]!
    b0d0:	910003fd 	mov	x29, sp
/home/rahulmahadev/hikey_optee/optee_os/lib/libmpa/mpa_cmp.c:78
    b0d4:	97ffffd3 	bl	b020 <__mpa_abs_cmp>
    b0d8:	6b1f001f 	cmp	w0, wzr
/home/rahulmahadev/hikey_optee/optee_os/lib/libmpa/mpa_cmp.c:79
    b0dc:	1a9fd7e0 	cset	w0, gt
    b0e0:	a8c17bfd 	ldp	x29, x30, [sp],#16
    b0e4:	d65f03c0 	ret

000000000000b0e8 <__mpa_abs_less_than>:
__mpa_abs_less_than():
/home/rahulmahadev/hikey_optee/optee_os/lib/libmpa/mpa_cmp.c:87
    b0e8:	a9bf7bfd 	stp	x29, x30, [sp,#-16]!
    b0ec:	910003fd 	mov	x29, sp
/home/rahulmahadev/hikey_optee/optee_os/lib/libmpa/mpa_cmp.c:88
    b0f0:	97ffffcc 	bl	b020 <__mpa_abs_cmp>
/home/rahulmahadev/hikey_optee/optee_os/lib/libmpa/mpa_cmp.c:89
    b0f4:	531f7c00 	lsr	w0, w0, #31
    b0f8:	a8c17bfd 	ldp	x29, x30, [sp],#16
    b0fc:	d65f03c0 	ret

000000000000b100 <mpa_cmp>:
mpa_cmp():
/home/rahulmahadev/hikey_optee/optee_os/lib/libmpa/mpa_cmp.c:105
    b100:	a9be7bfd 	stp	x29, x30, [sp,#-32]!
/home/rahulmahadev/hikey_optee/optee_os/lib/libmpa/mpa_cmp.c:110
    b104:	52800023 	mov	w3, #0x1                   	// #1
/home/rahulmahadev/hikey_optee/optee_os/lib/libmpa/mpa_cmp.c:105
    b108:	910003fd 	mov	x29, sp
/home/rahulmahadev/hikey_optee/optee_os/lib/libmpa/mpa_cmp.c:110
    b10c:	b9400404 	ldr	w4, [x0,#4]
/home/rahulmahadev/hikey_optee/optee_os/lib/libmpa/mpa_cmp.c:111
    b110:	b9400422 	ldr	w2, [x1,#4]
/home/rahulmahadev/hikey_optee/optee_os/lib/libmpa/mpa_cmp.c:110
    b114:	6b1f009f 	cmp	w4, wzr
/home/rahulmahadev/hikey_optee/optee_os/lib/libmpa/mpa_cmp.c:105
    b118:	f9000bf3 	str	x19, [sp,#16]
/home/rahulmahadev/hikey_optee/optee_os/lib/libmpa/mpa_cmp.c:110
    b11c:	5a9fa073 	csinv	w19, w3, wzr, ge
/home/rahulmahadev/hikey_optee/optee_os/lib/libmpa/mpa_cmp.c:111
    b120:	6b1f005f 	cmp	w2, wzr
    b124:	5a9fa063 	csinv	w3, w3, wzr, ge
    b128:	6b03027f 	cmp	w19, w3
    b12c:	54000161 	b.ne	b158 <mpa_cmp+0x58>
/home/rahulmahadev/hikey_optee/optee_os/lib/libmpa/mpa_cmp.c:115
    b130:	350000c4 	cbnz	w4, b148 <mpa_cmp+0x48>
/home/rahulmahadev/hikey_optee/optee_os/lib/libmpa/mpa_cmp.c:116
    b134:	6b1f005f 	cmp	w2, wzr
    b138:	54000120 	b.eq	b15c <mpa_cmp+0x5c>
/home/rahulmahadev/hikey_optee/optee_os/lib/libmpa/mpa_cmp.c:116 (discriminator 1)
    b13c:	12800002 	mov	w2, #0xffffffff            	// #-1
    b140:	1a9fa442 	csinc	w2, w2, wzr, ge
    b144:	14000006 	b	b15c <mpa_cmp+0x5c>
/home/rahulmahadev/hikey_optee/optee_os/lib/libmpa/mpa_cmp.c:122
    b148:	97ffffb6 	bl	b020 <__mpa_abs_cmp>
/home/rahulmahadev/hikey_optee/optee_os/lib/libmpa/mpa_cmp.c:124
    b14c:	7100067f 	cmp	w19, #0x1
    b150:	5a800402 	cneg	w2, w0, ne
    b154:	14000002 	b	b15c <mpa_cmp+0x5c>
    b158:	2a1303e2 	mov	w2, w19
/home/rahulmahadev/hikey_optee/optee_os/lib/libmpa/mpa_cmp.c:126
    b15c:	2a0203e0 	mov	w0, w2
    b160:	f9400bf3 	ldr	x19, [sp,#16]
    b164:	a8c27bfd 	ldp	x29, x30, [sp],#32
    b168:	d65f03c0 	ret

000000000000b16c <mpa_cmp_short>:
mpa_cmp_short():
/home/rahulmahadev/hikey_optee/optee_os/lib/libmpa/mpa_cmp.c:144
    b16c:	b9400402 	ldr	w2, [x0,#4]
    b170:	52800023 	mov	w3, #0x1                   	// #1
    b174:	6b1f005f 	cmp	w2, wzr
    b178:	5a9fa064 	csinv	w4, w3, wzr, ge
/home/rahulmahadev/hikey_optee/optee_os/lib/libmpa/mpa_cmp.c:145
    b17c:	37f800a1 	tbnz	w1, #31, b190 <mpa_cmp_short+0x24>
/home/rahulmahadev/hikey_optee/optee_os/lib/libmpa/mpa_cmp.c:148 (discriminator 4)
    b180:	350000c2 	cbnz	w2, b198 <mpa_cmp_short+0x2c>
/home/rahulmahadev/hikey_optee/optee_os/lib/libmpa/mpa_cmp.c:149
    b184:	340002c1 	cbz	w1, b1dc <mpa_cmp_short+0x70>
/home/rahulmahadev/hikey_optee/optee_os/lib/libmpa/mpa_cmp.c:149 (discriminator 1)
    b188:	4b0303e2 	neg	w2, w3
    b18c:	14000014 	b	b1dc <mpa_cmp_short+0x70>
/home/rahulmahadev/hikey_optee/optee_os/lib/libmpa/mpa_cmp.c:145
    b190:	12800003 	mov	w3, #0xffffffff            	// #-1
/home/rahulmahadev/hikey_optee/optee_os/lib/libmpa/mpa_cmp.c:148
    b194:	34ffffa2 	cbz	w2, b188 <mpa_cmp_short+0x1c>
/home/rahulmahadev/hikey_optee/optee_os/lib/libmpa/mpa_cmp.c:156
    b198:	6b03009f 	cmp	w4, w3
    b19c:	540001e1 	b.ne	b1d8 <mpa_cmp_short+0x6c>
/home/rahulmahadev/hikey_optee/optee_os/lib/libmpa/mpa_cmp.c:152
    b1a0:	93407c43 	sxtw	x3, w2
    b1a4:	ca83fc62 	eor	x2, x3, x3, asr #63
    b1a8:	cb83fc43 	sub	x3, x2, x3, asr #63
/home/rahulmahadev/hikey_optee/optee_os/lib/libmpa/mpa_cmp.c:156
    b1ac:	7100047f 	cmp	w3, #0x1
    b1b0:	54000141 	b.ne	b1d8 <mpa_cmp_short+0x6c>
/home/rahulmahadev/hikey_optee/optee_os/lib/libmpa/mpa_cmp.c:161
    b1b4:	93407c21 	sxtw	x1, w1
/home/rahulmahadev/hikey_optee/optee_os/lib/libmpa/mpa_cmp.c:163
    b1b8:	b9400800 	ldr	w0, [x0,#8]
/home/rahulmahadev/hikey_optee/optee_os/lib/libmpa/mpa_cmp.c:161
    b1bc:	ca81fc22 	eor	x2, x1, x1, asr #63
    b1c0:	cb81fc41 	sub	x1, x2, x1, asr #63
/home/rahulmahadev/hikey_optee/optee_os/lib/libmpa/mpa_cmp.c:163
    b1c4:	6b01001f 	cmp	w0, w1
/home/rahulmahadev/hikey_optee/optee_os/lib/libmpa/mpa_cmp.c:166
    b1c8:	5a848484 	cneg	w4, w4, ls
    b1cc:	6b01001f 	cmp	w0, w1
    b1d0:	1a9f1082 	csel	w2, w4, wzr, ne
    b1d4:	14000002 	b	b1dc <mpa_cmp_short+0x70>
    b1d8:	2a0403e2 	mov	w2, w4
/home/rahulmahadev/hikey_optee/optee_os/lib/libmpa/mpa_cmp.c:171
    b1dc:	2a0203e0 	mov	w0, w2
    b1e0:	d65f03c0 	ret

000000000000b1e4 <mpa_exp_mod>:
mpa_exp_mod():
/home/rahulmahadev/hikey_optee/optee_os/lib/libmpa/mpa_expmod.c:43
    b1e4:	a9b77bfd 	stp	x29, x30, [sp,#-144]!
    b1e8:	910003fd 	mov	x29, sp
    b1ec:	a9046bf9 	stp	x25, x26, [sp,#64]
/home/rahulmahadev/hikey_optee/optee_os/lib/libmpa/mpa_expmod.c:52
    b1f0:	9101e3b9 	add	x25, x29, #0x78
/home/rahulmahadev/hikey_optee/optee_os/lib/libmpa/mpa_expmod.c:54
    b1f4:	910223ba 	add	x26, x29, #0x88
/home/rahulmahadev/hikey_optee/optee_os/lib/libmpa/mpa_expmod.c:43
    b1f8:	a90363f7 	stp	x23, x24, [sp,#48]
    b1fc:	f90037a0 	str	x0, [x29,#104]
    b200:	aa0103f7 	mov	x23, x1
/home/rahulmahadev/hikey_optee/optee_os/lib/libmpa/mpa_expmod.c:52
    b204:	aa1903e0 	mov	x0, x25
    b208:	aa0703e1 	mov	x1, x7
/home/rahulmahadev/hikey_optee/optee_os/lib/libmpa/mpa_expmod.c:43
    b20c:	f90033a5 	str	x5, [x29,#96]
/home/rahulmahadev/hikey_optee/optee_os/lib/libmpa/mpa_expmod.c:53
    b210:	910203b8 	add	x24, x29, #0x80
/home/rahulmahadev/hikey_optee/optee_os/lib/libmpa/mpa_expmod.c:43
    b214:	a90153f3 	stp	x19, x20, [sp,#16]
    b218:	a9025bf5 	stp	x21, x22, [sp,#32]
    b21c:	aa0703f4 	mov	x20, x7
    b220:	2a0603f6 	mov	w22, w6
    b224:	aa0403f3 	mov	x19, x4
    b228:	aa0303f5 	mov	x21, x3
    b22c:	a90573fb 	stp	x27, x28, [sp,#80]
    b230:	aa0203fb 	mov	x27, x2
/home/rahulmahadev/hikey_optee/optee_os/lib/libmpa/mpa_expmod.c:52
    b234:	97fffafa 	bl	9e1c <mpa_alloc_static_temp_var>
/home/rahulmahadev/hikey_optee/optee_os/lib/libmpa/mpa_expmod.c:53
    b238:	aa1403e1 	mov	x1, x20
    b23c:	aa1803e0 	mov	x0, x24
/home/rahulmahadev/hikey_optee/optee_os/lib/libmpa/mpa_expmod.c:61
    b240:	aa1903fc 	mov	x28, x25
/home/rahulmahadev/hikey_optee/optee_os/lib/libmpa/mpa_expmod.c:53
    b244:	97fffaf6 	bl	9e1c <mpa_alloc_static_temp_var>
/home/rahulmahadev/hikey_optee/optee_os/lib/libmpa/mpa_expmod.c:54
    b248:	aa1403e1 	mov	x1, x20
    b24c:	aa1a03e0 	mov	x0, x26
    b250:	97fffaf3 	bl	9e1c <mpa_alloc_static_temp_var>
/home/rahulmahadev/hikey_optee/optee_os/lib/libmpa/mpa_expmod.c:58
    b254:	f94033a2 	ldr	x2, [x29,#96]
    b258:	2a1603e4 	mov	w4, w22
    b25c:	f94047a0 	ldr	x0, [x29,#136]
    b260:	aa1503e3 	mov	x3, x21
    b264:	aa1703e1 	mov	x1, x23
    b268:	97fff44d 	bl	839c <__mpa_montgomery_mul>
/home/rahulmahadev/hikey_optee/optee_os/lib/libmpa/mpa_expmod.c:60
    b26c:	f9403fa0 	ldr	x0, [x29,#120]
    b270:	aa1303e1 	mov	x1, x19
/home/rahulmahadev/hikey_optee/optee_os/lib/libmpa/mpa_expmod.c:62
    b274:	aa1803f3 	mov	x19, x24
/home/rahulmahadev/hikey_optee/optee_os/lib/libmpa/mpa_expmod.c:60
    b278:	97fff3b7 	bl	8154 <mpa_copy>
/home/rahulmahadev/hikey_optee/optee_os/lib/libmpa/mpa_expmod.c:63
    b27c:	f9403fa0 	ldr	x0, [x29,#120]
    b280:	97fff39f 	bl	80fc <__mpa_set_unused_digits_to_zero>
/home/rahulmahadev/hikey_optee/optee_os/lib/libmpa/mpa_expmod.c:64
    b284:	f94043a0 	ldr	x0, [x29,#128]
    b288:	97fff39d 	bl	80fc <__mpa_set_unused_digits_to_zero>
/home/rahulmahadev/hikey_optee/optee_os/lib/libmpa/mpa_expmod.c:65
    b28c:	aa1b03e0 	mov	x0, x27
    b290:	97fff3d1 	bl	81d4 <mpa_highest_bit_index>
    b294:	2a0003f7 	mov	w23, w0
/home/rahulmahadev/hikey_optee/optee_os/lib/libmpa/mpa_expmod.c:66 (discriminator 1)
    b298:	2a1603e4 	mov	w4, w22
    b29c:	aa1503e3 	mov	x3, x21
    b2a0:	f9400382 	ldr	x2, [x28]
/home/rahulmahadev/hikey_optee/optee_os/lib/libmpa/mpa_expmod.c:65 (discriminator 1)
    b2a4:	37f802f7 	tbnz	w23, #31, b300 <mpa_exp_mod+0x11c>
/home/rahulmahadev/hikey_optee/optee_os/lib/libmpa/mpa_expmod.c:66
    b2a8:	f9400260 	ldr	x0, [x19]
    b2ac:	aa0203e1 	mov	x1, x2
    b2b0:	97fff43b 	bl	839c <__mpa_montgomery_mul>
/home/rahulmahadev/hikey_optee/optee_os/lib/libmpa/mpa_expmod.c:67
    b2b4:	2a1703e1 	mov	w1, w23
    b2b8:	aa1b03e0 	mov	x0, x27
    b2bc:	97fff3d8 	bl	821c <mpa_get_bit>
    b2c0:	7100041f 	cmp	w0, #0x1
    b2c4:	54000141 	b.ne	b2ec <mpa_exp_mod+0x108>
/home/rahulmahadev/hikey_optee/optee_os/lib/libmpa/mpa_expmod.c:68
    b2c8:	f9400380 	ldr	x0, [x28]
    b2cc:	2a1603e4 	mov	w4, w22
    b2d0:	f9400261 	ldr	x1, [x19]
    b2d4:	aa1503e3 	mov	x3, x21
    b2d8:	f94047a2 	ldr	x2, [x29,#136]
    b2dc:	97fff430 	bl	839c <__mpa_montgomery_mul>
    b2e0:	aa1303e0 	mov	x0, x19
    b2e4:	aa1c03f3 	mov	x19, x28
    b2e8:	aa0003fc 	mov	x28, x0
/home/rahulmahadev/hikey_optee/optee_os/lib/libmpa/mpa_expmod.c:65 (discriminator 2)
    b2ec:	aa1c03e0 	mov	x0, x28
    b2f0:	510006f7 	sub	w23, w23, #0x1
    b2f4:	aa1303fc 	mov	x28, x19
    b2f8:	aa0003f3 	mov	x19, x0
    b2fc:	17ffffe7 	b	b298 <mpa_exp_mod+0xb4>
/home/rahulmahadev/hikey_optee/optee_os/lib/libmpa/mpa_expmod.c:77
    b300:	f0000001 	adrp	x1, e000 <__compound_literal.2+0x72a>
    b304:	f9400260 	ldr	x0, [x19]
    b308:	f9409021 	ldr	x1, [x1,#288]
    b30c:	97fff424 	bl	839c <__mpa_montgomery_mul>
/home/rahulmahadev/hikey_optee/optee_os/lib/libmpa/mpa_expmod.c:80
    b310:	f9400261 	ldr	x1, [x19]
    b314:	f94037a0 	ldr	x0, [x29,#104]
    b318:	97fff38f 	bl	8154 <mpa_copy>
/home/rahulmahadev/hikey_optee/optee_os/lib/libmpa/mpa_expmod.c:82
    b31c:	aa1403e1 	mov	x1, x20
    b320:	aa1903e0 	mov	x0, x25
    b324:	97fffac2 	bl	9e2c <mpa_free_static_temp_var>
/home/rahulmahadev/hikey_optee/optee_os/lib/libmpa/mpa_expmod.c:83
    b328:	aa1403e1 	mov	x1, x20
    b32c:	aa1803e0 	mov	x0, x24
    b330:	97fffabf 	bl	9e2c <mpa_free_static_temp_var>
/home/rahulmahadev/hikey_optee/optee_os/lib/libmpa/mpa_expmod.c:84
    b334:	aa1403e1 	mov	x1, x20
    b338:	aa1a03e0 	mov	x0, x26
    b33c:	97fffabc 	bl	9e2c <mpa_free_static_temp_var>
/home/rahulmahadev/hikey_optee/optee_os/lib/libmpa/mpa_expmod.c:85
    b340:	a94153f3 	ldp	x19, x20, [sp,#16]
    b344:	a9425bf5 	ldp	x21, x22, [sp,#32]
    b348:	a94363f7 	ldp	x23, x24, [sp,#48]
    b34c:	a9446bf9 	ldp	x25, x26, [sp,#64]
    b350:	a94573fb 	ldp	x27, x28, [sp,#80]
    b354:	a8c97bfd 	ldp	x29, x30, [sp],#144
    b358:	d65f03c0 	ret

000000000000b35c <mpa_init_static>:
mpa_init_static():
/home/rahulmahadev/hikey_optee/optee_os/lib/libmpa/mpa_init.c:35
    b35c:	531e7421 	lsl	w1, w1, #2
/home/rahulmahadev/hikey_optee/optee_os/lib/libmpa/mpa_init.c:36
    b360:	b900041f 	str	wzr, [x0,#4]
/home/rahulmahadev/hikey_optee/optee_os/lib/libmpa/mpa_init.c:35
    b364:	51002021 	sub	w1, w1, #0x8
    b368:	d3427c21 	ubfx	x1, x1, #2, #30
    b36c:	b9000001 	str	w1, [x0]
/home/rahulmahadev/hikey_optee/optee_os/lib/libmpa/mpa_init.c:37
    b370:	b4000041 	cbz	x1, b378 <mpa_init_static+0x1c>
/home/rahulmahadev/hikey_optee/optee_os/lib/libmpa/mpa_init.c:38
    b374:	b900081f 	str	wzr, [x0,#8]
/home/rahulmahadev/hikey_optee/optee_os/lib/libmpa/mpa_init.c:39
    b378:	d65f03c0 	ret

000000000000b37c <mpa_init_static_fmm_context>:
mpa_init_static_fmm_context():
/home/rahulmahadev/hikey_optee/optee_os/lib/libmpa/mpa_init.c:47
    b37c:	a9bd7bfd 	stp	x29, x30, [sp,#-48]!
/home/rahulmahadev/hikey_optee/optee_os/lib/libmpa/mpa_init.c:51
    b380:	531e7421 	lsl	w1, w1, #2
/home/rahulmahadev/hikey_optee/optee_os/lib/libmpa/mpa_init.c:47
    b384:	910003fd 	mov	x29, sp
    b388:	a90153f3 	stp	x19, x20, [sp,#16]
/home/rahulmahadev/hikey_optee/optee_os/lib/libmpa/mpa_init.c:51
    b38c:	51006033 	sub	w19, w1, #0x18
/home/rahulmahadev/hikey_optee/optee_os/lib/libmpa/mpa_init.c:47
    b390:	f90013f5 	str	x21, [sp,#32]
/home/rahulmahadev/hikey_optee/optee_os/lib/libmpa/mpa_init.c:51
    b394:	d3427e73 	ubfx	x19, x19, #2, #30
/home/rahulmahadev/hikey_optee/optee_os/lib/libmpa/mpa_init.c:54
    b398:	91005015 	add	x21, x0, #0x14
/home/rahulmahadev/hikey_optee/optee_os/lib/libmpa/mpa_init.c:47
    b39c:	aa0003f4 	mov	x20, x0
/home/rahulmahadev/hikey_optee/optee_os/lib/libmpa/mpa_init.c:54
    b3a0:	d37ef662 	lsl	x2, x19, #2
    b3a4:	52800001 	mov	w1, #0x0                   	// #0
    b3a8:	aa1503e0 	mov	x0, x21
/home/rahulmahadev/hikey_optee/optee_os/lib/libmpa/mpa_init.c:55
    b3ac:	53017e73 	lsr	w19, w19, #1
/home/rahulmahadev/hikey_optee/optee_os/lib/libmpa/mpa_init.c:54
    b3b0:	97ffef98 	bl	7210 <memset>
/home/rahulmahadev/hikey_optee/optee_os/lib/libmpa/mpa_init.c:60
    b3b4:	f9000295 	str	x21, [x20]
/home/rahulmahadev/hikey_optee/optee_os/lib/libmpa/mpa_init.c:62
    b3b8:	51000a61 	sub	w1, w19, #0x2
/home/rahulmahadev/hikey_optee/optee_os/lib/libmpa/mpa_init.c:65
    b3bc:	91001273 	add	x19, x19, #0x4
/home/rahulmahadev/hikey_optee/optee_os/lib/libmpa/mpa_init.c:58
    b3c0:	b900129f 	str	wzr, [x20,#16]
/home/rahulmahadev/hikey_optee/optee_os/lib/libmpa/mpa_init.c:65
    b3c4:	8b130a93 	add	x19, x20, x19, lsl #2
/home/rahulmahadev/hikey_optee/optee_os/lib/libmpa/mpa_init.c:61
    b3c8:	b9001681 	str	w1, [x20,#20]
/home/rahulmahadev/hikey_optee/optee_os/lib/libmpa/mpa_init.c:63
    b3cc:	b9001a9f 	str	wzr, [x20,#24]
/home/rahulmahadev/hikey_optee/optee_os/lib/libmpa/mpa_init.c:65
    b3d0:	91001260 	add	x0, x19, #0x4
    b3d4:	f9000680 	str	x0, [x20,#8]
/home/rahulmahadev/hikey_optee/optee_os/lib/libmpa/mpa_init.c:66
    b3d8:	b9000661 	str	w1, [x19,#4]
/home/rahulmahadev/hikey_optee/optee_os/lib/libmpa/mpa_init.c:68
    b3dc:	b9000a7f 	str	wzr, [x19,#8]
/home/rahulmahadev/hikey_optee/optee_os/lib/libmpa/mpa_init.c:69
    b3e0:	f94013f5 	ldr	x21, [sp,#32]
    b3e4:	a94153f3 	ldp	x19, x20, [sp,#16]
    b3e8:	a8c37bfd 	ldp	x29, x30, [sp],#48
    b3ec:	d65f03c0 	ret

000000000000b3f0 <__mpa_word_to_hexstr>:
__mpa_word_to_hexstr():
/home/rahulmahadev/hikey_optee/optee_os/lib/libmpa/mpa_io.c:127
    b3f0:	d2800004 	mov	x4, #0x0                   	// #0
    b3f4:	11001c83 	add	w3, w4, #0x7
/home/rahulmahadev/hikey_optee/optee_os/lib/libmpa/mpa_io.c:131 (discriminator 3)
    b3f8:	531e7463 	lsl	w3, w3, #2
    b3fc:	1ac32423 	lsr	w3, w1, w3
__mpa_nibble_to_char():
/home/rahulmahadev/hikey_optee/optee_os/lib/libmpa/mpa_io.c:115 (discriminator 3)
    b400:	12000c63 	and	w3, w3, #0xf
/home/rahulmahadev/hikey_optee/optee_os/lib/libmpa/mpa_io.c:116 (discriminator 3)
    b404:	7100247f 	cmp	w3, #0x9
    b408:	54000068 	b.hi	b414 <__mpa_word_to_hexstr+0x24>
/home/rahulmahadev/hikey_optee/optee_os/lib/libmpa/mpa_io.c:117
    b40c:	1100c063 	add	w3, w3, #0x30
    b410:	14000006 	b	b428 <__mpa_word_to_hexstr+0x38>
/home/rahulmahadev/hikey_optee/optee_os/lib/libmpa/mpa_io.c:118
    b414:	35000062 	cbnz	w2, b420 <__mpa_word_to_hexstr+0x30>
    b418:	1100dc63 	add	w3, w3, #0x37
    b41c:	14000003 	b	b428 <__mpa_word_to_hexstr+0x38>
    b420:	11015c63 	add	w3, w3, #0x57
    b424:	53001c63 	uxtb	w3, w3
    b428:	8b040005 	add	x5, x0, x4
    b42c:	d1000484 	sub	x4, x4, #0x1
__mpa_word_to_hexstr():
/home/rahulmahadev/hikey_optee/optee_os/lib/libmpa/mpa_io.c:129
    b430:	b100209f 	cmn	x4, #0x8
/home/rahulmahadev/hikey_optee/optee_os/lib/libmpa/mpa_io.c:130
    b434:	39001ca3 	strb	w3, [x5,#7]
/home/rahulmahadev/hikey_optee/optee_os/lib/libmpa/mpa_io.c:129
    b438:	54fffde1 	b.ne	b3f4 <__mpa_word_to_hexstr+0x4>
/home/rahulmahadev/hikey_optee/optee_os/lib/libmpa/mpa_io.c:133
    b43c:	d65f03c0 	ret

000000000000b440 <__mpa_mpanum_to_hexstr>:
__mpa_mpanum_to_hexstr():
/home/rahulmahadev/hikey_optee/optee_os/lib/libmpa/mpa_io.c:141
    b440:	a9ba7bfd 	stp	x29, x30, [sp,#-96]!
    b444:	910003fd 	mov	x29, sp
    b448:	a90153f3 	stp	x19, x20, [sp,#16]
/home/rahulmahadev/hikey_optee/optee_os/lib/libmpa/mpa_io.c:149
    b44c:	b9800453 	ldrsw	x19, [x2,#4]
/home/rahulmahadev/hikey_optee/optee_os/lib/libmpa/mpa_io.c:141
    b450:	a9025bf5 	stp	x21, x22, [sp,#32]
    b454:	aa0003f5 	mov	x21, x0
/home/rahulmahadev/hikey_optee/optee_os/lib/libmpa/mpa_io.c:149
    b458:	ca93fe60 	eor	x0, x19, x19, asr #63
/home/rahulmahadev/hikey_optee/optee_os/lib/libmpa/mpa_io.c:141
    b45c:	a90363f7 	stp	x23, x24, [sp,#48]
    b460:	a9046bf9 	stp	x25, x26, [sp,#64]
/home/rahulmahadev/hikey_optee/optee_os/lib/libmpa/mpa_io.c:149
    b464:	cb93fc13 	sub	x19, x0, x19, asr #63
/home/rahulmahadev/hikey_optee/optee_os/lib/libmpa/mpa_io.c:141
    b468:	2a0103f7 	mov	w23, w1
    b46c:	aa0203fa 	mov	x26, x2
/home/rahulmahadev/hikey_optee/optee_os/lib/libmpa/mpa_io.c:150
    b470:	350000d3 	cbnz	w19, b488 <__mpa_mpanum_to_hexstr+0x48>
/home/rahulmahadev/hikey_optee/optee_os/lib/libmpa/mpa_io.c:151
    b474:	52800600 	mov	w0, #0x30                  	// #48
/home/rahulmahadev/hikey_optee/optee_os/lib/libmpa/mpa_io.c:152
    b478:	390006bf 	strb	wzr, [x21,#1]
/home/rahulmahadev/hikey_optee/optee_os/lib/libmpa/mpa_io.c:151
    b47c:	390002a0 	strb	w0, [x21]
/home/rahulmahadev/hikey_optee/optee_os/lib/libmpa/mpa_io.c:153
    b480:	52800020 	mov	w0, #0x1                   	// #1
    b484:	14000035 	b	b558 <__mpa_mpanum_to_hexstr+0x118>
/home/rahulmahadev/hikey_optee/optee_os/lib/libmpa/mpa_io.c:155
    b488:	51000676 	sub	w22, w19, #0x1
/home/rahulmahadev/hikey_optee/optee_os/lib/libmpa/mpa_io.c:161
    b48c:	910163b8 	add	x24, x29, #0x58
    b490:	8b36c840 	add	x0, x2, w22, sxtw #2
    b494:	2a0103e2 	mov	w2, w1
    b498:	b9400801 	ldr	w1, [x0,#8]
    b49c:	aa1803e0 	mov	x0, x24
    b4a0:	97ffffd4 	bl	b3f0 <__mpa_word_to_hexstr>
/home/rahulmahadev/hikey_optee/optee_os/lib/libmpa/mpa_io.c:165
    b4a4:	d2800001 	mov	x1, #0x0                   	// #0
    b4a8:	b100203f 	cmn	x1, #0x8
    b4ac:	11001c34 	add	w20, w1, #0x7
    b4b0:	540000c0 	b.eq	b4c8 <__mpa_mpanum_to_hexstr+0x88>
    b4b4:	d1000421 	sub	x1, x1, #0x1
    b4b8:	8b010300 	add	x0, x24, x1
/home/rahulmahadev/hikey_optee/optee_os/lib/libmpa/mpa_io.c:166
    b4bc:	39402000 	ldrb	w0, [x0,#8]
    b4c0:	7100c01f 	cmp	w0, #0x30
    b4c4:	54ffff20 	b.eq	b4a8 <__mpa_mpanum_to_hexstr+0x68>
    b4c8:	2a1403e1 	mov	w1, w20
    b4cc:	aa1503e0 	mov	x0, x21
/home/rahulmahadev/hikey_optee/optee_os/lib/libmpa/mpa_io.c:168
    b4d0:	3100043f 	cmn	w1, #0x1
    b4d4:	540000e0 	b.eq	b4f0 <__mpa_mpanum_to_hexstr+0xb0>
/home/rahulmahadev/hikey_optee/optee_os/lib/libmpa/mpa_io.c:169
    b4d8:	910183a2 	add	x2, x29, #0x60
    b4dc:	8b21c042 	add	x2, x2, w1, sxtw
    b4e0:	385f8042 	ldrb	w2, [x2,#-8]
    b4e4:	51000421 	sub	w1, w1, #0x1
    b4e8:	38001402 	strb	w2, [x0],#1
    b4ec:	17fffff9 	b	b4d0 <__mpa_mpanum_to_hexstr+0x90>
    b4f0:	11000694 	add	w20, w20, #0x1
/home/rahulmahadev/hikey_optee/optee_os/lib/libmpa/mpa_io.c:172
    b4f4:	51000a73 	sub	w19, w19, #0x2
    b4f8:	8b1402b4 	add	x20, x21, x20
/home/rahulmahadev/hikey_optee/optee_os/lib/libmpa/mpa_io.c:173
    b4fc:	aa1403f9 	mov	x25, x20
    b500:	3100067f 	cmn	w19, #0x1
    b504:	54000220 	b.eq	b548 <__mpa_mpanum_to_hexstr+0x108>
/home/rahulmahadev/hikey_optee/optee_os/lib/libmpa/mpa_io.c:174
    b508:	8b33cb40 	add	x0, x26, w19, sxtw #2
    b50c:	b9400801 	ldr	w1, [x0,#8]
    b510:	2a1703e2 	mov	w2, w23
    b514:	aa1803e0 	mov	x0, x24
    b518:	97ffffb6 	bl	b3f0 <__mpa_word_to_hexstr>
    b51c:	d2800003 	mov	x3, #0x0                   	// #0
    b520:	8b030301 	add	x1, x24, x3
    b524:	cb0303e0 	neg	x0, x3
    b528:	d1000463 	sub	x3, x3, #0x1
/home/rahulmahadev/hikey_optee/optee_os/lib/libmpa/mpa_io.c:176
    b52c:	b100207f 	cmn	x3, #0x8
/home/rahulmahadev/hikey_optee/optee_os/lib/libmpa/mpa_io.c:177
    b530:	39401c21 	ldrb	w1, [x1,#7]
    b534:	38206b21 	strb	w1, [x25,x0]
/home/rahulmahadev/hikey_optee/optee_os/lib/libmpa/mpa_io.c:176
    b538:	54ffff41 	b.ne	b520 <__mpa_mpanum_to_hexstr+0xe0>
    b53c:	91002339 	add	x25, x25, #0x8
/home/rahulmahadev/hikey_optee/optee_os/lib/libmpa/mpa_io.c:178
    b540:	51000673 	sub	w19, w19, #0x1
    b544:	17ffffef 	b	b500 <__mpa_mpanum_to_hexstr+0xc0>
    b548:	d37d7ed6 	ubfiz	x22, x22, #3, #32
    b54c:	8b160280 	add	x0, x20, x22
/home/rahulmahadev/hikey_optee/optee_os/lib/libmpa/mpa_io.c:182
    b550:	4b150000 	sub	w0, w0, w21
/home/rahulmahadev/hikey_optee/optee_os/lib/libmpa/mpa_io.c:181
    b554:	38366a9f 	strb	wzr, [x20,x22]
/home/rahulmahadev/hikey_optee/optee_os/lib/libmpa/mpa_io.c:183
    b558:	a94153f3 	ldp	x19, x20, [sp,#16]
    b55c:	a9425bf5 	ldp	x21, x22, [sp,#32]
    b560:	a94363f7 	ldp	x23, x24, [sp,#48]
    b564:	a9446bf9 	ldp	x25, x26, [sp,#64]
    b568:	a8c67bfd 	ldp	x29, x30, [sp],#96
    b56c:	d65f03c0 	ret

000000000000b570 <__mpa_isspace>:
__mpa_isspace():
/home/rahulmahadev/hikey_optee/optee_os/lib/libmpa/mpa_io.c:47
    b570:	53001c01 	uxtb	w1, w0
/home/rahulmahadev/hikey_optee/optee_os/lib/libmpa/mpa_io.c:52
    b574:	71017c3f 	cmp	w1, #0x5f
    b578:	54000160 	b.eq	b5a4 <__mpa_isspace+0x34>
    b57c:	7100803f 	cmp	w1, #0x20
    b580:	54000120 	b.eq	b5a4 <__mpa_isspace+0x34>
    b584:	51002420 	sub	w0, w1, #0x9
    b588:	53001c00 	uxtb	w0, w0
    b58c:	7100041f 	cmp	w0, #0x1
    b590:	1a9f87e2 	cset	w2, ls
    b594:	7100343f 	cmp	w1, #0xd
    b598:	1a9f17e0 	cset	w0, eq
    b59c:	2a000040 	orr	w0, w2, w0
    b5a0:	14000002 	b	b5a8 <__mpa_isspace+0x38>
    b5a4:	52800020 	mov	w0, #0x1                   	// #1
/home/rahulmahadev/hikey_optee/optee_os/lib/libmpa/mpa_io.c:54
    b5a8:	d65f03c0 	ret

000000000000b5ac <mpa_get_str_size>:
mpa_get_str_size():
/home/rahulmahadev/hikey_optee/optee_os/lib/libmpa/mpa_io.c:235
    b5ac:	52820040 	mov	w0, #0x1002                	// #4098
    b5b0:	d65f03c0 	ret

000000000000b5b4 <mpa_set_str>:
mpa_set_str():
/home/rahulmahadev/hikey_optee/optee_os/lib/libmpa/mpa_io.c:259
    b5b4:	a9bb7bfd 	stp	x29, x30, [sp,#-80]!
    b5b8:	910003fd 	mov	x29, sp
    b5bc:	a9025bf5 	stp	x21, x22, [sp,#32]
    b5c0:	a90153f3 	stp	x19, x20, [sp,#16]
    b5c4:	a90363f7 	stp	x23, x24, [sp,#48]
    b5c8:	aa0003f6 	mov	x22, x0
/home/rahulmahadev/hikey_optee/optee_os/lib/libmpa/mpa_io.c:278
    b5cc:	39400020 	ldrb	w0, [x1]
    b5d0:	34001300 	cbz	w0, b830 <mpa_set_str+0x27c>
/home/rahulmahadev/hikey_optee/optee_os/lib/libmpa/mpa_io.c:283 (discriminator 1)
    b5d4:	aa0103f4 	mov	x20, x1
    b5d8:	f90027a1 	str	x1, [x29,#72]
    b5dc:	38401693 	ldrb	w19, [x20],#1
/home/rahulmahadev/hikey_optee/optee_os/lib/libmpa/mpa_io.c:284 (discriminator 1)
    b5e0:	2a1303e0 	mov	w0, w19
    b5e4:	97ffffe3 	bl	b570 <__mpa_isspace>
    b5e8:	2a0003f5 	mov	w21, w0
    b5ec:	f94027a1 	ldr	x1, [x29,#72]
    b5f0:	34000060 	cbz	w0, b5fc <mpa_set_str+0x48>
    b5f4:	aa1403e1 	mov	x1, x20
    b5f8:	17fffff7 	b	b5d4 <mpa_set_str+0x20>
/home/rahulmahadev/hikey_optee/optee_os/lib/libmpa/mpa_io.c:288
    b5fc:	7100b67f 	cmp	w19, #0x2d
/home/rahulmahadev/hikey_optee/optee_os/lib/libmpa/mpa_io.c:287
    b600:	52800017 	mov	w23, #0x0                   	// #0
/home/rahulmahadev/hikey_optee/optee_os/lib/libmpa/mpa_io.c:288
    b604:	54000081 	b.ne	b614 <mpa_set_str+0x60>
/home/rahulmahadev/hikey_optee/optee_os/lib/libmpa/mpa_io.c:290
    b608:	39400433 	ldrb	w19, [x1,#1]
    b60c:	91000834 	add	x20, x1, #0x2
/home/rahulmahadev/hikey_optee/optee_os/lib/libmpa/mpa_io.c:289
    b610:	52800037 	mov	w23, #0x1                   	// #1
/home/rahulmahadev/hikey_optee/optee_os/lib/libmpa/mpa_io.c:292
    b614:	350000b3 	cbnz	w19, b628 <mpa_set_str+0x74>
/home/rahulmahadev/hikey_optee/optee_os/lib/libmpa/mpa_io.c:293
    b618:	52800001 	mov	w1, #0x0                   	// #0
    b61c:	aa1603e0 	mov	x0, x22
    b620:	97fff535 	bl	8af4 <mpa_set_word>
/home/rahulmahadev/hikey_optee/optee_os/lib/libmpa/mpa_io.c:294
    b624:	14000089 	b	b848 <mpa_set_str+0x294>
/home/rahulmahadev/hikey_optee/optee_os/lib/libmpa/mpa_io.c:298
    b628:	7100c27f 	cmp	w19, #0x30
    b62c:	540001c1 	b.ne	b664 <mpa_set_str+0xb0>
/home/rahulmahadev/hikey_optee/optee_os/lib/libmpa/mpa_io.c:299
    b630:	39400293 	ldrb	w19, [x20]
/home/rahulmahadev/hikey_optee/optee_os/lib/libmpa/mpa_io.c:300
    b634:	121a7a60 	and	w0, w19, #0xffffffdf
    b638:	7101601f 	cmp	w0, #0x58
    b63c:	54000060 	b.eq	b648 <mpa_set_str+0x94>
/home/rahulmahadev/hikey_optee/optee_os/lib/libmpa/mpa_io.c:299
    b640:	91000694 	add	x20, x20, #0x1
    b644:	14000008 	b	b664 <mpa_set_str+0xb0>
/home/rahulmahadev/hikey_optee/optee_os/lib/libmpa/mpa_io.c:301
    b648:	39400693 	ldrb	w19, [x20,#1]
    b64c:	91000a94 	add	x20, x20, #0x2
    b650:	14000005 	b	b664 <mpa_set_str+0xb0>
/home/rahulmahadev/hikey_optee/optee_os/lib/libmpa/mpa_io.c:305 (discriminator 1)
    b654:	2a1303e0 	mov	w0, w19
    b658:	97ffffc6 	bl	b570 <__mpa_isspace>
    b65c:	340000a0 	cbz	w0, b670 <mpa_set_str+0xbc>
/home/rahulmahadev/hikey_optee/optee_os/lib/libmpa/mpa_io.c:306
    b660:	38401693 	ldrb	w19, [x20],#1
/home/rahulmahadev/hikey_optee/optee_os/lib/libmpa/mpa_io.c:305
    b664:	7100c27f 	cmp	w19, #0x30
    b668:	54ffff61 	b.ne	b654 <mpa_set_str+0xa0>
    b66c:	17fffffd 	b	b660 <mpa_set_str+0xac>
    b670:	aa1403e0 	mov	x0, x20
/home/rahulmahadev/hikey_optee/optee_os/lib/libmpa/mpa_io.c:309
    b674:	34fffd33 	cbz	w19, b618 <mpa_set_str+0x64>
/home/rahulmahadev/hikey_optee/optee_os/lib/libmpa/mpa_io.c:316
    b678:	39400001 	ldrb	w1, [x0]
    b67c:	34000061 	cbz	w1, b688 <mpa_set_str+0xd4>
/home/rahulmahadev/hikey_optee/optee_os/lib/libmpa/mpa_io.c:317
    b680:	91000400 	add	x0, x0, #0x1
    b684:	17fffffd 	b	b678 <mpa_set_str+0xc4>
/home/rahulmahadev/hikey_optee/optee_os/lib/libmpa/mpa_io.c:320
    b688:	cb140000 	sub	x0, x0, x20
/home/rahulmahadev/hikey_optee/optee_os/lib/libmpa/mpa_io.c:321
    b68c:	52820021 	mov	w1, #0x1001                	// #4097
    b690:	6b01001f 	cmp	w0, w1
    b694:	5400008c 	b.gt	b6a4 <mpa_set_str+0xf0>
    b698:	52800015 	mov	w21, #0x0                   	// #0
/home/rahulmahadev/hikey_optee/optee_os/lib/libmpa/mpa_io.c:326
    b69c:	b0000078 	adrp	x24, 18000 <mempool_u32+0xe58>
    b6a0:	14000015 	b	b6f4 <mpa_set_str+0x140>
/home/rahulmahadev/hikey_optee/optee_os/lib/libmpa/mpa_io.c:321 (discriminator 1)
    b6a4:	d0000001 	adrp	x1, d000 <PRIME_TABLE+0x388>
    b6a8:	d0000000 	adrp	x0, d000 <PRIME_TABLE+0x388>
    b6ac:	52802822 	mov	w2, #0x141                 	// #321
    b6b0:	91391421 	add	x1, x1, #0xe45
    b6b4:	91396400 	add	x0, x0, #0xe59
    b6b8:	14000028 	b	b758 <mpa_set_str+0x1a4>
__mpa_is_char_in_base():
/home/rahulmahadev/hikey_optee/optee_os/lib/libmpa/mpa_io.c:71
    b6bc:	5100c260 	sub	w0, w19, #0x30
/home/rahulmahadev/hikey_optee/optee_os/lib/libmpa/mpa_io.c:72
    b6c0:	121a7a61 	and	w1, w19, #0xffffffdf
/home/rahulmahadev/hikey_optee/optee_os/lib/libmpa/mpa_io.c:71
    b6c4:	7100241f 	cmp	w0, #0x9
/home/rahulmahadev/hikey_optee/optee_os/lib/libmpa/mpa_io.c:72
    b6c8:	51010421 	sub	w1, w1, #0x41
/home/rahulmahadev/hikey_optee/optee_os/lib/libmpa/mpa_io.c:71
    b6cc:	1a9f87e2 	cset	w2, ls
/home/rahulmahadev/hikey_optee/optee_os/lib/libmpa/mpa_io.c:72
    b6d0:	7100143f 	cmp	w1, #0x5
    b6d4:	540002c8 	b.hi	b72c <mpa_set_str+0x178>
mpa_set_str():
/home/rahulmahadev/hikey_optee/optee_os/lib/libmpa/mpa_io.c:326
    b6d8:	110006a1 	add	w1, w21, #0x1
__mpa_digit_value():
/home/rahulmahadev/hikey_optee/optee_os/lib/libmpa/mpa_io.c:86
    b6dc:	34000142 	cbz	w2, b704 <mpa_set_str+0x150>
/home/rahulmahadev/hikey_optee/optee_os/lib/libmpa/mpa_io.c:87
    b6e0:	2a0003f3 	mov	w19, w0
mpa_set_str():
/home/rahulmahadev/hikey_optee/optee_os/lib/libmpa/mpa_io.c:326
    b6e4:	91340300 	add	x0, x24, #0xd00
    b6e8:	3835c813 	strb	w19, [x0,w21,sxtw]
    b6ec:	2a0103f5 	mov	w21, w1
/home/rahulmahadev/hikey_optee/optee_os/lib/libmpa/mpa_io.c:327
    b6f0:	38401693 	ldrb	w19, [x20],#1
__mpa_is_char_in_base():
/home/rahulmahadev/hikey_optee/optee_os/lib/libmpa/mpa_io.c:64
    b6f4:	2a1303e0 	mov	w0, w19
    b6f8:	97ffff9e 	bl	b570 <__mpa_isspace>
    b6fc:	34fffe00 	cbz	w0, b6bc <mpa_set_str+0x108>
    b700:	17fffffc 	b	b6f0 <mpa_set_str+0x13c>
__mpa_digit_value():
/home/rahulmahadev/hikey_optee/optee_os/lib/libmpa/mpa_io.c:88
    b704:	51010660 	sub	w0, w19, #0x41
    b708:	7100141f 	cmp	w0, #0x5
    b70c:	54000068 	b.hi	b718 <mpa_set_str+0x164>
/home/rahulmahadev/hikey_optee/optee_os/lib/libmpa/mpa_io.c:89
    b710:	5100de73 	sub	w19, w19, #0x37
    b714:	17fffff4 	b	b6e4 <mpa_set_str+0x130>
/home/rahulmahadev/hikey_optee/optee_os/lib/libmpa/mpa_io.c:90
    b718:	51018660 	sub	w0, w19, #0x61
/home/rahulmahadev/hikey_optee/optee_os/lib/libmpa/mpa_io.c:91
    b71c:	51015e73 	sub	w19, w19, #0x57
    b720:	7100141f 	cmp	w0, #0x5
    b724:	1a9f9273 	csel	w19, w19, wzr, ls
    b728:	17ffffef 	b	b6e4 <mpa_set_str+0x130>
__mpa_is_char_in_base():
/home/rahulmahadev/hikey_optee/optee_os/lib/libmpa/mpa_io.c:72
    b72c:	35fffd62 	cbnz	w2, b6d8 <mpa_set_str+0x124>
mpa_set_str():
/home/rahulmahadev/hikey_optee/optee_os/lib/libmpa/mpa_io.c:330
    b730:	34000855 	cbz	w21, b838 <mpa_set_str+0x284>
__mpa_digitstr_to_binary_wsize_base_16():
/home/rahulmahadev/hikey_optee/optee_os/lib/libmpa/mpa_io.c:105
    b734:	11001ea0 	add	w0, w21, #0x7
mpa_set_str():
/home/rahulmahadev/hikey_optee/optee_os/lib/libmpa/mpa_io.c:335
    b738:	b94002c1 	ldr	w1, [x22]
    b73c:	6b800c3f 	cmp	w1, w0, asr #3
    b740:	54000102 	b.cs	b760 <mpa_set_str+0x1ac>
/home/rahulmahadev/hikey_optee/optee_os/lib/libmpa/mpa_io.c:335 (discriminator 1)
    b744:	d0000001 	adrp	x1, d000 <PRIME_TABLE+0x388>
    b748:	d0000000 	adrp	x0, d000 <PRIME_TABLE+0x388>
    b74c:	52802a02 	mov	w2, #0x150                 	// #336
    b750:	91391421 	add	x1, x1, #0xe45
    b754:	9139c800 	add	x0, x0, #0xe72
    b758:	97ffe942 	bl	5c60 <_assert_log>
    b75c:	97ffe94c 	bl	5c8c <_assert_break>
/home/rahulmahadev/hikey_optee/optee_os/lib/libmpa/mpa_io.c:340
    b760:	aa1603e0 	mov	x0, x22
    b764:	52800001 	mov	w1, #0x0                   	// #0
/home/rahulmahadev/hikey_optee/optee_os/lib/libmpa/mpa_io.c:339
    b768:	910022d3 	add	x19, x22, #0x8
/home/rahulmahadev/hikey_optee/optee_os/lib/libmpa/mpa_io.c:340
    b76c:	97fff4e2 	bl	8af4 <mpa_set_word>
/home/rahulmahadev/hikey_optee/optee_os/lib/libmpa/mpa_io.c:342
    b770:	b9000adf 	str	wzr, [x22,#8]
/home/rahulmahadev/hikey_optee/optee_os/lib/libmpa/mpa_io.c:344
    b774:	52800020 	mov	w0, #0x1                   	// #1
    b778:	b90006c0 	str	w0, [x22,#4]
/home/rahulmahadev/hikey_optee/optee_os/lib/libmpa/mpa_io.c:343
    b77c:	52800080 	mov	w0, #0x4                   	// #4
/home/rahulmahadev/hikey_optee/optee_os/lib/libmpa/mpa_io.c:345
    b780:	510006a3 	sub	w3, w21, #0x1
    b784:	b0000064 	adrp	x4, 18000 <mempool_u32+0xe58>
/home/rahulmahadev/hikey_optee/optee_os/lib/libmpa/mpa_io.c:349
    b788:	2a0003e5 	mov	w5, w0
/home/rahulmahadev/hikey_optee/optee_os/lib/libmpa/mpa_io.c:346
    b78c:	7100047f 	cmp	w3, #0x1
    b790:	b0000061 	adrp	x1, 18000 <mempool_u32+0xe58>
    b794:	540002cd 	b.le	b7ec <mpa_set_str+0x238>
/home/rahulmahadev/hikey_optee/optee_os/lib/libmpa/mpa_io.c:348
    b798:	91340082 	add	x2, x4, #0xd00
    b79c:	51000461 	sub	w1, w3, #0x1
    b7a0:	3861c841 	ldrb	w1, [x2,w1,sxtw]
    b7a4:	3863c842 	ldrb	w2, [x2,w3,sxtw]
/home/rahulmahadev/hikey_optee/optee_os/lib/libmpa/mpa_io.c:351
    b7a8:	51000863 	sub	w3, w3, #0x2
/home/rahulmahadev/hikey_optee/optee_os/lib/libmpa/mpa_io.c:348
    b7ac:	4a011042 	eor	w2, w2, w1, lsl #4
/home/rahulmahadev/hikey_optee/optee_os/lib/libmpa/mpa_io.c:349
    b7b0:	4b0000a1 	sub	w1, w5, w0
    b7b4:	531d7021 	lsl	w1, w1, #3
/home/rahulmahadev/hikey_optee/optee_os/lib/libmpa/mpa_io.c:352
    b7b8:	71000400 	subs	w0, w0, #0x1
/home/rahulmahadev/hikey_optee/optee_os/lib/libmpa/mpa_io.c:348
    b7bc:	1ac12041 	lsl	w1, w2, w1
/home/rahulmahadev/hikey_optee/optee_os/lib/libmpa/mpa_io.c:347
    b7c0:	b9400262 	ldr	w2, [x19]
    b7c4:	4a010041 	eor	w1, w2, w1
    b7c8:	b9000261 	str	w1, [x19]
/home/rahulmahadev/hikey_optee/optee_os/lib/libmpa/mpa_io.c:352
    b7cc:	54fffe01 	b.ne	b78c <mpa_set_str+0x1d8>
/home/rahulmahadev/hikey_optee/optee_os/lib/libmpa/mpa_io.c:354
    b7d0:	b900067f 	str	wzr, [x19,#4]
/home/rahulmahadev/hikey_optee/optee_os/lib/libmpa/mpa_io.c:353
    b7d4:	91001273 	add	x19, x19, #0x4
/home/rahulmahadev/hikey_optee/optee_os/lib/libmpa/mpa_io.c:356
    b7d8:	b94006c0 	ldr	w0, [x22,#4]
    b7dc:	11000400 	add	w0, w0, #0x1
    b7e0:	b90006c0 	str	w0, [x22,#4]
/home/rahulmahadev/hikey_optee/optee_os/lib/libmpa/mpa_io.c:355
    b7e4:	52800080 	mov	w0, #0x4                   	// #4
    b7e8:	17ffffe9 	b	b78c <mpa_set_str+0x1d8>
/home/rahulmahadev/hikey_optee/optee_os/lib/libmpa/mpa_io.c:359
    b7ec:	540002a1 	b.ne	b840 <mpa_set_str+0x28c>
/home/rahulmahadev/hikey_optee/optee_os/lib/libmpa/mpa_io.c:361
    b7f0:	91340022 	add	x2, x1, #0xd00
    b7f4:	39740021 	ldrb	w1, [x1,#3328]
    b7f8:	39400442 	ldrb	w2, [x2,#1]
    b7fc:	4a011041 	eor	w1, w2, w1, lsl #4
/home/rahulmahadev/hikey_optee/optee_os/lib/libmpa/mpa_io.c:362
    b800:	52800082 	mov	w2, #0x4                   	// #4
    b804:	4b000040 	sub	w0, w2, w0
    b808:	531d7000 	lsl	w0, w0, #3
/home/rahulmahadev/hikey_optee/optee_os/lib/libmpa/mpa_io.c:361
    b80c:	1ac02020 	lsl	w0, w1, w0
/home/rahulmahadev/hikey_optee/optee_os/lib/libmpa/mpa_io.c:360
    b810:	b9400261 	ldr	w1, [x19]
    b814:	4a000020 	eor	w0, w1, w0
    b818:	b9000260 	str	w0, [x19]
/home/rahulmahadev/hikey_optee/optee_os/lib/libmpa/mpa_io.c:366
    b81c:	34000177 	cbz	w23, b848 <mpa_set_str+0x294>
/home/rahulmahadev/hikey_optee/optee_os/lib/libmpa/mpa_io.c:367
    b820:	b94006c0 	ldr	w0, [x22,#4]
    b824:	4b0003e0 	neg	w0, w0
    b828:	b90006c0 	str	w0, [x22,#4]
    b82c:	14000007 	b	b848 <mpa_set_str+0x294>
/home/rahulmahadev/hikey_optee/optee_os/lib/libmpa/mpa_io.c:279
    b830:	52800015 	mov	w21, #0x0                   	// #0
    b834:	14000005 	b	b848 <mpa_set_str+0x294>
/home/rahulmahadev/hikey_optee/optee_os/lib/libmpa/mpa_io.c:331
    b838:	12800015 	mov	w21, #0xffffffff            	// #-1
    b83c:	14000003 	b	b848 <mpa_set_str+0x294>
/home/rahulmahadev/hikey_optee/optee_os/lib/libmpa/mpa_io.c:364
    b840:	39740021 	ldrb	w1, [x1,#3328]
    b844:	17ffffef 	b	b800 <mpa_set_str+0x24c>
/home/rahulmahadev/hikey_optee/optee_os/lib/libmpa/mpa_io.c:371
    b848:	2a1503e0 	mov	w0, w21
    b84c:	a94153f3 	ldp	x19, x20, [sp,#16]
    b850:	a9425bf5 	ldp	x21, x22, [sp,#32]
    b854:	a94363f7 	ldp	x23, x24, [sp,#48]
    b858:	a8c57bfd 	ldp	x29, x30, [sp],#80
    b85c:	d65f03c0 	ret

000000000000b860 <mpa_get_str>:
mpa_get_str():
/home/rahulmahadev/hikey_optee/optee_os/lib/libmpa/mpa_io.c:387
    b860:	a9be7bfd 	stp	x29, x30, [sp,#-32]!
    b864:	910003fd 	mov	x29, sp
    b868:	f9000bf3 	str	x19, [sp,#16]
    b86c:	aa0003f3 	mov	x19, x0
/home/rahulmahadev/hikey_optee/optee_os/lib/libmpa/mpa_io.c:390
    b870:	b5000100 	cbnz	x0, b890 <mpa_get_str+0x30>
/home/rahulmahadev/hikey_optee/optee_os/lib/libmpa/mpa_io.c:390 (discriminator 1)
    b874:	d0000001 	adrp	x1, d000 <PRIME_TABLE+0x388>
    b878:	d0000000 	adrp	x0, d000 <PRIME_TABLE+0x388>
    b87c:	528030c2 	mov	w2, #0x186                 	// #390
    b880:	91391421 	add	x1, x1, #0xe45
    b884:	913af400 	add	x0, x0, #0xebd
    b888:	97ffe8f6 	bl	5c60 <_assert_log>
    b88c:	97ffe900 	bl	5c8c <_assert_break>
/home/rahulmahadev/hikey_optee/optee_os/lib/libmpa/mpa_io.c:393
    b890:	b9400443 	ldr	w3, [x2,#4]
    b894:	36f80063 	tbz	w3, #31, b8a0 <mpa_get_str+0x40>
/home/rahulmahadev/hikey_optee/optee_os/lib/libmpa/mpa_io.c:394
    b898:	528005a3 	mov	w3, #0x2d                  	// #45
    b89c:	38001403 	strb	w3, [x0],#1
/home/rahulmahadev/hikey_optee/optee_os/lib/libmpa/mpa_io.c:397
    b8a0:	7100403f 	cmp	w1, #0x10
    b8a4:	540000a0 	b.eq	b8b8 <mpa_get_str+0x58>
    b8a8:	7100443f 	cmp	w1, #0x11
    b8ac:	540000e1 	b.ne	b8c8 <mpa_get_str+0x68>
/home/rahulmahadev/hikey_optee/optee_os/lib/libmpa/mpa_io.c:402
    b8b0:	52800021 	mov	w1, #0x1                   	// #1
    b8b4:	14000002 	b	b8bc <mpa_get_str+0x5c>
/home/rahulmahadev/hikey_optee/optee_os/lib/libmpa/mpa_io.c:399
    b8b8:	52800001 	mov	w1, #0x0                   	// #0
/home/rahulmahadev/hikey_optee/optee_os/lib/libmpa/mpa_io.c:402
    b8bc:	97fffee1 	bl	b440 <__mpa_mpanum_to_hexstr>
/home/rahulmahadev/hikey_optee/optee_os/lib/libmpa/mpa_io.c:403
    b8c0:	aa1303e0 	mov	x0, x19
    b8c4:	14000002 	b	b8cc <mpa_get_str+0x6c>
/home/rahulmahadev/hikey_optee/optee_os/lib/libmpa/mpa_io.c:405
    b8c8:	d2800000 	mov	x0, #0x0                   	// #0
/home/rahulmahadev/hikey_optee/optee_os/lib/libmpa/mpa_io.c:409
    b8cc:	f9400bf3 	ldr	x19, [sp,#16]
    b8d0:	a8c27bfd 	ldp	x29, x30, [sp],#32
    b8d4:	d65f03c0 	ret

000000000000b8d8 <mpa_set_oct_str>:
mpa_set_oct_str():
/home/rahulmahadev/hikey_optee/optee_os/lib/libmpa/mpa_io.c:426
    b8d8:	a9bc7bfd 	stp	x29, x30, [sp,#-64]!
    b8dc:	910003fd 	mov	x29, sp
    b8e0:	a90153f3 	stp	x19, x20, [sp,#16]
    b8e4:	a9025bf5 	stp	x21, x22, [sp,#32]
    b8e8:	f9001bf7 	str	x23, [sp,#48]
    b8ec:	aa0003f3 	mov	x19, x0
    b8f0:	aa0103f5 	mov	x21, x1
    b8f4:	53001c77 	uxtb	w23, w3
/home/rahulmahadev/hikey_optee/optee_os/lib/libmpa/mpa_io.c:432
    b8f8:	6b1f005f 	cmp	w2, wzr
    b8fc:	540000cd 	b.le	b914 <mpa_set_oct_str+0x3c>
/home/rahulmahadev/hikey_optee/optee_os/lib/libmpa/mpa_io.c:433
    b900:	394002a0 	ldrb	w0, [x21]
    b904:	35000160 	cbnz	w0, b930 <mpa_set_oct_str+0x58>
/home/rahulmahadev/hikey_optee/optee_os/lib/libmpa/mpa_io.c:435
    b908:	51000442 	sub	w2, w2, #0x1
/home/rahulmahadev/hikey_optee/optee_os/lib/libmpa/mpa_io.c:436
    b90c:	910006b5 	add	x21, x21, #0x1
    b910:	17fffffa 	b	b8f8 <mpa_set_oct_str+0x20>
    b914:	2a0203f4 	mov	w20, w2
/home/rahulmahadev/hikey_optee/optee_os/lib/libmpa/mpa_io.c:439
    b918:	540000e1 	b.ne	b934 <mpa_set_oct_str+0x5c>
/home/rahulmahadev/hikey_optee/optee_os/lib/libmpa/mpa_io.c:440
    b91c:	aa1303e0 	mov	x0, x19
    b920:	52800001 	mov	w1, #0x0                   	// #0
    b924:	97fff474 	bl	8af4 <mpa_set_word>
/home/rahulmahadev/hikey_optee/optee_os/lib/libmpa/mpa_io.c:441
    b928:	52800000 	mov	w0, #0x0                   	// #0
    b92c:	1400002e 	b	b9e4 <mpa_set_oct_str+0x10c>
    b930:	2a0203f4 	mov	w20, w2
/home/rahulmahadev/hikey_optee/optee_os/lib/libmpa/mpa_io.c:449
    b934:	b9400261 	ldr	w1, [x19]
    b938:	51000442 	sub	w2, w2, #0x1
/home/rahulmahadev/hikey_optee/optee_os/lib/libmpa/mpa_io.c:450
    b93c:	12800000 	mov	w0, #0xffffffff            	// #-1
/home/rahulmahadev/hikey_optee/optee_os/lib/libmpa/mpa_io.c:449
    b940:	d37e7421 	ubfiz	x1, x1, #2, #30
    b944:	eb22c03f 	cmp	x1, w2, sxtw
    b948:	540004e3 	b.cc	b9e4 <mpa_set_oct_str+0x10c>
/home/rahulmahadev/hikey_optee/optee_os/lib/libmpa/mpa_io.c:453
    b94c:	52800001 	mov	w1, #0x0                   	// #0
    b950:	aa1303e0 	mov	x0, x19
/home/rahulmahadev/hikey_optee/optee_os/lib/libmpa/mpa_io.c:452
    b954:	91002276 	add	x22, x19, #0x8
/home/rahulmahadev/hikey_optee/optee_os/lib/libmpa/mpa_io.c:453
    b958:	97fff467 	bl	8af4 <mpa_set_word>
/home/rahulmahadev/hikey_optee/optee_os/lib/libmpa/mpa_io.c:455
    b95c:	b900067f 	str	wzr, [x19,#4]
/home/rahulmahadev/hikey_optee/optee_os/lib/libmpa/mpa_io.c:457
    b960:	52800083 	mov	w3, #0x4                   	// #4
/home/rahulmahadev/hikey_optee/optee_os/lib/libmpa/mpa_io.c:456
    b964:	6b1f029f 	cmp	w20, wzr
    b968:	5400034d 	b.le	b9d0 <mpa_set_oct_str+0xf8>
/home/rahulmahadev/hikey_optee/optee_os/lib/libmpa/mpa_io.c:457
    b96c:	7100129f 	cmp	w20, #0x4
    b970:	1a83d284 	csel	w4, w20, w3, le
/home/rahulmahadev/hikey_optee/optee_os/lib/libmpa/mpa_io.c:459
    b974:	4b040294 	sub	w20, w20, w4
    b978:	51000482 	sub	w2, w4, #0x1
/home/rahulmahadev/hikey_optee/optee_os/lib/libmpa/mpa_io.c:460
    b97c:	93407c84 	sxtw	x4, w4
    b980:	93407e80 	sxtw	x0, w20
    b984:	d1000484 	sub	x4, x4, #0x1
    b988:	8b000041 	add	x1, x2, x0
    b98c:	cb020082 	sub	x2, x4, x2
    b990:	d1000400 	sub	x0, x0, #0x1
    b994:	8b0102a1 	add	x1, x21, x1
    b998:	531d7042 	lsl	w2, w2, #3
    b99c:	8b0002a0 	add	x0, x21, x0
set_word():
/home/rahulmahadev/hikey_optee/optee_os/lib/libmpa/mpa_io.c:418
    b9a0:	52800004 	mov	w4, #0x0                   	// #0
/home/rahulmahadev/hikey_optee/optee_os/lib/libmpa/mpa_io.c:420
    b9a4:	385ff425 	ldrb	w5, [x1],#-1
/home/rahulmahadev/hikey_optee/optee_os/lib/libmpa/mpa_io.c:419
    b9a8:	eb00003f 	cmp	x1, x0
/home/rahulmahadev/hikey_optee/optee_os/lib/libmpa/mpa_io.c:420
    b9ac:	1ac220a5 	lsl	w5, w5, w2
    b9b0:	2a050084 	orr	w4, w4, w5
    b9b4:	11002042 	add	w2, w2, #0x8
/home/rahulmahadev/hikey_optee/optee_os/lib/libmpa/mpa_io.c:419
    b9b8:	54ffff61 	b.ne	b9a4 <mpa_set_oct_str+0xcc>
mpa_set_oct_str():
/home/rahulmahadev/hikey_optee/optee_os/lib/libmpa/mpa_io.c:460
    b9bc:	b80046c4 	str	w4, [x22],#4
/home/rahulmahadev/hikey_optee/optee_os/lib/libmpa/mpa_io.c:462
    b9c0:	b9400660 	ldr	w0, [x19,#4]
    b9c4:	11000400 	add	w0, w0, #0x1
    b9c8:	b9000660 	str	w0, [x19,#4]
    b9cc:	17ffffe6 	b	b964 <mpa_set_oct_str+0x8c>
/home/rahulmahadev/hikey_optee/optee_os/lib/libmpa/mpa_io.c:468
    b9d0:	52800000 	mov	w0, #0x0                   	// #0
/home/rahulmahadev/hikey_optee/optee_os/lib/libmpa/mpa_io.c:465
    b9d4:	34000097 	cbz	w23, b9e4 <mpa_set_oct_str+0x10c>
/home/rahulmahadev/hikey_optee/optee_os/lib/libmpa/mpa_io.c:466
    b9d8:	b9400661 	ldr	w1, [x19,#4]
    b9dc:	4b0103e1 	neg	w1, w1
    b9e0:	b9000661 	str	w1, [x19,#4]
/home/rahulmahadev/hikey_optee/optee_os/lib/libmpa/mpa_io.c:469
    b9e4:	a94153f3 	ldp	x19, x20, [sp,#16]
    b9e8:	a9425bf5 	ldp	x21, x22, [sp,#32]
    b9ec:	f9401bf7 	ldr	x23, [sp,#48]
    b9f0:	a8c47bfd 	ldp	x29, x30, [sp],#64
    b9f4:	d65f03c0 	ret

000000000000b9f8 <mpa_get_oct_str>:
mpa_get_oct_str():
/home/rahulmahadev/hikey_optee/optee_os/lib/libmpa/mpa_io.c:482
    b9f8:	a9bb7bfd 	stp	x29, x30, [sp,#-80]!
    b9fc:	910003fd 	mov	x29, sp
__mpa_size_in_base_255():
/home/rahulmahadev/hikey_optee/optee_os/lib/libmpa/mpa_io.c:217
    ba00:	b9400443 	ldr	w3, [x2,#4]
mpa_get_oct_str():
/home/rahulmahadev/hikey_optee/optee_os/lib/libmpa/mpa_io.c:482
    ba04:	a90153f3 	stp	x19, x20, [sp,#16]
    ba08:	a9025bf5 	stp	x21, x22, [sp,#32]
    ba0c:	f9001bf7 	str	x23, [sp,#48]
__mpa_size_in_base_255():
/home/rahulmahadev/hikey_optee/optee_os/lib/libmpa/mpa_io.c:218
    ba10:	d2800033 	mov	x19, #0x1                   	// #1
/home/rahulmahadev/hikey_optee/optee_os/lib/libmpa/mpa_io.c:217
    ba14:	34000283 	cbz	w3, ba64 <mpa_get_oct_str+0x6c>
/home/rahulmahadev/hikey_optee/optee_os/lib/libmpa/mpa_io.c:221
    ba18:	93407c64 	sxtw	x4, w3
__mpa_count_leading_zero_bits():
/home/rahulmahadev/hikey_optee/optee_os/lib/libmpa/mpa_io.c:196
    ba1c:	52800413 	mov	w19, #0x20                  	// #32
__mpa_size_in_base_255():
/home/rahulmahadev/hikey_optee/optee_os/lib/libmpa/mpa_io.c:221
    ba20:	ca84fc85 	eor	x5, x4, x4, asr #63
    ba24:	cb84fca4 	sub	x4, x5, x4, asr #63
    ba28:	51000485 	sub	w5, w4, #0x1
/home/rahulmahadev/hikey_optee/optee_os/lib/libmpa/mpa_io.c:220
    ba2c:	8b25c845 	add	x5, x2, w5, sxtw #2
    ba30:	b94008a6 	ldr	w6, [x5,#8]
__mpa_count_leading_zero_bits():
/home/rahulmahadev/hikey_optee/optee_os/lib/libmpa/mpa_io.c:195
    ba34:	34000106 	cbz	w6, ba54 <mpa_get_oct_str+0x5c>
    ba38:	52800013 	mov	w19, #0x0                   	// #0
    ba3c:	52b00005 	mov	w5, #0x80000000            	// #-2147483648
/home/rahulmahadev/hikey_optee/optee_os/lib/libmpa/mpa_io.c:199
    ba40:	6a0600bf 	tst	w5, w6
    ba44:	54000081 	b.ne	ba54 <mpa_get_oct_str+0x5c>
/home/rahulmahadev/hikey_optee/optee_os/lib/libmpa/mpa_io.c:200
    ba48:	11000673 	add	w19, w19, #0x1
/home/rahulmahadev/hikey_optee/optee_os/lib/libmpa/mpa_io.c:201
    ba4c:	53017ca5 	lsr	w5, w5, #1
    ba50:	17fffffc 	b	ba40 <mpa_get_oct_str+0x48>
__mpa_size_in_base_255():
/home/rahulmahadev/hikey_optee/optee_os/lib/libmpa/mpa_io.c:222
    ba54:	531b6884 	lsl	w4, w4, #5
    ba58:	11001c84 	add	w4, w4, #0x7
/home/rahulmahadev/hikey_optee/optee_os/lib/libmpa/mpa_io.c:224
    ba5c:	4b130093 	sub	w19, w4, w19
    ba60:	53037e73 	lsr	w19, w19, #3
mpa_get_oct_str():
/home/rahulmahadev/hikey_optee/optee_os/lib/libmpa/mpa_io.c:489
    ba64:	f9400025 	ldr	x5, [x1]
    ba68:	eb1300bf 	cmp	x5, x19
    ba6c:	54000062 	b.cs	ba78 <mpa_get_oct_str+0x80>
/home/rahulmahadev/hikey_optee/optee_os/lib/libmpa/mpa_io.c:490
    ba70:	f9000033 	str	x19, [x1]
    ba74:	1400003e 	b	bb6c <mpa_get_oct_str+0x174>
/home/rahulmahadev/hikey_optee/optee_os/lib/libmpa/mpa_io.c:494
    ba78:	93407c63 	sxtw	x3, w3
    ba7c:	aa0003e4 	mov	x4, x0
    ba80:	aa0203f7 	mov	x23, x2
    ba84:	aa0103f6 	mov	x22, x1
    ba88:	ca83fc60 	eor	x0, x3, x3, asr #63
    ba8c:	cb83fc14 	sub	x20, x0, x3, asr #63
/home/rahulmahadev/hikey_optee/optee_os/lib/libmpa/mpa_io.c:495
    ba90:	350000d4 	cbnz	w20, baa8 <mpa_get_oct_str+0xb0>
/home/rahulmahadev/hikey_optee/optee_os/lib/libmpa/mpa_io.c:496
    ba94:	aa0503e2 	mov	x2, x5
    ba98:	52800001 	mov	w1, #0x0                   	// #0
    ba9c:	aa0403e0 	mov	x0, x4
    baa0:	97ffeddc 	bl	7210 <memset>
/home/rahulmahadev/hikey_optee/optee_os/lib/libmpa/mpa_io.c:497
    baa4:	1400002f 	b	bb60 <mpa_get_oct_str+0x168>
/home/rahulmahadev/hikey_optee/optee_os/lib/libmpa/mpa_io.c:499
    baa8:	51000680 	sub	w0, w20, #0x1
/home/rahulmahadev/hikey_optee/optee_os/lib/libmpa/mpa_io.c:502
    baac:	8b20c840 	add	x0, x2, w0, sxtw #2
    bab0:	b9400801 	ldr	w1, [x0,#8]
get_word():
/home/rahulmahadev/hikey_optee/optee_os/lib/libmpa/mpa_io.c:476
    bab4:	39012fa1 	strb	w1, [x29,#75]
/home/rahulmahadev/hikey_optee/optee_os/lib/libmpa/mpa_io.c:477
    bab8:	53087c20 	lsr	w0, w1, #8
/home/rahulmahadev/hikey_optee/optee_os/lib/libmpa/mpa_io.c:476
    babc:	39012ba0 	strb	w0, [x29,#74]
/home/rahulmahadev/hikey_optee/optee_os/lib/libmpa/mpa_io.c:477
    bac0:	53107c20 	lsr	w0, w1, #16
    bac4:	53187c21 	lsr	w1, w1, #24
/home/rahulmahadev/hikey_optee/optee_os/lib/libmpa/mpa_io.c:476
    bac8:	390127a0 	strb	w0, [x29,#73]
    bacc:	d2800000 	mov	x0, #0x0                   	// #0
    bad0:	390123a1 	strb	w1, [x29,#72]
mpa_get_oct_str():
/home/rahulmahadev/hikey_optee/optee_os/lib/libmpa/mpa_io.c:505
    bad4:	910123a1 	add	x1, x29, #0x48
    bad8:	38616802 	ldrb	w2, [x0,x1]
    badc:	34000142 	cbz	w2, bb04 <mpa_get_oct_str+0x10c>
/home/rahulmahadev/hikey_optee/optee_os/lib/libmpa/mpa_io.c:506
    bae0:	52800095 	mov	w21, #0x4                   	// #4
    bae4:	8b20c021 	add	x1, x1, w0, sxtw
    bae8:	4b0002b5 	sub	w21, w21, w0
    baec:	aa0403e0 	mov	x0, x4
    baf0:	93407eb5 	sxtw	x21, w21
    baf4:	aa1503e2 	mov	x2, x21
    baf8:	97ffedaa 	bl	71a0 <memcpy>
    bafc:	aa0003e4 	mov	x4, x0
/home/rahulmahadev/hikey_optee/optee_os/lib/libmpa/mpa_io.c:508
    bb00:	14000005 	b	bb14 <mpa_get_oct_str+0x11c>
    bb04:	91000400 	add	x0, x0, #0x1
/home/rahulmahadev/hikey_optee/optee_os/lib/libmpa/mpa_io.c:504 (discriminator 2)
    bb08:	f100101f 	cmp	x0, #0x4
    bb0c:	54fffe41 	b.ne	bad4 <mpa_get_oct_str+0xdc>
/home/rahulmahadev/hikey_optee/optee_os/lib/libmpa/mpa_io.c:485
    bb10:	d2800015 	mov	x21, #0x0                   	// #0
    bb14:	91000ea1 	add	x1, x21, #0x3
/home/rahulmahadev/hikey_optee/optee_os/lib/libmpa/mpa_io.c:511
    bb18:	51000a83 	sub	w3, w20, #0x2
    bb1c:	8b010080 	add	x0, x4, x1
/home/rahulmahadev/hikey_optee/optee_os/lib/libmpa/mpa_io.c:513
    bb20:	3100047f 	cmn	w3, #0x1
    bb24:	540001e0 	b.eq	bb60 <mpa_get_oct_str+0x168>
/home/rahulmahadev/hikey_optee/optee_os/lib/libmpa/mpa_io.c:514
    bb28:	eb1302bf 	cmp	x21, x19
    bb2c:	54000208 	b.hi	bb6c <mpa_get_oct_str+0x174>
/home/rahulmahadev/hikey_optee/optee_os/lib/libmpa/mpa_io.c:516
    bb30:	8b23cae1 	add	x1, x23, w3, sxtw #2
    bb34:	d1001002 	sub	x2, x0, #0x4
    bb38:	b9400824 	ldr	w4, [x1,#8]
    bb3c:	aa0003e1 	mov	x1, x0
get_word():
/home/rahulmahadev/hikey_optee/optee_os/lib/libmpa/mpa_io.c:476
    bb40:	381ff424 	strb	w4, [x1],#-1
/home/rahulmahadev/hikey_optee/optee_os/lib/libmpa/mpa_io.c:477
    bb44:	53087c84 	lsr	w4, w4, #8
/home/rahulmahadev/hikey_optee/optee_os/lib/libmpa/mpa_io.c:475
    bb48:	eb02003f 	cmp	x1, x2
    bb4c:	54ffffa1 	b.ne	bb40 <mpa_get_oct_str+0x148>
mpa_get_oct_str():
/home/rahulmahadev/hikey_optee/optee_os/lib/libmpa/mpa_io.c:518
    bb50:	910012b5 	add	x21, x21, #0x4
/home/rahulmahadev/hikey_optee/optee_os/lib/libmpa/mpa_io.c:519
    bb54:	51000463 	sub	w3, w3, #0x1
    bb58:	91001000 	add	x0, x0, #0x4
    bb5c:	17fffff1 	b	bb20 <mpa_get_oct_str+0x128>
/home/rahulmahadev/hikey_optee/optee_os/lib/libmpa/mpa_io.c:523
    bb60:	f90002d3 	str	x19, [x22]
/home/rahulmahadev/hikey_optee/optee_os/lib/libmpa/mpa_io.c:524
    bb64:	52800000 	mov	w0, #0x0                   	// #0
    bb68:	14000002 	b	bb70 <mpa_get_oct_str+0x178>
/home/rahulmahadev/hikey_optee/optee_os/lib/libmpa/mpa_io.c:515
    bb6c:	12800000 	mov	w0, #0xffffffff            	// #-1
/home/rahulmahadev/hikey_optee/optee_os/lib/libmpa/mpa_io.c:525
    bb70:	a94153f3 	ldp	x19, x20, [sp,#16]
    bb74:	a9425bf5 	ldp	x21, x22, [sp,#32]
    bb78:	f9401bf7 	ldr	x23, [sp,#48]
    bb7c:	a8c57bfd 	ldp	x29, x30, [sp],#80
    bb80:	d65f03c0 	ret

000000000000bb84 <mpa_mod>:
mpa_mod():
/home/rahulmahadev/hikey_optee/optee_os/lib/libmpa/mpa_modulus.c:42
    bb84:	aa0303e4 	mov	x4, x3
    bb88:	aa0203e3 	mov	x3, x2
    bb8c:	aa0103e2 	mov	x2, x1
    bb90:	aa0003e1 	mov	x1, x0
    bb94:	d2800000 	mov	x0, #0x0                   	// #0
    bb98:	17fff5e8 	b	9338 <mpa_div>

000000000000bb9c <mpa_add_mod>:
mpa_add_mod():
/home/rahulmahadev/hikey_optee/optee_os/lib/libmpa/mpa_modulus.c:53
    bb9c:	a9ba7bfd 	stp	x29, x30, [sp,#-96]!
    bba0:	910003fd 	mov	x29, sp
    bba4:	a90153f3 	stp	x19, x20, [sp,#16]
/home/rahulmahadev/hikey_optee/optee_os/lib/libmpa/mpa_modulus.c:56
    bba8:	910163b3 	add	x19, x29, #0x58
/home/rahulmahadev/hikey_optee/optee_os/lib/libmpa/mpa_modulus.c:53
    bbac:	f9001bf7 	str	x23, [sp,#48]
    bbb0:	a9025bf5 	stp	x21, x22, [sp,#32]
    bbb4:	aa0103f7 	mov	x23, x1
    bbb8:	aa0003f5 	mov	x21, x0
/home/rahulmahadev/hikey_optee/optee_os/lib/libmpa/mpa_modulus.c:56
    bbbc:	aa0403e1 	mov	x1, x4
    bbc0:	aa1303e0 	mov	x0, x19
/home/rahulmahadev/hikey_optee/optee_os/lib/libmpa/mpa_modulus.c:53
    bbc4:	aa0403f4 	mov	x20, x4
    bbc8:	aa0303f6 	mov	x22, x3
    bbcc:	f90027a2 	str	x2, [x29,#72]
/home/rahulmahadev/hikey_optee/optee_os/lib/libmpa/mpa_modulus.c:56
    bbd0:	97fff893 	bl	9e1c <mpa_alloc_static_temp_var>
/home/rahulmahadev/hikey_optee/optee_os/lib/libmpa/mpa_modulus.c:58
    bbd4:	f94027a2 	ldr	x2, [x29,#72]
    bbd8:	aa1403e3 	mov	x3, x20
    bbdc:	f9402fa0 	ldr	x0, [x29,#88]
    bbe0:	aa1703e1 	mov	x1, x23
    bbe4:	97fffb90 	bl	aa24 <mpa_add>
/home/rahulmahadev/hikey_optee/optee_os/lib/libmpa/mpa_modulus.c:59
    bbe8:	f9402fa2 	ldr	x2, [x29,#88]
    bbec:	aa1403e4 	mov	x4, x20
    bbf0:	aa1603e3 	mov	x3, x22
    bbf4:	aa1503e1 	mov	x1, x21
    bbf8:	d2800000 	mov	x0, #0x0                   	// #0
    bbfc:	97fff5cf 	bl	9338 <mpa_div>
/home/rahulmahadev/hikey_optee/optee_os/lib/libmpa/mpa_modulus.c:61
    bc00:	aa1403e1 	mov	x1, x20
    bc04:	aa1303e0 	mov	x0, x19
    bc08:	97fff889 	bl	9e2c <mpa_free_static_temp_var>
/home/rahulmahadev/hikey_optee/optee_os/lib/libmpa/mpa_modulus.c:62
    bc0c:	f9401bf7 	ldr	x23, [sp,#48]
    bc10:	a94153f3 	ldp	x19, x20, [sp,#16]
    bc14:	a9425bf5 	ldp	x21, x22, [sp,#32]
    bc18:	a8c67bfd 	ldp	x29, x30, [sp],#96
    bc1c:	d65f03c0 	ret

000000000000bc20 <mpa_sub_mod>:
mpa_sub_mod():
/home/rahulmahadev/hikey_optee/optee_os/lib/libmpa/mpa_modulus.c:72
    bc20:	a9ba7bfd 	stp	x29, x30, [sp,#-96]!
    bc24:	910003fd 	mov	x29, sp
    bc28:	a90153f3 	stp	x19, x20, [sp,#16]
/home/rahulmahadev/hikey_optee/optee_os/lib/libmpa/mpa_modulus.c:75
    bc2c:	910163b3 	add	x19, x29, #0x58
/home/rahulmahadev/hikey_optee/optee_os/lib/libmpa/mpa_modulus.c:72
    bc30:	f9001bf7 	str	x23, [sp,#48]
    bc34:	a9025bf5 	stp	x21, x22, [sp,#32]
    bc38:	aa0103f7 	mov	x23, x1
    bc3c:	aa0003f5 	mov	x21, x0
/home/rahulmahadev/hikey_optee/optee_os/lib/libmpa/mpa_modulus.c:75
    bc40:	aa0403e1 	mov	x1, x4
    bc44:	aa1303e0 	mov	x0, x19
/home/rahulmahadev/hikey_optee/optee_os/lib/libmpa/mpa_modulus.c:72
    bc48:	aa0403f4 	mov	x20, x4
    bc4c:	aa0303f6 	mov	x22, x3
    bc50:	f90027a2 	str	x2, [x29,#72]
/home/rahulmahadev/hikey_optee/optee_os/lib/libmpa/mpa_modulus.c:75
    bc54:	97fff872 	bl	9e1c <mpa_alloc_static_temp_var>
/home/rahulmahadev/hikey_optee/optee_os/lib/libmpa/mpa_modulus.c:77
    bc58:	f94027a2 	ldr	x2, [x29,#72]
    bc5c:	aa1403e3 	mov	x3, x20
    bc60:	f9402fa0 	ldr	x0, [x29,#88]
    bc64:	aa1703e1 	mov	x1, x23
    bc68:	97fffbd6 	bl	abc0 <mpa_sub>
/home/rahulmahadev/hikey_optee/optee_os/lib/libmpa/mpa_modulus.c:78
    bc6c:	f9402fa2 	ldr	x2, [x29,#88]
    bc70:	aa1403e4 	mov	x4, x20
    bc74:	aa1603e3 	mov	x3, x22
    bc78:	aa1503e1 	mov	x1, x21
    bc7c:	d2800000 	mov	x0, #0x0                   	// #0
    bc80:	97fff5ae 	bl	9338 <mpa_div>
/home/rahulmahadev/hikey_optee/optee_os/lib/libmpa/mpa_modulus.c:80
    bc84:	aa1403e1 	mov	x1, x20
    bc88:	aa1303e0 	mov	x0, x19
    bc8c:	97fff868 	bl	9e2c <mpa_free_static_temp_var>
/home/rahulmahadev/hikey_optee/optee_os/lib/libmpa/mpa_modulus.c:81
    bc90:	f9401bf7 	ldr	x23, [sp,#48]
    bc94:	a94153f3 	ldp	x19, x20, [sp,#16]
    bc98:	a9425bf5 	ldp	x21, x22, [sp,#32]
    bc9c:	a8c67bfd 	ldp	x29, x30, [sp],#96
    bca0:	d65f03c0 	ret

000000000000bca4 <mpa_mul_mod>:
mpa_mul_mod():
/home/rahulmahadev/hikey_optee/optee_os/lib/libmpa/mpa_modulus.c:91
    bca4:	a9ba7bfd 	stp	x29, x30, [sp,#-96]!
    bca8:	910003fd 	mov	x29, sp
    bcac:	a90153f3 	stp	x19, x20, [sp,#16]
/home/rahulmahadev/hikey_optee/optee_os/lib/libmpa/mpa_modulus.c:94
    bcb0:	910163b3 	add	x19, x29, #0x58
/home/rahulmahadev/hikey_optee/optee_os/lib/libmpa/mpa_modulus.c:91
    bcb4:	f9001bf7 	str	x23, [sp,#48]
    bcb8:	a9025bf5 	stp	x21, x22, [sp,#32]
    bcbc:	aa0103f7 	mov	x23, x1
    bcc0:	aa0003f5 	mov	x21, x0
/home/rahulmahadev/hikey_optee/optee_os/lib/libmpa/mpa_modulus.c:94
    bcc4:	aa0403e1 	mov	x1, x4
    bcc8:	aa1303e0 	mov	x0, x19
/home/rahulmahadev/hikey_optee/optee_os/lib/libmpa/mpa_modulus.c:91
    bccc:	aa0403f4 	mov	x20, x4
    bcd0:	aa0303f6 	mov	x22, x3
    bcd4:	f90027a2 	str	x2, [x29,#72]
/home/rahulmahadev/hikey_optee/optee_os/lib/libmpa/mpa_modulus.c:94
    bcd8:	97fff851 	bl	9e1c <mpa_alloc_static_temp_var>
/home/rahulmahadev/hikey_optee/optee_os/lib/libmpa/mpa_modulus.c:96
    bcdc:	f94027a2 	ldr	x2, [x29,#72]
    bce0:	aa1403e3 	mov	x3, x20
    bce4:	f9402fa0 	ldr	x0, [x29,#88]
    bce8:	aa1703e1 	mov	x1, x23
    bcec:	97fff8d5 	bl	a040 <mpa_mul>
/home/rahulmahadev/hikey_optee/optee_os/lib/libmpa/mpa_modulus.c:97
    bcf0:	f9402fa2 	ldr	x2, [x29,#88]
    bcf4:	aa1403e4 	mov	x4, x20
    bcf8:	aa1603e3 	mov	x3, x22
    bcfc:	aa1503e1 	mov	x1, x21
    bd00:	d2800000 	mov	x0, #0x0                   	// #0
    bd04:	97fff58d 	bl	9338 <mpa_div>
/home/rahulmahadev/hikey_optee/optee_os/lib/libmpa/mpa_modulus.c:99
    bd08:	aa1403e1 	mov	x1, x20
    bd0c:	aa1303e0 	mov	x0, x19
    bd10:	97fff847 	bl	9e2c <mpa_free_static_temp_var>
/home/rahulmahadev/hikey_optee/optee_os/lib/libmpa/mpa_modulus.c:100
    bd14:	f9401bf7 	ldr	x23, [sp,#48]
    bd18:	a94153f3 	ldp	x19, x20, [sp,#16]
    bd1c:	a9425bf5 	ldp	x21, x22, [sp,#32]
    bd20:	a8c67bfd 	ldp	x29, x30, [sp],#96
    bd24:	d65f03c0 	ret

000000000000bd28 <mpa_inv_mod>:
mpa_inv_mod():
/home/rahulmahadev/hikey_optee/optee_os/lib/libmpa/mpa_modulus.c:109
    bd28:	a9bb7bfd 	stp	x29, x30, [sp,#-80]!
    bd2c:	910003fd 	mov	x29, sp
    bd30:	a9025bf5 	stp	x21, x22, [sp,#32]
    bd34:	aa0103f6 	mov	x22, x1
/home/rahulmahadev/hikey_optee/optee_os/lib/libmpa/mpa_modulus.c:115
    bd38:	52800021 	mov	w1, #0x1                   	// #1
/home/rahulmahadev/hikey_optee/optee_os/lib/libmpa/mpa_modulus.c:109
    bd3c:	a90153f3 	stp	x19, x20, [sp,#16]
    bd40:	aa0003f3 	mov	x19, x0
/home/rahulmahadev/hikey_optee/optee_os/lib/libmpa/mpa_modulus.c:115
    bd44:	aa1603e0 	mov	x0, x22
/home/rahulmahadev/hikey_optee/optee_os/lib/libmpa/mpa_modulus.c:109
    bd48:	a90363f7 	stp	x23, x24, [sp,#48]
    bd4c:	aa0303f4 	mov	x20, x3
    bd50:	aa0203f7 	mov	x23, x2
/home/rahulmahadev/hikey_optee/optee_os/lib/libmpa/mpa_modulus.c:115
    bd54:	97fffd06 	bl	b16c <mpa_cmp_short>
    bd58:	2a0003f5 	mov	w21, w0
    bd5c:	350000a0 	cbnz	w0, bd70 <mpa_inv_mod+0x48>
/home/rahulmahadev/hikey_optee/optee_os/lib/libmpa/mpa_modulus.c:116
    bd60:	52800021 	mov	w1, #0x1                   	// #1
    bd64:	aa1303e0 	mov	x0, x19
    bd68:	97fff339 	bl	8a4c <mpa_set_S32>
/home/rahulmahadev/hikey_optee/optee_os/lib/libmpa/mpa_modulus.c:117
    bd6c:	14000030 	b	be2c <mpa_inv_mod+0x104>
/home/rahulmahadev/hikey_optee/optee_os/lib/libmpa/mpa_modulus.c:120
    bd70:	eb16027f 	cmp	x19, x22
    bd74:	1a9f17f5 	cset	w21, eq
/home/rahulmahadev/hikey_optee/optee_os/lib/libmpa/mpa_modulus.c:121
    bd78:	340000b5 	cbz	w21, bd8c <mpa_inv_mod+0x64>
/home/rahulmahadev/hikey_optee/optee_os/lib/libmpa/mpa_modulus.c:122
    bd7c:	aa1403e1 	mov	x1, x20
    bd80:	910123a0 	add	x0, x29, #0x48
    bd84:	97fff826 	bl	9e1c <mpa_alloc_static_temp_var>
    bd88:	14000002 	b	bd90 <mpa_inv_mod+0x68>
/home/rahulmahadev/hikey_optee/optee_os/lib/libmpa/mpa_modulus.c:124
    bd8c:	f90027b3 	str	x19, [x29,#72]
/home/rahulmahadev/hikey_optee/optee_os/lib/libmpa/mpa_modulus.c:126
    bd90:	910103b8 	add	x24, x29, #0x40
    bd94:	aa1403e1 	mov	x1, x20
    bd98:	aa1803e0 	mov	x0, x24
    bd9c:	97fff820 	bl	9e1c <mpa_alloc_static_temp_var>
/home/rahulmahadev/hikey_optee/optee_os/lib/libmpa/mpa_modulus.c:128
    bda0:	f94027a1 	ldr	x1, [x29,#72]
    bda4:	aa1603e3 	mov	x3, x22
    bda8:	f94023a0 	ldr	x0, [x29,#64]
    bdac:	aa1403e5 	mov	x5, x20
    bdb0:	aa1703e4 	mov	x4, x23
    bdb4:	d2800002 	mov	x2, #0x0                   	// #0
    bdb8:	97fff751 	bl	9afc <mpa_extended_gcd>
/home/rahulmahadev/hikey_optee/optee_os/lib/libmpa/mpa_modulus.c:129
    bdbc:	f94023a0 	ldr	x0, [x29,#64]
    bdc0:	52800021 	mov	w1, #0x1                   	// #1
    bdc4:	97fffcea 	bl	b16c <mpa_cmp_short>
    bdc8:	2a0003f6 	mov	w22, w0
/home/rahulmahadev/hikey_optee/optee_os/lib/libmpa/mpa_modulus.c:131
    bdcc:	34000115 	cbz	w21, bdec <mpa_inv_mod+0xc4>
/home/rahulmahadev/hikey_optee/optee_os/lib/libmpa/mpa_modulus.c:132
    bdd0:	910143b5 	add	x21, x29, #0x50
    bdd4:	aa1303e0 	mov	x0, x19
    bdd8:	f85f8ea1 	ldr	x1, [x21,#-8]!
    bddc:	97fff0de 	bl	8154 <mpa_copy>
/home/rahulmahadev/hikey_optee/optee_os/lib/libmpa/mpa_modulus.c:133
    bde0:	aa1403e1 	mov	x1, x20
    bde4:	aa1503e0 	mov	x0, x21
    bde8:	97fff811 	bl	9e2c <mpa_free_static_temp_var>
/home/rahulmahadev/hikey_optee/optee_os/lib/libmpa/mpa_modulus.c:136
    bdec:	aa1403e1 	mov	x1, x20
    bdf0:	aa1803e0 	mov	x0, x24
/home/rahulmahadev/hikey_optee/optee_os/lib/libmpa/mpa_modulus.c:142
    bdf4:	12800015 	mov	w21, #0xffffffff            	// #-1
/home/rahulmahadev/hikey_optee/optee_os/lib/libmpa/mpa_modulus.c:136
    bdf8:	97fff80d 	bl	9e2c <mpa_free_static_temp_var>
/home/rahulmahadev/hikey_optee/optee_os/lib/libmpa/mpa_modulus.c:137
    bdfc:	35000196 	cbnz	w22, be2c <mpa_inv_mod+0x104>
/home/rahulmahadev/hikey_optee/optee_os/lib/libmpa/mpa_modulus.c:138
    be00:	52800001 	mov	w1, #0x0                   	// #0
    be04:	aa1303e0 	mov	x0, x19
    be08:	97fffcd9 	bl	b16c <mpa_cmp_short>
    be0c:	36f800e0 	tbz	w0, #31, be28 <mpa_inv_mod+0x100>
/home/rahulmahadev/hikey_optee/optee_os/lib/libmpa/mpa_modulus.c:139
    be10:	aa1403e3 	mov	x3, x20
    be14:	aa1703e2 	mov	x2, x23
    be18:	aa1303e1 	mov	x1, x19
    be1c:	aa1303e0 	mov	x0, x19
    be20:	97fffb01 	bl	aa24 <mpa_add>
    be24:	17fffff7 	b	be00 <mpa_inv_mod+0xd8>
/home/rahulmahadev/hikey_optee/optee_os/lib/libmpa/mpa_modulus.c:140
    be28:	52800015 	mov	w21, #0x0                   	// #0
/home/rahulmahadev/hikey_optee/optee_os/lib/libmpa/mpa_modulus.c:144
    be2c:	2a1503e0 	mov	w0, w21
    be30:	a94153f3 	ldp	x19, x20, [sp,#16]
    be34:	a9425bf5 	ldp	x21, x22, [sp,#32]
    be38:	a94363f7 	ldp	x23, x24, [sp,#48]
    be3c:	a8c57bfd 	ldp	x29, x30, [sp],#80
    be40:	d65f03c0 	ret

000000000000be44 <utee_return>:
$x():
/home/rahulmahadev/hikey_optee/optee_os/lib/libutee/arch/arm/utee_syscalls_asm.S:30
    be44:	d2800008 	mov	x8, #0x0                   	// #0
    be48:	d4000001 	svc	#0x0
    be4c:	d65f03c0 	ret

000000000000be50 <utee_log>:
utee_log():
/home/rahulmahadev/hikey_optee/optee_os/lib/libutee/arch/arm/utee_syscalls_asm.S:32
    be50:	d2800028 	mov	x8, #0x1                   	// #1
    be54:	d4000001 	svc	#0x0
    be58:	d65f03c0 	ret

000000000000be5c <utee_panic>:
utee_panic():
/home/rahulmahadev/hikey_optee/optee_os/lib/libutee/arch/arm/utee_syscalls_asm.S:34
    be5c:	d2800048 	mov	x8, #0x2                   	// #2
    be60:	d4000001 	svc	#0x0
    be64:	d65f03c0 	ret

000000000000be68 <utee_dummy>:
utee_dummy():
/home/rahulmahadev/hikey_optee/optee_os/lib/libutee/arch/arm/utee_syscalls_asm.S:36
    be68:	d2800068 	mov	x8, #0x3                   	// #3
    be6c:	d4000001 	svc	#0x0
    be70:	d65f03c0 	ret

000000000000be74 <utee_dummy_7args>:
utee_dummy_7args():
/home/rahulmahadev/hikey_optee/optee_os/lib/libutee/arch/arm/utee_syscalls_asm.S:38
    be74:	d2800088 	mov	x8, #0x4                   	// #4
    be78:	d4000001 	svc	#0x0
    be7c:	d65f03c0 	ret

000000000000be80 <utee_nocall>:
utee_nocall():
/home/rahulmahadev/hikey_optee/optee_os/lib/libutee/arch/arm/utee_syscalls_asm.S:40
    be80:	d2800908 	mov	x8, #0x48                  	// #72
    be84:	d4000001 	svc	#0x0
    be88:	d65f03c0 	ret

000000000000be8c <utee_get_property>:
utee_get_property():
/home/rahulmahadev/hikey_optee/optee_os/lib/libutee/arch/arm/utee_syscalls_asm.S:42
    be8c:	d28000a8 	mov	x8, #0x5                   	// #5
    be90:	d4000001 	svc	#0x0
    be94:	d65f03c0 	ret

000000000000be98 <utee_open_ta_session>:
utee_open_ta_session():
/home/rahulmahadev/hikey_optee/optee_os/lib/libutee/arch/arm/utee_syscalls_asm.S:44
    be98:	d28000c8 	mov	x8, #0x6                   	// #6
    be9c:	d4000001 	svc	#0x0
    bea0:	d65f03c0 	ret

000000000000bea4 <utee_close_ta_session>:
utee_close_ta_session():
/home/rahulmahadev/hikey_optee/optee_os/lib/libutee/arch/arm/utee_syscalls_asm.S:46
    bea4:	d28000e8 	mov	x8, #0x7                   	// #7
    bea8:	d4000001 	svc	#0x0
    beac:	d65f03c0 	ret

000000000000beb0 <utee_invoke_ta_command>:
utee_invoke_ta_command():
/home/rahulmahadev/hikey_optee/optee_os/lib/libutee/arch/arm/utee_syscalls_asm.S:48
    beb0:	d2800108 	mov	x8, #0x8                   	// #8
    beb4:	d4000001 	svc	#0x0
    beb8:	d65f03c0 	ret

000000000000bebc <utee_get_cancellation_flag>:
utee_get_cancellation_flag():
/home/rahulmahadev/hikey_optee/optee_os/lib/libutee/arch/arm/utee_syscalls_asm.S:50
    bebc:	d2800148 	mov	x8, #0xa                   	// #10
    bec0:	d4000001 	svc	#0x0
    bec4:	d65f03c0 	ret

000000000000bec8 <utee_check_access_rights>:
utee_check_access_rights():
/home/rahulmahadev/hikey_optee/optee_os/lib/libutee/arch/arm/utee_syscalls_asm.S:53
    bec8:	d2800128 	mov	x8, #0x9                   	// #9
    becc:	d4000001 	svc	#0x0
    bed0:	d65f03c0 	ret

000000000000bed4 <utee_unmask_cancellation>:
utee_unmask_cancellation():
/home/rahulmahadev/hikey_optee/optee_os/lib/libutee/arch/arm/utee_syscalls_asm.S:55
    bed4:	d2800168 	mov	x8, #0xb                   	// #11
    bed8:	d4000001 	svc	#0x0
    bedc:	d65f03c0 	ret

000000000000bee0 <utee_mask_cancellation>:
utee_mask_cancellation():
/home/rahulmahadev/hikey_optee/optee_os/lib/libutee/arch/arm/utee_syscalls_asm.S:57
    bee0:	d2800188 	mov	x8, #0xc                   	// #12
    bee4:	d4000001 	svc	#0x0
    bee8:	d65f03c0 	ret

000000000000beec <utee_wait>:
utee_wait():
/home/rahulmahadev/hikey_optee/optee_os/lib/libutee/arch/arm/utee_syscalls_asm.S:59
    beec:	d28001a8 	mov	x8, #0xd                   	// #13
    bef0:	d4000001 	svc	#0x0
    bef4:	d65f03c0 	ret

000000000000bef8 <utee_get_time>:
utee_get_time():
/home/rahulmahadev/hikey_optee/optee_os/lib/libutee/arch/arm/utee_syscalls_asm.S:61
    bef8:	d28001c8 	mov	x8, #0xe                   	// #14
    befc:	d4000001 	svc	#0x0
    bf00:	d65f03c0 	ret

000000000000bf04 <utee_set_ta_time>:
utee_set_ta_time():
/home/rahulmahadev/hikey_optee/optee_os/lib/libutee/arch/arm/utee_syscalls_asm.S:63
    bf04:	d28001e8 	mov	x8, #0xf                   	// #15
    bf08:	d4000001 	svc	#0x0
    bf0c:	d65f03c0 	ret

000000000000bf10 <utee_cryp_state_alloc>:
utee_cryp_state_alloc():
/home/rahulmahadev/hikey_optee/optee_os/lib/libutee/arch/arm/utee_syscalls_asm.S:65
    bf10:	d2800208 	mov	x8, #0x10                  	// #16
    bf14:	d4000001 	svc	#0x0
    bf18:	d65f03c0 	ret

000000000000bf1c <utee_cryp_state_copy>:
utee_cryp_state_copy():
/home/rahulmahadev/hikey_optee/optee_os/lib/libutee/arch/arm/utee_syscalls_asm.S:67
    bf1c:	d2800228 	mov	x8, #0x11                  	// #17
    bf20:	d4000001 	svc	#0x0
    bf24:	d65f03c0 	ret

000000000000bf28 <utee_cryp_state_free>:
utee_cryp_state_free():
/home/rahulmahadev/hikey_optee/optee_os/lib/libutee/arch/arm/utee_syscalls_asm.S:69
    bf28:	d2800248 	mov	x8, #0x12                  	// #18
    bf2c:	d4000001 	svc	#0x0
    bf30:	d65f03c0 	ret

000000000000bf34 <utee_hash_init>:
utee_hash_init():
/home/rahulmahadev/hikey_optee/optee_os/lib/libutee/arch/arm/utee_syscalls_asm.S:71
    bf34:	d2800268 	mov	x8, #0x13                  	// #19
    bf38:	d4000001 	svc	#0x0
    bf3c:	d65f03c0 	ret

000000000000bf40 <utee_hash_update>:
utee_hash_update():
/home/rahulmahadev/hikey_optee/optee_os/lib/libutee/arch/arm/utee_syscalls_asm.S:73
    bf40:	d2800288 	mov	x8, #0x14                  	// #20
    bf44:	d4000001 	svc	#0x0
    bf48:	d65f03c0 	ret

000000000000bf4c <utee_hash_final>:
utee_hash_final():
/home/rahulmahadev/hikey_optee/optee_os/lib/libutee/arch/arm/utee_syscalls_asm.S:75
    bf4c:	d28002a8 	mov	x8, #0x15                  	// #21
    bf50:	d4000001 	svc	#0x0
    bf54:	d65f03c0 	ret

000000000000bf58 <utee_cipher_init>:
utee_cipher_init():
/home/rahulmahadev/hikey_optee/optee_os/lib/libutee/arch/arm/utee_syscalls_asm.S:77
    bf58:	d28002c8 	mov	x8, #0x16                  	// #22
    bf5c:	d4000001 	svc	#0x0
    bf60:	d65f03c0 	ret

000000000000bf64 <utee_cipher_update>:
utee_cipher_update():
/home/rahulmahadev/hikey_optee/optee_os/lib/libutee/arch/arm/utee_syscalls_asm.S:79
    bf64:	d28002e8 	mov	x8, #0x17                  	// #23
    bf68:	d4000001 	svc	#0x0
    bf6c:	d65f03c0 	ret

000000000000bf70 <utee_cipher_final>:
utee_cipher_final():
/home/rahulmahadev/hikey_optee/optee_os/lib/libutee/arch/arm/utee_syscalls_asm.S:81
    bf70:	d2800308 	mov	x8, #0x18                  	// #24
    bf74:	d4000001 	svc	#0x0
    bf78:	d65f03c0 	ret

000000000000bf7c <utee_cryp_obj_get_info>:
utee_cryp_obj_get_info():
/home/rahulmahadev/hikey_optee/optee_os/lib/libutee/arch/arm/utee_syscalls_asm.S:83
    bf7c:	d2800328 	mov	x8, #0x19                  	// #25
    bf80:	d4000001 	svc	#0x0
    bf84:	d65f03c0 	ret

000000000000bf88 <utee_cryp_obj_restrict_usage>:
utee_cryp_obj_restrict_usage():
/home/rahulmahadev/hikey_optee/optee_os/lib/libutee/arch/arm/utee_syscalls_asm.S:85
    bf88:	d2800348 	mov	x8, #0x1a                  	// #26
    bf8c:	d4000001 	svc	#0x0
    bf90:	d65f03c0 	ret

000000000000bf94 <utee_cryp_obj_get_attr>:
utee_cryp_obj_get_attr():
/home/rahulmahadev/hikey_optee/optee_os/lib/libutee/arch/arm/utee_syscalls_asm.S:88
    bf94:	d2800368 	mov	x8, #0x1b                  	// #27
    bf98:	d4000001 	svc	#0x0
    bf9c:	d65f03c0 	ret

000000000000bfa0 <utee_cryp_obj_alloc>:
utee_cryp_obj_alloc():
/home/rahulmahadev/hikey_optee/optee_os/lib/libutee/arch/arm/utee_syscalls_asm.S:90
    bfa0:	d2800388 	mov	x8, #0x1c                  	// #28
    bfa4:	d4000001 	svc	#0x0
    bfa8:	d65f03c0 	ret

000000000000bfac <utee_cryp_obj_close>:
utee_cryp_obj_close():
/home/rahulmahadev/hikey_optee/optee_os/lib/libutee/arch/arm/utee_syscalls_asm.S:92
    bfac:	d28003a8 	mov	x8, #0x1d                  	// #29
    bfb0:	d4000001 	svc	#0x0
    bfb4:	d65f03c0 	ret

000000000000bfb8 <utee_cryp_obj_reset>:
utee_cryp_obj_reset():
/home/rahulmahadev/hikey_optee/optee_os/lib/libutee/arch/arm/utee_syscalls_asm.S:94
    bfb8:	d28003c8 	mov	x8, #0x1e                  	// #30
    bfbc:	d4000001 	svc	#0x0
    bfc0:	d65f03c0 	ret

000000000000bfc4 <utee_cryp_obj_populate>:
utee_cryp_obj_populate():
/home/rahulmahadev/hikey_optee/optee_os/lib/libutee/arch/arm/utee_syscalls_asm.S:96
    bfc4:	d28003e8 	mov	x8, #0x1f                  	// #31
    bfc8:	d4000001 	svc	#0x0
    bfcc:	d65f03c0 	ret

000000000000bfd0 <utee_cryp_obj_copy>:
utee_cryp_obj_copy():
/home/rahulmahadev/hikey_optee/optee_os/lib/libutee/arch/arm/utee_syscalls_asm.S:98
    bfd0:	d2800408 	mov	x8, #0x20                  	// #32
    bfd4:	d4000001 	svc	#0x0
    bfd8:	d65f03c0 	ret

000000000000bfdc <utee_cryp_derive_key>:
utee_cryp_derive_key():
/home/rahulmahadev/hikey_optee/optee_os/lib/libutee/arch/arm/utee_syscalls_asm.S:100
    bfdc:	d2800428 	mov	x8, #0x21                  	// #33
    bfe0:	d4000001 	svc	#0x0
    bfe4:	d65f03c0 	ret

000000000000bfe8 <utee_cryp_random_number_generate>:
utee_cryp_random_number_generate():
/home/rahulmahadev/hikey_optee/optee_os/lib/libutee/arch/arm/utee_syscalls_asm.S:102
    bfe8:	d2800448 	mov	x8, #0x22                  	// #34
    bfec:	d4000001 	svc	#0x0
    bff0:	d65f03c0 	ret

000000000000bff4 <utee_authenc_init>:
utee_authenc_init():
/home/rahulmahadev/hikey_optee/optee_os/lib/libutee/arch/arm/utee_syscalls_asm.S:105
    bff4:	d2800468 	mov	x8, #0x23                  	// #35
    bff8:	d4000001 	svc	#0x0
    bffc:	d65f03c0 	ret

000000000000c000 <utee_authenc_update_aad>:
utee_authenc_update_aad():
/home/rahulmahadev/hikey_optee/optee_os/lib/libutee/arch/arm/utee_syscalls_asm.S:107
    c000:	d2800488 	mov	x8, #0x24                  	// #36
    c004:	d4000001 	svc	#0x0
    c008:	d65f03c0 	ret

000000000000c00c <utee_authenc_update_payload>:
utee_authenc_update_payload():
/home/rahulmahadev/hikey_optee/optee_os/lib/libutee/arch/arm/utee_syscalls_asm.S:109
    c00c:	d28004a8 	mov	x8, #0x25                  	// #37
    c010:	d4000001 	svc	#0x0
    c014:	d65f03c0 	ret

000000000000c018 <utee_authenc_enc_final>:
utee_authenc_enc_final():
/home/rahulmahadev/hikey_optee/optee_os/lib/libutee/arch/arm/utee_syscalls_asm.S:112
    c018:	d28004c8 	mov	x8, #0x26                  	// #38
    c01c:	d4000001 	svc	#0x0
    c020:	d65f03c0 	ret

000000000000c024 <utee_authenc_dec_final>:
utee_authenc_dec_final():
/home/rahulmahadev/hikey_optee/optee_os/lib/libutee/arch/arm/utee_syscalls_asm.S:114
    c024:	d28004e8 	mov	x8, #0x27                  	// #39
    c028:	d4000001 	svc	#0x0
    c02c:	d65f03c0 	ret

000000000000c030 <utee_asymm_operate>:
utee_asymm_operate():
/home/rahulmahadev/hikey_optee/optee_os/lib/libutee/arch/arm/utee_syscalls_asm.S:116
    c030:	d2800508 	mov	x8, #0x28                  	// #40
    c034:	d4000001 	svc	#0x0
    c038:	d65f03c0 	ret

000000000000c03c <utee_asymm_verify>:
utee_asymm_verify():
/home/rahulmahadev/hikey_optee/optee_os/lib/libutee/arch/arm/utee_syscalls_asm.S:118
    c03c:	d2800528 	mov	x8, #0x29                  	// #41
    c040:	d4000001 	svc	#0x0
    c044:	d65f03c0 	ret

000000000000c048 <utee_storage_obj_open>:
utee_storage_obj_open():
/home/rahulmahadev/hikey_optee/optee_os/lib/libutee/arch/arm/utee_syscalls_asm.S:120
    c048:	d2800548 	mov	x8, #0x2a                  	// #42
    c04c:	d4000001 	svc	#0x0
    c050:	d65f03c0 	ret

000000000000c054 <utee_storage_obj_create>:
utee_storage_obj_create():
/home/rahulmahadev/hikey_optee/optee_os/lib/libutee/arch/arm/utee_syscalls_asm.S:122
    c054:	d2800568 	mov	x8, #0x2b                  	// #43
    c058:	d4000001 	svc	#0x0
    c05c:	d65f03c0 	ret

000000000000c060 <utee_storage_obj_del>:
utee_storage_obj_del():
/home/rahulmahadev/hikey_optee/optee_os/lib/libutee/arch/arm/utee_syscalls_asm.S:124
    c060:	d2800588 	mov	x8, #0x2c                  	// #44
    c064:	d4000001 	svc	#0x0
    c068:	d65f03c0 	ret

000000000000c06c <utee_storage_obj_rename>:
utee_storage_obj_rename():
/home/rahulmahadev/hikey_optee/optee_os/lib/libutee/arch/arm/utee_syscalls_asm.S:126
    c06c:	d28005a8 	mov	x8, #0x2d                  	// #45
    c070:	d4000001 	svc	#0x0
    c074:	d65f03c0 	ret

000000000000c078 <utee_storage_alloc_enum>:
utee_storage_alloc_enum():
/home/rahulmahadev/hikey_optee/optee_os/lib/libutee/arch/arm/utee_syscalls_asm.S:128
    c078:	d28005c8 	mov	x8, #0x2e                  	// #46
    c07c:	d4000001 	svc	#0x0
    c080:	d65f03c0 	ret

000000000000c084 <utee_storage_free_enum>:
utee_storage_free_enum():
/home/rahulmahadev/hikey_optee/optee_os/lib/libutee/arch/arm/utee_syscalls_asm.S:130
    c084:	d28005e8 	mov	x8, #0x2f                  	// #47
    c088:	d4000001 	svc	#0x0
    c08c:	d65f03c0 	ret

000000000000c090 <utee_storage_reset_enum>:
utee_storage_reset_enum():
/home/rahulmahadev/hikey_optee/optee_os/lib/libutee/arch/arm/utee_syscalls_asm.S:132
    c090:	d2800608 	mov	x8, #0x30                  	// #48
    c094:	d4000001 	svc	#0x0
    c098:	d65f03c0 	ret

000000000000c09c <utee_storage_start_enum>:
utee_storage_start_enum():
/home/rahulmahadev/hikey_optee/optee_os/lib/libutee/arch/arm/utee_syscalls_asm.S:134
    c09c:	d2800628 	mov	x8, #0x31                  	// #49
    c0a0:	d4000001 	svc	#0x0
    c0a4:	d65f03c0 	ret

000000000000c0a8 <utee_storage_next_enum>:
utee_storage_next_enum():
/home/rahulmahadev/hikey_optee/optee_os/lib/libutee/arch/arm/utee_syscalls_asm.S:136
    c0a8:	d2800648 	mov	x8, #0x32                  	// #50
    c0ac:	d4000001 	svc	#0x0
    c0b0:	d65f03c0 	ret

000000000000c0b4 <utee_storage_obj_read>:
utee_storage_obj_read():
/home/rahulmahadev/hikey_optee/optee_os/lib/libutee/arch/arm/utee_syscalls_asm.S:138
    c0b4:	d2800668 	mov	x8, #0x33                  	// #51
    c0b8:	d4000001 	svc	#0x0
    c0bc:	d65f03c0 	ret

000000000000c0c0 <utee_storage_obj_write>:
utee_storage_obj_write():
/home/rahulmahadev/hikey_optee/optee_os/lib/libutee/arch/arm/utee_syscalls_asm.S:140
    c0c0:	d2800688 	mov	x8, #0x34                  	// #52
    c0c4:	d4000001 	svc	#0x0
    c0c8:	d65f03c0 	ret

000000000000c0cc <utee_storage_obj_trunc>:
utee_storage_obj_trunc():
/home/rahulmahadev/hikey_optee/optee_os/lib/libutee/arch/arm/utee_syscalls_asm.S:142
    c0cc:	d28006a8 	mov	x8, #0x35                  	// #53
    c0d0:	d4000001 	svc	#0x0
    c0d4:	d65f03c0 	ret

000000000000c0d8 <utee_storage_obj_seek>:
utee_storage_obj_seek():
/home/rahulmahadev/hikey_optee/optee_os/lib/libutee/arch/arm/utee_syscalls_asm.S:144
    c0d8:	d28006c8 	mov	x8, #0x36                  	// #54
    c0dc:	d4000001 	svc	#0x0
    c0e0:	d65f03c0 	ret

000000000000c0e4 <utee_cryp_obj_generate_key>:
utee_cryp_obj_generate_key():
/home/rahulmahadev/hikey_optee/optee_os/lib/libutee/arch/arm/utee_syscalls_asm.S:146
    c0e4:	d28006e8 	mov	x8, #0x37                  	// #55
    c0e8:	d4000001 	svc	#0x0
    c0ec:	d65f03c0 	ret

000000000000c0f0 <utee_se_service_open>:
utee_se_service_open():
/home/rahulmahadev/hikey_optee/optee_os/lib/libutee/arch/arm/utee_syscalls_asm.S:149
    c0f0:	d2800708 	mov	x8, #0x38                  	// #56
    c0f4:	d4000001 	svc	#0x0
    c0f8:	d65f03c0 	ret

000000000000c0fc <utee_se_service_close>:
utee_se_service_close():
/home/rahulmahadev/hikey_optee/optee_os/lib/libutee/arch/arm/utee_syscalls_asm.S:151
    c0fc:	d2800728 	mov	x8, #0x39                  	// #57
    c100:	d4000001 	svc	#0x0
    c104:	d65f03c0 	ret

000000000000c108 <utee_se_service_get_readers>:
utee_se_service_get_readers():
/home/rahulmahadev/hikey_optee/optee_os/lib/libutee/arch/arm/utee_syscalls_asm.S:153
    c108:	d2800748 	mov	x8, #0x3a                  	// #58
    c10c:	d4000001 	svc	#0x0
    c110:	d65f03c0 	ret

000000000000c114 <utee_se_reader_get_prop>:
utee_se_reader_get_prop():
/home/rahulmahadev/hikey_optee/optee_os/lib/libutee/arch/arm/utee_syscalls_asm.S:156
    c114:	d2800768 	mov	x8, #0x3b                  	// #59
    c118:	d4000001 	svc	#0x0
    c11c:	d65f03c0 	ret

000000000000c120 <utee_se_reader_get_name>:
utee_se_reader_get_name():
/home/rahulmahadev/hikey_optee/optee_os/lib/libutee/arch/arm/utee_syscalls_asm.S:159
    c120:	d2800788 	mov	x8, #0x3c                  	// #60
    c124:	d4000001 	svc	#0x0
    c128:	d65f03c0 	ret

000000000000c12c <utee_se_reader_open_session>:
utee_se_reader_open_session():
/home/rahulmahadev/hikey_optee/optee_os/lib/libutee/arch/arm/utee_syscalls_asm.S:162
    c12c:	d28007a8 	mov	x8, #0x3d                  	// #61
    c130:	d4000001 	svc	#0x0
    c134:	d65f03c0 	ret

000000000000c138 <utee_se_reader_close_sessions>:
utee_se_reader_close_sessions():
/home/rahulmahadev/hikey_optee/optee_os/lib/libutee/arch/arm/utee_syscalls_asm.S:165
    c138:	d28007c8 	mov	x8, #0x3e                  	// #62
    c13c:	d4000001 	svc	#0x0
    c140:	d65f03c0 	ret

000000000000c144 <utee_se_session_is_closed>:
utee_se_session_is_closed():
/home/rahulmahadev/hikey_optee/optee_os/lib/libutee/arch/arm/utee_syscalls_asm.S:168
    c144:	d28007e8 	mov	x8, #0x3f                  	// #63
    c148:	d4000001 	svc	#0x0
    c14c:	d65f03c0 	ret

000000000000c150 <utee_se_session_get_atr>:
utee_se_session_get_atr():
/home/rahulmahadev/hikey_optee/optee_os/lib/libutee/arch/arm/utee_syscalls_asm.S:171
    c150:	d2800808 	mov	x8, #0x40                  	// #64
    c154:	d4000001 	svc	#0x0
    c158:	d65f03c0 	ret

000000000000c15c <utee_se_session_open_channel>:
utee_se_session_open_channel():
/home/rahulmahadev/hikey_optee/optee_os/lib/libutee/arch/arm/utee_syscalls_asm.S:174
    c15c:	d2800828 	mov	x8, #0x41                  	// #65
    c160:	d4000001 	svc	#0x0
    c164:	d65f03c0 	ret

000000000000c168 <utee_se_session_close>:
utee_se_session_close():
/home/rahulmahadev/hikey_optee/optee_os/lib/libutee/arch/arm/utee_syscalls_asm.S:177
    c168:	d2800848 	mov	x8, #0x42                  	// #66
    c16c:	d4000001 	svc	#0x0
    c170:	d65f03c0 	ret

000000000000c174 <utee_se_channel_select_next>:
utee_se_channel_select_next():
/home/rahulmahadev/hikey_optee/optee_os/lib/libutee/arch/arm/utee_syscalls_asm.S:180
    c174:	d2800868 	mov	x8, #0x43                  	// #67
    c178:	d4000001 	svc	#0x0
    c17c:	d65f03c0 	ret

000000000000c180 <utee_se_channel_get_select_resp>:
utee_se_channel_get_select_resp():
/home/rahulmahadev/hikey_optee/optee_os/lib/libutee/arch/arm/utee_syscalls_asm.S:183
    c180:	d2800888 	mov	x8, #0x44                  	// #68
    c184:	d4000001 	svc	#0x0
    c188:	d65f03c0 	ret

000000000000c18c <utee_se_channel_transmit>:
utee_se_channel_transmit():
/home/rahulmahadev/hikey_optee/optee_os/lib/libutee/arch/arm/utee_syscalls_asm.S:186
    c18c:	d28008a8 	mov	x8, #0x45                  	// #69
    c190:	d4000001 	svc	#0x0
    c194:	d65f03c0 	ret

000000000000c198 <utee_se_channel_close>:
utee_se_channel_close():
/home/rahulmahadev/hikey_optee/optee_os/lib/libutee/arch/arm/utee_syscalls_asm.S:189
    c198:	d28008c8 	mov	x8, #0x46                  	// #70
    c19c:	d4000001 	svc	#0x0
    c1a0:	d65f03c0 	ret

000000000000c1a4 <utee_cache_operation>:
utee_cache_operation():
/home/rahulmahadev/hikey_optee/optee_os/lib/libutee/arch/arm/utee_syscalls_asm.S:192
    c1a4:	d28008e8 	mov	x8, #0x47                  	// #71
    c1a8:	d4000001 	svc	#0x0
    c1ac:	d65f03c0 	ret
