
/home/rahulmahadev/devel/optee/neo/ta/out/11111111-1111-1111-1111111111111111.elf:     file format elf32-littlearm
/home/rahulmahadev/devel/optee/neo/ta/out/11111111-1111-1111-1111111111111111.elf
architecture: arm, flags 0x00000150:
HAS_SYMS, DYNAMIC, D_PAGED
start address 0x00000020

Program Header:
    LOAD off    0x00010000 vaddr 0x00000000 paddr 0x00000000 align 2**16
         filesz 0x0000d81c memsz 0x0000d81c flags rwx
    LOAD off    0x0001e000 vaddr 0x0000e000 paddr 0x0000e000 align 2**16
         filesz 0x00000098 memsz 0x0000acb5 flags rw-
    LOAD off    0x00029000 vaddr 0x00019000 paddr 0x00019000 align 2**16
         filesz 0x00001278 memsz 0x00001278 flags rw-
 DYNAMIC off    0x00029000 vaddr 0x00019000 paddr 0x00019000 align 2**2
         filesz 0x00000078 memsz 0x00000078 flags rw-

Dynamic Section:
  HASH                 0x00019f04
  STRTAB               0x00019818
  SYMTAB               0x00019078
  STRSZ                0x000006eb
  SYMENT               0x00000010
  DEBUG                0x00000000
  REL                  0x0000d3c4
  RELSZ                0x00000458
  RELENT               0x00000008
  RELCOUNT             0x00000018
private flags = 5000202: [Version5 EABI] [soft-float ABI] [has entry point]

Sections:
Idx Name          Size      VMA       LMA       File off  Algn
  0 .ta_head      00000020  00000000  00000000  00010000  2**3
                  CONTENTS, ALLOC, LOAD, DATA
  1 .text         0000ba50  00000020  00000020  00010020  2**2
                  CONTENTS, ALLOC, LOAD, READONLY, CODE
  2 .rodata       0000177b  0000ba70  0000ba70  0001ba70  2**2
                  CONTENTS, ALLOC, LOAD, READONLY, DATA
  3 .got          000001d8  0000d1ec  0000d1ec  0001d1ec  2**2
                  CONTENTS, ALLOC, LOAD, DATA
  4 .dynsym       000007a0  00019078  00019078  00029078  2**2
                  CONTENTS, ALLOC, LOAD, READONLY, DATA
  5 .rel.got      00000398  0000d484  0000d484  0001d484  2**2
                  CONTENTS, ALLOC, LOAD, READONLY, DATA
  6 .data         00000098  0000e000  0000e000  0001e000  2**2
                  CONTENTS, ALLOC, LOAD, DATA
  7 .bss          0000ac1d  0000e098  0000e098  0001e098  2**2
                  ALLOC
  8 .dynamic      00000078  00019000  00019000  00029000  2**2
                  CONTENTS, ALLOC, LOAD, DATA
  9 .dynstr       000006eb  00019818  00019818  00029818  2**0
                  CONTENTS, ALLOC, LOAD, READONLY, DATA
 10 .hash         00000374  00019f04  00019f04  00029f04  2**2
                  CONTENTS, ALLOC, LOAD, READONLY, DATA
 11 .debug_info   00008fc3  00000000  00000000  0002a278  2**0
                  CONTENTS, READONLY, DEBUGGING
 12 .debug_abbrev 00002cd5  00000000  00000000  0003323b  2**0
                  CONTENTS, READONLY, DEBUGGING
 13 .debug_aranges 00000c00  00000000  00000000  00035f10  2**3
                  CONTENTS, READONLY, DEBUGGING
 14 .debug_ranges 00000968  00000000  00000000  00036b10  2**0
                  CONTENTS, READONLY, DEBUGGING
 15 .debug_macro  0000474e  00000000  00000000  00037478  2**0
                  CONTENTS, READONLY, DEBUGGING
 16 .debug_line   00006aa3  00000000  00000000  0003bbc6  2**0
                  CONTENTS, READONLY, DEBUGGING
 17 .debug_str    0000edc7  00000000  00000000  00042669  2**0
                  CONTENTS, READONLY, DEBUGGING
 18 .comment      00000063  00000000  00000000  00051430  2**0
                  CONTENTS, READONLY
 19 .ARM.attributes 0000003c  00000000  00000000  00051493  2**0
                  CONTENTS, READONLY
 20 .debug_frame  00002c08  00000000  00000000  000514d0  2**2
                  CONTENTS, READONLY, DEBUGGING
 21 .rel.dyn      000000c0  0000d3c4  0000d3c4  0001d3c4  2**2
                  CONTENTS, ALLOC, LOAD, READONLY, DATA
SYMBOL TABLE:
00000000 l    d  .ta_head	00000000 .ta_head
00000020 l    d  .text	00000000 .text
0000ba70 l    d  .rodata	00000000 .rodata
0000d1ec l    d  .got	00000000 .got
0000d484 l    d  .rel.got	00000000 .rel.got
0000e000 l    d  .data	00000000 .data
0000e098 l    d  .bss	00000000 .bss
00019000 l    d  .dynamic	00000000 .dynamic
00019078 l    d  .dynsym	00000000 .dynsym
00019818 l    d  .dynstr	00000000 .dynstr
00019f04 l    d  .hash	00000000 .hash
00000000 l    d  .debug_info	00000000 .debug_info
00000000 l    d  .debug_abbrev	00000000 .debug_abbrev
00000000 l    d  .debug_aranges	00000000 .debug_aranges
00000000 l    d  .debug_ranges	00000000 .debug_ranges
00000000 l    d  .debug_macro	00000000 .debug_macro
00000000 l    d  .debug_line	00000000 .debug_line
00000000 l    d  .debug_str	00000000 .debug_str
00000000 l    d  .comment	00000000 .comment
00000000 l    d  .ARM.attributes	00000000 .ARM.attributes
00000000 l    d  .debug_frame	00000000 .debug_frame
0000d3c4 l    d  .rel.dyn	00000000 .rel.dyn
00000000 l    df *ABS*	00000000 user_ta_header.c
0000d1e8 l     O .rodata	00000001 __compound_literal.0
0000d1e9 l     O .rodata	00000001 __compound_literal.1
0000d1ea l     O .rodata	00000001 __compound_literal.2
0000bb0c l     O .rodata	00000004 __compound_literal.3
0000bb10 l     O .rodata	00000004 __compound_literal.4
0000bb14 l     O .rodata	00000004 __compound_literal.5
00000000 l    df *ABS*	00000000 ta.c
00000080 l     F .text	000000b8 set_params
00000190 l     F .text	0000012c check_answer
0000baf0 l     O .rodata	0000000d __func__.4912
000002bc l     F .text	000000c4 start_quiz
00000000 l    df *ABS*	00000000 user_ta_entry.c
0000e070 l     O .data	00000008 ta_sessions
0001616c l     O .bss	00000004 ta_ref_count
00018cb4 l     O .bss	00000001 context_init
000003e8 l     F .text	00000070 ta_header_save_params
00000458 l     F .text	00000044 ta_header_get_session
0000049c l     F .text	0000014c ta_header_add_session
000005e8 l     F .text	000000b8 ta_header_remove_session
000006a0 l     F .text	000000cc entry_open_session
0000076c l     F .text	00000068 entry_close_session
000007d4 l     F .text	000000a0 entry_invoke_command
0000bbe8 l     O .rodata	0000000d __func__.5398
00000000 l    df *ABS*	00000000 utee_syscalls_a32.o
00000000 l    df *ABS*	00000000 tee_api_arith.c
00016194 l     O .bss	00001b00 mempool_u32
0000e078 l     O .data	00000004 mempool
00000f30 l     F .text	00000074 TEE_BigInt_Panic
0000bc64 l     O .rodata	00000011 __func__.5134
0000bc78 l     O .rodata	00000021 __func__.5170
0000bc9c l     O .rodata	0000001f __func__.5179
0000bcbc l     O .rodata	00000017 __func__.5191
00000000 l    df *ABS*	00000000 tee_api.c
0000bcd4 l     O .rodata	00000004 DEFAULT_TEE_MALLOC_HINT
00017c94 l     O .bss	00000004 tee_api_instance_data
0000bce4 l     O .rodata	00000013 __func__.5364
0000bcf8 l     O .rodata	00000014 __func__.5376
0000bd0c l     O .rodata	00000017 __func__.5387
0000bd24 l     O .rodata	00000015 __func__.5393
0000bd3c l     O .rodata	00000012 __func__.5426
0000bd50 l     O .rodata	00000009 __func__.5431
0000bd5c l     O .rodata	00000018 __func__.5436
0000bd74 l     O .rodata	00000018 __func__.5441
0000bd8c l     O .rodata	0000000f __func__.5446
00000000 l    df *ABS*	00000000 tee_api_panic.c
00000000 l    df *ABS*	00000000 utee_misc.c
00000000 l    df *ABS*	00000000 tee_user_mem.c
0000bd9c l     O .rodata	00000004 DEFAULT_TEE_MALLOC_HINT
0000e07c l     O .data	00000004 ARTIST
0000bda0 l     O .rodata	00000004 CANARY_LINE_SIZE
00002954 l     F .text	0000001e buf_addr
00002974 l     F .text	00000028 buf_size
0000299c l     F .text	0000001e elem_addr
000029bc l     F .text	0000004c is_buffer_valid
00002a08 l     F .text	0000007c print_buf
00017c98 l     O .bss	00000004 heap_level
00017c9c l     O .bss	00000008 global_stats
00002a84 l     F .text	00000060 heap_inc
00002ae4 l     F .text	00000064 heap_dec
00002b48 l     F .text	00000074 check_elem_end
0000be9c l     O .rodata	0000000f __func__.4949
00002bbc l     F .text	00000104 check_elem
0000beac l     O .rodata	0000000b __func__.4954
00002cc0 l     F .text	00000084 is_mem_coherent
0000beb8 l     O .rodata	00000013 __func__.4973
0000becc l     O .rodata	00000012 __func__.4990
0000bee0 l     O .rodata	00000018 __func__.4998
000031b0 l     F .text	00000088 tee_user_mem_status
0000bef8 l     O .rodata	00000014 __func__.5003
00000000 l    df *ABS*	00000000 trace_ext.c
0000bf14 l     O .rodata	0000000a prefix.4700
0000bf20 l     O .rodata	00000011 failed.4701
0000bf34 l     O .rodata	00000005 trunc.4702
00000000 l    df *ABS*	00000000 assert.c
0000bf5c l     O .rodata	0000000c __func__.5167
00000000 l    df *ABS*	00000000 bget_malloc.c
0000e088 l     O .data	00000010 freelist
00003c78 l     F .text	0000000e malloc_lock
00003c88 l     F .text	0000000e malloc_unlock
00017ca4 l     O .bss	00000004 malloc_pool
00017ca8 l     O .bss	00000004 malloc_pool_len
00003c98 l     F .text	0000000e raw_malloc_save_max_alloced_size
00003d48 l     F .text	0000000e raw_malloc_validate_pools
00003d58 l     F .text	00000030 bpool_foreach_iterator_init
00003d88 l     F .text	000000f4 bpool_foreach_pool
00003e7c l     F .text	00000090 bpool_foreach
00003f0c l     F .text	00000068 raw_malloc
00003f74 l     F .text	00000030 raw_free
00003fa4 l     F .text	00000078 raw_calloc
0000401c l     F .text	0000006c raw_realloc
00004088 l     F .text	00000178 create_free_block
00004200 l     F .text	00000130 brel_before
00004330 l     F .text	000001f4 brel_after
00004524 l     F .text	00000184 raw_memalign
000046a8 l     F .text	00000078 bget_buf_size
000047e4 l     F .text	0000003c realloc_unlocked
000048ac l     F .text	0000002c get_payload_start_size
00000000 l    df *ABS*	00000000 snprintf.c
00000000 l    df *ABS*	00000000 memcmp.c
00000000 l    df *ABS*	00000000 memcpy.c
00000000 l    df *ABS*	00000000 memmove.c
00000000 l    df *ABS*	00000000 memset.c
00000000 l    df *ABS*	00000000 strcmp.c
00000000 l    df *ABS*	00000000 strlen.c
00000000 l    df *ABS*	00000000 snprintk.c
0000c34c l     O .rodata	00000011 hexdigits
0000c360 l     O .rodata	00000011 HEXDIGITS
00005350 l     F .text	00000dca kprintf
000052a4 l     F .text	000000ac uuid2str
00000000 l    df *ABS*	00000000 strlcpy.c
00000000 l    df *ABS*	00000000 trace.c
0000620c l     F .text	00000058 trace_level_to_string
0000c3f4 l     O .rodata	00000014 lvl_strs.4251
00000000 l    df *ABS*	00000000 memchr.c
00000000 l    df *ABS*	00000000 arm32_aeabi_ldivmod_a32.o
00000000 l    df *ABS*	00000000 arm32_aeabi_ldivmod.c
000065b0 l     F .text	000000f0 division_lqr
000066a0 l     F .text	00000070 ul_div_qr
00000000 l    df *ABS*	00000000 mpa_misc.c
00000000 l    df *ABS*	00000000 mpa_montgomery.c
00000000 l    df *ABS*	00000000 mpa_primetest.c
0000d070 l     O .rodata	00000008 const_small_prime_factors
0000d128 l     O .rodata	00000008 const_miller_rabin_proof_limit
0000d138 l     O .rodata	00000008 const_two
00007184 l     F .text	000000c8 is_small_prime
0000724c l     F .text	0000008c has_small_factors
000072d8 l     F .text	00000338 primality_test_miller_rabin
0000714c l     F .text	00000038 check_table
0000d144 l     O .rodata	0000001c proof_a.4620
00000000 l    df *ABS*	00000000 mpa_conv.c
00000000 l    df *ABS*	00000000 mpa_div.c
00007758 l     F .text	000000d8 __mpa_soft_div
00007890 l     F .text	000006a0 __mpa_div_q_r_internal
00000000 l    df *ABS*	00000000 mpa_gcd.c
00008314 l     F .text	000000f2 __mpa_divby2
00008408 l     F .text	00000390 __mpa_egcd
00008798 l     F .text	000001cc __mpa_gcd
00000000 l    df *ABS*	00000000 mpa_mem_static.c
00000000 l    df *ABS*	00000000 mpa_mul.c
00000000 l    df *ABS*	00000000 mpa_random.c
00017cac l     O .bss	00000004 get_rng_array
0000941c l     F .text	00000034 get_random_byte
00000000 l    df *ABS*	00000000 mpa_shift.c
00000000 l    df *ABS*	00000000 mpa_addsub.c
00000000 l    df *ABS*	00000000 mpa_cmp.c
00000000 l    df *ABS*	00000000 mpa_expmod.c
00000000 l    df *ABS*	00000000 mpa_init.c
00000000 l    df *ABS*	00000000 mpa_io.c
0000ac98 l     F .text	00000042 __mpa_isspace
0000acdc l     F .text	0000008c __mpa_is_char_in_base
0000ad68 l     F .text	00000058 __mpa_digit_value
0000adc0 l     F .text	00000022 __mpa_digitstr_to_binary_wsize_base_16
0000ade4 l     F .text	00000050 __mpa_nibble_to_char
0000ae34 l     F .text	0000006c __mpa_word_to_hexstr
0000aea0 l     F .text	00000134 __mpa_mpanum_to_hexstr
0000afd4 l     F .text	00000050 __mpa_count_leading_zero_bits
0000b024 l     F .text	0000006c __mpa_size_in_base_255
00017cb0 l     O .bss	00001002 buf.4657
0000b4a4 l     F .text	00000066 set_word
0000b60c l     F .text	00000042 get_word
00000000 l    df *ABS*	00000000 mpa_modulus.c
00000000 l    df *ABS*	00000000 
00019000 l     O *ABS*	00000000 _DYNAMIC
0000d1ec l     O *ABS*	00000000 _GLOBAL_OFFSET_TABLE_
00000ef0 g       .text	00000000 utee_se_channel_transmit
0000ab94 g     F .text	0000004a mpa_init_static
00006970 g     F .text	00000060 mpa_copy
00001b9c g     F .text	00000064 TEE_BigIntConvertToFMM
00001970 g     F .text	00000034 TEE_BigIntSquareMod
000013c0 g     F .text	00000044 TEE_BigIntShiftRight
0000765c g     F .text	00000096 mpa_get_S32
00006a08 g     F .text	0000007e mpa_highest_bit_index
00000ce0 g       .text	00000000 utee_storage_obj_create
000067b0 g     F .text	00000114 __l_divmod
00000eb4 g       .text	00000000 utee_se_session_close
0000e0a4 g     O .bss	00000064 questions
00000938 g       .text	00000000 utee_return
00003ca8 g     F .text	0000000e malloc_reset_max_allocated
00000e10 g       .text	00000000 utee_se_service_get_readers
0000270c g     F .text	00000030 TEE_Realloc
00007f30 g     F .text	0000015c __mpa_div_q_r_internal_word
00002ec4 g     F .text	000000e8 tee_user_mem_realloc
00003ce0 g     F .text	00000068 malloc_get_heap_size
0000a224 g     F .text	00000250 mpa_sub
000032dc g     F .text	00000120 printf
00002fac g     F .text	00000150 tee_user_mem_free
0000094c g       .text	00000000 utee_log
0000c434 g     O .rodata	00000004 NR_STORED_PRIMES
00002080 g     F .text	000000e8 TEE_InvokeTACommand
00006af4 g     F .text	00000032 mpa_can_hold
0000902c g     F .text	000000cc __mpa_abs_mul_word
00007070 g     F .text	00000074 mpa_montgomery_mul
000051e0 g     F .text	00000040 vsnprintk
00006b28 g     F .text	0000002a mpa_parity
00004e04 g     F .text	0000013e memmove
00009c48 g     F .text	00000062 __mpa_full_adder_ackum
00004bbc g     F .text	00000054 snprintf
0000138c g     F .text	00000034 TEE_BigIntCmpS32
00001474 g     F .text	00000050 TEE_BigIntAdd
0000bb08 g     O .rodata	00000004 ta_heap_size
0000c430 g     O .rodata	00000004 MAX_TABULATED_PRIME
00002870 g     F .text	0000002c utee_malloc
00000a98 g       .text	00000000 utee_cryp_state_alloc
00000c68 g       .text	00000000 utee_authenc_enc_final
00008fa4 g     F .text	00000086 __mpa_mul_add_word_cum
00001514 g     F .text	00000034 TEE_BigIntNeg
00008210 g     F .text	00000104 mpa_div
0000c424 g     O .rodata	00000008 const_one
00004af4 g     F .text	000000c8 malloc_buffer_overlaps_heap
0000a8c0 g     F .text	0000002c __mpa_abs_less_than
000017c0 g     F .text	000000b4 TEE_BigIntSubMod
00009450 g     F .text	00000158 mpa_get_random
00002924 g     F .text	00000030 get_rng_array
00006264 g     F .text	000001ec trace_printf
00000de8 g       .text	00000000 utee_se_service_open
00004d10 g     F .text	000000f2 memcpy
00000ac4 g       .text	00000000 utee_cryp_state_free
00006924 g     F .text	0000004c mpa_wipe
00001c00 g     F .text	000000b4 TEE_BigIntConvertFromFMM
00002844 g     F .text	00000018 TEE_Panic
00000edc g       .text	00000000 utee_se_channel_get_select_resp
00006598 g     F .text	00000018 __aeabi_uldivmod
000033fc g     F .text	0000003c puts
00001cb4 g     F .text	00000064 TEE_BigIntComputeFMM
000076f4 g     F .text	00000030 mpa_set_word
00009734 g     F .text	00000248 mpa_shift_left
00000b44 g       .text	00000000 utee_cipher_final
00009224 g     F .text	000000f8 mpa_mul
00002664 g     F .text	00000078 TEE_GetREETime
0000e004 g     O .data	0000006c ta_props
00004720 g     F .text	00000040 malloc
00000bac g       .text	00000000 utee_cryp_obj_close
00000e4c g       .text	00000000 utee_se_reader_open_session
00004c10 g     F .text	00000048 vsnprintf
0000e000 g     O .data	00000004 trace_level
0000285c g     F .text	00000014 utee_get_ta_exec_id
00001354 g     F .text	00000038 TEE_BigIntCmp
0000289c g     F .text	00000030 utee_realloc
0000bbd8 g     O .rodata	00000004 ta_num_props
00003780 g     F .text	000000c4 bgetr
00000c50 g       .text	00000000 utee_authenc_update_payload
000011d0 g     F .text	000000b4 TEE_BigIntConvertToOctetString
00000f1c g       .text	00000000 utee_cache_operation
00000c24 g       .text	00000000 utee_authenc_init
00001404 g     F .text	0000003c TEE_BigIntGetBit
0000bb00 g     O .rodata	00000008 trace_ext_prefix
00009cac g     F .text	00000138 __mpa_abs_add
000036c4 g     F .text	000000bc bgetz
0000232c g     F .text	0000001c TEE_GetInstanceData
00002480 g     F .text	00000084 TEE_Wait
000009a0 g       .text	00000000 utee_nocall
00000d98 g       .text	00000000 utee_storage_obj_write
00008e9c g     F .text	0000008e mpa_free_static_temp_var
00003ccc g     F .text	00000014 malloc_get_allocated
000070e4 g     F .text	00000068 mpa_is_prob_prime
00000f08 g       .text	00000000 utee_se_channel_close
0000931c g     F .text	000000dc mpa_mul_word
000027a4 g     F .text	00000040 TEE_CacheFlush
00000070 g     F .text	0000000e TA_DestroyEntryPoint
0000e0a0 g     O .bss	00000004 max_qs
00003438 g     F .text	0000005c _assert_log
000010f0 g     F .text	0000002e TEE_BigIntFMMContextSizeInU32
0000000c g       *ABS*	00000000 linker_RW_sections_size
0000808c g     F .text	00000184 __mpa_div_q_r
00000fa4 g     F .text	00000050 _TEE_MathAPI_Init
00000d70 g       .text	00000000 utee_storage_next_enum
0000e16c g     O .bss	00008000 ta_heap
000019a4 g     F .text	00000090 TEE_BigIntInvMod
00000178 g     F .text	00000016 TA_CloseSessionEntryPoint
00000ab0 g       .text	00000000 utee_cryp_state_copy
00000380 g     F .text	00000054 TA_InvokeCommandEntryPoint
0000b50c g     F .text	00000100 mpa_set_oct_str
00000e9c g       .text	00000000 utee_se_session_open_channel
000095a8 g     F .text	000000cc __mpa_shift_words_left
00000b98 g       .text	00000000 utee_cryp_obj_alloc
00000a84 g       .text	00000000 utee_set_ta_time
00000b84 g       .text	00000000 utee_cryp_obj_get_attr
00006ca0 g     F .text	00000118 __mpa_montgomery_sub_ack
00004794 g     F .text	00000050 calloc
000026dc g     F .text	00000030 TEE_Malloc
00000a48 g       .text	00000000 utee_mask_cancellation
00000bc0 g       .text	00000000 utee_cryp_obj_reset
000022ac g     F .text	0000005c TEE_CheckMemoryAccessRights
00006710 g     F .text	000000a0 __ul_divmod
0000e098 g     O .bss	00000004 score
0000a474 g     F .text	00000038 mpa_neg
0000c438 g     O .rodata	00000c38 PRIME_TABLE
00000138 g     F .text	00000040 TA_OpenSessionEntryPoint
0000e108 g     O .bss	00000064 answers
00008964 g     F .text	00000118 mpa_gcd
000069d0 g     F .text	00000038 mpa_abs
00000d5c g       .text	00000000 utee_storage_start_enum
0000b0a4 g     F .text	00000348 mpa_set_str
00000d0c g       .text	00000000 utee_storage_obj_rename
00016170 g     O .bss	00000004 ta_param_types
00001b38 g     F .text	00000064 TEE_BigIntIsProbablePrime
00008e70 g     F .text	0000002c mpa_alloc_static_temp_var
000093f8 g     F .text	00000024 mpa_set_random_generator
000009b4 g       .text	00000000 utee_get_property
00000ff4 g     F .text	0000002c TEE_BigIntInit
00002348 g     F .text	00000040 TEE_MemMove
00001120 g     F .text	000000b0 TEE_BigIntConvertFromOctetString
0000646c g     F .text	00000112 memchr
000021ac g     F .text	00000080 TEE_UnmaskCancellation
0000b8cc g     F .text	00000078 mpa_mul_mod
00000cf8 g       .text	00000000 utee_storage_obj_del
00000dc0 g       .text	00000000 utee_storage_obj_seek
00006f18 g     F .text	00000158 mpa_compute_fmm_context
00000aec g       .text	00000000 utee_hash_update
00008c98 g     F .text	00000046 mpa_init_scratch_mem_sync
00001664 g     F .text	000000a8 TEE_BigIntMod
00000ec8 g       .text	00000000 utee_se_channel_select_next
000009e0 g       .text	00000000 utee_close_ta_session
000015e0 g     F .text	00000084 TEE_BigIntDiv
0000611c g     F .text	00000082 strlcpy
00000b2c g       .text	00000000 utee_cipher_update
00000e88 g       .text	00000000 utee_se_session_get_atr
00004820 g     F .text	0000003c realloc
00009de4 g     F .text	0000010c __mpa_abs_add_ackum
00000cb0 g       .text	00000000 utee_asymm_verify
00001548 g     F .text	00000050 TEE_BigIntMul
00007724 g     F .text	00000032 mpa_get_word
000023c8 g     F .text	00000040 TEE_MemFill
00004c58 g     F .text	000000b6 memcmp
000048d8 g     F .text	00000160 malloc_add_pool
000061e8 g     F .text	00000024 trace_get_level
00000c10 g       .text	00000000 utee_cryp_random_number_generate
000010c8 g     F .text	00000026 TEE_BigIntFMMSizeInU32
00001020 g     F .text	0000003e TEE_BigIntInitFMM
00000c98 g       .text	00000000 utee_asymm_operate
00000874 g     F .text	000000c4 __utee_entry
00001a34 g     F .text	000000a4 TEE_BigIntRelativePrime
0000000c g       *ABS*	00000000 linker_RO_sections_size
00003b38 g     F .text	00000140 bpool
00007610 g     F .text	0000004a mpa_set_S32
0000abe0 g     F .text	000000b8 mpa_init_static_fmm_context
00002168 g     F .text	00000044 TEE_GetCancellationFlag
00000dfc g       .text	00000000 utee_se_service_close
00002d44 g     F .text	00000180 tee_user_mem_alloc
0000e080 g     O .data	00000008 user_mem_head
000025d4 g     F .text	00000090 TEE_SetTAPersistentTime
0000a4ac g     F .text	00000170 mpa_add_word
00000e24 g       .text	00000000 utee_se_reader_get_prop
00004f44 g     F .text	0000011c memset
00002504 g     F .text	000000d0 TEE_GetTAPersistentTime
00000020 g     F .text	0000003c string_copy
00006450 g     F .text	0000001c dhex_dump
0000222c g     F .text	00000080 TEE_MaskCancellation
00009be0 g     F .text	00000066 __mpa_full_sub
00000d84 g       .text	00000000 utee_storage_obj_read
000028cc g     F .text	00000030 utee_calloc
00000bd4 g       .text	00000000 utee_cryp_obj_populate
0000a8ec g     F .text	00000090 mpa_cmp
0000b944 g     F .text	0000012c mpa_inv_mod
0000a61c g     F .text	00000174 mpa_sub_word
00008f2c g     F .text	00000078 __mpa_mul_add_word
0000a000 g     F .text	00000224 mpa_add
0000aa28 g     F .text	0000016c mpa_exp_mod
00009674 g     F .text	000000c0 __mpa_shift_words_right
000061a0 g     F .text	00000048 trace_set_level
00000e74 g       .text	00000000 utee_se_session_is_closed
00000b5c g       .text	00000000 utee_cryp_obj_get_info
00000d20 g       .text	00000000 utee_storage_alloc_enum
00000d48 g       .text	00000000 utee_storage_reset_enum
00000dac g       .text	00000000 utee_storage_obj_trunc
00005060 g     F .text	000000ae strcmp
0000b798 g     F .text	00000044 mpa_mod
0000a890 g     F .text	00000030 __mpa_abs_greater_than
000012b4 g     F .text	000000a0 TEE_BigIntConvertToS32
000014c4 g     F .text	00000050 TEE_BigIntSub
00000a0c g       .text	00000000 utee_get_cancellation_flag
00000ad8 g       .text	00000000 utee_hash_init
000003d4 g     F .text	00000014 tahead_get_trace_level
00001d18 g     F .text	00000168 __utee_from_param
0000c414 g     O .rodata	00000008 Const_1_LShift_Base
00001e80 g     F .text	000000fa __utee_to_param
0000485c g     F .text	00000050 memalign
00001284 g     F .text	00000030 TEE_BigIntConvertFromS32
0000b854 g     F .text	00000078 mpa_sub_mod
00000b70 g       .text	00000000 utee_cryp_obj_restrict_usage
00004a38 g     F .text	000000bc malloc_buffer_is_within_alloced
00000be8 g       .text	00000000 utee_cryp_obj_copy
00000988 g       .text	00000000 utee_dummy_7args
0000997c g     F .text	00000200 mpa_shift_right
00001060 g     F .text	00000068 TEE_BigIntInitFMMContext
00000bfc g       .text	00000000 utee_cryp_derive_key
00006db8 g     F .text	00000160 __mpa_montgomery_mul
0000b650 g     F .text	00000148 mpa_get_oct_str
0000a97c g     F .text	000000aa mpa_cmp_short
00000c80 g       .text	00000000 utee_authenc_dec_final
0000a790 g     F .text	00000100 __mpa_abs_cmp
00001598 g     F .text	00000048 TEE_BigIntSquare
0000005c g     F .text	00000014 TA_CreateEntryPoint
0000519c g     F .text	00000044 snprintk
00001440 g     F .text	00000034 TEE_BigIntGetBitCount
00001874 g     F .text	000000fc TEE_BigIntMulMod
00002824 g     F .text	00000020 __TEE_Panic
00016174 g     O .bss	00000020 ta_params
000090f8 g     F .text	0000012c __mpa_abs_mul
000034b4 g     F .text	00000210 bget
0000273c g     F .text	00000028 TEE_Free
00000e38 g       .text	00000000 utee_se_reader_get_name
000027e4 g     F .text	00000040 TEE_CacheInvalidate
00000b18 g       .text	00000000 utee_cipher_init
00003494 g     F .text	00000020 _assert_break
0000170c g     F .text	000000b4 TEE_BigIntAddMod
00000d34 g       .text	00000000 utee_storage_free_enum
00000c3c g       .text	00000000 utee_authenc_update_aad
00006a88 g     F .text	0000006a mpa_get_bit
00008ce0 g     F .text	00000044 mpa_init_scratch_mem
00002388 g     F .text	00000040 TEE_MemCompare
00005220 g     F .text	00000084 __vsnprintf
00001f7c g     F .text	0000008c TEE_OpenTASession
00000960 g       .text	00000000 utee_panic
00003284 g     F .text	00000044 trace_ext_puts
00003238 g     F .text	0000004c tee_user_mem_garbage
000032c8 g     F .text	00000014 trace_ext_get_thread_id
00002764 g     F .text	00000040 TEE_CacheClean
000009c8 g       .text	00000000 utee_open_ta_session
00007830 g     F .text	00000060 __mpa_div_dword
000068c4 g     F .text	00000060 __mpa_set_unused_digits_to_zero
0000c408 g     O .rodata	00000008 const_largest_deci_base
0000b090 g     F .text	00000014 mpa_get_str_size
0000311c g     F .text	00000094 tee_user_mem_check_heap
0000000c g       *ABS*	00000000 linker_res_funcs_ZI_sections_size
00000b00 g       .text	00000000 utee_hash_final
00005110 g     F .text	0000008a strlen
00001ad8 g     F .text	00000060 TEE_BigIntComputeExtendedGcd
00008a7c g     F .text	0000021c mpa_extended_gcd
0000b7dc g     F .text	00000078 mpa_add_mod
0000000c g       *ABS*	00000000 linker_rel_dyn_GOT
00000cc8 g       .text	00000000 utee_storage_obj_open
000009f4 g       .text	00000000 utee_invoke_ta_command
0000b3ec g     F .text	000000b8 mpa_get_str
00000a5c g       .text	00000000 utee_wait
00000974 g       .text	00000000 utee_dummy
000028fc g     F .text	00000028 utee_free
000030fc g     F .text	00000020 tee_user_mem_mark_heap
00002408 g     F .text	00000078 TEE_GetSystemTime
00000000 g     O .ta_head	00000020 ta_head
00003844 g     F .text	000002f4 brel
00008d24 g     F .text	0000014c mpa_alloc_static_temp_var_size
00000a70 g       .text	00000000 utee_get_time
00006b6c g     F .text	00000132 __mpa_montgomery_mul_add
00002308 g     F .text	00000024 TEE_SetInstanceData
00000a34 g       .text	00000000 utee_unmask_cancellation
00006580 g     F .text	00000000 __aeabi_ldivmod
00000a20 g       .text	00000000 utee_check_access_rights
00000e60 g       .text	00000000 utee_se_reader_close_sessions
00000dd4 g       .text	00000000 utee_cryp_obj_generate_key
00002008 g     F .text	00000078 TEE_CloseTASession
00006b54 g     F .text	00000018 mpa_constant_one
00003cb8 g     F .text	00000014 malloc_get_max_allocated
0000e09c g     O .bss	00000004 q_no
00009b7c g     F .text	00000062 __mpa_full_adder
00009ef0 g     F .text	00000110 __mpa_abs_sub
00004760 g     F .text	00000034 free



Disassembly of section .text:

00000020 <string_copy>:
string_copy():
/home/rahulmahadev/devel/optee/neo/ta/./neolib.h:6
      20:	f84d 7d04 	str.w	r7, [sp, #-4]!
      24:	b085      	sub	sp, #20
      26:	af00      	add	r7, sp, #0
      28:	6078      	str	r0, [r7, #4]
      2a:	6039      	str	r1, [r7, #0]
/home/rahulmahadev/devel/optee/neo/ta/./neolib.h:8
      2c:	687b      	ldr	r3, [r7, #4]
      2e:	60fb      	str	r3, [r7, #12]
/home/rahulmahadev/devel/optee/neo/ta/./neolib.h:9
      30:	bf00      	nop
/home/rahulmahadev/devel/optee/neo/ta/./neolib.h:9 (discriminator 1)
      32:	687b      	ldr	r3, [r7, #4]
      34:	f103 0201 	add.w	r2, r3, #1
      38:	607a      	str	r2, [r7, #4]
      3a:	683a      	ldr	r2, [r7, #0]
      3c:	f102 0101 	add.w	r1, r2, #1
      40:	6039      	str	r1, [r7, #0]
      42:	7812      	ldrb	r2, [r2, #0]
      44:	701a      	strb	r2, [r3, #0]
      46:	781b      	ldrb	r3, [r3, #0]
      48:	2b00      	cmp	r3, #0
      4a:	d1f2      	bne.n	32 <string_copy+0x12>
/home/rahulmahadev/devel/optee/neo/ta/./neolib.h:10
      4c:	68fb      	ldr	r3, [r7, #12]
/home/rahulmahadev/devel/optee/neo/ta/./neolib.h:11
      4e:	4618      	mov	r0, r3
      50:	f107 0714 	add.w	r7, r7, #20
      54:	46bd      	mov	sp, r7
      56:	f85d 7b04 	ldr.w	r7, [sp], #4
      5a:	4770      	bx	lr

0000005c <TA_CreateEntryPoint>:
TA_CreateEntryPoint():
/home/rahulmahadev/devel/optee/neo/ta/ta.c:16
      5c:	f84d 7d04 	str.w	r7, [sp, #-4]!
      60:	af00      	add	r7, sp, #0
/home/rahulmahadev/devel/optee/neo/ta/ta.c:17
      62:	f04f 0300 	mov.w	r3, #0
/home/rahulmahadev/devel/optee/neo/ta/ta.c:18
      66:	4618      	mov	r0, r3
      68:	46bd      	mov	sp, r7
      6a:	f85d 7b04 	ldr.w	r7, [sp], #4
      6e:	4770      	bx	lr

00000070 <TA_DestroyEntryPoint>:
TA_DestroyEntryPoint():
/home/rahulmahadev/devel/optee/neo/ta/ta.c:25
      70:	f84d 7d04 	str.w	r7, [sp, #-4]!
      74:	af00      	add	r7, sp, #0
/home/rahulmahadev/devel/optee/neo/ta/ta.c:26
      76:	46bd      	mov	sp, r7
      78:	f85d 7b04 	ldr.w	r7, [sp], #4
      7c:	4770      	bx	lr
      7e:	bf00      	nop

00000080 <set_params>:
set_params():
/home/rahulmahadev/devel/optee/neo/ta/ta.c:38
      80:	e96d 7e02 	strd	r7, lr, [sp, #-8]!
      84:	af00      	add	r7, sp, #0
/home/rahulmahadev/devel/optee/neo/ta/ta.c:39
      86:	4b1d      	ldr	r3, [pc, #116]	; (fc <set_params+0x7c>)
      88:	447b      	add	r3, pc
      8a:	461a      	mov	r2, r3
      8c:	f04f 0300 	mov.w	r3, #0
      90:	6013      	str	r3, [r2, #0]
/home/rahulmahadev/devel/optee/neo/ta/ta.c:40
      92:	4b1b      	ldr	r3, [pc, #108]	; (100 <set_params+0x80>)
      94:	447b      	add	r3, pc
      96:	461a      	mov	r2, r3
      98:	f04f 0300 	mov.w	r3, #0
      9c:	6013      	str	r3, [r2, #0]
/home/rahulmahadev/devel/optee/neo/ta/ta.c:41
      9e:	4b19      	ldr	r3, [pc, #100]	; (104 <set_params+0x84>)
      a0:	447b      	add	r3, pc
      a2:	461a      	mov	r2, r3
      a4:	f04f 0302 	mov.w	r3, #2
      a8:	6013      	str	r3, [r2, #0]
/home/rahulmahadev/devel/optee/neo/ta/ta.c:42
      aa:	4b17      	ldr	r3, [pc, #92]	; (108 <set_params+0x88>)
      ac:	447b      	add	r3, pc
      ae:	4619      	mov	r1, r3
      b0:	4b16      	ldr	r3, [pc, #88]	; (10c <set_params+0x8c>)
      b2:	447b      	add	r3, pc
      b4:	4618      	mov	r0, r3
      b6:	4b16      	ldr	r3, [pc, #88]	; (110 <set_params+0x90>)
      b8:	447b      	add	r3, pc
      ba:	4798      	blx	r3
/home/rahulmahadev/devel/optee/neo/ta/ta.c:43
      bc:	4b15      	ldr	r3, [pc, #84]	; (114 <set_params+0x94>)
      be:	447b      	add	r3, pc
      c0:	4619      	mov	r1, r3
      c2:	4b15      	ldr	r3, [pc, #84]	; (118 <set_params+0x98>)
      c4:	447b      	add	r3, pc
      c6:	f103 0032 	add.w	r0, r3, #50	; 0x32
      ca:	4b14      	ldr	r3, [pc, #80]	; (11c <set_params+0x9c>)
      cc:	447b      	add	r3, pc
      ce:	4798      	blx	r3
/home/rahulmahadev/devel/optee/neo/ta/ta.c:44
      d0:	4b13      	ldr	r3, [pc, #76]	; (120 <set_params+0xa0>)
      d2:	447b      	add	r3, pc
      d4:	4619      	mov	r1, r3
      d6:	4b13      	ldr	r3, [pc, #76]	; (124 <set_params+0xa4>)
      d8:	447b      	add	r3, pc
      da:	4618      	mov	r0, r3
      dc:	4b12      	ldr	r3, [pc, #72]	; (128 <set_params+0xa8>)
      de:	447b      	add	r3, pc
      e0:	4798      	blx	r3
/home/rahulmahadev/devel/optee/neo/ta/ta.c:45
      e2:	4b12      	ldr	r3, [pc, #72]	; (12c <set_params+0xac>)
      e4:	447b      	add	r3, pc
      e6:	4619      	mov	r1, r3
      e8:	4b11      	ldr	r3, [pc, #68]	; (130 <set_params+0xb0>)
      ea:	447b      	add	r3, pc
      ec:	f103 0032 	add.w	r0, r3, #50	; 0x32
      f0:	4b10      	ldr	r3, [pc, #64]	; (134 <set_params+0xb4>)
      f2:	447b      	add	r3, pc
      f4:	4798      	blx	r3
/home/rahulmahadev/devel/optee/neo/ta/ta.c:46
      f6:	46bd      	mov	sp, r7
      f8:	bd80      	pop	{r7, pc}
      fa:	bf00      	nop
      fc:	0000e00c 	.word	0x0000e00c
     100:	0000e004 	.word	0x0000e004
     104:	0000dffc 	.word	0x0000dffc
     108:	0000b9c0 	.word	0x0000b9c0
     10c:	0000dfee 	.word	0x0000dfee
     110:	ffffff65 	.word	0xffffff65
     114:	0000b9da 	.word	0x0000b9da
     118:	0000dfdc 	.word	0x0000dfdc
     11c:	ffffff51 	.word	0xffffff51
     120:	0000b9ee 	.word	0x0000b9ee
     124:	0000e02c 	.word	0x0000e02c
     128:	ffffff3f 	.word	0xffffff3f
     12c:	0000b9ec 	.word	0x0000b9ec
     130:	0000e01a 	.word	0x0000e01a
     134:	ffffff2b 	.word	0xffffff2b

00000138 <TA_OpenSessionEntryPoint>:
TA_OpenSessionEntryPoint():
/home/rahulmahadev/devel/optee/neo/ta/ta.c:55
     138:	e96d 7e02 	strd	r7, lr, [sp, #-8]!
     13c:	b086      	sub	sp, #24
     13e:	af00      	add	r7, sp, #0
     140:	60f8      	str	r0, [r7, #12]
     142:	60b9      	str	r1, [r7, #8]
     144:	607a      	str	r2, [r7, #4]
/home/rahulmahadev/devel/optee/neo/ta/ta.c:56
     146:	f04f 0300 	mov.w	r3, #0
     14a:	617b      	str	r3, [r7, #20]
/home/rahulmahadev/devel/optee/neo/ta/ta.c:60
     14c:	68fa      	ldr	r2, [r7, #12]
     14e:	697b      	ldr	r3, [r7, #20]
     150:	429a      	cmp	r2, r3
     152:	d004      	beq.n	15e <TA_OpenSessionEntryPoint+0x26>
/home/rahulmahadev/devel/optee/neo/ta/ta.c:61
     154:	f04f 0306 	mov.w	r3, #6
     158:	f6cf 73ff 	movt	r3, #65535	; 0xffff
     15c:	e004      	b.n	168 <TA_OpenSessionEntryPoint+0x30>
/home/rahulmahadev/devel/optee/neo/ta/ta.c:66
     15e:	4b05      	ldr	r3, [pc, #20]	; (174 <TA_OpenSessionEntryPoint+0x3c>)
     160:	447b      	add	r3, pc
     162:	4798      	blx	r3
/home/rahulmahadev/devel/optee/neo/ta/ta.c:73
     164:	f04f 0300 	mov.w	r3, #0
/home/rahulmahadev/devel/optee/neo/ta/ta.c:74
     168:	4618      	mov	r0, r3
     16a:	f107 0718 	add.w	r7, r7, #24
     16e:	46bd      	mov	sp, r7
     170:	bd80      	pop	{r7, pc}
     172:	bf00      	nop
     174:	ffffff1d 	.word	0xffffff1d

00000178 <TA_CloseSessionEntryPoint>:
TA_CloseSessionEntryPoint():
/home/rahulmahadev/devel/optee/neo/ta/ta.c:81
     178:	f84d 7d04 	str.w	r7, [sp, #-4]!
     17c:	b083      	sub	sp, #12
     17e:	af00      	add	r7, sp, #0
     180:	6078      	str	r0, [r7, #4]
/home/rahulmahadev/devel/optee/neo/ta/ta.c:84
     182:	f107 070c 	add.w	r7, r7, #12
     186:	46bd      	mov	sp, r7
     188:	f85d 7b04 	ldr.w	r7, [sp], #4
     18c:	4770      	bx	lr
     18e:	bf00      	nop

00000190 <check_answer>:
check_answer():
/home/rahulmahadev/devel/optee/neo/ta/ta.c:86
     190:	e96d 4504 	strd	r4, r5, [sp, #-16]!
     194:	e9cd 7e02 	strd	r7, lr, [sp, #8]
     198:	b086      	sub	sp, #24
     19a:	af02      	add	r7, sp, #8
     19c:	6078      	str	r0, [r7, #4]
     19e:	6039      	str	r1, [r7, #0]
     1a0:	4c39      	ldr	r4, [pc, #228]	; (288 <check_answer+0xf8>)
     1a2:	447c      	add	r4, pc
/home/rahulmahadev/devel/optee/neo/ta/ta.c:88
     1a4:	f240 2352 	movw	r3, #594	; 0x252
     1a8:	60fb      	str	r3, [r7, #12]
/home/rahulmahadev/devel/optee/neo/ta/ta.c:92
     1aa:	687a      	ldr	r2, [r7, #4]
     1ac:	68fb      	ldr	r3, [r7, #12]
     1ae:	429a      	cmp	r2, r3
     1b0:	d004      	beq.n	1bc <check_answer+0x2c>
/home/rahulmahadev/devel/optee/neo/ta/ta.c:93
     1b2:	f04f 0306 	mov.w	r3, #6
     1b6:	f6cf 73ff 	movt	r3, #65535	; 0xffff
     1ba:	e05c      	b.n	276 <check_answer+0xe6>
/home/rahulmahadev/devel/optee/neo/ta/ta.c:95
     1bc:	683b      	ldr	r3, [r7, #0]
     1be:	f103 0308 	add.w	r3, r3, #8
     1c2:	681b      	ldr	r3, [r3, #0]
     1c4:	60bb      	str	r3, [r7, #8]
/home/rahulmahadev/devel/optee/neo/ta/ta.c:96
     1c6:	683b      	ldr	r3, [r7, #0]
     1c8:	f103 0308 	add.w	r3, r3, #8
     1cc:	685b      	ldr	r3, [r3, #4]
     1ce:	68ba      	ldr	r2, [r7, #8]
     1d0:	4413      	add	r3, r2
     1d2:	f04f 0200 	mov.w	r2, #0
     1d6:	701a      	strb	r2, [r3, #0]
/home/rahulmahadev/devel/optee/neo/ta/ta.c:97
     1d8:	68bb      	ldr	r3, [r7, #8]
     1da:	9301      	str	r3, [sp, #4]
     1dc:	4b2b      	ldr	r3, [pc, #172]	; (28c <check_answer+0xfc>)
     1de:	447b      	add	r3, pc
     1e0:	9300      	str	r3, [sp, #0]
     1e2:	f04f 0301 	mov.w	r3, #1
     1e6:	f04f 0202 	mov.w	r2, #2
     1ea:	f04f 0161 	mov.w	r1, #97	; 0x61
     1ee:	4828      	ldr	r0, [pc, #160]	; (290 <check_answer+0x100>)
     1f0:	4478      	add	r0, pc
     1f2:	4d28      	ldr	r5, [pc, #160]	; (294 <check_answer+0x104>)
     1f4:	5965      	ldr	r5, [r4, r5]
     1f6:	47a8      	blx	r5
/home/rahulmahadev/devel/optee/neo/ta/ta.c:98
     1f8:	4b27      	ldr	r3, [pc, #156]	; (298 <check_answer+0x108>)
     1fa:	447b      	add	r3, pc
     1fc:	681b      	ldr	r3, [r3, #0]
     1fe:	f103 33ff 	add.w	r3, r3, #4294967295
     202:	f04f 0232 	mov.w	r2, #50	; 0x32
     206:	fb02 f303 	mul.w	r3, r2, r3
     20a:	4a24      	ldr	r2, [pc, #144]	; (29c <check_answer+0x10c>)
     20c:	447a      	add	r2, pc
     20e:	4413      	add	r3, r2
     210:	68b9      	ldr	r1, [r7, #8]
     212:	4618      	mov	r0, r3
     214:	4b22      	ldr	r3, [pc, #136]	; (2a0 <check_answer+0x110>)
     216:	58e3      	ldr	r3, [r4, r3]
     218:	4798      	blx	r3
     21a:	4603      	mov	r3, r0
     21c:	2b00      	cmp	r3, #0
     21e:	d107      	bne.n	230 <check_answer+0xa0>
/home/rahulmahadev/devel/optee/neo/ta/ta.c:99
     220:	4b20      	ldr	r3, [pc, #128]	; (2a4 <check_answer+0x114>)
     222:	447b      	add	r3, pc
     224:	681b      	ldr	r3, [r3, #0]
     226:	f103 0301 	add.w	r3, r3, #1
     22a:	4a1f      	ldr	r2, [pc, #124]	; (2a8 <check_answer+0x118>)
     22c:	447a      	add	r2, pc
     22e:	6013      	str	r3, [r2, #0]
/home/rahulmahadev/devel/optee/neo/ta/ta.c:101
     230:	4b1e      	ldr	r3, [pc, #120]	; (2ac <check_answer+0x11c>)
     232:	447b      	add	r3, pc
     234:	681a      	ldr	r2, [r3, #0]
     236:	4b1e      	ldr	r3, [pc, #120]	; (2b0 <check_answer+0x120>)
     238:	447b      	add	r3, pc
     23a:	681b      	ldr	r3, [r3, #0]
     23c:	429a      	cmp	r2, r3
     23e:	d114      	bne.n	26a <check_answer+0xda>
/home/rahulmahadev/devel/optee/neo/ta/ta.c:102
     240:	683b      	ldr	r3, [r7, #0]
     242:	f103 0310 	add.w	r3, r3, #16
     246:	4a1b      	ldr	r2, [pc, #108]	; (2b4 <check_answer+0x124>)
     248:	447a      	add	r2, pc
     24a:	6811      	ldr	r1, [r2, #0]
     24c:	4a1a      	ldr	r2, [pc, #104]	; (2b8 <check_answer+0x128>)
     24e:	447a      	add	r2, pc
     250:	6812      	ldr	r2, [r2, #0]
     252:	fb91 f2f2 	sdiv	r2, r1, r2
     256:	f04f 0164 	mov.w	r1, #100	; 0x64
     25a:	fb01 f202 	mul.w	r2, r1, r2
     25e:	601a      	str	r2, [r3, #0]
/home/rahulmahadev/devel/optee/neo/ta/ta.c:103
     260:	683b      	ldr	r3, [r7, #0]
     262:	f04f 0201 	mov.w	r2, #1
     266:	601a      	str	r2, [r3, #0]
     268:	e003      	b.n	272 <check_answer+0xe2>
/home/rahulmahadev/devel/optee/neo/ta/ta.c:105
     26a:	683b      	ldr	r3, [r7, #0]
     26c:	f04f 0200 	mov.w	r2, #0
     270:	601a      	str	r2, [r3, #0]
/home/rahulmahadev/devel/optee/neo/ta/ta.c:109
     272:	f04f 0300 	mov.w	r3, #0
/home/rahulmahadev/devel/optee/neo/ta/ta.c:110
     276:	4618      	mov	r0, r3
     278:	f107 0710 	add.w	r7, r7, #16
     27c:	46bd      	mov	sp, r7
     27e:	e9dd 4500 	ldrd	r4, r5, [sp]
     282:	b002      	add	sp, #8
     284:	bd80      	pop	{r7, pc}
     286:	bf00      	nop
     288:	0000d046 	.word	0x0000d046
     28c:	0000b8f6 	.word	0x0000b8f6
     290:	0000b8fc 	.word	0x0000b8fc
     294:	0000005c 	.word	0x0000005c
     298:	0000de9e 	.word	0x0000de9e
     29c:	0000def8 	.word	0x0000def8
     2a0:	0000013c 	.word	0x0000013c
     2a4:	0000de72 	.word	0x0000de72
     2a8:	0000de68 	.word	0x0000de68
     2ac:	0000de66 	.word	0x0000de66
     2b0:	0000de64 	.word	0x0000de64
     2b4:	0000de4c 	.word	0x0000de4c
     2b8:	0000de4e 	.word	0x0000de4e

000002bc <start_quiz>:
start_quiz():
/home/rahulmahadev/devel/optee/neo/ta/ta.c:116
     2bc:	f84d 4d0c 	str.w	r4, [sp, #-12]!
     2c0:	e9cd 7e01 	strd	r7, lr, [sp, #4]
     2c4:	b085      	sub	sp, #20
     2c6:	af00      	add	r7, sp, #0
     2c8:	6078      	str	r0, [r7, #4]
     2ca:	6039      	str	r1, [r7, #0]
     2cc:	4c24      	ldr	r4, [pc, #144]	; (360 <start_quiz+0xa4>)
     2ce:	447c      	add	r4, pc
/home/rahulmahadev/devel/optee/neo/ta/ta.c:117
     2d0:	f04f 0362 	mov.w	r3, #98	; 0x62
     2d4:	60fb      	str	r3, [r7, #12]
/home/rahulmahadev/devel/optee/neo/ta/ta.c:121
     2d6:	687a      	ldr	r2, [r7, #4]
     2d8:	68fb      	ldr	r3, [r7, #12]
     2da:	429a      	cmp	r2, r3
     2dc:	d004      	beq.n	2e8 <start_quiz+0x2c>
/home/rahulmahadev/devel/optee/neo/ta/ta.c:122
     2de:	f04f 0306 	mov.w	r3, #6
     2e2:	f6cf 73ff 	movt	r3, #65535	; 0xffff
     2e6:	e032      	b.n	34e <start_quiz+0x92>
/home/rahulmahadev/devel/optee/neo/ta/ta.c:124
     2e8:	4b1e      	ldr	r3, [pc, #120]	; (364 <start_quiz+0xa8>)
     2ea:	447b      	add	r3, pc
     2ec:	681a      	ldr	r2, [r3, #0]
     2ee:	4b1e      	ldr	r3, [pc, #120]	; (368 <start_quiz+0xac>)
     2f0:	447b      	add	r3, pc
     2f2:	681b      	ldr	r3, [r3, #0]
     2f4:	429a      	cmp	r2, r3
     2f6:	da1c      	bge.n	332 <start_quiz+0x76>
/home/rahulmahadev/devel/optee/neo/ta/ta.c:125
     2f8:	683b      	ldr	r3, [r7, #0]
     2fa:	f103 0308 	add.w	r3, r3, #8
     2fe:	681b      	ldr	r3, [r3, #0]
     300:	60bb      	str	r3, [r7, #8]
/home/rahulmahadev/devel/optee/neo/ta/ta.c:127
     302:	683b      	ldr	r3, [r7, #0]
     304:	f04f 0201 	mov.w	r2, #1
     308:	601a      	str	r2, [r3, #0]
/home/rahulmahadev/devel/optee/neo/ta/ta.c:128
     30a:	4b18      	ldr	r3, [pc, #96]	; (36c <start_quiz+0xb0>)
     30c:	447b      	add	r3, pc
     30e:	681b      	ldr	r3, [r3, #0]
     310:	f04f 0232 	mov.w	r2, #50	; 0x32
     314:	fb02 f303 	mul.w	r3, r2, r3
     318:	4a15      	ldr	r2, [pc, #84]	; (370 <start_quiz+0xb4>)
     31a:	447a      	add	r2, pc
     31c:	4413      	add	r3, r2
     31e:	68ba      	ldr	r2, [r7, #8]
     320:	4610      	mov	r0, r2
     322:	4619      	mov	r1, r3
     324:	f04f 0332 	mov.w	r3, #50	; 0x32
     328:	461a      	mov	r2, r3
     32a:	4b12      	ldr	r3, [pc, #72]	; (374 <start_quiz+0xb8>)
     32c:	58e3      	ldr	r3, [r4, r3]
     32e:	4798      	blx	r3
     330:	e003      	b.n	33a <start_quiz+0x7e>
/home/rahulmahadev/devel/optee/neo/ta/ta.c:131
     332:	683b      	ldr	r3, [r7, #0]
     334:	f04f 0200 	mov.w	r2, #0
     338:	601a      	str	r2, [r3, #0]
/home/rahulmahadev/devel/optee/neo/ta/ta.c:133
     33a:	4b0f      	ldr	r3, [pc, #60]	; (378 <start_quiz+0xbc>)
     33c:	447b      	add	r3, pc
     33e:	681b      	ldr	r3, [r3, #0]
     340:	f103 0301 	add.w	r3, r3, #1
     344:	4a0d      	ldr	r2, [pc, #52]	; (37c <start_quiz+0xc0>)
     346:	447a      	add	r2, pc
     348:	6013      	str	r3, [r2, #0]
/home/rahulmahadev/devel/optee/neo/ta/ta.c:134
     34a:	f04f 0300 	mov.w	r3, #0
/home/rahulmahadev/devel/optee/neo/ta/ta.c:135
     34e:	4618      	mov	r0, r3
     350:	f107 0714 	add.w	r7, r7, #20
     354:	46bd      	mov	sp, r7
     356:	e9dd 4700 	ldrd	r4, r7, [sp]
     35a:	b002      	add	sp, #8
     35c:	f85d fb04 	ldr.w	pc, [sp], #4
     360:	0000cf1a 	.word	0x0000cf1a
     364:	0000ddae 	.word	0x0000ddae
     368:	0000ddac 	.word	0x0000ddac
     36c:	0000dd8c 	.word	0x0000dd8c
     370:	0000dd86 	.word	0x0000dd86
     374:	00000060 	.word	0x00000060
     378:	0000dd5c 	.word	0x0000dd5c
     37c:	0000dd52 	.word	0x0000dd52

00000380 <TA_InvokeCommandEntryPoint>:
TA_InvokeCommandEntryPoint():
/home/rahulmahadev/devel/optee/neo/ta/ta.c:144
     380:	e96d 7e02 	strd	r7, lr, [sp, #-8]!
     384:	b084      	sub	sp, #16
     386:	af00      	add	r7, sp, #0
     388:	60f8      	str	r0, [r7, #12]
     38a:	60b9      	str	r1, [r7, #8]
     38c:	607a      	str	r2, [r7, #4]
     38e:	603b      	str	r3, [r7, #0]
/home/rahulmahadev/devel/optee/neo/ta/ta.c:147
     390:	68bb      	ldr	r3, [r7, #8]
     392:	2b00      	cmp	r3, #0
     394:	d002      	beq.n	39c <TA_InvokeCommandEntryPoint+0x1c>
     396:	2b01      	cmp	r3, #1
     398:	d007      	beq.n	3aa <TA_InvokeCommandEntryPoint+0x2a>
     39a:	e00d      	b.n	3b8 <TA_InvokeCommandEntryPoint+0x38>
/home/rahulmahadev/devel/optee/neo/ta/ta.c:149
     39c:	6839      	ldr	r1, [r7, #0]
     39e:	6878      	ldr	r0, [r7, #4]
     3a0:	4b0a      	ldr	r3, [pc, #40]	; (3cc <TA_InvokeCommandEntryPoint+0x4c>)
     3a2:	447b      	add	r3, pc
     3a4:	4798      	blx	r3
     3a6:	4603      	mov	r3, r0
     3a8:	e00a      	b.n	3c0 <TA_InvokeCommandEntryPoint+0x40>
/home/rahulmahadev/devel/optee/neo/ta/ta.c:151
     3aa:	6839      	ldr	r1, [r7, #0]
     3ac:	6878      	ldr	r0, [r7, #4]
     3ae:	4b08      	ldr	r3, [pc, #32]	; (3d0 <TA_InvokeCommandEntryPoint+0x50>)
     3b0:	447b      	add	r3, pc
     3b2:	4798      	blx	r3
     3b4:	4603      	mov	r3, r0
     3b6:	e003      	b.n	3c0 <TA_InvokeCommandEntryPoint+0x40>
/home/rahulmahadev/devel/optee/neo/ta/ta.c:153
     3b8:	f04f 0306 	mov.w	r3, #6
     3bc:	f6cf 73ff 	movt	r3, #65535	; 0xffff
/home/rahulmahadev/devel/optee/neo/ta/ta.c:155
     3c0:	4618      	mov	r0, r3
     3c2:	f107 0710 	add.w	r7, r7, #16
     3c6:	46bd      	mov	sp, r7
     3c8:	bd80      	pop	{r7, pc}
     3ca:	bf00      	nop
     3cc:	ffffff17 	.word	0xffffff17
     3d0:	fffffddd 	.word	0xfffffddd

000003d4 <tahead_get_trace_level>:
tahead_get_trace_level():
/home/rahulmahadev/devel/optee/optee_os/out/arm-plat-vexpress/export-ta_arm32/src/user_ta_header.c:111
     3d4:	f84d 7d04 	str.w	r7, [sp, #-4]!
     3d8:	af00      	add	r7, sp, #0
/home/rahulmahadev/devel/optee/optee_os/out/arm-plat-vexpress/export-ta_arm32/src/user_ta_header.c:115
     3da:	f04f 0304 	mov.w	r3, #4
/home/rahulmahadev/devel/optee/optee_os/out/arm-plat-vexpress/export-ta_arm32/src/user_ta_header.c:116
     3de:	4618      	mov	r0, r3
     3e0:	46bd      	mov	sp, r7
     3e2:	f85d 7b04 	ldr.w	r7, [sp], #4
     3e6:	4770      	bx	lr

000003e8 <ta_header_save_params>:
ta_header_save_params():
/home/rahulmahadev/devel/optee/optee_os/lib/libutee/arch/arm/user_ta_entry.c:62
     3e8:	f84d 4d0c 	str.w	r4, [sp, #-12]!
     3ec:	e9cd 7e01 	strd	r7, lr, [sp, #4]
     3f0:	b083      	sub	sp, #12
     3f2:	af00      	add	r7, sp, #0
     3f4:	6078      	str	r0, [r7, #4]
     3f6:	6039      	str	r1, [r7, #0]
     3f8:	4b11      	ldr	r3, [pc, #68]	; (440 <ta_header_save_params+0x58>)
     3fa:	447b      	add	r3, pc
/home/rahulmahadev/devel/optee/optee_os/lib/libutee/arch/arm/user_ta_entry.c:63
     3fc:	4a11      	ldr	r2, [pc, #68]	; (444 <ta_header_save_params+0x5c>)
     3fe:	447a      	add	r2, pc
     400:	4611      	mov	r1, r2
     402:	687a      	ldr	r2, [r7, #4]
     404:	600a      	str	r2, [r1, #0]
/home/rahulmahadev/devel/optee/optee_os/lib/libutee/arch/arm/user_ta_entry.c:65
     406:	683a      	ldr	r2, [r7, #0]
     408:	2a00      	cmp	r2, #0
     40a:	d008      	beq.n	41e <ta_header_save_params+0x36>
/home/rahulmahadev/devel/optee/optee_os/lib/libutee/arch/arm/user_ta_entry.c:66
     40c:	f04f 0220 	mov.w	r2, #32
     410:	6839      	ldr	r1, [r7, #0]
     412:	480d      	ldr	r0, [pc, #52]	; (448 <ta_header_save_params+0x60>)
     414:	4478      	add	r0, pc
     416:	4c0d      	ldr	r4, [pc, #52]	; (44c <ta_header_save_params+0x64>)
     418:	591b      	ldr	r3, [r3, r4]
     41a:	4798      	blx	r3
     41c:	e008      	b.n	430 <ta_header_save_params+0x48>
/home/rahulmahadev/devel/optee/optee_os/lib/libutee/arch/arm/user_ta_entry.c:68
     41e:	f04f 0220 	mov.w	r2, #32
     422:	f04f 0100 	mov.w	r1, #0
     426:	480a      	ldr	r0, [pc, #40]	; (450 <ta_header_save_params+0x68>)
     428:	4478      	add	r0, pc
     42a:	4c0a      	ldr	r4, [pc, #40]	; (454 <ta_header_save_params+0x6c>)
     42c:	591b      	ldr	r3, [r3, r4]
     42e:	4798      	blx	r3
/home/rahulmahadev/devel/optee/optee_os/lib/libutee/arch/arm/user_ta_entry.c:69
     430:	f107 070c 	add.w	r7, r7, #12
     434:	46bd      	mov	sp, r7
     436:	e9dd 4700 	ldrd	r4, r7, [sp]
     43a:	b002      	add	sp, #8
     43c:	f85d fb04 	ldr.w	pc, [sp], #4
     440:	0000cdee 	.word	0x0000cdee
     444:	00015d6e 	.word	0x00015d6e
     448:	00015d5c 	.word	0x00015d5c
     44c:	00000060 	.word	0x00000060
     450:	00015d48 	.word	0x00015d48
     454:	00000118 	.word	0x00000118

00000458 <ta_header_get_session>:
ta_header_get_session():
/home/rahulmahadev/devel/optee/optee_os/lib/libutee/arch/arm/user_ta_entry.c:72
     458:	f84d 7d04 	str.w	r7, [sp, #-4]!
     45c:	b085      	sub	sp, #20
     45e:	af00      	add	r7, sp, #0
     460:	6078      	str	r0, [r7, #4]
/home/rahulmahadev/devel/optee/optee_os/lib/libutee/arch/arm/user_ta_entry.c:75
     462:	4b0d      	ldr	r3, [pc, #52]	; (498 <ta_header_get_session+0x40>)
     464:	447b      	add	r3, pc
     466:	681b      	ldr	r3, [r3, #0]
     468:	60fb      	str	r3, [r7, #12]
     46a:	e009      	b.n	480 <ta_header_get_session+0x28>
/home/rahulmahadev/devel/optee/optee_os/lib/libutee/arch/arm/user_ta_entry.c:76
     46c:	68fb      	ldr	r3, [r7, #12]
     46e:	681a      	ldr	r2, [r3, #0]
     470:	687b      	ldr	r3, [r7, #4]
     472:	429a      	cmp	r2, r3
     474:	d101      	bne.n	47a <ta_header_get_session+0x22>
/home/rahulmahadev/devel/optee/optee_os/lib/libutee/arch/arm/user_ta_entry.c:77
     476:	68fb      	ldr	r3, [r7, #12]
     478:	e007      	b.n	48a <ta_header_get_session+0x32>
/home/rahulmahadev/devel/optee/optee_os/lib/libutee/arch/arm/user_ta_entry.c:75 (discriminator 2)
     47a:	68fb      	ldr	r3, [r7, #12]
     47c:	689b      	ldr	r3, [r3, #8]
     47e:	60fb      	str	r3, [r7, #12]
/home/rahulmahadev/devel/optee/optee_os/lib/libutee/arch/arm/user_ta_entry.c:75 (discriminator 1)
     480:	68fb      	ldr	r3, [r7, #12]
     482:	2b00      	cmp	r3, #0
     484:	d1f2      	bne.n	46c <ta_header_get_session+0x14>
/home/rahulmahadev/devel/optee/optee_os/lib/libutee/arch/arm/user_ta_entry.c:79
     486:	f04f 0300 	mov.w	r3, #0
/home/rahulmahadev/devel/optee/optee_os/lib/libutee/arch/arm/user_ta_entry.c:80
     48a:	4618      	mov	r0, r3
     48c:	f107 0714 	add.w	r7, r7, #20
     490:	46bd      	mov	sp, r7
     492:	f85d 7b04 	ldr.w	r7, [sp], #4
     496:	4770      	bx	lr
     498:	0000dc08 	.word	0x0000dc08

0000049c <ta_header_add_session>:
ta_header_add_session():
/home/rahulmahadev/devel/optee/optee_os/lib/libutee/arch/arm/user_ta_entry.c:83
     49c:	f84d 4d0c 	str.w	r4, [sp, #-12]!
     4a0:	e9cd 7e01 	strd	r7, lr, [sp, #4]
     4a4:	b085      	sub	sp, #20
     4a6:	af00      	add	r7, sp, #0
     4a8:	6078      	str	r0, [r7, #4]
     4aa:	4c3d      	ldr	r4, [pc, #244]	; (5a0 <ta_header_add_session+0x104>)
     4ac:	447c      	add	r4, pc
/home/rahulmahadev/devel/optee/optee_os/lib/libutee/arch/arm/user_ta_entry.c:84
     4ae:	6878      	ldr	r0, [r7, #4]
     4b0:	4b3c      	ldr	r3, [pc, #240]	; (5a4 <ta_header_add_session+0x108>)
     4b2:	447b      	add	r3, pc
     4b4:	4798      	blx	r3
     4b6:	60f8      	str	r0, [r7, #12]
/home/rahulmahadev/devel/optee/optee_os/lib/libutee/arch/arm/user_ta_entry.c:86
     4b8:	68fb      	ldr	r3, [r7, #12]
     4ba:	2b00      	cmp	r3, #0
     4bc:	d002      	beq.n	4c4 <ta_header_add_session+0x28>
/home/rahulmahadev/devel/optee/optee_os/lib/libutee/arch/arm/user_ta_entry.c:87
     4be:	f04f 0300 	mov.w	r3, #0
     4c2:	e064      	b.n	58e <ta_header_add_session+0xf2>
/home/rahulmahadev/devel/optee/optee_os/lib/libutee/arch/arm/user_ta_entry.c:89
     4c4:	4b38      	ldr	r3, [pc, #224]	; (5a8 <ta_header_add_session+0x10c>)
     4c6:	447b      	add	r3, pc
     4c8:	681b      	ldr	r3, [r3, #0]
     4ca:	f103 0301 	add.w	r3, r3, #1
     4ce:	4a37      	ldr	r2, [pc, #220]	; (5ac <ta_header_add_session+0x110>)
     4d0:	447a      	add	r2, pc
     4d2:	6013      	str	r3, [r2, #0]
/home/rahulmahadev/devel/optee/optee_os/lib/libutee/arch/arm/user_ta_entry.c:91
     4d4:	4b36      	ldr	r3, [pc, #216]	; (5b0 <ta_header_add_session+0x114>)
     4d6:	447b      	add	r3, pc
     4d8:	681b      	ldr	r3, [r3, #0]
     4da:	2b01      	cmp	r3, #1
     4dc:	d12a      	bne.n	534 <ta_header_add_session+0x98>
/home/rahulmahadev/devel/optee/optee_os/lib/libutee/arch/arm/user_ta_entry.c:94
     4de:	4b35      	ldr	r3, [pc, #212]	; (5b4 <ta_header_add_session+0x118>)
     4e0:	447b      	add	r3, pc
     4e2:	781b      	ldrb	r3, [r3, #0]
     4e4:	f083 0301 	eor.w	r3, r3, #1
     4e8:	b2db      	uxtb	r3, r3
     4ea:	2b00      	cmp	r3, #0
     4ec:	d019      	beq.n	522 <ta_header_add_session+0x86>
/home/rahulmahadev/devel/optee/optee_os/lib/libutee/arch/arm/user_ta_entry.c:95
     4ee:	4b32      	ldr	r3, [pc, #200]	; (5b8 <ta_header_add_session+0x11c>)
     4f0:	58e3      	ldr	r3, [r4, r3]
     4f2:	4798      	blx	r3
     4f4:	4603      	mov	r3, r0
     4f6:	4618      	mov	r0, r3
     4f8:	4b30      	ldr	r3, [pc, #192]	; (5bc <ta_header_add_session+0x120>)
     4fa:	58e3      	ldr	r3, [r4, r3]
     4fc:	4798      	blx	r3
/home/rahulmahadev/devel/optee/optee_os/lib/libutee/arch/arm/user_ta_entry.c:96
     4fe:	4b30      	ldr	r3, [pc, #192]	; (5c0 <ta_header_add_session+0x124>)
     500:	58e3      	ldr	r3, [r4, r3]
     502:	681b      	ldr	r3, [r3, #0]
     504:	4619      	mov	r1, r3
     506:	4b2f      	ldr	r3, [pc, #188]	; (5c4 <ta_header_add_session+0x128>)
     508:	58e3      	ldr	r3, [r4, r3]
     50a:	4618      	mov	r0, r3
     50c:	4b2e      	ldr	r3, [pc, #184]	; (5c8 <ta_header_add_session+0x12c>)
     50e:	58e3      	ldr	r3, [r4, r3]
     510:	4798      	blx	r3
/home/rahulmahadev/devel/optee/optee_os/lib/libutee/arch/arm/user_ta_entry.c:97
     512:	4b2e      	ldr	r3, [pc, #184]	; (5cc <ta_header_add_session+0x130>)
     514:	58e3      	ldr	r3, [r4, r3]
     516:	4798      	blx	r3
/home/rahulmahadev/devel/optee/optee_os/lib/libutee/arch/arm/user_ta_entry.c:98
     518:	4b2d      	ldr	r3, [pc, #180]	; (5d0 <ta_header_add_session+0x134>)
     51a:	447b      	add	r3, pc
     51c:	f04f 0201 	mov.w	r2, #1
     520:	701a      	strb	r2, [r3, #0]
/home/rahulmahadev/devel/optee/optee_os/lib/libutee/arch/arm/user_ta_entry.c:101
     522:	4b2c      	ldr	r3, [pc, #176]	; (5d4 <ta_header_add_session+0x138>)
     524:	58e3      	ldr	r3, [r4, r3]
     526:	4798      	blx	r3
     528:	60b8      	str	r0, [r7, #8]
/home/rahulmahadev/devel/optee/optee_os/lib/libutee/arch/arm/user_ta_entry.c:102
     52a:	68bb      	ldr	r3, [r7, #8]
     52c:	2b00      	cmp	r3, #0
     52e:	d001      	beq.n	534 <ta_header_add_session+0x98>
/home/rahulmahadev/devel/optee/optee_os/lib/libutee/arch/arm/user_ta_entry.c:103
     530:	68bb      	ldr	r3, [r7, #8]
     532:	e02c      	b.n	58e <ta_header_add_session+0xf2>
/home/rahulmahadev/devel/optee/optee_os/lib/libutee/arch/arm/user_ta_entry.c:106
     534:	f04f 4100 	mov.w	r1, #2147483648	; 0x80000000
     538:	f04f 0010 	mov.w	r0, #16
     53c:	4b26      	ldr	r3, [pc, #152]	; (5d8 <ta_header_add_session+0x13c>)
     53e:	58e3      	ldr	r3, [r4, r3]
     540:	4798      	blx	r3
     542:	60f8      	str	r0, [r7, #12]
/home/rahulmahadev/devel/optee/optee_os/lib/libutee/arch/arm/user_ta_entry.c:108
     544:	68fb      	ldr	r3, [r7, #12]
     546:	2b00      	cmp	r3, #0
     548:	d104      	bne.n	554 <ta_header_add_session+0xb8>
/home/rahulmahadev/devel/optee/optee_os/lib/libutee/arch/arm/user_ta_entry.c:109
     54a:	f04f 030c 	mov.w	r3, #12
     54e:	f6cf 73ff 	movt	r3, #65535	; 0xffff
     552:	e01c      	b.n	58e <ta_header_add_session+0xf2>
/home/rahulmahadev/devel/optee/optee_os/lib/libutee/arch/arm/user_ta_entry.c:110
     554:	68fb      	ldr	r3, [r7, #12]
     556:	687a      	ldr	r2, [r7, #4]
     558:	601a      	str	r2, [r3, #0]
/home/rahulmahadev/devel/optee/optee_os/lib/libutee/arch/arm/user_ta_entry.c:111
     55a:	68fb      	ldr	r3, [r7, #12]
     55c:	f04f 0200 	mov.w	r2, #0
     560:	605a      	str	r2, [r3, #4]
/home/rahulmahadev/devel/optee/optee_os/lib/libutee/arch/arm/user_ta_entry.c:112
     562:	68fb      	ldr	r3, [r7, #12]
     564:	f04f 0200 	mov.w	r2, #0
     568:	609a      	str	r2, [r3, #8]
     56a:	4b1c      	ldr	r3, [pc, #112]	; (5dc <ta_header_add_session+0x140>)
     56c:	447b      	add	r3, pc
     56e:	685a      	ldr	r2, [r3, #4]
     570:	68fb      	ldr	r3, [r7, #12]
     572:	60da      	str	r2, [r3, #12]
     574:	4b1a      	ldr	r3, [pc, #104]	; (5e0 <ta_header_add_session+0x144>)
     576:	447b      	add	r3, pc
     578:	685b      	ldr	r3, [r3, #4]
     57a:	68fa      	ldr	r2, [r7, #12]
     57c:	601a      	str	r2, [r3, #0]
     57e:	68fb      	ldr	r3, [r7, #12]
     580:	f103 0308 	add.w	r3, r3, #8
     584:	4a17      	ldr	r2, [pc, #92]	; (5e4 <ta_header_add_session+0x148>)
     586:	447a      	add	r2, pc
     588:	6053      	str	r3, [r2, #4]
/home/rahulmahadev/devel/optee/optee_os/lib/libutee/arch/arm/user_ta_entry.c:114
     58a:	f04f 0300 	mov.w	r3, #0
/home/rahulmahadev/devel/optee/optee_os/lib/libutee/arch/arm/user_ta_entry.c:115
     58e:	4618      	mov	r0, r3
     590:	f107 0714 	add.w	r7, r7, #20
     594:	46bd      	mov	sp, r7
     596:	e9dd 4700 	ldrd	r4, r7, [sp]
     59a:	b002      	add	sp, #8
     59c:	f85d fb04 	ldr.w	pc, [sp], #4
     5a0:	0000cd3c 	.word	0x0000cd3c
     5a4:	ffffffa3 	.word	0xffffffa3
     5a8:	00015ca2 	.word	0x00015ca2
     5ac:	00015c98 	.word	0x00015c98
     5b0:	00015c92 	.word	0x00015c92
     5b4:	000187d0 	.word	0x000187d0
     5b8:	0000014c 	.word	0x0000014c
     5bc:	00000138 	.word	0x00000138
     5c0:	00000044 	.word	0x00000044
     5c4:	000000a4 	.word	0x000000a4
     5c8:	000000fc 	.word	0x000000fc
     5cc:	000000a0 	.word	0x000000a0
     5d0:	00018796 	.word	0x00018796
     5d4:	00000174 	.word	0x00000174
     5d8:	000000c0 	.word	0x000000c0
     5dc:	0000db00 	.word	0x0000db00
     5e0:	0000daf6 	.word	0x0000daf6
     5e4:	0000dae6 	.word	0x0000dae6

000005e8 <ta_header_remove_session>:
ta_header_remove_session():
/home/rahulmahadev/devel/optee/optee_os/lib/libutee/arch/arm/user_ta_entry.c:118
     5e8:	f84d 4d0c 	str.w	r4, [sp, #-12]!
     5ec:	e9cd 7e01 	strd	r7, lr, [sp, #4]
     5f0:	b085      	sub	sp, #20
     5f2:	af00      	add	r7, sp, #0
     5f4:	6078      	str	r0, [r7, #4]
     5f6:	4c22      	ldr	r4, [pc, #136]	; (680 <ta_header_remove_session+0x98>)
     5f8:	447c      	add	r4, pc
/home/rahulmahadev/devel/optee/optee_os/lib/libutee/arch/arm/user_ta_entry.c:121
     5fa:	4b22      	ldr	r3, [pc, #136]	; (684 <ta_header_remove_session+0x9c>)
     5fc:	447b      	add	r3, pc
     5fe:	681b      	ldr	r3, [r3, #0]
     600:	60fb      	str	r3, [r7, #12]
     602:	e031      	b.n	668 <ta_header_remove_session+0x80>
/home/rahulmahadev/devel/optee/optee_os/lib/libutee/arch/arm/user_ta_entry.c:122
     604:	68fb      	ldr	r3, [r7, #12]
     606:	681a      	ldr	r2, [r3, #0]
     608:	687b      	ldr	r3, [r7, #4]
     60a:	429a      	cmp	r2, r3
     60c:	d129      	bne.n	662 <ta_header_remove_session+0x7a>
/home/rahulmahadev/devel/optee/optee_os/lib/libutee/arch/arm/user_ta_entry.c:123
     60e:	68fb      	ldr	r3, [r7, #12]
     610:	689b      	ldr	r3, [r3, #8]
     612:	2b00      	cmp	r3, #0
     614:	d005      	beq.n	622 <ta_header_remove_session+0x3a>
/home/rahulmahadev/devel/optee/optee_os/lib/libutee/arch/arm/user_ta_entry.c:123 (discriminator 1)
     616:	68fb      	ldr	r3, [r7, #12]
     618:	689b      	ldr	r3, [r3, #8]
     61a:	68fa      	ldr	r2, [r7, #12]
     61c:	68d2      	ldr	r2, [r2, #12]
     61e:	60da      	str	r2, [r3, #12]
     620:	e004      	b.n	62c <ta_header_remove_session+0x44>
/home/rahulmahadev/devel/optee/optee_os/lib/libutee/arch/arm/user_ta_entry.c:123 (discriminator 2)
     622:	68fb      	ldr	r3, [r7, #12]
     624:	68db      	ldr	r3, [r3, #12]
     626:	4a18      	ldr	r2, [pc, #96]	; (688 <ta_header_remove_session+0xa0>)
     628:	447a      	add	r2, pc
     62a:	6053      	str	r3, [r2, #4]
/home/rahulmahadev/devel/optee/optee_os/lib/libutee/arch/arm/user_ta_entry.c:123 (discriminator 4)
     62c:	68fb      	ldr	r3, [r7, #12]
     62e:	68db      	ldr	r3, [r3, #12]
     630:	68fa      	ldr	r2, [r7, #12]
     632:	6892      	ldr	r2, [r2, #8]
     634:	601a      	str	r2, [r3, #0]
/home/rahulmahadev/devel/optee/optee_os/lib/libutee/arch/arm/user_ta_entry.c:124 (discriminator 4)
     636:	68f8      	ldr	r0, [r7, #12]
     638:	4b14      	ldr	r3, [pc, #80]	; (68c <ta_header_remove_session+0xa4>)
     63a:	58e3      	ldr	r3, [r4, r3]
     63c:	4798      	blx	r3
/home/rahulmahadev/devel/optee/optee_os/lib/libutee/arch/arm/user_ta_entry.c:126 (discriminator 4)
     63e:	4b14      	ldr	r3, [pc, #80]	; (690 <ta_header_remove_session+0xa8>)
     640:	447b      	add	r3, pc
     642:	681b      	ldr	r3, [r3, #0]
     644:	f103 33ff 	add.w	r3, r3, #4294967295
     648:	4a12      	ldr	r2, [pc, #72]	; (694 <ta_header_remove_session+0xac>)
     64a:	447a      	add	r2, pc
     64c:	6013      	str	r3, [r2, #0]
/home/rahulmahadev/devel/optee/optee_os/lib/libutee/arch/arm/user_ta_entry.c:127 (discriminator 4)
     64e:	4b12      	ldr	r3, [pc, #72]	; (698 <ta_header_remove_session+0xb0>)
     650:	447b      	add	r3, pc
     652:	681b      	ldr	r3, [r3, #0]
     654:	2b00      	cmp	r3, #0
     656:	d103      	bne.n	660 <ta_header_remove_session+0x78>
/home/rahulmahadev/devel/optee/optee_os/lib/libutee/arch/arm/user_ta_entry.c:128
     658:	4b10      	ldr	r3, [pc, #64]	; (69c <ta_header_remove_session+0xb4>)
     65a:	58e3      	ldr	r3, [r4, r3]
     65c:	4798      	blx	r3
/home/rahulmahadev/devel/optee/optee_os/lib/libutee/arch/arm/user_ta_entry.c:130
     65e:	e006      	b.n	66e <ta_header_remove_session+0x86>
     660:	e005      	b.n	66e <ta_header_remove_session+0x86>
/home/rahulmahadev/devel/optee/optee_os/lib/libutee/arch/arm/user_ta_entry.c:121 (discriminator 2)
     662:	68fb      	ldr	r3, [r7, #12]
     664:	689b      	ldr	r3, [r3, #8]
     666:	60fb      	str	r3, [r7, #12]
/home/rahulmahadev/devel/optee/optee_os/lib/libutee/arch/arm/user_ta_entry.c:121 (discriminator 1)
     668:	68fb      	ldr	r3, [r7, #12]
     66a:	2b00      	cmp	r3, #0
     66c:	d1ca      	bne.n	604 <ta_header_remove_session+0x1c>
/home/rahulmahadev/devel/optee/optee_os/lib/libutee/arch/arm/user_ta_entry.c:133
     66e:	f107 0714 	add.w	r7, r7, #20
     672:	46bd      	mov	sp, r7
     674:	e9dd 4700 	ldrd	r4, r7, [sp]
     678:	b002      	add	sp, #8
     67a:	f85d fb04 	ldr.w	pc, [sp], #4
     67e:	bf00      	nop
     680:	0000cbf0 	.word	0x0000cbf0
     684:	0000da70 	.word	0x0000da70
     688:	0000da44 	.word	0x0000da44
     68c:	00000180 	.word	0x00000180
     690:	00015b28 	.word	0x00015b28
     694:	00015b1e 	.word	0x00015b1e
     698:	00015b18 	.word	0x00015b18
     69c:	00000098 	.word	0x00000098

000006a0 <entry_open_session>:
entry_open_session():
/home/rahulmahadev/devel/optee/optee_os/lib/libutee/arch/arm/user_ta_entry.c:137
     6a0:	f84d 4d0c 	str.w	r4, [sp, #-12]!
     6a4:	e9cd 7e01 	strd	r7, lr, [sp, #4]
     6a8:	b08f      	sub	sp, #60	; 0x3c
     6aa:	af00      	add	r7, sp, #0
     6ac:	6078      	str	r0, [r7, #4]
     6ae:	6039      	str	r1, [r7, #0]
     6b0:	4c26      	ldr	r4, [pc, #152]	; (74c <entry_open_session+0xac>)
     6b2:	447c      	add	r4, pc
/home/rahulmahadev/devel/optee/optee_os/lib/libutee/arch/arm/user_ta_entry.c:143
     6b4:	6878      	ldr	r0, [r7, #4]
     6b6:	4b26      	ldr	r3, [pc, #152]	; (750 <entry_open_session+0xb0>)
     6b8:	447b      	add	r3, pc
     6ba:	4798      	blx	r3
     6bc:	6378      	str	r0, [r7, #52]	; 0x34
/home/rahulmahadev/devel/optee/optee_os/lib/libutee/arch/arm/user_ta_entry.c:144
     6be:	6b7b      	ldr	r3, [r7, #52]	; 0x34
     6c0:	2b00      	cmp	r3, #0
     6c2:	d001      	beq.n	6c8 <entry_open_session+0x28>
/home/rahulmahadev/devel/optee/optee_os/lib/libutee/arch/arm/user_ta_entry.c:145
     6c4:	6b7b      	ldr	r3, [r7, #52]	; 0x34
     6c6:	e038      	b.n	73a <entry_open_session+0x9a>
/home/rahulmahadev/devel/optee/optee_os/lib/libutee/arch/arm/user_ta_entry.c:147
     6c8:	6878      	ldr	r0, [r7, #4]
     6ca:	4b22      	ldr	r3, [pc, #136]	; (754 <entry_open_session+0xb4>)
     6cc:	447b      	add	r3, pc
     6ce:	4798      	blx	r3
     6d0:	6338      	str	r0, [r7, #48]	; 0x30
/home/rahulmahadev/devel/optee/optee_os/lib/libutee/arch/arm/user_ta_entry.c:148
     6d2:	6b3b      	ldr	r3, [r7, #48]	; 0x30
     6d4:	2b00      	cmp	r3, #0
     6d6:	d104      	bne.n	6e2 <entry_open_session+0x42>
/home/rahulmahadev/devel/optee/optee_os/lib/libutee/arch/arm/user_ta_entry.c:149
     6d8:	f04f 0307 	mov.w	r3, #7
     6dc:	f6cf 73ff 	movt	r3, #65535	; 0xffff
     6e0:	e02b      	b.n	73a <entry_open_session+0x9a>
/home/rahulmahadev/devel/optee/optee_os/lib/libutee/arch/arm/user_ta_entry.c:151
     6e2:	f107 012c 	add.w	r1, r7, #44	; 0x2c
     6e6:	f107 030c 	add.w	r3, r7, #12
     6ea:	683a      	ldr	r2, [r7, #0]
     6ec:	4618      	mov	r0, r3
     6ee:	4b1a      	ldr	r3, [pc, #104]	; (758 <entry_open_session+0xb8>)
     6f0:	58e3      	ldr	r3, [r4, r3]
     6f2:	4798      	blx	r3
/home/rahulmahadev/devel/optee/optee_os/lib/libutee/arch/arm/user_ta_entry.c:152
     6f4:	6afb      	ldr	r3, [r7, #44]	; 0x2c
     6f6:	f107 020c 	add.w	r2, r7, #12
     6fa:	4611      	mov	r1, r2
     6fc:	4618      	mov	r0, r3
     6fe:	4b17      	ldr	r3, [pc, #92]	; (75c <entry_open_session+0xbc>)
     700:	447b      	add	r3, pc
     702:	4798      	blx	r3
/home/rahulmahadev/devel/optee/optee_os/lib/libutee/arch/arm/user_ta_entry.c:154
     704:	6af8      	ldr	r0, [r7, #44]	; 0x2c
     706:	6b3b      	ldr	r3, [r7, #48]	; 0x30
     708:	f103 0204 	add.w	r2, r3, #4
     70c:	f107 030c 	add.w	r3, r7, #12
     710:	4619      	mov	r1, r3
     712:	4b13      	ldr	r3, [pc, #76]	; (760 <entry_open_session+0xc0>)
     714:	58e3      	ldr	r3, [r4, r3]
     716:	4798      	blx	r3
     718:	6378      	str	r0, [r7, #52]	; 0x34
/home/rahulmahadev/devel/optee/optee_os/lib/libutee/arch/arm/user_ta_entry.c:157
     71a:	6afb      	ldr	r3, [r7, #44]	; 0x2c
     71c:	f107 020c 	add.w	r2, r7, #12
     720:	4619      	mov	r1, r3
     722:	6838      	ldr	r0, [r7, #0]
     724:	4b0f      	ldr	r3, [pc, #60]	; (764 <entry_open_session+0xc4>)
     726:	58e3      	ldr	r3, [r4, r3]
     728:	4798      	blx	r3
/home/rahulmahadev/devel/optee/optee_os/lib/libutee/arch/arm/user_ta_entry.c:159
     72a:	6b7b      	ldr	r3, [r7, #52]	; 0x34
     72c:	2b00      	cmp	r3, #0
     72e:	d003      	beq.n	738 <entry_open_session+0x98>
/home/rahulmahadev/devel/optee/optee_os/lib/libutee/arch/arm/user_ta_entry.c:160
     730:	6878      	ldr	r0, [r7, #4]
     732:	4b0d      	ldr	r3, [pc, #52]	; (768 <entry_open_session+0xc8>)
     734:	447b      	add	r3, pc
     736:	4798      	blx	r3
/home/rahulmahadev/devel/optee/optee_os/lib/libutee/arch/arm/user_ta_entry.c:161
     738:	6b7b      	ldr	r3, [r7, #52]	; 0x34
/home/rahulmahadev/devel/optee/optee_os/lib/libutee/arch/arm/user_ta_entry.c:162 (discriminator 1)
     73a:	4618      	mov	r0, r3
     73c:	f107 073c 	add.w	r7, r7, #60	; 0x3c
     740:	46bd      	mov	sp, r7
     742:	e9dd 4700 	ldrd	r4, r7, [sp]
     746:	b002      	add	sp, #8
     748:	f85d fb04 	ldr.w	pc, [sp], #4
     74c:	0000cb36 	.word	0x0000cb36
     750:	fffffde1 	.word	0xfffffde1
     754:	fffffd89 	.word	0xfffffd89
     758:	00000158 	.word	0x00000158
     75c:	fffffce5 	.word	0xfffffce5
     760:	000000cc 	.word	0x000000cc
     764:	00000150 	.word	0x00000150
     768:	fffffeb1 	.word	0xfffffeb1

0000076c <entry_close_session>:
entry_close_session():
/home/rahulmahadev/devel/optee/optee_os/lib/libutee/arch/arm/user_ta_entry.c:165
     76c:	f84d 4d0c 	str.w	r4, [sp, #-12]!
     770:	e9cd 7e01 	strd	r7, lr, [sp, #4]
     774:	b085      	sub	sp, #20
     776:	af00      	add	r7, sp, #0
     778:	6078      	str	r0, [r7, #4]
     77a:	4c12      	ldr	r4, [pc, #72]	; (7c4 <entry_close_session+0x58>)
     77c:	447c      	add	r4, pc
/home/rahulmahadev/devel/optee/optee_os/lib/libutee/arch/arm/user_ta_entry.c:166
     77e:	6878      	ldr	r0, [r7, #4]
     780:	4b11      	ldr	r3, [pc, #68]	; (7c8 <entry_close_session+0x5c>)
     782:	447b      	add	r3, pc
     784:	4798      	blx	r3
     786:	60f8      	str	r0, [r7, #12]
/home/rahulmahadev/devel/optee/optee_os/lib/libutee/arch/arm/user_ta_entry.c:168
     788:	68fb      	ldr	r3, [r7, #12]
     78a:	2b00      	cmp	r3, #0
     78c:	d104      	bne.n	798 <entry_close_session+0x2c>
/home/rahulmahadev/devel/optee/optee_os/lib/libutee/arch/arm/user_ta_entry.c:169
     78e:	f04f 0307 	mov.w	r3, #7
     792:	f6cf 73ff 	movt	r3, #65535	; 0xffff
     796:	e00b      	b.n	7b0 <entry_close_session+0x44>
/home/rahulmahadev/devel/optee/optee_os/lib/libutee/arch/arm/user_ta_entry.c:171
     798:	68fb      	ldr	r3, [r7, #12]
     79a:	685b      	ldr	r3, [r3, #4]
     79c:	4618      	mov	r0, r3
     79e:	4b0b      	ldr	r3, [pc, #44]	; (7cc <entry_close_session+0x60>)
     7a0:	58e3      	ldr	r3, [r4, r3]
     7a2:	4798      	blx	r3
/home/rahulmahadev/devel/optee/optee_os/lib/libutee/arch/arm/user_ta_entry.c:173
     7a4:	6878      	ldr	r0, [r7, #4]
     7a6:	4b0a      	ldr	r3, [pc, #40]	; (7d0 <entry_close_session+0x64>)
     7a8:	447b      	add	r3, pc
     7aa:	4798      	blx	r3
/home/rahulmahadev/devel/optee/optee_os/lib/libutee/arch/arm/user_ta_entry.c:174
     7ac:	f04f 0300 	mov.w	r3, #0
/home/rahulmahadev/devel/optee/optee_os/lib/libutee/arch/arm/user_ta_entry.c:175
     7b0:	4618      	mov	r0, r3
     7b2:	f107 0714 	add.w	r7, r7, #20
     7b6:	46bd      	mov	sp, r7
     7b8:	e9dd 4700 	ldrd	r4, r7, [sp]
     7bc:	b002      	add	sp, #8
     7be:	f85d fb04 	ldr.w	pc, [sp], #4
     7c2:	bf00      	nop
     7c4:	0000ca6c 	.word	0x0000ca6c
     7c8:	fffffcd3 	.word	0xfffffcd3
     7cc:	000000a8 	.word	0x000000a8
     7d0:	fffffe3d 	.word	0xfffffe3d

000007d4 <entry_invoke_command>:
entry_invoke_command():
/home/rahulmahadev/devel/optee/optee_os/lib/libutee/arch/arm/user_ta_entry.c:179
     7d4:	e96d 4504 	strd	r4, r5, [sp, #-16]!
     7d8:	e9cd 7e02 	strd	r7, lr, [sp, #8]
     7dc:	b090      	sub	sp, #64	; 0x40
     7de:	af00      	add	r7, sp, #0
     7e0:	60f8      	str	r0, [r7, #12]
     7e2:	60b9      	str	r1, [r7, #8]
     7e4:	607a      	str	r2, [r7, #4]
     7e6:	4c1d      	ldr	r4, [pc, #116]	; (85c <entry_invoke_command+0x88>)
     7e8:	447c      	add	r4, pc
/home/rahulmahadev/devel/optee/optee_os/lib/libutee/arch/arm/user_ta_entry.c:183
     7ea:	68f8      	ldr	r0, [r7, #12]
     7ec:	4b1c      	ldr	r3, [pc, #112]	; (860 <entry_invoke_command+0x8c>)
     7ee:	447b      	add	r3, pc
     7f0:	4798      	blx	r3
     7f2:	63f8      	str	r0, [r7, #60]	; 0x3c
/home/rahulmahadev/devel/optee/optee_os/lib/libutee/arch/arm/user_ta_entry.c:185
     7f4:	6bfb      	ldr	r3, [r7, #60]	; 0x3c
     7f6:	2b00      	cmp	r3, #0
     7f8:	d104      	bne.n	804 <entry_invoke_command+0x30>
/home/rahulmahadev/devel/optee/optee_os/lib/libutee/arch/arm/user_ta_entry.c:186
     7fa:	f04f 0307 	mov.w	r3, #7
     7fe:	f6cf 73ff 	movt	r3, #65535	; 0xffff
     802:	e023      	b.n	84c <entry_invoke_command+0x78>
/home/rahulmahadev/devel/optee/optee_os/lib/libutee/arch/arm/user_ta_entry.c:188
     804:	f107 0134 	add.w	r1, r7, #52	; 0x34
     808:	f107 0314 	add.w	r3, r7, #20
     80c:	68ba      	ldr	r2, [r7, #8]
     80e:	4618      	mov	r0, r3
     810:	4b14      	ldr	r3, [pc, #80]	; (864 <entry_invoke_command+0x90>)
     812:	58e3      	ldr	r3, [r4, r3]
     814:	4798      	blx	r3
/home/rahulmahadev/devel/optee/optee_os/lib/libutee/arch/arm/user_ta_entry.c:189
     816:	6b7b      	ldr	r3, [r7, #52]	; 0x34
     818:	f107 0214 	add.w	r2, r7, #20
     81c:	4611      	mov	r1, r2
     81e:	4618      	mov	r0, r3
     820:	4b11      	ldr	r3, [pc, #68]	; (868 <entry_invoke_command+0x94>)
     822:	447b      	add	r3, pc
     824:	4798      	blx	r3
/home/rahulmahadev/devel/optee/optee_os/lib/libutee/arch/arm/user_ta_entry.c:191
     826:	6bfb      	ldr	r3, [r7, #60]	; 0x3c
     828:	6858      	ldr	r0, [r3, #4]
     82a:	6b7a      	ldr	r2, [r7, #52]	; 0x34
     82c:	f107 0314 	add.w	r3, r7, #20
     830:	6879      	ldr	r1, [r7, #4]
     832:	4d0e      	ldr	r5, [pc, #56]	; (86c <entry_invoke_command+0x98>)
     834:	5965      	ldr	r5, [r4, r5]
     836:	47a8      	blx	r5
     838:	63b8      	str	r0, [r7, #56]	; 0x38
/home/rahulmahadev/devel/optee/optee_os/lib/libutee/arch/arm/user_ta_entry.c:194
     83a:	6b7b      	ldr	r3, [r7, #52]	; 0x34
     83c:	f107 0214 	add.w	r2, r7, #20
     840:	4619      	mov	r1, r3
     842:	68b8      	ldr	r0, [r7, #8]
     844:	4b0a      	ldr	r3, [pc, #40]	; (870 <entry_invoke_command+0x9c>)
     846:	58e3      	ldr	r3, [r4, r3]
     848:	4798      	blx	r3
/home/rahulmahadev/devel/optee/optee_os/lib/libutee/arch/arm/user_ta_entry.c:195
     84a:	6bbb      	ldr	r3, [r7, #56]	; 0x38
/home/rahulmahadev/devel/optee/optee_os/lib/libutee/arch/arm/user_ta_entry.c:196 (discriminator 1)
     84c:	4618      	mov	r0, r3
     84e:	f107 0740 	add.w	r7, r7, #64	; 0x40
     852:	46bd      	mov	sp, r7
     854:	e9dd 4500 	ldrd	r4, r5, [sp]
     858:	b002      	add	sp, #8
     85a:	bd80      	pop	{r7, pc}
     85c:	0000ca00 	.word	0x0000ca00
     860:	fffffc67 	.word	0xfffffc67
     864:	00000158 	.word	0x00000158
     868:	fffffbc3 	.word	0xfffffbc3
     86c:	000000ac 	.word	0x000000ac
     870:	00000150 	.word	0x00000150

00000874 <__utee_entry>:
__utee_entry():
/home/rahulmahadev/devel/optee/optee_os/lib/libutee/arch/arm/user_ta_entry.c:200
     874:	e96d 4504 	strd	r4, r5, [sp, #-16]!
     878:	e9cd 7e02 	strd	r7, lr, [sp, #8]
     87c:	b088      	sub	sp, #32
     87e:	af02      	add	r7, sp, #8
     880:	60f8      	str	r0, [r7, #12]
     882:	60b9      	str	r1, [r7, #8]
     884:	607a      	str	r2, [r7, #4]
     886:	603b      	str	r3, [r7, #0]
     888:	4c21      	ldr	r4, [pc, #132]	; (910 <__utee_entry+0x9c>)
     88a:	447c      	add	r4, pc
/home/rahulmahadev/devel/optee/optee_os/lib/libutee/arch/arm/user_ta_entry.c:203
     88c:	68fb      	ldr	r3, [r7, #12]
     88e:	2b01      	cmp	r3, #1
     890:	d00b      	beq.n	8aa <__utee_entry+0x36>
     892:	2b01      	cmp	r3, #1
     894:	d302      	bcc.n	89c <__utee_entry+0x28>
     896:	2b02      	cmp	r3, #2
     898:	d00d      	beq.n	8b6 <__utee_entry+0x42>
     89a:	e014      	b.n	8c6 <__utee_entry+0x52>
/home/rahulmahadev/devel/optee/optee_os/lib/libutee/arch/arm/user_ta_entry.c:205
     89c:	6879      	ldr	r1, [r7, #4]
     89e:	68b8      	ldr	r0, [r7, #8]
     8a0:	4b1c      	ldr	r3, [pc, #112]	; (914 <__utee_entry+0xa0>)
     8a2:	447b      	add	r3, pc
     8a4:	4798      	blx	r3
     8a6:	6178      	str	r0, [r7, #20]
/home/rahulmahadev/devel/optee/optee_os/lib/libutee/arch/arm/user_ta_entry.c:206
     8a8:	e027      	b.n	8fa <__utee_entry+0x86>
/home/rahulmahadev/devel/optee/optee_os/lib/libutee/arch/arm/user_ta_entry.c:208
     8aa:	68b8      	ldr	r0, [r7, #8]
     8ac:	4b1a      	ldr	r3, [pc, #104]	; (918 <__utee_entry+0xa4>)
     8ae:	447b      	add	r3, pc
     8b0:	4798      	blx	r3
     8b2:	6178      	str	r0, [r7, #20]
/home/rahulmahadev/devel/optee/optee_os/lib/libutee/arch/arm/user_ta_entry.c:209
     8b4:	e021      	b.n	8fa <__utee_entry+0x86>
/home/rahulmahadev/devel/optee/optee_os/lib/libutee/arch/arm/user_ta_entry.c:211
     8b6:	683a      	ldr	r2, [r7, #0]
     8b8:	6879      	ldr	r1, [r7, #4]
     8ba:	68b8      	ldr	r0, [r7, #8]
     8bc:	4b17      	ldr	r3, [pc, #92]	; (91c <__utee_entry+0xa8>)
     8be:	447b      	add	r3, pc
     8c0:	4798      	blx	r3
     8c2:	6178      	str	r0, [r7, #20]
/home/rahulmahadev/devel/optee/optee_os/lib/libutee/arch/arm/user_ta_entry.c:212
     8c4:	e019      	b.n	8fa <__utee_entry+0x86>
/home/rahulmahadev/devel/optee/optee_os/lib/libutee/arch/arm/user_ta_entry.c:214
     8c6:	f04f 33ff 	mov.w	r3, #4294967295
     8ca:	617b      	str	r3, [r7, #20]
/home/rahulmahadev/devel/optee/optee_os/lib/libutee/arch/arm/user_ta_entry.c:215
     8cc:	f04f 0300 	mov.w	r3, #0
     8d0:	9301      	str	r3, [sp, #4]
     8d2:	4b13      	ldr	r3, [pc, #76]	; (920 <__utee_entry+0xac>)
     8d4:	447b      	add	r3, pc
     8d6:	9300      	str	r3, [sp, #0]
     8d8:	f04f 0301 	mov.w	r3, #1
     8dc:	f04f 0201 	mov.w	r2, #1
     8e0:	f04f 01d7 	mov.w	r1, #215	; 0xd7
     8e4:	480f      	ldr	r0, [pc, #60]	; (924 <__utee_entry+0xb0>)
     8e6:	4478      	add	r0, pc
     8e8:	4d0f      	ldr	r5, [pc, #60]	; (928 <__utee_entry+0xb4>)
     8ea:	5965      	ldr	r5, [r4, r5]
     8ec:	47a8      	blx	r5
     8ee:	f04f 0000 	mov.w	r0, #0
     8f2:	4b0e      	ldr	r3, [pc, #56]	; (92c <__utee_entry+0xb8>)
     8f4:	58e3      	ldr	r3, [r4, r3]
     8f6:	4798      	blx	r3
/home/rahulmahadev/devel/optee/optee_os/lib/libutee/arch/arm/user_ta_entry.c:216
     8f8:	bf00      	nop
/home/rahulmahadev/devel/optee/optee_os/lib/libutee/arch/arm/user_ta_entry.c:218
     8fa:	f04f 0100 	mov.w	r1, #0
     8fe:	f04f 0000 	mov.w	r0, #0
     902:	4b0b      	ldr	r3, [pc, #44]	; (930 <__utee_entry+0xbc>)
     904:	447b      	add	r3, pc
     906:	4798      	blx	r3
/home/rahulmahadev/devel/optee/optee_os/lib/libutee/arch/arm/user_ta_entry.c:219
     908:	6978      	ldr	r0, [r7, #20]
     90a:	4b0a      	ldr	r3, [pc, #40]	; (934 <__utee_entry+0xc0>)
     90c:	58e3      	ldr	r3, [r4, r3]
     90e:	4798      	blx	r3
     910:	0000c95e 	.word	0x0000c95e
     914:	fffffdfb 	.word	0xfffffdfb
     918:	fffffebb 	.word	0xfffffebb
     91c:	ffffff13 	.word	0xffffff13
     920:	0000b304 	.word	0x0000b304
     924:	0000b2fe 	.word	0x0000b2fe
     928:	0000005c 	.word	0x0000005c
     92c:	0000017c 	.word	0x0000017c
     930:	fffffae1 	.word	0xfffffae1
     934:	0000001c 	.word	0x0000001c

00000938 <utee_return>:
$a():
/home/rahulmahadev/devel/optee/optee_os/lib/libutee/arch/arm/utee_syscalls_asm.S:30
     938:	e92d40e0 	push	{r5, r6, r7, lr}
     93c:	e3a07000 	mov	r7, #0
     940:	e3a06000 	mov	r6, #0
     944:	ef000000 	svc	0x00000000
     948:	e8bd80e0 	pop	{r5, r6, r7, pc}

0000094c <utee_log>:
utee_log():
/home/rahulmahadev/devel/optee/optee_os/lib/libutee/arch/arm/utee_syscalls_asm.S:32
     94c:	e92d40e0 	push	{r5, r6, r7, lr}
     950:	e3a07001 	mov	r7, #1
     954:	e3a06000 	mov	r6, #0
     958:	ef000000 	svc	0x00000000
     95c:	e8bd80e0 	pop	{r5, r6, r7, pc}

00000960 <utee_panic>:
utee_panic():
/home/rahulmahadev/devel/optee/optee_os/lib/libutee/arch/arm/utee_syscalls_asm.S:34
     960:	e92d40e0 	push	{r5, r6, r7, lr}
     964:	e3a07002 	mov	r7, #2
     968:	e3a06000 	mov	r6, #0
     96c:	ef000000 	svc	0x00000000
     970:	e8bd80e0 	pop	{r5, r6, r7, pc}

00000974 <utee_dummy>:
utee_dummy():
/home/rahulmahadev/devel/optee/optee_os/lib/libutee/arch/arm/utee_syscalls_asm.S:36
     974:	e92d40e0 	push	{r5, r6, r7, lr}
     978:	e3a07003 	mov	r7, #3
     97c:	e3a06000 	mov	r6, #0
     980:	ef000000 	svc	0x00000000
     984:	e8bd80e0 	pop	{r5, r6, r7, pc}

00000988 <utee_dummy_7args>:
utee_dummy_7args():
/home/rahulmahadev/devel/optee/optee_os/lib/libutee/arch/arm/utee_syscalls_asm.S:38
     988:	e92d40e0 	push	{r5, r6, r7, lr}
     98c:	e3a07004 	mov	r7, #4
     990:	e3a06003 	mov	r6, #3
     994:	e28d5010 	add	r5, sp, #16
     998:	ef000000 	svc	0x00000000
     99c:	e8bd80e0 	pop	{r5, r6, r7, pc}

000009a0 <utee_nocall>:
utee_nocall():
/home/rahulmahadev/devel/optee/optee_os/lib/libutee/arch/arm/utee_syscalls_asm.S:40
     9a0:	e92d40e0 	push	{r5, r6, r7, lr}
     9a4:	e3a07048 	mov	r7, #72	; 0x48
     9a8:	e3a06000 	mov	r6, #0
     9ac:	ef000000 	svc	0x00000000
     9b0:	e8bd80e0 	pop	{r5, r6, r7, pc}

000009b4 <utee_get_property>:
utee_get_property():
/home/rahulmahadev/devel/optee/optee_os/lib/libutee/arch/arm/utee_syscalls_asm.S:42
     9b4:	e92d40e0 	push	{r5, r6, r7, lr}
     9b8:	e3a07005 	mov	r7, #5
     9bc:	e3a06000 	mov	r6, #0
     9c0:	ef000000 	svc	0x00000000
     9c4:	e8bd80e0 	pop	{r5, r6, r7, pc}

000009c8 <utee_open_ta_session>:
utee_open_ta_session():
/home/rahulmahadev/devel/optee/optee_os/lib/libutee/arch/arm/utee_syscalls_asm.S:44
     9c8:	e92d40e0 	push	{r5, r6, r7, lr}
     9cc:	e3a07006 	mov	r7, #6
     9d0:	e3a06001 	mov	r6, #1
     9d4:	e28d5010 	add	r5, sp, #16
     9d8:	ef000000 	svc	0x00000000
     9dc:	e8bd80e0 	pop	{r5, r6, r7, pc}

000009e0 <utee_close_ta_session>:
utee_close_ta_session():
/home/rahulmahadev/devel/optee/optee_os/lib/libutee/arch/arm/utee_syscalls_asm.S:46
     9e0:	e92d40e0 	push	{r5, r6, r7, lr}
     9e4:	e3a07007 	mov	r7, #7
     9e8:	e3a06000 	mov	r6, #0
     9ec:	ef000000 	svc	0x00000000
     9f0:	e8bd80e0 	pop	{r5, r6, r7, pc}

000009f4 <utee_invoke_ta_command>:
utee_invoke_ta_command():
/home/rahulmahadev/devel/optee/optee_os/lib/libutee/arch/arm/utee_syscalls_asm.S:48
     9f4:	e92d40e0 	push	{r5, r6, r7, lr}
     9f8:	e3a07008 	mov	r7, #8
     9fc:	e3a06001 	mov	r6, #1
     a00:	e28d5010 	add	r5, sp, #16
     a04:	ef000000 	svc	0x00000000
     a08:	e8bd80e0 	pop	{r5, r6, r7, pc}

00000a0c <utee_get_cancellation_flag>:
utee_get_cancellation_flag():
/home/rahulmahadev/devel/optee/optee_os/lib/libutee/arch/arm/utee_syscalls_asm.S:50
     a0c:	e92d40e0 	push	{r5, r6, r7, lr}
     a10:	e3a0700a 	mov	r7, #10
     a14:	e3a06000 	mov	r6, #0
     a18:	ef000000 	svc	0x00000000
     a1c:	e8bd80e0 	pop	{r5, r6, r7, pc}

00000a20 <utee_check_access_rights>:
utee_check_access_rights():
/home/rahulmahadev/devel/optee/optee_os/lib/libutee/arch/arm/utee_syscalls_asm.S:53
     a20:	e92d40e0 	push	{r5, r6, r7, lr}
     a24:	e3a07009 	mov	r7, #9
     a28:	e3a06000 	mov	r6, #0
     a2c:	ef000000 	svc	0x00000000
     a30:	e8bd80e0 	pop	{r5, r6, r7, pc}

00000a34 <utee_unmask_cancellation>:
utee_unmask_cancellation():
/home/rahulmahadev/devel/optee/optee_os/lib/libutee/arch/arm/utee_syscalls_asm.S:55
     a34:	e92d40e0 	push	{r5, r6, r7, lr}
     a38:	e3a0700b 	mov	r7, #11
     a3c:	e3a06000 	mov	r6, #0
     a40:	ef000000 	svc	0x00000000
     a44:	e8bd80e0 	pop	{r5, r6, r7, pc}

00000a48 <utee_mask_cancellation>:
utee_mask_cancellation():
/home/rahulmahadev/devel/optee/optee_os/lib/libutee/arch/arm/utee_syscalls_asm.S:57
     a48:	e92d40e0 	push	{r5, r6, r7, lr}
     a4c:	e3a0700c 	mov	r7, #12
     a50:	e3a06000 	mov	r6, #0
     a54:	ef000000 	svc	0x00000000
     a58:	e8bd80e0 	pop	{r5, r6, r7, pc}

00000a5c <utee_wait>:
utee_wait():
/home/rahulmahadev/devel/optee/optee_os/lib/libutee/arch/arm/utee_syscalls_asm.S:59
     a5c:	e92d40e0 	push	{r5, r6, r7, lr}
     a60:	e3a0700d 	mov	r7, #13
     a64:	e3a06000 	mov	r6, #0
     a68:	ef000000 	svc	0x00000000
     a6c:	e8bd80e0 	pop	{r5, r6, r7, pc}

00000a70 <utee_get_time>:
utee_get_time():
/home/rahulmahadev/devel/optee/optee_os/lib/libutee/arch/arm/utee_syscalls_asm.S:61
     a70:	e92d40e0 	push	{r5, r6, r7, lr}
     a74:	e3a0700e 	mov	r7, #14
     a78:	e3a06000 	mov	r6, #0
     a7c:	ef000000 	svc	0x00000000
     a80:	e8bd80e0 	pop	{r5, r6, r7, pc}

00000a84 <utee_set_ta_time>:
utee_set_ta_time():
/home/rahulmahadev/devel/optee/optee_os/lib/libutee/arch/arm/utee_syscalls_asm.S:63
     a84:	e92d40e0 	push	{r5, r6, r7, lr}
     a88:	e3a0700f 	mov	r7, #15
     a8c:	e3a06000 	mov	r6, #0
     a90:	ef000000 	svc	0x00000000
     a94:	e8bd80e0 	pop	{r5, r6, r7, pc}

00000a98 <utee_cryp_state_alloc>:
utee_cryp_state_alloc():
/home/rahulmahadev/devel/optee/optee_os/lib/libutee/arch/arm/utee_syscalls_asm.S:65
     a98:	e92d40e0 	push	{r5, r6, r7, lr}
     a9c:	e3a07010 	mov	r7, #16
     aa0:	e3a06001 	mov	r6, #1
     aa4:	e28d5010 	add	r5, sp, #16
     aa8:	ef000000 	svc	0x00000000
     aac:	e8bd80e0 	pop	{r5, r6, r7, pc}

00000ab0 <utee_cryp_state_copy>:
utee_cryp_state_copy():
/home/rahulmahadev/devel/optee/optee_os/lib/libutee/arch/arm/utee_syscalls_asm.S:67
     ab0:	e92d40e0 	push	{r5, r6, r7, lr}
     ab4:	e3a07011 	mov	r7, #17
     ab8:	e3a06000 	mov	r6, #0
     abc:	ef000000 	svc	0x00000000
     ac0:	e8bd80e0 	pop	{r5, r6, r7, pc}

00000ac4 <utee_cryp_state_free>:
utee_cryp_state_free():
/home/rahulmahadev/devel/optee/optee_os/lib/libutee/arch/arm/utee_syscalls_asm.S:69
     ac4:	e92d40e0 	push	{r5, r6, r7, lr}
     ac8:	e3a07012 	mov	r7, #18
     acc:	e3a06000 	mov	r6, #0
     ad0:	ef000000 	svc	0x00000000
     ad4:	e8bd80e0 	pop	{r5, r6, r7, pc}

00000ad8 <utee_hash_init>:
utee_hash_init():
/home/rahulmahadev/devel/optee/optee_os/lib/libutee/arch/arm/utee_syscalls_asm.S:71
     ad8:	e92d40e0 	push	{r5, r6, r7, lr}
     adc:	e3a07013 	mov	r7, #19
     ae0:	e3a06000 	mov	r6, #0
     ae4:	ef000000 	svc	0x00000000
     ae8:	e8bd80e0 	pop	{r5, r6, r7, pc}

00000aec <utee_hash_update>:
utee_hash_update():
/home/rahulmahadev/devel/optee/optee_os/lib/libutee/arch/arm/utee_syscalls_asm.S:73
     aec:	e92d40e0 	push	{r5, r6, r7, lr}
     af0:	e3a07014 	mov	r7, #20
     af4:	e3a06000 	mov	r6, #0
     af8:	ef000000 	svc	0x00000000
     afc:	e8bd80e0 	pop	{r5, r6, r7, pc}

00000b00 <utee_hash_final>:
utee_hash_final():
/home/rahulmahadev/devel/optee/optee_os/lib/libutee/arch/arm/utee_syscalls_asm.S:75
     b00:	e92d40e0 	push	{r5, r6, r7, lr}
     b04:	e3a07015 	mov	r7, #21
     b08:	e3a06001 	mov	r6, #1
     b0c:	e28d5010 	add	r5, sp, #16
     b10:	ef000000 	svc	0x00000000
     b14:	e8bd80e0 	pop	{r5, r6, r7, pc}

00000b18 <utee_cipher_init>:
utee_cipher_init():
/home/rahulmahadev/devel/optee/optee_os/lib/libutee/arch/arm/utee_syscalls_asm.S:77
     b18:	e92d40e0 	push	{r5, r6, r7, lr}
     b1c:	e3a07016 	mov	r7, #22
     b20:	e3a06000 	mov	r6, #0
     b24:	ef000000 	svc	0x00000000
     b28:	e8bd80e0 	pop	{r5, r6, r7, pc}

00000b2c <utee_cipher_update>:
utee_cipher_update():
/home/rahulmahadev/devel/optee/optee_os/lib/libutee/arch/arm/utee_syscalls_asm.S:79
     b2c:	e92d40e0 	push	{r5, r6, r7, lr}
     b30:	e3a07017 	mov	r7, #23
     b34:	e3a06001 	mov	r6, #1
     b38:	e28d5010 	add	r5, sp, #16
     b3c:	ef000000 	svc	0x00000000
     b40:	e8bd80e0 	pop	{r5, r6, r7, pc}

00000b44 <utee_cipher_final>:
utee_cipher_final():
/home/rahulmahadev/devel/optee/optee_os/lib/libutee/arch/arm/utee_syscalls_asm.S:81
     b44:	e92d40e0 	push	{r5, r6, r7, lr}
     b48:	e3a07018 	mov	r7, #24
     b4c:	e3a06001 	mov	r6, #1
     b50:	e28d5010 	add	r5, sp, #16
     b54:	ef000000 	svc	0x00000000
     b58:	e8bd80e0 	pop	{r5, r6, r7, pc}

00000b5c <utee_cryp_obj_get_info>:
utee_cryp_obj_get_info():
/home/rahulmahadev/devel/optee/optee_os/lib/libutee/arch/arm/utee_syscalls_asm.S:83
     b5c:	e92d40e0 	push	{r5, r6, r7, lr}
     b60:	e3a07019 	mov	r7, #25
     b64:	e3a06000 	mov	r6, #0
     b68:	ef000000 	svc	0x00000000
     b6c:	e8bd80e0 	pop	{r5, r6, r7, pc}

00000b70 <utee_cryp_obj_restrict_usage>:
utee_cryp_obj_restrict_usage():
/home/rahulmahadev/devel/optee/optee_os/lib/libutee/arch/arm/utee_syscalls_asm.S:85
     b70:	e92d40e0 	push	{r5, r6, r7, lr}
     b74:	e3a0701a 	mov	r7, #26
     b78:	e3a06000 	mov	r6, #0
     b7c:	ef000000 	svc	0x00000000
     b80:	e8bd80e0 	pop	{r5, r6, r7, pc}

00000b84 <utee_cryp_obj_get_attr>:
utee_cryp_obj_get_attr():
/home/rahulmahadev/devel/optee/optee_os/lib/libutee/arch/arm/utee_syscalls_asm.S:88
     b84:	e92d40e0 	push	{r5, r6, r7, lr}
     b88:	e3a0701b 	mov	r7, #27
     b8c:	e3a06000 	mov	r6, #0
     b90:	ef000000 	svc	0x00000000
     b94:	e8bd80e0 	pop	{r5, r6, r7, pc}

00000b98 <utee_cryp_obj_alloc>:
utee_cryp_obj_alloc():
/home/rahulmahadev/devel/optee/optee_os/lib/libutee/arch/arm/utee_syscalls_asm.S:90
     b98:	e92d40e0 	push	{r5, r6, r7, lr}
     b9c:	e3a0701c 	mov	r7, #28
     ba0:	e3a06000 	mov	r6, #0
     ba4:	ef000000 	svc	0x00000000
     ba8:	e8bd80e0 	pop	{r5, r6, r7, pc}

00000bac <utee_cryp_obj_close>:
utee_cryp_obj_close():
/home/rahulmahadev/devel/optee/optee_os/lib/libutee/arch/arm/utee_syscalls_asm.S:92
     bac:	e92d40e0 	push	{r5, r6, r7, lr}
     bb0:	e3a0701d 	mov	r7, #29
     bb4:	e3a06000 	mov	r6, #0
     bb8:	ef000000 	svc	0x00000000
     bbc:	e8bd80e0 	pop	{r5, r6, r7, pc}

00000bc0 <utee_cryp_obj_reset>:
utee_cryp_obj_reset():
/home/rahulmahadev/devel/optee/optee_os/lib/libutee/arch/arm/utee_syscalls_asm.S:94
     bc0:	e92d40e0 	push	{r5, r6, r7, lr}
     bc4:	e3a0701e 	mov	r7, #30
     bc8:	e3a06000 	mov	r6, #0
     bcc:	ef000000 	svc	0x00000000
     bd0:	e8bd80e0 	pop	{r5, r6, r7, pc}

00000bd4 <utee_cryp_obj_populate>:
utee_cryp_obj_populate():
/home/rahulmahadev/devel/optee/optee_os/lib/libutee/arch/arm/utee_syscalls_asm.S:96
     bd4:	e92d40e0 	push	{r5, r6, r7, lr}
     bd8:	e3a0701f 	mov	r7, #31
     bdc:	e3a06000 	mov	r6, #0
     be0:	ef000000 	svc	0x00000000
     be4:	e8bd80e0 	pop	{r5, r6, r7, pc}

00000be8 <utee_cryp_obj_copy>:
utee_cryp_obj_copy():
/home/rahulmahadev/devel/optee/optee_os/lib/libutee/arch/arm/utee_syscalls_asm.S:98
     be8:	e92d40e0 	push	{r5, r6, r7, lr}
     bec:	e3a07020 	mov	r7, #32
     bf0:	e3a06000 	mov	r6, #0
     bf4:	ef000000 	svc	0x00000000
     bf8:	e8bd80e0 	pop	{r5, r6, r7, pc}

00000bfc <utee_cryp_derive_key>:
utee_cryp_derive_key():
/home/rahulmahadev/devel/optee/optee_os/lib/libutee/arch/arm/utee_syscalls_asm.S:100
     bfc:	e92d40e0 	push	{r5, r6, r7, lr}
     c00:	e3a07021 	mov	r7, #33	; 0x21
     c04:	e3a06000 	mov	r6, #0
     c08:	ef000000 	svc	0x00000000
     c0c:	e8bd80e0 	pop	{r5, r6, r7, pc}

00000c10 <utee_cryp_random_number_generate>:
utee_cryp_random_number_generate():
/home/rahulmahadev/devel/optee/optee_os/lib/libutee/arch/arm/utee_syscalls_asm.S:102
     c10:	e92d40e0 	push	{r5, r6, r7, lr}
     c14:	e3a07022 	mov	r7, #34	; 0x22
     c18:	e3a06000 	mov	r6, #0
     c1c:	ef000000 	svc	0x00000000
     c20:	e8bd80e0 	pop	{r5, r6, r7, pc}

00000c24 <utee_authenc_init>:
utee_authenc_init():
/home/rahulmahadev/devel/optee/optee_os/lib/libutee/arch/arm/utee_syscalls_asm.S:105
     c24:	e92d40e0 	push	{r5, r6, r7, lr}
     c28:	e3a07023 	mov	r7, #35	; 0x23
     c2c:	e3a06002 	mov	r6, #2
     c30:	e28d5010 	add	r5, sp, #16
     c34:	ef000000 	svc	0x00000000
     c38:	e8bd80e0 	pop	{r5, r6, r7, pc}

00000c3c <utee_authenc_update_aad>:
utee_authenc_update_aad():
/home/rahulmahadev/devel/optee/optee_os/lib/libutee/arch/arm/utee_syscalls_asm.S:107
     c3c:	e92d40e0 	push	{r5, r6, r7, lr}
     c40:	e3a07024 	mov	r7, #36	; 0x24
     c44:	e3a06000 	mov	r6, #0
     c48:	ef000000 	svc	0x00000000
     c4c:	e8bd80e0 	pop	{r5, r6, r7, pc}

00000c50 <utee_authenc_update_payload>:
utee_authenc_update_payload():
/home/rahulmahadev/devel/optee/optee_os/lib/libutee/arch/arm/utee_syscalls_asm.S:109
     c50:	e92d40e0 	push	{r5, r6, r7, lr}
     c54:	e3a07025 	mov	r7, #37	; 0x25
     c58:	e3a06001 	mov	r6, #1
     c5c:	e28d5010 	add	r5, sp, #16
     c60:	ef000000 	svc	0x00000000
     c64:	e8bd80e0 	pop	{r5, r6, r7, pc}

00000c68 <utee_authenc_enc_final>:
utee_authenc_enc_final():
/home/rahulmahadev/devel/optee/optee_os/lib/libutee/arch/arm/utee_syscalls_asm.S:112
     c68:	e92d40e0 	push	{r5, r6, r7, lr}
     c6c:	e3a07026 	mov	r7, #38	; 0x26
     c70:	e3a06003 	mov	r6, #3
     c74:	e28d5010 	add	r5, sp, #16
     c78:	ef000000 	svc	0x00000000
     c7c:	e8bd80e0 	pop	{r5, r6, r7, pc}

00000c80 <utee_authenc_dec_final>:
utee_authenc_dec_final():
/home/rahulmahadev/devel/optee/optee_os/lib/libutee/arch/arm/utee_syscalls_asm.S:114
     c80:	e92d40e0 	push	{r5, r6, r7, lr}
     c84:	e3a07027 	mov	r7, #39	; 0x27
     c88:	e3a06003 	mov	r6, #3
     c8c:	e28d5010 	add	r5, sp, #16
     c90:	ef000000 	svc	0x00000000
     c94:	e8bd80e0 	pop	{r5, r6, r7, pc}

00000c98 <utee_asymm_operate>:
utee_asymm_operate():
/home/rahulmahadev/devel/optee/optee_os/lib/libutee/arch/arm/utee_syscalls_asm.S:116
     c98:	e92d40e0 	push	{r5, r6, r7, lr}
     c9c:	e3a07028 	mov	r7, #40	; 0x28
     ca0:	e3a06003 	mov	r6, #3
     ca4:	e28d5010 	add	r5, sp, #16
     ca8:	ef000000 	svc	0x00000000
     cac:	e8bd80e0 	pop	{r5, r6, r7, pc}

00000cb0 <utee_asymm_verify>:
utee_asymm_verify():
/home/rahulmahadev/devel/optee/optee_os/lib/libutee/arch/arm/utee_syscalls_asm.S:118
     cb0:	e92d40e0 	push	{r5, r6, r7, lr}
     cb4:	e3a07029 	mov	r7, #41	; 0x29
     cb8:	e3a06003 	mov	r6, #3
     cbc:	e28d5010 	add	r5, sp, #16
     cc0:	ef000000 	svc	0x00000000
     cc4:	e8bd80e0 	pop	{r5, r6, r7, pc}

00000cc8 <utee_storage_obj_open>:
utee_storage_obj_open():
/home/rahulmahadev/devel/optee/optee_os/lib/libutee/arch/arm/utee_syscalls_asm.S:120
     cc8:	e92d40e0 	push	{r5, r6, r7, lr}
     ccc:	e3a0702a 	mov	r7, #42	; 0x2a
     cd0:	e3a06001 	mov	r6, #1
     cd4:	e28d5010 	add	r5, sp, #16
     cd8:	ef000000 	svc	0x00000000
     cdc:	e8bd80e0 	pop	{r5, r6, r7, pc}

00000ce0 <utee_storage_obj_create>:
utee_storage_obj_create():
/home/rahulmahadev/devel/optee/optee_os/lib/libutee/arch/arm/utee_syscalls_asm.S:122
     ce0:	e92d40e0 	push	{r5, r6, r7, lr}
     ce4:	e3a0702b 	mov	r7, #43	; 0x2b
     ce8:	e3a06004 	mov	r6, #4
     cec:	e28d5010 	add	r5, sp, #16
     cf0:	ef000000 	svc	0x00000000
     cf4:	e8bd80e0 	pop	{r5, r6, r7, pc}

00000cf8 <utee_storage_obj_del>:
utee_storage_obj_del():
/home/rahulmahadev/devel/optee/optee_os/lib/libutee/arch/arm/utee_syscalls_asm.S:124
     cf8:	e92d40e0 	push	{r5, r6, r7, lr}
     cfc:	e3a0702c 	mov	r7, #44	; 0x2c
     d00:	e3a06000 	mov	r6, #0
     d04:	ef000000 	svc	0x00000000
     d08:	e8bd80e0 	pop	{r5, r6, r7, pc}

00000d0c <utee_storage_obj_rename>:
utee_storage_obj_rename():
/home/rahulmahadev/devel/optee/optee_os/lib/libutee/arch/arm/utee_syscalls_asm.S:126
     d0c:	e92d40e0 	push	{r5, r6, r7, lr}
     d10:	e3a0702d 	mov	r7, #45	; 0x2d
     d14:	e3a06000 	mov	r6, #0
     d18:	ef000000 	svc	0x00000000
     d1c:	e8bd80e0 	pop	{r5, r6, r7, pc}

00000d20 <utee_storage_alloc_enum>:
utee_storage_alloc_enum():
/home/rahulmahadev/devel/optee/optee_os/lib/libutee/arch/arm/utee_syscalls_asm.S:128
     d20:	e92d40e0 	push	{r5, r6, r7, lr}
     d24:	e3a0702e 	mov	r7, #46	; 0x2e
     d28:	e3a06000 	mov	r6, #0
     d2c:	ef000000 	svc	0x00000000
     d30:	e8bd80e0 	pop	{r5, r6, r7, pc}

00000d34 <utee_storage_free_enum>:
utee_storage_free_enum():
/home/rahulmahadev/devel/optee/optee_os/lib/libutee/arch/arm/utee_syscalls_asm.S:130
     d34:	e92d40e0 	push	{r5, r6, r7, lr}
     d38:	e3a0702f 	mov	r7, #47	; 0x2f
     d3c:	e3a06000 	mov	r6, #0
     d40:	ef000000 	svc	0x00000000
     d44:	e8bd80e0 	pop	{r5, r6, r7, pc}

00000d48 <utee_storage_reset_enum>:
utee_storage_reset_enum():
/home/rahulmahadev/devel/optee/optee_os/lib/libutee/arch/arm/utee_syscalls_asm.S:132
     d48:	e92d40e0 	push	{r5, r6, r7, lr}
     d4c:	e3a07030 	mov	r7, #48	; 0x30
     d50:	e3a06000 	mov	r6, #0
     d54:	ef000000 	svc	0x00000000
     d58:	e8bd80e0 	pop	{r5, r6, r7, pc}

00000d5c <utee_storage_start_enum>:
utee_storage_start_enum():
/home/rahulmahadev/devel/optee/optee_os/lib/libutee/arch/arm/utee_syscalls_asm.S:134
     d5c:	e92d40e0 	push	{r5, r6, r7, lr}
     d60:	e3a07031 	mov	r7, #49	; 0x31
     d64:	e3a06000 	mov	r6, #0
     d68:	ef000000 	svc	0x00000000
     d6c:	e8bd80e0 	pop	{r5, r6, r7, pc}

00000d70 <utee_storage_next_enum>:
utee_storage_next_enum():
/home/rahulmahadev/devel/optee/optee_os/lib/libutee/arch/arm/utee_syscalls_asm.S:136
     d70:	e92d40e0 	push	{r5, r6, r7, lr}
     d74:	e3a07032 	mov	r7, #50	; 0x32
     d78:	e3a06000 	mov	r6, #0
     d7c:	ef000000 	svc	0x00000000
     d80:	e8bd80e0 	pop	{r5, r6, r7, pc}

00000d84 <utee_storage_obj_read>:
utee_storage_obj_read():
/home/rahulmahadev/devel/optee/optee_os/lib/libutee/arch/arm/utee_syscalls_asm.S:138
     d84:	e92d40e0 	push	{r5, r6, r7, lr}
     d88:	e3a07033 	mov	r7, #51	; 0x33
     d8c:	e3a06000 	mov	r6, #0
     d90:	ef000000 	svc	0x00000000
     d94:	e8bd80e0 	pop	{r5, r6, r7, pc}

00000d98 <utee_storage_obj_write>:
utee_storage_obj_write():
/home/rahulmahadev/devel/optee/optee_os/lib/libutee/arch/arm/utee_syscalls_asm.S:140
     d98:	e92d40e0 	push	{r5, r6, r7, lr}
     d9c:	e3a07034 	mov	r7, #52	; 0x34
     da0:	e3a06000 	mov	r6, #0
     da4:	ef000000 	svc	0x00000000
     da8:	e8bd80e0 	pop	{r5, r6, r7, pc}

00000dac <utee_storage_obj_trunc>:
utee_storage_obj_trunc():
/home/rahulmahadev/devel/optee/optee_os/lib/libutee/arch/arm/utee_syscalls_asm.S:142
     dac:	e92d40e0 	push	{r5, r6, r7, lr}
     db0:	e3a07035 	mov	r7, #53	; 0x35
     db4:	e3a06000 	mov	r6, #0
     db8:	ef000000 	svc	0x00000000
     dbc:	e8bd80e0 	pop	{r5, r6, r7, pc}

00000dc0 <utee_storage_obj_seek>:
utee_storage_obj_seek():
/home/rahulmahadev/devel/optee/optee_os/lib/libutee/arch/arm/utee_syscalls_asm.S:144
     dc0:	e92d40e0 	push	{r5, r6, r7, lr}
     dc4:	e3a07036 	mov	r7, #54	; 0x36
     dc8:	e3a06000 	mov	r6, #0
     dcc:	ef000000 	svc	0x00000000
     dd0:	e8bd80e0 	pop	{r5, r6, r7, pc}

00000dd4 <utee_cryp_obj_generate_key>:
utee_cryp_obj_generate_key():
/home/rahulmahadev/devel/optee/optee_os/lib/libutee/arch/arm/utee_syscalls_asm.S:146
     dd4:	e92d40e0 	push	{r5, r6, r7, lr}
     dd8:	e3a07037 	mov	r7, #55	; 0x37
     ddc:	e3a06000 	mov	r6, #0
     de0:	ef000000 	svc	0x00000000
     de4:	e8bd80e0 	pop	{r5, r6, r7, pc}

00000de8 <utee_se_service_open>:
utee_se_service_open():
/home/rahulmahadev/devel/optee/optee_os/lib/libutee/arch/arm/utee_syscalls_asm.S:149
     de8:	e92d40e0 	push	{r5, r6, r7, lr}
     dec:	e3a07038 	mov	r7, #56	; 0x38
     df0:	e3a06000 	mov	r6, #0
     df4:	ef000000 	svc	0x00000000
     df8:	e8bd80e0 	pop	{r5, r6, r7, pc}

00000dfc <utee_se_service_close>:
utee_se_service_close():
/home/rahulmahadev/devel/optee/optee_os/lib/libutee/arch/arm/utee_syscalls_asm.S:151
     dfc:	e92d40e0 	push	{r5, r6, r7, lr}
     e00:	e3a07039 	mov	r7, #57	; 0x39
     e04:	e3a06000 	mov	r6, #0
     e08:	ef000000 	svc	0x00000000
     e0c:	e8bd80e0 	pop	{r5, r6, r7, pc}

00000e10 <utee_se_service_get_readers>:
utee_se_service_get_readers():
/home/rahulmahadev/devel/optee/optee_os/lib/libutee/arch/arm/utee_syscalls_asm.S:153
     e10:	e92d40e0 	push	{r5, r6, r7, lr}
     e14:	e3a0703a 	mov	r7, #58	; 0x3a
     e18:	e3a06000 	mov	r6, #0
     e1c:	ef000000 	svc	0x00000000
     e20:	e8bd80e0 	pop	{r5, r6, r7, pc}

00000e24 <utee_se_reader_get_prop>:
utee_se_reader_get_prop():
/home/rahulmahadev/devel/optee/optee_os/lib/libutee/arch/arm/utee_syscalls_asm.S:156
     e24:	e92d40e0 	push	{r5, r6, r7, lr}
     e28:	e3a0703b 	mov	r7, #59	; 0x3b
     e2c:	e3a06000 	mov	r6, #0
     e30:	ef000000 	svc	0x00000000
     e34:	e8bd80e0 	pop	{r5, r6, r7, pc}

00000e38 <utee_se_reader_get_name>:
utee_se_reader_get_name():
/home/rahulmahadev/devel/optee/optee_os/lib/libutee/arch/arm/utee_syscalls_asm.S:159
     e38:	e92d40e0 	push	{r5, r6, r7, lr}
     e3c:	e3a0703c 	mov	r7, #60	; 0x3c
     e40:	e3a06000 	mov	r6, #0
     e44:	ef000000 	svc	0x00000000
     e48:	e8bd80e0 	pop	{r5, r6, r7, pc}

00000e4c <utee_se_reader_open_session>:
utee_se_reader_open_session():
/home/rahulmahadev/devel/optee/optee_os/lib/libutee/arch/arm/utee_syscalls_asm.S:162
     e4c:	e92d40e0 	push	{r5, r6, r7, lr}
     e50:	e3a0703d 	mov	r7, #61	; 0x3d
     e54:	e3a06000 	mov	r6, #0
     e58:	ef000000 	svc	0x00000000
     e5c:	e8bd80e0 	pop	{r5, r6, r7, pc}

00000e60 <utee_se_reader_close_sessions>:
utee_se_reader_close_sessions():
/home/rahulmahadev/devel/optee/optee_os/lib/libutee/arch/arm/utee_syscalls_asm.S:165
     e60:	e92d40e0 	push	{r5, r6, r7, lr}
     e64:	e3a0703e 	mov	r7, #62	; 0x3e
     e68:	e3a06000 	mov	r6, #0
     e6c:	ef000000 	svc	0x00000000
     e70:	e8bd80e0 	pop	{r5, r6, r7, pc}

00000e74 <utee_se_session_is_closed>:
utee_se_session_is_closed():
/home/rahulmahadev/devel/optee/optee_os/lib/libutee/arch/arm/utee_syscalls_asm.S:168
     e74:	e92d40e0 	push	{r5, r6, r7, lr}
     e78:	e3a0703f 	mov	r7, #63	; 0x3f
     e7c:	e3a06000 	mov	r6, #0
     e80:	ef000000 	svc	0x00000000
     e84:	e8bd80e0 	pop	{r5, r6, r7, pc}

00000e88 <utee_se_session_get_atr>:
utee_se_session_get_atr():
/home/rahulmahadev/devel/optee/optee_os/lib/libutee/arch/arm/utee_syscalls_asm.S:171
     e88:	e92d40e0 	push	{r5, r6, r7, lr}
     e8c:	e3a07040 	mov	r7, #64	; 0x40
     e90:	e3a06000 	mov	r6, #0
     e94:	ef000000 	svc	0x00000000
     e98:	e8bd80e0 	pop	{r5, r6, r7, pc}

00000e9c <utee_se_session_open_channel>:
utee_se_session_open_channel():
/home/rahulmahadev/devel/optee/optee_os/lib/libutee/arch/arm/utee_syscalls_asm.S:174
     e9c:	e92d40e0 	push	{r5, r6, r7, lr}
     ea0:	e3a07041 	mov	r7, #65	; 0x41
     ea4:	e3a06001 	mov	r6, #1
     ea8:	e28d5010 	add	r5, sp, #16
     eac:	ef000000 	svc	0x00000000
     eb0:	e8bd80e0 	pop	{r5, r6, r7, pc}

00000eb4 <utee_se_session_close>:
utee_se_session_close():
/home/rahulmahadev/devel/optee/optee_os/lib/libutee/arch/arm/utee_syscalls_asm.S:177
     eb4:	e92d40e0 	push	{r5, r6, r7, lr}
     eb8:	e3a07042 	mov	r7, #66	; 0x42
     ebc:	e3a06000 	mov	r6, #0
     ec0:	ef000000 	svc	0x00000000
     ec4:	e8bd80e0 	pop	{r5, r6, r7, pc}

00000ec8 <utee_se_channel_select_next>:
utee_se_channel_select_next():
/home/rahulmahadev/devel/optee/optee_os/lib/libutee/arch/arm/utee_syscalls_asm.S:180
     ec8:	e92d40e0 	push	{r5, r6, r7, lr}
     ecc:	e3a07043 	mov	r7, #67	; 0x43
     ed0:	e3a06000 	mov	r6, #0
     ed4:	ef000000 	svc	0x00000000
     ed8:	e8bd80e0 	pop	{r5, r6, r7, pc}

00000edc <utee_se_channel_get_select_resp>:
utee_se_channel_get_select_resp():
/home/rahulmahadev/devel/optee/optee_os/lib/libutee/arch/arm/utee_syscalls_asm.S:183
     edc:	e92d40e0 	push	{r5, r6, r7, lr}
     ee0:	e3a07044 	mov	r7, #68	; 0x44
     ee4:	e3a06000 	mov	r6, #0
     ee8:	ef000000 	svc	0x00000000
     eec:	e8bd80e0 	pop	{r5, r6, r7, pc}

00000ef0 <utee_se_channel_transmit>:
utee_se_channel_transmit():
/home/rahulmahadev/devel/optee/optee_os/lib/libutee/arch/arm/utee_syscalls_asm.S:186
     ef0:	e92d40e0 	push	{r5, r6, r7, lr}
     ef4:	e3a07045 	mov	r7, #69	; 0x45
     ef8:	e3a06001 	mov	r6, #1
     efc:	e28d5010 	add	r5, sp, #16
     f00:	ef000000 	svc	0x00000000
     f04:	e8bd80e0 	pop	{r5, r6, r7, pc}

00000f08 <utee_se_channel_close>:
utee_se_channel_close():
/home/rahulmahadev/devel/optee/optee_os/lib/libutee/arch/arm/utee_syscalls_asm.S:189
     f08:	e92d40e0 	push	{r5, r6, r7, lr}
     f0c:	e3a07046 	mov	r7, #70	; 0x46
     f10:	e3a06000 	mov	r6, #0
     f14:	ef000000 	svc	0x00000000
     f18:	e8bd80e0 	pop	{r5, r6, r7, pc}

00000f1c <utee_cache_operation>:
utee_cache_operation():
/home/rahulmahadev/devel/optee/optee_os/lib/libutee/arch/arm/utee_syscalls_asm.S:192
     f1c:	e92d40e0 	push	{r5, r6, r7, lr}
     f20:	e3a07047 	mov	r7, #71	; 0x47
     f24:	e3a06000 	mov	r6, #0
     f28:	ef000000 	svc	0x00000000
     f2c:	e8bd80e0 	pop	{r5, r6, r7, pc}

00000f30 <TEE_BigInt_Panic>:
TEE_BigInt_Panic():
/home/rahulmahadev/devel/optee/optee_os/lib/libutee/tee_api_arith.c:63
     f30:	e96d 4504 	strd	r4, r5, [sp, #-16]!
     f34:	e9cd 7e02 	strd	r7, lr, [sp, #8]
     f38:	b084      	sub	sp, #16
     f3a:	af02      	add	r7, sp, #8
     f3c:	6078      	str	r0, [r7, #4]
     f3e:	4c12      	ldr	r4, [pc, #72]	; (f88 <TEE_BigInt_Panic+0x58>)
     f40:	447c      	add	r4, pc
/home/rahulmahadev/devel/optee/optee_os/lib/libutee/tee_api_arith.c:64
     f42:	6879      	ldr	r1, [r7, #4]
     f44:	4b11      	ldr	r3, [pc, #68]	; (f8c <TEE_BigInt_Panic+0x5c>)
     f46:	447b      	add	r3, pc
     f48:	4618      	mov	r0, r3
     f4a:	4b11      	ldr	r3, [pc, #68]	; (f90 <TEE_BigInt_Panic+0x60>)
     f4c:	58e3      	ldr	r3, [r4, r3]
     f4e:	4798      	blx	r3
/home/rahulmahadev/devel/optee/optee_os/lib/libutee/tee_api_arith.c:65
     f50:	f246 1327 	movw	r3, #24871	; 0x6127
     f54:	f2c0 03b1 	movt	r3, #177	; 0xb1
     f58:	9301      	str	r3, [sp, #4]
     f5a:	4b0e      	ldr	r3, [pc, #56]	; (f94 <TEE_BigInt_Panic+0x64>)
     f5c:	447b      	add	r3, pc
     f5e:	9300      	str	r3, [sp, #0]
     f60:	f04f 0301 	mov.w	r3, #1
     f64:	f04f 0201 	mov.w	r2, #1
     f68:	f04f 0141 	mov.w	r1, #65	; 0x41
     f6c:	480a      	ldr	r0, [pc, #40]	; (f98 <TEE_BigInt_Panic+0x68>)
     f6e:	4478      	add	r0, pc
     f70:	4d0a      	ldr	r5, [pc, #40]	; (f9c <TEE_BigInt_Panic+0x6c>)
     f72:	5965      	ldr	r5, [r4, r5]
     f74:	47a8      	blx	r5
     f76:	f246 1027 	movw	r0, #24871	; 0x6127
     f7a:	f2c0 00b1 	movt	r0, #177	; 0xb1
     f7e:	4b08      	ldr	r3, [pc, #32]	; (fa0 <TEE_BigInt_Panic+0x70>)
     f80:	58e3      	ldr	r3, [r4, r3]
     f82:	4798      	blx	r3
/home/rahulmahadev/devel/optee/optee_os/lib/libutee/tee_api_arith.c:67 (discriminator 1)
     f84:	e7fe      	b.n	f84 <TEE_BigInt_Panic+0x54>
     f86:	bf00      	nop
     f88:	0000c2a8 	.word	0x0000c2a8
     f8c:	0000acae 	.word	0x0000acae
     f90:	00000028 	.word	0x00000028
     f94:	0000aca4 	.word	0x0000aca4
     f98:	0000acf2 	.word	0x0000acf2
     f9c:	0000005c 	.word	0x0000005c
     fa0:	0000017c 	.word	0x0000017c

00000fa4 <_TEE_MathAPI_Init>:
_TEE_MathAPI_Init():
/home/rahulmahadev/devel/optee/optee_os/lib/libutee/tee_api_arith.c:78
     fa4:	e96d 3404 	strd	r3, r4, [sp, #-16]!
     fa8:	e9cd 7e02 	strd	r7, lr, [sp, #8]
     fac:	af00      	add	r7, sp, #0
     fae:	4c0c      	ldr	r4, [pc, #48]	; (fe0 <_TEE_MathAPI_Init+0x3c>)
     fb0:	447c      	add	r4, pc
/home/rahulmahadev/devel/optee/optee_os/lib/libutee/tee_api_arith.c:79
     fb2:	4b0c      	ldr	r3, [pc, #48]	; (fe4 <_TEE_MathAPI_Init+0x40>)
     fb4:	447b      	add	r3, pc
     fb6:	681b      	ldr	r3, [r3, #0]
     fb8:	f44f 6200 	mov.w	r2, #2048	; 0x800
     fbc:	f44f 51d8 	mov.w	r1, #6912	; 0x1b00
     fc0:	4618      	mov	r0, r3
     fc2:	4b09      	ldr	r3, [pc, #36]	; (fe8 <_TEE_MathAPI_Init+0x44>)
     fc4:	58e3      	ldr	r3, [r4, r3]
     fc6:	4798      	blx	r3
/home/rahulmahadev/devel/optee/optee_os/lib/libutee/tee_api_arith.c:81
     fc8:	4b08      	ldr	r3, [pc, #32]	; (fec <_TEE_MathAPI_Init+0x48>)
     fca:	58e3      	ldr	r3, [r4, r3]
     fcc:	4618      	mov	r0, r3
     fce:	4b08      	ldr	r3, [pc, #32]	; (ff0 <_TEE_MathAPI_Init+0x4c>)
     fd0:	58e3      	ldr	r3, [r4, r3]
     fd2:	4798      	blx	r3
/home/rahulmahadev/devel/optee/optee_os/lib/libutee/tee_api_arith.c:82
     fd4:	46bd      	mov	sp, r7
     fd6:	e9dd 3400 	ldrd	r3, r4, [sp]
     fda:	b002      	add	sp, #8
     fdc:	bd80      	pop	{r7, pc}
     fde:	bf00      	nop
     fe0:	0000c238 	.word	0x0000c238
     fe4:	0000d0c0 	.word	0x0000d0c0
     fe8:	0000018c 	.word	0x0000018c
     fec:	00000058 	.word	0x00000058
     ff0:	000000d8 	.word	0x000000d8

00000ff4 <TEE_BigIntInit>:
TEE_BigIntInit():
/home/rahulmahadev/devel/optee/optee_os/lib/libutee/tee_api_arith.c:88
     ff4:	e96d 7e02 	strd	r7, lr, [sp, #-8]!
     ff8:	b082      	sub	sp, #8
     ffa:	af00      	add	r7, sp, #0
     ffc:	6078      	str	r0, [r7, #4]
     ffe:	6039      	str	r1, [r7, #0]
    1000:	4a05      	ldr	r2, [pc, #20]	; (1018 <TEE_BigIntInit+0x24>)
    1002:	447a      	add	r2, pc
/home/rahulmahadev/devel/optee/optee_os/lib/libutee/tee_api_arith.c:89
    1004:	6839      	ldr	r1, [r7, #0]
    1006:	6878      	ldr	r0, [r7, #4]
    1008:	4b04      	ldr	r3, [pc, #16]	; (101c <TEE_BigIntInit+0x28>)
    100a:	58d3      	ldr	r3, [r2, r3]
    100c:	4798      	blx	r3
/home/rahulmahadev/devel/optee/optee_os/lib/libutee/tee_api_arith.c:90
    100e:	f107 0708 	add.w	r7, r7, #8
    1012:	46bd      	mov	sp, r7
    1014:	bd80      	pop	{r7, pc}
    1016:	bf00      	nop
    1018:	0000c1e6 	.word	0x0000c1e6
    101c:	0000000c 	.word	0x0000000c

00001020 <TEE_BigIntInitFMM>:
TEE_BigIntInitFMM():
/home/rahulmahadev/devel/optee/optee_os/lib/libutee/tee_api_arith.c:96
    1020:	f84d 7d04 	str.w	r7, [sp, #-4]!
    1024:	b085      	sub	sp, #20
    1026:	af00      	add	r7, sp, #0
    1028:	6078      	str	r0, [r7, #4]
    102a:	6039      	str	r1, [r7, #0]
/home/rahulmahadev/devel/optee/optee_os/lib/libutee/tee_api_arith.c:97
    102c:	687b      	ldr	r3, [r7, #4]
    102e:	60fb      	str	r3, [r7, #12]
/home/rahulmahadev/devel/optee/optee_os/lib/libutee/tee_api_arith.c:99
    1030:	683b      	ldr	r3, [r7, #0]
    1032:	f103 4380 	add.w	r3, r3, #1073741824	; 0x40000000
    1036:	f1a3 0302 	sub.w	r3, r3, #2
    103a:	ea4f 0383 	mov.w	r3, r3, lsl #2
    103e:	f103 0303 	add.w	r3, r3, #3
    1042:	ea4f 0293 	mov.w	r2, r3, lsr #2
    1046:	68fb      	ldr	r3, [r7, #12]
    1048:	601a      	str	r2, [r3, #0]
/home/rahulmahadev/devel/optee/optee_os/lib/libutee/tee_api_arith.c:100
    104a:	68fb      	ldr	r3, [r7, #12]
    104c:	f04f 0200 	mov.w	r2, #0
    1050:	605a      	str	r2, [r3, #4]
/home/rahulmahadev/devel/optee/optee_os/lib/libutee/tee_api_arith.c:101
    1052:	f107 0714 	add.w	r7, r7, #20
    1056:	46bd      	mov	sp, r7
    1058:	f85d 7b04 	ldr.w	r7, [sp], #4
    105c:	4770      	bx	lr
    105e:	bf00      	nop

00001060 <TEE_BigIntInitFMMContext>:
TEE_BigIntInitFMMContext():
/home/rahulmahadev/devel/optee/optee_os/lib/libutee/tee_api_arith.c:108
    1060:	e96d 4504 	strd	r4, r5, [sp, #-16]!
    1064:	e9cd 7e02 	strd	r7, lr, [sp, #8]
    1068:	b088      	sub	sp, #32
    106a:	af02      	add	r7, sp, #8
    106c:	60f8      	str	r0, [r7, #12]
    106e:	60b9      	str	r1, [r7, #8]
    1070:	607a      	str	r2, [r7, #4]
    1072:	4c11      	ldr	r4, [pc, #68]	; (10b8 <TEE_BigIntInitFMMContext+0x58>)
    1074:	447c      	add	r4, pc
/home/rahulmahadev/devel/optee/optee_os/lib/libutee/tee_api_arith.c:109
    1076:	68fb      	ldr	r3, [r7, #12]
    1078:	617b      	str	r3, [r7, #20]
/home/rahulmahadev/devel/optee/optee_os/lib/libutee/tee_api_arith.c:110
    107a:	687b      	ldr	r3, [r7, #4]
    107c:	613b      	str	r3, [r7, #16]
/home/rahulmahadev/devel/optee/optee_os/lib/libutee/tee_api_arith.c:112
    107e:	68b9      	ldr	r1, [r7, #8]
    1080:	6978      	ldr	r0, [r7, #20]
    1082:	4b0e      	ldr	r3, [pc, #56]	; (10bc <TEE_BigIntInitFMMContext+0x5c>)
    1084:	58e3      	ldr	r3, [r4, r3]
    1086:	4798      	blx	r3
/home/rahulmahadev/devel/optee/optee_os/lib/libutee/tee_api_arith.c:113
    1088:	697b      	ldr	r3, [r7, #20]
    108a:	6819      	ldr	r1, [r3, #0]
    108c:	697b      	ldr	r3, [r7, #20]
    108e:	685a      	ldr	r2, [r3, #4]
    1090:	697b      	ldr	r3, [r7, #20]
    1092:	f103 0008 	add.w	r0, r3, #8
    1096:	4b0a      	ldr	r3, [pc, #40]	; (10c0 <TEE_BigIntInitFMMContext+0x60>)
    1098:	447b      	add	r3, pc
    109a:	681b      	ldr	r3, [r3, #0]
    109c:	9300      	str	r3, [sp, #0]
    109e:	4603      	mov	r3, r0
    10a0:	6938      	ldr	r0, [r7, #16]
    10a2:	4d08      	ldr	r5, [pc, #32]	; (10c4 <TEE_BigIntInitFMMContext+0x64>)
    10a4:	5964      	ldr	r4, [r4, r5]
    10a6:	47a0      	blx	r4
/home/rahulmahadev/devel/optee/optee_os/lib/libutee/tee_api_arith.c:116
    10a8:	f107 0718 	add.w	r7, r7, #24
    10ac:	46bd      	mov	sp, r7
    10ae:	e9dd 4500 	ldrd	r4, r5, [sp]
    10b2:	b002      	add	sp, #8
    10b4:	bd80      	pop	{r7, pc}
    10b6:	bf00      	nop
    10b8:	0000c174 	.word	0x0000c174
    10bc:	0000010c 	.word	0x0000010c
    10c0:	0000cfdc 	.word	0x0000cfdc
    10c4:	000000e4 	.word	0x000000e4

000010c8 <TEE_BigIntFMMSizeInU32>:
TEE_BigIntFMMSizeInU32():
/home/rahulmahadev/devel/optee/optee_os/lib/libutee/tee_api_arith.c:126
    10c8:	f84d 7d04 	str.w	r7, [sp, #-4]!
    10cc:	b083      	sub	sp, #12
    10ce:	af00      	add	r7, sp, #0
    10d0:	6078      	str	r0, [r7, #4]
/home/rahulmahadev/devel/optee/optee_os/lib/libutee/tee_api_arith.c:127
    10d2:	687b      	ldr	r3, [r7, #4]
    10d4:	f103 031f 	add.w	r3, r3, #31
    10d8:	ea4f 1353 	mov.w	r3, r3, lsr #5
    10dc:	f103 0303 	add.w	r3, r3, #3
/home/rahulmahadev/devel/optee/optee_os/lib/libutee/tee_api_arith.c:128
    10e0:	4618      	mov	r0, r3
    10e2:	f107 070c 	add.w	r7, r7, #12
    10e6:	46bd      	mov	sp, r7
    10e8:	f85d 7b04 	ldr.w	r7, [sp], #4
    10ec:	4770      	bx	lr
    10ee:	bf00      	nop

000010f0 <TEE_BigIntFMMContextSizeInU32>:
TEE_BigIntFMMContextSizeInU32():
/home/rahulmahadev/devel/optee/optee_os/lib/libutee/tee_api_arith.c:134
    10f0:	f84d 7d04 	str.w	r7, [sp, #-4]!
    10f4:	b083      	sub	sp, #12
    10f6:	af00      	add	r7, sp, #0
    10f8:	6078      	str	r0, [r7, #4]
/home/rahulmahadev/devel/optee/optee_os/lib/libutee/tee_api_arith.c:135
    10fa:	687b      	ldr	r3, [r7, #4]
    10fc:	f103 031f 	add.w	r3, r3, #31
    1100:	ea4f 1353 	mov.w	r3, r3, lsr #5
    1104:	f103 0304 	add.w	r3, r3, #4
    1108:	ea4f 0343 	mov.w	r3, r3, lsl #1
    110c:	f103 0303 	add.w	r3, r3, #3
/home/rahulmahadev/devel/optee/optee_os/lib/libutee/tee_api_arith.c:136
    1110:	4618      	mov	r0, r3
    1112:	f107 070c 	add.w	r7, r7, #12
    1116:	46bd      	mov	sp, r7
    1118:	f85d 7b04 	ldr.w	r7, [sp], #4
    111c:	4770      	bx	lr
    111e:	bf00      	nop

00001120 <TEE_BigIntConvertFromOctetString>:
TEE_BigIntConvertFromOctetString():
/home/rahulmahadev/devel/optee/optee_os/lib/libutee/tee_api_arith.c:149
    1120:	e96d 4504 	strd	r4, r5, [sp, #-16]!
    1124:	e9cd 7e02 	strd	r7, lr, [sp, #8]
    1128:	b08a      	sub	sp, #40	; 0x28
    112a:	af02      	add	r7, sp, #8
    112c:	60f8      	str	r0, [r7, #12]
    112e:	60b9      	str	r1, [r7, #8]
    1130:	607a      	str	r2, [r7, #4]
    1132:	603b      	str	r3, [r7, #0]
    1134:	4c20      	ldr	r4, [pc, #128]	; (11b8 <TEE_BigIntConvertFromOctetString+0x98>)
    1136:	447c      	add	r4, pc
/home/rahulmahadev/devel/optee/optee_os/lib/libutee/tee_api_arith.c:151
    1138:	68fb      	ldr	r3, [r7, #12]
    113a:	61bb      	str	r3, [r7, #24]
/home/rahulmahadev/devel/optee/optee_os/lib/libutee/tee_api_arith.c:152
    113c:	683b      	ldr	r3, [r7, #0]
    113e:	ea4f 73d3 	mov.w	r3, r3, lsr #31
    1142:	75fb      	strb	r3, [r7, #23]
/home/rahulmahadev/devel/optee/optee_os/lib/libutee/tee_api_arith.c:154
    1144:	7dfb      	ldrb	r3, [r7, #23]
    1146:	687a      	ldr	r2, [r7, #4]
    1148:	68b9      	ldr	r1, [r7, #8]
    114a:	69b8      	ldr	r0, [r7, #24]
    114c:	4d1b      	ldr	r5, [pc, #108]	; (11bc <TEE_BigIntConvertFromOctetString+0x9c>)
    114e:	5965      	ldr	r5, [r4, r5]
    1150:	47a8      	blx	r5
    1152:	4603      	mov	r3, r0
    1154:	2b00      	cmp	r3, #0
    1156:	d005      	beq.n	1164 <TEE_BigIntConvertFromOctetString+0x44>
/home/rahulmahadev/devel/optee/optee_os/lib/libutee/tee_api_arith.c:155
    1158:	f243 030f 	movw	r3, #12303	; 0x300f
    115c:	f6cf 73ff 	movt	r3, #65535	; 0xffff
    1160:	61fb      	str	r3, [r7, #28]
    1162:	e002      	b.n	116a <TEE_BigIntConvertFromOctetString+0x4a>
/home/rahulmahadev/devel/optee/optee_os/lib/libutee/tee_api_arith.c:157
    1164:	f04f 0300 	mov.w	r3, #0
    1168:	61fb      	str	r3, [r7, #28]
/home/rahulmahadev/devel/optee/optee_os/lib/libutee/tee_api_arith.c:159
    116a:	69fb      	ldr	r3, [r7, #28]
    116c:	2b00      	cmp	r3, #0
    116e:	d01a      	beq.n	11a6 <TEE_BigIntConvertFromOctetString+0x86>
/home/rahulmahadev/devel/optee/optee_os/lib/libutee/tee_api_arith.c:159 (discriminator 1)
    1170:	69fa      	ldr	r2, [r7, #28]
    1172:	f243 030f 	movw	r3, #12303	; 0x300f
    1176:	f6cf 73ff 	movt	r3, #65535	; 0xffff
    117a:	429a      	cmp	r2, r3
    117c:	d013      	beq.n	11a6 <TEE_BigIntConvertFromOctetString+0x86>
/home/rahulmahadev/devel/optee/optee_os/lib/libutee/tee_api_arith.c:161
    117e:	69fb      	ldr	r3, [r7, #28]
    1180:	9301      	str	r3, [sp, #4]
    1182:	4b0f      	ldr	r3, [pc, #60]	; (11c0 <TEE_BigIntConvertFromOctetString+0xa0>)
    1184:	447b      	add	r3, pc
    1186:	9300      	str	r3, [sp, #0]
    1188:	f04f 0301 	mov.w	r3, #1
    118c:	f04f 0201 	mov.w	r2, #1
    1190:	f04f 01a1 	mov.w	r1, #161	; 0xa1
    1194:	480b      	ldr	r0, [pc, #44]	; (11c4 <TEE_BigIntConvertFromOctetString+0xa4>)
    1196:	4478      	add	r0, pc
    1198:	4d0b      	ldr	r5, [pc, #44]	; (11c8 <TEE_BigIntConvertFromOctetString+0xa8>)
    119a:	5965      	ldr	r5, [r4, r5]
    119c:	47a8      	blx	r5
    119e:	69f8      	ldr	r0, [r7, #28]
    11a0:	4b0a      	ldr	r3, [pc, #40]	; (11cc <TEE_BigIntConvertFromOctetString+0xac>)
    11a2:	58e3      	ldr	r3, [r4, r3]
    11a4:	4798      	blx	r3
/home/rahulmahadev/devel/optee/optee_os/lib/libutee/tee_api_arith.c:163
    11a6:	69fb      	ldr	r3, [r7, #28]
/home/rahulmahadev/devel/optee/optee_os/lib/libutee/tee_api_arith.c:164
    11a8:	4618      	mov	r0, r3
    11aa:	f107 0720 	add.w	r7, r7, #32
    11ae:	46bd      	mov	sp, r7
    11b0:	e9dd 4500 	ldrd	r4, r5, [sp]
    11b4:	b002      	add	sp, #8
    11b6:	bd80      	pop	{r7, pc}
    11b8:	0000c0b2 	.word	0x0000c0b2
    11bc:	000000b0 	.word	0x000000b0
    11c0:	0000aa7c 	.word	0x0000aa7c
    11c4:	0000aade 	.word	0x0000aade
    11c8:	0000005c 	.word	0x0000005c
    11cc:	0000017c 	.word	0x0000017c

000011d0 <TEE_BigIntConvertToOctetString>:
TEE_BigIntConvertToOctetString():
/home/rahulmahadev/devel/optee/optee_os/lib/libutee/tee_api_arith.c:172
    11d0:	e96d 4504 	strd	r4, r5, [sp, #-16]!
    11d4:	e9cd 7e02 	strd	r7, lr, [sp, #8]
    11d8:	b08a      	sub	sp, #40	; 0x28
    11da:	af02      	add	r7, sp, #8
    11dc:	60f8      	str	r0, [r7, #12]
    11de:	60b9      	str	r1, [r7, #8]
    11e0:	607a      	str	r2, [r7, #4]
    11e2:	4c22      	ldr	r4, [pc, #136]	; (126c <TEE_BigIntConvertToOctetString+0x9c>)
    11e4:	447c      	add	r4, pc
/home/rahulmahadev/devel/optee/optee_os/lib/libutee/tee_api_arith.c:173
    11e6:	687b      	ldr	r3, [r7, #4]
    11e8:	61bb      	str	r3, [r7, #24]
/home/rahulmahadev/devel/optee/optee_os/lib/libutee/tee_api_arith.c:174
    11ea:	68bb      	ldr	r3, [r7, #8]
    11ec:	681b      	ldr	r3, [r3, #0]
    11ee:	617b      	str	r3, [r7, #20]
/home/rahulmahadev/devel/optee/optee_os/lib/libutee/tee_api_arith.c:177
    11f0:	f107 0314 	add.w	r3, r7, #20
    11f4:	69ba      	ldr	r2, [r7, #24]
    11f6:	4619      	mov	r1, r3
    11f8:	68f8      	ldr	r0, [r7, #12]
    11fa:	4b1d      	ldr	r3, [pc, #116]	; (1270 <TEE_BigIntConvertToOctetString+0xa0>)
    11fc:	58e3      	ldr	r3, [r4, r3]
    11fe:	4798      	blx	r3
    1200:	4603      	mov	r3, r0
    1202:	2b00      	cmp	r3, #0
    1204:	d005      	beq.n	1212 <TEE_BigIntConvertToOctetString+0x42>
/home/rahulmahadev/devel/optee/optee_os/lib/libutee/tee_api_arith.c:178
    1206:	f04f 0310 	mov.w	r3, #16
    120a:	f6cf 73ff 	movt	r3, #65535	; 0xffff
    120e:	61fb      	str	r3, [r7, #28]
    1210:	e002      	b.n	1218 <TEE_BigIntConvertToOctetString+0x48>
/home/rahulmahadev/devel/optee/optee_os/lib/libutee/tee_api_arith.c:180
    1212:	f04f 0300 	mov.w	r3, #0
    1216:	61fb      	str	r3, [r7, #28]
/home/rahulmahadev/devel/optee/optee_os/lib/libutee/tee_api_arith.c:182
    1218:	697a      	ldr	r2, [r7, #20]
    121a:	68bb      	ldr	r3, [r7, #8]
    121c:	601a      	str	r2, [r3, #0]
/home/rahulmahadev/devel/optee/optee_os/lib/libutee/tee_api_arith.c:184
    121e:	69fb      	ldr	r3, [r7, #28]
    1220:	2b00      	cmp	r3, #0
    1222:	d01a      	beq.n	125a <TEE_BigIntConvertToOctetString+0x8a>
/home/rahulmahadev/devel/optee/optee_os/lib/libutee/tee_api_arith.c:184 (discriminator 1)
    1224:	69fa      	ldr	r2, [r7, #28]
    1226:	f04f 0310 	mov.w	r3, #16
    122a:	f6cf 73ff 	movt	r3, #65535	; 0xffff
    122e:	429a      	cmp	r2, r3
    1230:	d013      	beq.n	125a <TEE_BigIntConvertToOctetString+0x8a>
/home/rahulmahadev/devel/optee/optee_os/lib/libutee/tee_api_arith.c:186
    1232:	69fb      	ldr	r3, [r7, #28]
    1234:	9301      	str	r3, [sp, #4]
    1236:	4b0f      	ldr	r3, [pc, #60]	; (1274 <TEE_BigIntConvertToOctetString+0xa4>)
    1238:	447b      	add	r3, pc
    123a:	9300      	str	r3, [sp, #0]
    123c:	f04f 0301 	mov.w	r3, #1
    1240:	f04f 0201 	mov.w	r2, #1
    1244:	f04f 01ba 	mov.w	r1, #186	; 0xba
    1248:	480b      	ldr	r0, [pc, #44]	; (1278 <TEE_BigIntConvertToOctetString+0xa8>)
    124a:	4478      	add	r0, pc
    124c:	4d0b      	ldr	r5, [pc, #44]	; (127c <TEE_BigIntConvertToOctetString+0xac>)
    124e:	5965      	ldr	r5, [r4, r5]
    1250:	47a8      	blx	r5
    1252:	69f8      	ldr	r0, [r7, #28]
    1254:	4b0a      	ldr	r3, [pc, #40]	; (1280 <TEE_BigIntConvertToOctetString+0xb0>)
    1256:	58e3      	ldr	r3, [r4, r3]
    1258:	4798      	blx	r3
/home/rahulmahadev/devel/optee/optee_os/lib/libutee/tee_api_arith.c:188
    125a:	69fb      	ldr	r3, [r7, #28]
/home/rahulmahadev/devel/optee/optee_os/lib/libutee/tee_api_arith.c:189
    125c:	4618      	mov	r0, r3
    125e:	f107 0720 	add.w	r7, r7, #32
    1262:	46bd      	mov	sp, r7
    1264:	e9dd 4500 	ldrd	r4, r5, [sp]
    1268:	b002      	add	sp, #8
    126a:	bd80      	pop	{r7, pc}
    126c:	0000c004 	.word	0x0000c004
    1270:	00000168 	.word	0x00000168
    1274:	0000a9c8 	.word	0x0000a9c8
    1278:	0000aa4e 	.word	0x0000aa4e
    127c:	0000005c 	.word	0x0000005c
    1280:	0000017c 	.word	0x0000017c

00001284 <TEE_BigIntConvertFromS32>:
TEE_BigIntConvertFromS32():
/home/rahulmahadev/devel/optee/optee_os/lib/libutee/tee_api_arith.c:195
    1284:	e96d 7e02 	strd	r7, lr, [sp, #-8]!
    1288:	b084      	sub	sp, #16
    128a:	af00      	add	r7, sp, #0
    128c:	6078      	str	r0, [r7, #4]
    128e:	6039      	str	r1, [r7, #0]
    1290:	4a06      	ldr	r2, [pc, #24]	; (12ac <TEE_BigIntConvertFromS32+0x28>)
    1292:	447a      	add	r2, pc
/home/rahulmahadev/devel/optee/optee_os/lib/libutee/tee_api_arith.c:196
    1294:	687b      	ldr	r3, [r7, #4]
    1296:	60fb      	str	r3, [r7, #12]
/home/rahulmahadev/devel/optee/optee_os/lib/libutee/tee_api_arith.c:199
    1298:	6839      	ldr	r1, [r7, #0]
    129a:	68f8      	ldr	r0, [r7, #12]
    129c:	4b04      	ldr	r3, [pc, #16]	; (12b0 <TEE_BigIntConvertFromS32+0x2c>)
    129e:	58d3      	ldr	r3, [r2, r3]
    12a0:	4798      	blx	r3
/home/rahulmahadev/devel/optee/optee_os/lib/libutee/tee_api_arith.c:203
    12a2:	f107 0710 	add.w	r7, r7, #16
    12a6:	46bd      	mov	sp, r7
    12a8:	bd80      	pop	{r7, pc}
    12aa:	bf00      	nop
    12ac:	0000bf56 	.word	0x0000bf56
    12b0:	00000108 	.word	0x00000108

000012b4 <TEE_BigIntConvertToS32>:
TEE_BigIntConvertToS32():
/home/rahulmahadev/devel/optee/optee_os/lib/libutee/tee_api_arith.c:209
    12b4:	e96d 4504 	strd	r4, r5, [sp, #-16]!
    12b8:	e9cd 7e02 	strd	r7, lr, [sp, #8]
    12bc:	b086      	sub	sp, #24
    12be:	af02      	add	r7, sp, #8
    12c0:	6078      	str	r0, [r7, #4]
    12c2:	6039      	str	r1, [r7, #0]
    12c4:	4c1d      	ldr	r4, [pc, #116]	; (133c <TEE_BigIntConvertToS32+0x88>)
    12c6:	447c      	add	r4, pc
/home/rahulmahadev/devel/optee/optee_os/lib/libutee/tee_api_arith.c:211
    12c8:	683b      	ldr	r3, [r7, #0]
    12ca:	60bb      	str	r3, [r7, #8]
/home/rahulmahadev/devel/optee/optee_os/lib/libutee/tee_api_arith.c:213
    12cc:	68b9      	ldr	r1, [r7, #8]
    12ce:	6878      	ldr	r0, [r7, #4]
    12d0:	4b1b      	ldr	r3, [pc, #108]	; (1340 <TEE_BigIntConvertToS32+0x8c>)
    12d2:	58e3      	ldr	r3, [r4, r3]
    12d4:	4798      	blx	r3
    12d6:	4603      	mov	r3, r0
    12d8:	2b00      	cmp	r3, #0
    12da:	d103      	bne.n	12e4 <TEE_BigIntConvertToS32+0x30>
/home/rahulmahadev/devel/optee/optee_os/lib/libutee/tee_api_arith.c:214
    12dc:	f04f 0300 	mov.w	r3, #0
    12e0:	60fb      	str	r3, [r7, #12]
    12e2:	e004      	b.n	12ee <TEE_BigIntConvertToS32+0x3a>
/home/rahulmahadev/devel/optee/optee_os/lib/libutee/tee_api_arith.c:216
    12e4:	f243 030f 	movw	r3, #12303	; 0x300f
    12e8:	f6cf 73ff 	movt	r3, #65535	; 0xffff
    12ec:	60fb      	str	r3, [r7, #12]
/home/rahulmahadev/devel/optee/optee_os/lib/libutee/tee_api_arith.c:218
    12ee:	68fb      	ldr	r3, [r7, #12]
    12f0:	2b00      	cmp	r3, #0
    12f2:	d01a      	beq.n	132a <TEE_BigIntConvertToS32+0x76>
/home/rahulmahadev/devel/optee/optee_os/lib/libutee/tee_api_arith.c:218 (discriminator 1)
    12f4:	68fa      	ldr	r2, [r7, #12]
    12f6:	f243 030f 	movw	r3, #12303	; 0x300f
    12fa:	f6cf 73ff 	movt	r3, #65535	; 0xffff
    12fe:	429a      	cmp	r2, r3
    1300:	d013      	beq.n	132a <TEE_BigIntConvertToS32+0x76>
/home/rahulmahadev/devel/optee/optee_os/lib/libutee/tee_api_arith.c:220
    1302:	68fb      	ldr	r3, [r7, #12]
    1304:	9301      	str	r3, [sp, #4]
    1306:	4b0f      	ldr	r3, [pc, #60]	; (1344 <TEE_BigIntConvertToS32+0x90>)
    1308:	447b      	add	r3, pc
    130a:	9300      	str	r3, [sp, #0]
    130c:	f04f 0301 	mov.w	r3, #1
    1310:	f04f 0201 	mov.w	r2, #1
    1314:	f04f 01dc 	mov.w	r1, #220	; 0xdc
    1318:	480b      	ldr	r0, [pc, #44]	; (1348 <TEE_BigIntConvertToS32+0x94>)
    131a:	4478      	add	r0, pc
    131c:	4d0b      	ldr	r5, [pc, #44]	; (134c <TEE_BigIntConvertToS32+0x98>)
    131e:	5965      	ldr	r5, [r4, r5]
    1320:	47a8      	blx	r5
    1322:	68f8      	ldr	r0, [r7, #12]
    1324:	4b0a      	ldr	r3, [pc, #40]	; (1350 <TEE_BigIntConvertToS32+0x9c>)
    1326:	58e3      	ldr	r3, [r4, r3]
    1328:	4798      	blx	r3
/home/rahulmahadev/devel/optee/optee_os/lib/libutee/tee_api_arith.c:222
    132a:	68fb      	ldr	r3, [r7, #12]
/home/rahulmahadev/devel/optee/optee_os/lib/libutee/tee_api_arith.c:223
    132c:	4618      	mov	r0, r3
    132e:	f107 0710 	add.w	r7, r7, #16
    1332:	46bd      	mov	sp, r7
    1334:	e9dd 4500 	ldrd	r4, r5, [sp]
    1338:	b002      	add	sp, #8
    133a:	bd80      	pop	{r7, pc}
    133c:	0000bf22 	.word	0x0000bf22
    1340:	00000014 	.word	0x00000014
    1344:	0000a8f8 	.word	0x0000a8f8
    1348:	0000a99e 	.word	0x0000a99e
    134c:	0000005c 	.word	0x0000005c
    1350:	0000017c 	.word	0x0000017c

00001354 <TEE_BigIntCmp>:
TEE_BigIntCmp():
/home/rahulmahadev/devel/optee/optee_os/lib/libutee/tee_api_arith.c:233
    1354:	e96d 7e02 	strd	r7, lr, [sp, #-8]!
    1358:	b084      	sub	sp, #16
    135a:	af00      	add	r7, sp, #0
    135c:	6078      	str	r0, [r7, #4]
    135e:	6039      	str	r1, [r7, #0]
    1360:	4a08      	ldr	r2, [pc, #32]	; (1384 <TEE_BigIntCmp+0x30>)
    1362:	447a      	add	r2, pc
/home/rahulmahadev/devel/optee/optee_os/lib/libutee/tee_api_arith.c:234
    1364:	687b      	ldr	r3, [r7, #4]
    1366:	60fb      	str	r3, [r7, #12]
/home/rahulmahadev/devel/optee/optee_os/lib/libutee/tee_api_arith.c:235
    1368:	683b      	ldr	r3, [r7, #0]
    136a:	60bb      	str	r3, [r7, #8]
/home/rahulmahadev/devel/optee/optee_os/lib/libutee/tee_api_arith.c:237
    136c:	68b9      	ldr	r1, [r7, #8]
    136e:	68f8      	ldr	r0, [r7, #12]
    1370:	4b05      	ldr	r3, [pc, #20]	; (1388 <TEE_BigIntCmp+0x34>)
    1372:	58d3      	ldr	r3, [r2, r3]
    1374:	4798      	blx	r3
    1376:	4603      	mov	r3, r0
/home/rahulmahadev/devel/optee/optee_os/lib/libutee/tee_api_arith.c:238
    1378:	4618      	mov	r0, r3
    137a:	f107 0710 	add.w	r7, r7, #16
    137e:	46bd      	mov	sp, r7
    1380:	bd80      	pop	{r7, pc}
    1382:	bf00      	nop
    1384:	0000be86 	.word	0x0000be86
    1388:	0000011c 	.word	0x0000011c

0000138c <TEE_BigIntCmpS32>:
TEE_BigIntCmpS32():
/home/rahulmahadev/devel/optee/optee_os/lib/libutee/tee_api_arith.c:244
    138c:	e96d 7e02 	strd	r7, lr, [sp, #-8]!
    1390:	b084      	sub	sp, #16
    1392:	af00      	add	r7, sp, #0
    1394:	6078      	str	r0, [r7, #4]
    1396:	6039      	str	r1, [r7, #0]
    1398:	4a07      	ldr	r2, [pc, #28]	; (13b8 <TEE_BigIntCmpS32+0x2c>)
    139a:	447a      	add	r2, pc
/home/rahulmahadev/devel/optee/optee_os/lib/libutee/tee_api_arith.c:245
    139c:	687b      	ldr	r3, [r7, #4]
    139e:	60fb      	str	r3, [r7, #12]
/home/rahulmahadev/devel/optee/optee_os/lib/libutee/tee_api_arith.c:247
    13a0:	6839      	ldr	r1, [r7, #0]
    13a2:	68f8      	ldr	r0, [r7, #12]
    13a4:	4b05      	ldr	r3, [pc, #20]	; (13bc <TEE_BigIntCmpS32+0x30>)
    13a6:	58d3      	ldr	r3, [r2, r3]
    13a8:	4798      	blx	r3
    13aa:	4603      	mov	r3, r0
/home/rahulmahadev/devel/optee/optee_os/lib/libutee/tee_api_arith.c:248
    13ac:	4618      	mov	r0, r3
    13ae:	f107 0710 	add.w	r7, r7, #16
    13b2:	46bd      	mov	sp, r7
    13b4:	bd80      	pop	{r7, pc}
    13b6:	bf00      	nop
    13b8:	0000be4e 	.word	0x0000be4e
    13bc:	0000016c 	.word	0x0000016c

000013c0 <TEE_BigIntShiftRight>:
TEE_BigIntShiftRight():
/home/rahulmahadev/devel/optee/optee_os/lib/libutee/tee_api_arith.c:255
    13c0:	f84d 4d0c 	str.w	r4, [sp, #-12]!
    13c4:	e9cd 7e01 	strd	r7, lr, [sp, #4]
    13c8:	b087      	sub	sp, #28
    13ca:	af00      	add	r7, sp, #0
    13cc:	60f8      	str	r0, [r7, #12]
    13ce:	60b9      	str	r1, [r7, #8]
    13d0:	607a      	str	r2, [r7, #4]
    13d2:	4c0a      	ldr	r4, [pc, #40]	; (13fc <TEE_BigIntShiftRight+0x3c>)
    13d4:	447c      	add	r4, pc
/home/rahulmahadev/devel/optee/optee_os/lib/libutee/tee_api_arith.c:256
    13d6:	68fb      	ldr	r3, [r7, #12]
    13d8:	617b      	str	r3, [r7, #20]
/home/rahulmahadev/devel/optee/optee_os/lib/libutee/tee_api_arith.c:257
    13da:	68bb      	ldr	r3, [r7, #8]
    13dc:	613b      	str	r3, [r7, #16]
/home/rahulmahadev/devel/optee/optee_os/lib/libutee/tee_api_arith.c:259
    13de:	687a      	ldr	r2, [r7, #4]
    13e0:	6939      	ldr	r1, [r7, #16]
    13e2:	6978      	ldr	r0, [r7, #20]
    13e4:	4b06      	ldr	r3, [pc, #24]	; (1400 <TEE_BigIntShiftRight+0x40>)
    13e6:	58e3      	ldr	r3, [r4, r3]
    13e8:	4798      	blx	r3
/home/rahulmahadev/devel/optee/optee_os/lib/libutee/tee_api_arith.c:260
    13ea:	f107 071c 	add.w	r7, r7, #28
    13ee:	46bd      	mov	sp, r7
    13f0:	e9dd 4700 	ldrd	r4, r7, [sp]
    13f4:	b002      	add	sp, #8
    13f6:	f85d fb04 	ldr.w	pc, [sp], #4
    13fa:	bf00      	nop
    13fc:	0000be14 	.word	0x0000be14
    1400:	00000160 	.word	0x00000160

00001404 <TEE_BigIntGetBit>:
TEE_BigIntGetBit():
/home/rahulmahadev/devel/optee/optee_os/lib/libutee/tee_api_arith.c:266
    1404:	e96d 7e02 	strd	r7, lr, [sp, #-8]!
    1408:	b084      	sub	sp, #16
    140a:	af00      	add	r7, sp, #0
    140c:	6078      	str	r0, [r7, #4]
    140e:	6039      	str	r1, [r7, #0]
    1410:	4a09      	ldr	r2, [pc, #36]	; (1438 <TEE_BigIntGetBit+0x34>)
    1412:	447a      	add	r2, pc
/home/rahulmahadev/devel/optee/optee_os/lib/libutee/tee_api_arith.c:267
    1414:	687b      	ldr	r3, [r7, #4]
    1416:	60fb      	str	r3, [r7, #12]
/home/rahulmahadev/devel/optee/optee_os/lib/libutee/tee_api_arith.c:269
    1418:	6839      	ldr	r1, [r7, #0]
    141a:	68f8      	ldr	r0, [r7, #12]
    141c:	4b07      	ldr	r3, [pc, #28]	; (143c <TEE_BigIntGetBit+0x38>)
    141e:	58d3      	ldr	r3, [r2, r3]
    1420:	4798      	blx	r3
    1422:	4603      	mov	r3, r0
    1424:	2b00      	cmp	r3, #0
    1426:	bf14      	ite	ne
    1428:	2301      	movne	r3, #1
    142a:	2300      	moveq	r3, #0
    142c:	b2db      	uxtb	r3, r3
/home/rahulmahadev/devel/optee/optee_os/lib/libutee/tee_api_arith.c:270
    142e:	4618      	mov	r0, r3
    1430:	f107 0710 	add.w	r7, r7, #16
    1434:	46bd      	mov	sp, r7
    1436:	bd80      	pop	{r7, pc}
    1438:	0000bdd6 	.word	0x0000bdd6
    143c:	00000188 	.word	0x00000188

00001440 <TEE_BigIntGetBitCount>:
TEE_BigIntGetBitCount():
/home/rahulmahadev/devel/optee/optee_os/lib/libutee/tee_api_arith.c:276
    1440:	e96d 7e02 	strd	r7, lr, [sp, #-8]!
    1444:	b084      	sub	sp, #16
    1446:	af00      	add	r7, sp, #0
    1448:	6078      	str	r0, [r7, #4]
    144a:	4a08      	ldr	r2, [pc, #32]	; (146c <TEE_BigIntGetBitCount+0x2c>)
    144c:	447a      	add	r2, pc
/home/rahulmahadev/devel/optee/optee_os/lib/libutee/tee_api_arith.c:277
    144e:	687b      	ldr	r3, [r7, #4]
    1450:	60fb      	str	r3, [r7, #12]
/home/rahulmahadev/devel/optee/optee_os/lib/libutee/tee_api_arith.c:279
    1452:	68f8      	ldr	r0, [r7, #12]
    1454:	4b06      	ldr	r3, [pc, #24]	; (1470 <TEE_BigIntGetBitCount+0x30>)
    1456:	58d3      	ldr	r3, [r2, r3]
    1458:	4798      	blx	r3
    145a:	4603      	mov	r3, r0
    145c:	f103 0301 	add.w	r3, r3, #1
/home/rahulmahadev/devel/optee/optee_os/lib/libutee/tee_api_arith.c:280
    1460:	4618      	mov	r0, r3
    1462:	f107 0710 	add.w	r7, r7, #16
    1466:	46bd      	mov	sp, r7
    1468:	bd80      	pop	{r7, pc}
    146a:	bf00      	nop
    146c:	0000bd9c 	.word	0x0000bd9c
    1470:	00000018 	.word	0x00000018

00001474 <TEE_BigIntAdd>:
TEE_BigIntAdd():
/home/rahulmahadev/devel/optee/optee_os/lib/libutee/tee_api_arith.c:291
    1474:	e96d 4504 	strd	r4, r5, [sp, #-16]!
    1478:	e9cd 7e02 	strd	r7, lr, [sp, #8]
    147c:	b088      	sub	sp, #32
    147e:	af00      	add	r7, sp, #0
    1480:	60f8      	str	r0, [r7, #12]
    1482:	60b9      	str	r1, [r7, #8]
    1484:	607a      	str	r2, [r7, #4]
    1486:	4d0c      	ldr	r5, [pc, #48]	; (14b8 <TEE_BigIntAdd+0x44>)
    1488:	447d      	add	r5, pc
/home/rahulmahadev/devel/optee/optee_os/lib/libutee/tee_api_arith.c:292
    148a:	68fb      	ldr	r3, [r7, #12]
    148c:	61fb      	str	r3, [r7, #28]
/home/rahulmahadev/devel/optee/optee_os/lib/libutee/tee_api_arith.c:293
    148e:	68bb      	ldr	r3, [r7, #8]
    1490:	61bb      	str	r3, [r7, #24]
/home/rahulmahadev/devel/optee/optee_os/lib/libutee/tee_api_arith.c:294
    1492:	687b      	ldr	r3, [r7, #4]
    1494:	617b      	str	r3, [r7, #20]
/home/rahulmahadev/devel/optee/optee_os/lib/libutee/tee_api_arith.c:296
    1496:	4b09      	ldr	r3, [pc, #36]	; (14bc <TEE_BigIntAdd+0x48>)
    1498:	447b      	add	r3, pc
    149a:	681b      	ldr	r3, [r3, #0]
    149c:	697a      	ldr	r2, [r7, #20]
    149e:	69b9      	ldr	r1, [r7, #24]
    14a0:	69f8      	ldr	r0, [r7, #28]
    14a2:	4c07      	ldr	r4, [pc, #28]	; (14c0 <TEE_BigIntAdd+0x4c>)
    14a4:	592c      	ldr	r4, [r5, r4]
    14a6:	47a0      	blx	r4
/home/rahulmahadev/devel/optee/optee_os/lib/libutee/tee_api_arith.c:297
    14a8:	f107 0720 	add.w	r7, r7, #32
    14ac:	46bd      	mov	sp, r7
    14ae:	e9dd 4500 	ldrd	r4, r5, [sp]
    14b2:	b002      	add	sp, #8
    14b4:	bd80      	pop	{r7, pc}
    14b6:	bf00      	nop
    14b8:	0000bd60 	.word	0x0000bd60
    14bc:	0000cbdc 	.word	0x0000cbdc
    14c0:	0000012c 	.word	0x0000012c

000014c4 <TEE_BigIntSub>:
TEE_BigIntSub():
/home/rahulmahadev/devel/optee/optee_os/lib/libutee/tee_api_arith.c:304
    14c4:	e96d 4504 	strd	r4, r5, [sp, #-16]!
    14c8:	e9cd 7e02 	strd	r7, lr, [sp, #8]
    14cc:	b088      	sub	sp, #32
    14ce:	af00      	add	r7, sp, #0
    14d0:	60f8      	str	r0, [r7, #12]
    14d2:	60b9      	str	r1, [r7, #8]
    14d4:	607a      	str	r2, [r7, #4]
    14d6:	4d0c      	ldr	r5, [pc, #48]	; (1508 <TEE_BigIntSub+0x44>)
    14d8:	447d      	add	r5, pc
/home/rahulmahadev/devel/optee/optee_os/lib/libutee/tee_api_arith.c:305
    14da:	68fb      	ldr	r3, [r7, #12]
    14dc:	61fb      	str	r3, [r7, #28]
/home/rahulmahadev/devel/optee/optee_os/lib/libutee/tee_api_arith.c:306
    14de:	68bb      	ldr	r3, [r7, #8]
    14e0:	61bb      	str	r3, [r7, #24]
/home/rahulmahadev/devel/optee/optee_os/lib/libutee/tee_api_arith.c:307
    14e2:	687b      	ldr	r3, [r7, #4]
    14e4:	617b      	str	r3, [r7, #20]
/home/rahulmahadev/devel/optee/optee_os/lib/libutee/tee_api_arith.c:309
    14e6:	4b09      	ldr	r3, [pc, #36]	; (150c <TEE_BigIntSub+0x48>)
    14e8:	447b      	add	r3, pc
    14ea:	681b      	ldr	r3, [r3, #0]
    14ec:	697a      	ldr	r2, [r7, #20]
    14ee:	69b9      	ldr	r1, [r7, #24]
    14f0:	69f8      	ldr	r0, [r7, #28]
    14f2:	4c07      	ldr	r4, [pc, #28]	; (1510 <TEE_BigIntSub+0x4c>)
    14f4:	592c      	ldr	r4, [r5, r4]
    14f6:	47a0      	blx	r4
/home/rahulmahadev/devel/optee/optee_os/lib/libutee/tee_api_arith.c:310
    14f8:	f107 0720 	add.w	r7, r7, #32
    14fc:	46bd      	mov	sp, r7
    14fe:	e9dd 4500 	ldrd	r4, r5, [sp]
    1502:	b002      	add	sp, #8
    1504:	bd80      	pop	{r7, pc}
    1506:	bf00      	nop
    1508:	0000bd10 	.word	0x0000bd10
    150c:	0000cb8c 	.word	0x0000cb8c
    1510:	00000024 	.word	0x00000024

00001514 <TEE_BigIntNeg>:
TEE_BigIntNeg():
/home/rahulmahadev/devel/optee/optee_os/lib/libutee/tee_api_arith.c:316
    1514:	e96d 7e02 	strd	r7, lr, [sp, #-8]!
    1518:	b084      	sub	sp, #16
    151a:	af00      	add	r7, sp, #0
    151c:	6078      	str	r0, [r7, #4]
    151e:	6039      	str	r1, [r7, #0]
    1520:	4a07      	ldr	r2, [pc, #28]	; (1540 <TEE_BigIntNeg+0x2c>)
    1522:	447a      	add	r2, pc
/home/rahulmahadev/devel/optee/optee_os/lib/libutee/tee_api_arith.c:317
    1524:	687b      	ldr	r3, [r7, #4]
    1526:	60fb      	str	r3, [r7, #12]
/home/rahulmahadev/devel/optee/optee_os/lib/libutee/tee_api_arith.c:318
    1528:	683b      	ldr	r3, [r7, #0]
    152a:	60bb      	str	r3, [r7, #8]
/home/rahulmahadev/devel/optee/optee_os/lib/libutee/tee_api_arith.c:320
    152c:	68b9      	ldr	r1, [r7, #8]
    152e:	68f8      	ldr	r0, [r7, #12]
    1530:	4b04      	ldr	r3, [pc, #16]	; (1544 <TEE_BigIntNeg+0x30>)
    1532:	58d3      	ldr	r3, [r2, r3]
    1534:	4798      	blx	r3
/home/rahulmahadev/devel/optee/optee_os/lib/libutee/tee_api_arith.c:321
    1536:	f107 0710 	add.w	r7, r7, #16
    153a:	46bd      	mov	sp, r7
    153c:	bd80      	pop	{r7, pc}
    153e:	bf00      	nop
    1540:	0000bcc6 	.word	0x0000bcc6
    1544:	000000c8 	.word	0x000000c8

00001548 <TEE_BigIntMul>:
TEE_BigIntMul():
/home/rahulmahadev/devel/optee/optee_os/lib/libutee/tee_api_arith.c:328
    1548:	e96d 4504 	strd	r4, r5, [sp, #-16]!
    154c:	e9cd 7e02 	strd	r7, lr, [sp, #8]
    1550:	b088      	sub	sp, #32
    1552:	af00      	add	r7, sp, #0
    1554:	60f8      	str	r0, [r7, #12]
    1556:	60b9      	str	r1, [r7, #8]
    1558:	607a      	str	r2, [r7, #4]
    155a:	4d0c      	ldr	r5, [pc, #48]	; (158c <TEE_BigIntMul+0x44>)
    155c:	447d      	add	r5, pc
/home/rahulmahadev/devel/optee/optee_os/lib/libutee/tee_api_arith.c:329
    155e:	68fb      	ldr	r3, [r7, #12]
    1560:	61fb      	str	r3, [r7, #28]
/home/rahulmahadev/devel/optee/optee_os/lib/libutee/tee_api_arith.c:330
    1562:	68bb      	ldr	r3, [r7, #8]
    1564:	61bb      	str	r3, [r7, #24]
/home/rahulmahadev/devel/optee/optee_os/lib/libutee/tee_api_arith.c:331
    1566:	687b      	ldr	r3, [r7, #4]
    1568:	617b      	str	r3, [r7, #20]
/home/rahulmahadev/devel/optee/optee_os/lib/libutee/tee_api_arith.c:333
    156a:	4b09      	ldr	r3, [pc, #36]	; (1590 <TEE_BigIntMul+0x48>)
    156c:	447b      	add	r3, pc
    156e:	681b      	ldr	r3, [r3, #0]
    1570:	697a      	ldr	r2, [r7, #20]
    1572:	69b9      	ldr	r1, [r7, #24]
    1574:	69f8      	ldr	r0, [r7, #28]
    1576:	4c07      	ldr	r4, [pc, #28]	; (1594 <TEE_BigIntMul+0x4c>)
    1578:	592c      	ldr	r4, [r5, r4]
    157a:	47a0      	blx	r4
/home/rahulmahadev/devel/optee/optee_os/lib/libutee/tee_api_arith.c:334
    157c:	f107 0720 	add.w	r7, r7, #32
    1580:	46bd      	mov	sp, r7
    1582:	e9dd 4500 	ldrd	r4, r5, [sp]
    1586:	b002      	add	sp, #8
    1588:	bd80      	pop	{r7, pc}
    158a:	bf00      	nop
    158c:	0000bc8c 	.word	0x0000bc8c
    1590:	0000cb08 	.word	0x0000cb08
    1594:	00000074 	.word	0x00000074

00001598 <TEE_BigIntSquare>:
TEE_BigIntSquare():
/home/rahulmahadev/devel/optee/optee_os/lib/libutee/tee_api_arith.c:340
    1598:	e96d 4504 	strd	r4, r5, [sp, #-16]!
    159c:	e9cd 7e02 	strd	r7, lr, [sp, #8]
    15a0:	b084      	sub	sp, #16
    15a2:	af00      	add	r7, sp, #0
    15a4:	6078      	str	r0, [r7, #4]
    15a6:	6039      	str	r1, [r7, #0]
    15a8:	4d0a      	ldr	r5, [pc, #40]	; (15d4 <TEE_BigIntSquare+0x3c>)
    15aa:	447d      	add	r5, pc
/home/rahulmahadev/devel/optee/optee_os/lib/libutee/tee_api_arith.c:341
    15ac:	687b      	ldr	r3, [r7, #4]
    15ae:	60fb      	str	r3, [r7, #12]
/home/rahulmahadev/devel/optee/optee_os/lib/libutee/tee_api_arith.c:342
    15b0:	683b      	ldr	r3, [r7, #0]
    15b2:	60bb      	str	r3, [r7, #8]
/home/rahulmahadev/devel/optee/optee_os/lib/libutee/tee_api_arith.c:344
    15b4:	4b08      	ldr	r3, [pc, #32]	; (15d8 <TEE_BigIntSquare+0x40>)
    15b6:	447b      	add	r3, pc
    15b8:	681b      	ldr	r3, [r3, #0]
    15ba:	68ba      	ldr	r2, [r7, #8]
    15bc:	68b9      	ldr	r1, [r7, #8]
    15be:	68f8      	ldr	r0, [r7, #12]
    15c0:	4c06      	ldr	r4, [pc, #24]	; (15dc <TEE_BigIntSquare+0x44>)
    15c2:	592c      	ldr	r4, [r5, r4]
    15c4:	47a0      	blx	r4
/home/rahulmahadev/devel/optee/optee_os/lib/libutee/tee_api_arith.c:345
    15c6:	f107 0710 	add.w	r7, r7, #16
    15ca:	46bd      	mov	sp, r7
    15cc:	e9dd 4500 	ldrd	r4, r5, [sp]
    15d0:	b002      	add	sp, #8
    15d2:	bd80      	pop	{r7, pc}
    15d4:	0000bc3e 	.word	0x0000bc3e
    15d8:	0000cabe 	.word	0x0000cabe
    15dc:	00000074 	.word	0x00000074

000015e0 <TEE_BigIntDiv>:
TEE_BigIntDiv():
/home/rahulmahadev/devel/optee/optee_os/lib/libutee/tee_api_arith.c:352
    15e0:	e96d 4504 	strd	r4, r5, [sp, #-16]!
    15e4:	e9cd 7e02 	strd	r7, lr, [sp, #8]
    15e8:	b08a      	sub	sp, #40	; 0x28
    15ea:	af02      	add	r7, sp, #8
    15ec:	60f8      	str	r0, [r7, #12]
    15ee:	60b9      	str	r1, [r7, #8]
    15f0:	607a      	str	r2, [r7, #4]
    15f2:	603b      	str	r3, [r7, #0]
    15f4:	4d15      	ldr	r5, [pc, #84]	; (164c <TEE_BigIntDiv+0x6c>)
    15f6:	447d      	add	r5, pc
/home/rahulmahadev/devel/optee/optee_os/lib/libutee/tee_api_arith.c:353
    15f8:	68fb      	ldr	r3, [r7, #12]
    15fa:	61fb      	str	r3, [r7, #28]
/home/rahulmahadev/devel/optee/optee_os/lib/libutee/tee_api_arith.c:354
    15fc:	68bb      	ldr	r3, [r7, #8]
    15fe:	61bb      	str	r3, [r7, #24]
/home/rahulmahadev/devel/optee/optee_os/lib/libutee/tee_api_arith.c:355
    1600:	687b      	ldr	r3, [r7, #4]
    1602:	617b      	str	r3, [r7, #20]
/home/rahulmahadev/devel/optee/optee_os/lib/libutee/tee_api_arith.c:356
    1604:	683b      	ldr	r3, [r7, #0]
    1606:	613b      	str	r3, [r7, #16]
/home/rahulmahadev/devel/optee/optee_os/lib/libutee/tee_api_arith.c:358
    1608:	f04f 0100 	mov.w	r1, #0
    160c:	6838      	ldr	r0, [r7, #0]
    160e:	4b10      	ldr	r3, [pc, #64]	; (1650 <TEE_BigIntDiv+0x70>)
    1610:	447b      	add	r3, pc
    1612:	4798      	blx	r3
    1614:	4603      	mov	r3, r0
    1616:	2b00      	cmp	r3, #0
    1618:	d105      	bne.n	1626 <TEE_BigIntDiv+0x46>
/home/rahulmahadev/devel/optee/optee_os/lib/libutee/tee_api_arith.c:359
    161a:	4b0e      	ldr	r3, [pc, #56]	; (1654 <TEE_BigIntDiv+0x74>)
    161c:	447b      	add	r3, pc
    161e:	4618      	mov	r0, r3
    1620:	4b0d      	ldr	r3, [pc, #52]	; (1658 <TEE_BigIntDiv+0x78>)
    1622:	447b      	add	r3, pc
    1624:	4798      	blx	r3
/home/rahulmahadev/devel/optee/optee_os/lib/libutee/tee_api_arith.c:361
    1626:	4b0d      	ldr	r3, [pc, #52]	; (165c <TEE_BigIntDiv+0x7c>)
    1628:	447b      	add	r3, pc
    162a:	681b      	ldr	r3, [r3, #0]
    162c:	9300      	str	r3, [sp, #0]
    162e:	693b      	ldr	r3, [r7, #16]
    1630:	697a      	ldr	r2, [r7, #20]
    1632:	69b9      	ldr	r1, [r7, #24]
    1634:	69f8      	ldr	r0, [r7, #28]
    1636:	4c0a      	ldr	r4, [pc, #40]	; (1660 <TEE_BigIntDiv+0x80>)
    1638:	592c      	ldr	r4, [r5, r4]
    163a:	47a0      	blx	r4
/home/rahulmahadev/devel/optee/optee_os/lib/libutee/tee_api_arith.c:362
    163c:	f107 0720 	add.w	r7, r7, #32
    1640:	46bd      	mov	sp, r7
    1642:	e9dd 4500 	ldrd	r4, r5, [sp]
    1646:	b002      	add	sp, #8
    1648:	bd80      	pop	{r7, pc}
    164a:	bf00      	nop
    164c:	0000bbf2 	.word	0x0000bbf2
    1650:	fffffd79 	.word	0xfffffd79
    1654:	0000a5f0 	.word	0x0000a5f0
    1658:	fffff90b 	.word	0xfffff90b
    165c:	0000ca4c 	.word	0x0000ca4c
    1660:	0000004c 	.word	0x0000004c

00001664 <TEE_BigIntMod>:
TEE_BigIntMod():
/home/rahulmahadev/devel/optee/optee_os/lib/libutee/tee_api_arith.c:373
    1664:	e96d 4504 	strd	r4, r5, [sp, #-16]!
    1668:	e9cd 7e02 	strd	r7, lr, [sp, #8]
    166c:	b088      	sub	sp, #32
    166e:	af00      	add	r7, sp, #0
    1670:	60f8      	str	r0, [r7, #12]
    1672:	60b9      	str	r1, [r7, #8]
    1674:	607a      	str	r2, [r7, #4]
    1676:	4c1c      	ldr	r4, [pc, #112]	; (16e8 <TEE_BigIntMod+0x84>)
    1678:	447c      	add	r4, pc
/home/rahulmahadev/devel/optee/optee_os/lib/libutee/tee_api_arith.c:374
    167a:	68fb      	ldr	r3, [r7, #12]
    167c:	61fb      	str	r3, [r7, #28]
/home/rahulmahadev/devel/optee/optee_os/lib/libutee/tee_api_arith.c:375
    167e:	68bb      	ldr	r3, [r7, #8]
    1680:	61bb      	str	r3, [r7, #24]
/home/rahulmahadev/devel/optee/optee_os/lib/libutee/tee_api_arith.c:376
    1682:	687b      	ldr	r3, [r7, #4]
    1684:	617b      	str	r3, [r7, #20]
/home/rahulmahadev/devel/optee/optee_os/lib/libutee/tee_api_arith.c:378
    1686:	f04f 0102 	mov.w	r1, #2
    168a:	6878      	ldr	r0, [r7, #4]
    168c:	4b17      	ldr	r3, [pc, #92]	; (16ec <TEE_BigIntMod+0x88>)
    168e:	447b      	add	r3, pc
    1690:	4798      	blx	r3
    1692:	4603      	mov	r3, r0
    1694:	2b00      	cmp	r3, #0
    1696:	da05      	bge.n	16a4 <TEE_BigIntMod+0x40>
/home/rahulmahadev/devel/optee/optee_os/lib/libutee/tee_api_arith.c:379
    1698:	4b15      	ldr	r3, [pc, #84]	; (16f0 <TEE_BigIntMod+0x8c>)
    169a:	447b      	add	r3, pc
    169c:	4618      	mov	r0, r3
    169e:	4b15      	ldr	r3, [pc, #84]	; (16f4 <TEE_BigIntMod+0x90>)
    16a0:	447b      	add	r3, pc
    16a2:	4798      	blx	r3
/home/rahulmahadev/devel/optee/optee_os/lib/libutee/tee_api_arith.c:381
    16a4:	4b14      	ldr	r3, [pc, #80]	; (16f8 <TEE_BigIntMod+0x94>)
    16a6:	447b      	add	r3, pc
    16a8:	681b      	ldr	r3, [r3, #0]
    16aa:	697a      	ldr	r2, [r7, #20]
    16ac:	69b9      	ldr	r1, [r7, #24]
    16ae:	69f8      	ldr	r0, [r7, #28]
    16b0:	4d12      	ldr	r5, [pc, #72]	; (16fc <TEE_BigIntMod+0x98>)
    16b2:	5965      	ldr	r5, [r4, r5]
    16b4:	47a8      	blx	r5
/home/rahulmahadev/devel/optee/optee_os/lib/libutee/tee_api_arith.c:383
    16b6:	f04f 0100 	mov.w	r1, #0
    16ba:	69f8      	ldr	r0, [r7, #28]
    16bc:	4b10      	ldr	r3, [pc, #64]	; (1700 <TEE_BigIntMod+0x9c>)
    16be:	58e3      	ldr	r3, [r4, r3]
    16c0:	4798      	blx	r3
    16c2:	4603      	mov	r3, r0
    16c4:	2b00      	cmp	r3, #0
    16c6:	da08      	bge.n	16da <TEE_BigIntMod+0x76>
/home/rahulmahadev/devel/optee/optee_os/lib/libutee/tee_api_arith.c:384
    16c8:	4b0e      	ldr	r3, [pc, #56]	; (1704 <TEE_BigIntMod+0xa0>)
    16ca:	447b      	add	r3, pc
    16cc:	681b      	ldr	r3, [r3, #0]
    16ce:	697a      	ldr	r2, [r7, #20]
    16d0:	69f9      	ldr	r1, [r7, #28]
    16d2:	69f8      	ldr	r0, [r7, #28]
    16d4:	4d0c      	ldr	r5, [pc, #48]	; (1708 <TEE_BigIntMod+0xa4>)
    16d6:	5964      	ldr	r4, [r4, r5]
    16d8:	47a0      	blx	r4
/home/rahulmahadev/devel/optee/optee_os/lib/libutee/tee_api_arith.c:385
    16da:	f107 0720 	add.w	r7, r7, #32
    16de:	46bd      	mov	sp, r7
    16e0:	e9dd 4500 	ldrd	r4, r5, [sp]
    16e4:	b002      	add	sp, #8
    16e6:	bd80      	pop	{r7, pc}
    16e8:	0000bb70 	.word	0x0000bb70
    16ec:	fffffcfb 	.word	0xfffffcfb
    16f0:	0000a582 	.word	0x0000a582
    16f4:	fffff88d 	.word	0xfffff88d
    16f8:	0000c9ce 	.word	0x0000c9ce
    16fc:	00000140 	.word	0x00000140
    1700:	0000016c 	.word	0x0000016c
    1704:	0000c9aa 	.word	0x0000c9aa
    1708:	0000012c 	.word	0x0000012c

0000170c <TEE_BigIntAddMod>:
TEE_BigIntAddMod():
/home/rahulmahadev/devel/optee/optee_os/lib/libutee/tee_api_arith.c:392
    170c:	e96d 4504 	strd	r4, r5, [sp, #-16]!
    1710:	e9cd 7e02 	strd	r7, lr, [sp, #8]
    1714:	b08a      	sub	sp, #40	; 0x28
    1716:	af02      	add	r7, sp, #8
    1718:	60f8      	str	r0, [r7, #12]
    171a:	60b9      	str	r1, [r7, #8]
    171c:	607a      	str	r2, [r7, #4]
    171e:	603b      	str	r3, [r7, #0]
    1720:	4c1e      	ldr	r4, [pc, #120]	; (179c <TEE_BigIntAddMod+0x90>)
    1722:	447c      	add	r4, pc
/home/rahulmahadev/devel/optee/optee_os/lib/libutee/tee_api_arith.c:393
    1724:	68fb      	ldr	r3, [r7, #12]
    1726:	61fb      	str	r3, [r7, #28]
/home/rahulmahadev/devel/optee/optee_os/lib/libutee/tee_api_arith.c:394
    1728:	68bb      	ldr	r3, [r7, #8]
    172a:	61bb      	str	r3, [r7, #24]
/home/rahulmahadev/devel/optee/optee_os/lib/libutee/tee_api_arith.c:395
    172c:	687b      	ldr	r3, [r7, #4]
    172e:	617b      	str	r3, [r7, #20]
/home/rahulmahadev/devel/optee/optee_os/lib/libutee/tee_api_arith.c:396
    1730:	683b      	ldr	r3, [r7, #0]
    1732:	613b      	str	r3, [r7, #16]
/home/rahulmahadev/devel/optee/optee_os/lib/libutee/tee_api_arith.c:398
    1734:	f04f 0102 	mov.w	r1, #2
    1738:	6838      	ldr	r0, [r7, #0]
    173a:	4b19      	ldr	r3, [pc, #100]	; (17a0 <TEE_BigIntAddMod+0x94>)
    173c:	447b      	add	r3, pc
    173e:	4798      	blx	r3
    1740:	4603      	mov	r3, r0
    1742:	2b00      	cmp	r3, #0
    1744:	da05      	bge.n	1752 <TEE_BigIntAddMod+0x46>
/home/rahulmahadev/devel/optee/optee_os/lib/libutee/tee_api_arith.c:399
    1746:	4b17      	ldr	r3, [pc, #92]	; (17a4 <TEE_BigIntAddMod+0x98>)
    1748:	447b      	add	r3, pc
    174a:	4618      	mov	r0, r3
    174c:	4b16      	ldr	r3, [pc, #88]	; (17a8 <TEE_BigIntAddMod+0x9c>)
    174e:	447b      	add	r3, pc
    1750:	4798      	blx	r3
/home/rahulmahadev/devel/optee/optee_os/lib/libutee/tee_api_arith.c:401
    1752:	4b16      	ldr	r3, [pc, #88]	; (17ac <TEE_BigIntAddMod+0xa0>)
    1754:	447b      	add	r3, pc
    1756:	681b      	ldr	r3, [r3, #0]
    1758:	9300      	str	r3, [sp, #0]
    175a:	693b      	ldr	r3, [r7, #16]
    175c:	697a      	ldr	r2, [r7, #20]
    175e:	69b9      	ldr	r1, [r7, #24]
    1760:	69f8      	ldr	r0, [r7, #28]
    1762:	4d13      	ldr	r5, [pc, #76]	; (17b0 <TEE_BigIntAddMod+0xa4>)
    1764:	5965      	ldr	r5, [r4, r5]
    1766:	47a8      	blx	r5
/home/rahulmahadev/devel/optee/optee_os/lib/libutee/tee_api_arith.c:402
    1768:	f04f 0100 	mov.w	r1, #0
    176c:	69f8      	ldr	r0, [r7, #28]
    176e:	4b11      	ldr	r3, [pc, #68]	; (17b4 <TEE_BigIntAddMod+0xa8>)
    1770:	58e3      	ldr	r3, [r4, r3]
    1772:	4798      	blx	r3
    1774:	4603      	mov	r3, r0
    1776:	2b00      	cmp	r3, #0
    1778:	da08      	bge.n	178c <TEE_BigIntAddMod+0x80>
/home/rahulmahadev/devel/optee/optee_os/lib/libutee/tee_api_arith.c:403
    177a:	4b0f      	ldr	r3, [pc, #60]	; (17b8 <TEE_BigIntAddMod+0xac>)
    177c:	447b      	add	r3, pc
    177e:	681b      	ldr	r3, [r3, #0]
    1780:	693a      	ldr	r2, [r7, #16]
    1782:	69f9      	ldr	r1, [r7, #28]
    1784:	69f8      	ldr	r0, [r7, #28]
    1786:	4d0d      	ldr	r5, [pc, #52]	; (17bc <TEE_BigIntAddMod+0xb0>)
    1788:	5964      	ldr	r4, [r4, r5]
    178a:	47a0      	blx	r4
/home/rahulmahadev/devel/optee/optee_os/lib/libutee/tee_api_arith.c:404
    178c:	f107 0720 	add.w	r7, r7, #32
    1790:	46bd      	mov	sp, r7
    1792:	e9dd 4500 	ldrd	r4, r5, [sp]
    1796:	b002      	add	sp, #8
    1798:	bd80      	pop	{r7, pc}
    179a:	bf00      	nop
    179c:	0000bac6 	.word	0x0000bac6
    17a0:	fffffc4d 	.word	0xfffffc4d
    17a4:	0000a4d4 	.word	0x0000a4d4
    17a8:	fffff7df 	.word	0xfffff7df
    17ac:	0000c920 	.word	0x0000c920
    17b0:	000001b0 	.word	0x000001b0
    17b4:	0000016c 	.word	0x0000016c
    17b8:	0000c8f8 	.word	0x0000c8f8
    17bc:	0000012c 	.word	0x0000012c

000017c0 <TEE_BigIntSubMod>:
TEE_BigIntSubMod():
/home/rahulmahadev/devel/optee/optee_os/lib/libutee/tee_api_arith.c:411
    17c0:	e96d 4504 	strd	r4, r5, [sp, #-16]!
    17c4:	e9cd 7e02 	strd	r7, lr, [sp, #8]
    17c8:	b08a      	sub	sp, #40	; 0x28
    17ca:	af02      	add	r7, sp, #8
    17cc:	60f8      	str	r0, [r7, #12]
    17ce:	60b9      	str	r1, [r7, #8]
    17d0:	607a      	str	r2, [r7, #4]
    17d2:	603b      	str	r3, [r7, #0]
    17d4:	4c1e      	ldr	r4, [pc, #120]	; (1850 <TEE_BigIntSubMod+0x90>)
    17d6:	447c      	add	r4, pc
/home/rahulmahadev/devel/optee/optee_os/lib/libutee/tee_api_arith.c:412
    17d8:	68fb      	ldr	r3, [r7, #12]
    17da:	61fb      	str	r3, [r7, #28]
/home/rahulmahadev/devel/optee/optee_os/lib/libutee/tee_api_arith.c:413
    17dc:	68bb      	ldr	r3, [r7, #8]
    17de:	61bb      	str	r3, [r7, #24]
/home/rahulmahadev/devel/optee/optee_os/lib/libutee/tee_api_arith.c:414
    17e0:	687b      	ldr	r3, [r7, #4]
    17e2:	617b      	str	r3, [r7, #20]
/home/rahulmahadev/devel/optee/optee_os/lib/libutee/tee_api_arith.c:415
    17e4:	683b      	ldr	r3, [r7, #0]
    17e6:	613b      	str	r3, [r7, #16]
/home/rahulmahadev/devel/optee/optee_os/lib/libutee/tee_api_arith.c:417
    17e8:	f04f 0102 	mov.w	r1, #2
    17ec:	6838      	ldr	r0, [r7, #0]
    17ee:	4b19      	ldr	r3, [pc, #100]	; (1854 <TEE_BigIntSubMod+0x94>)
    17f0:	447b      	add	r3, pc
    17f2:	4798      	blx	r3
    17f4:	4603      	mov	r3, r0
    17f6:	2b00      	cmp	r3, #0
    17f8:	da05      	bge.n	1806 <TEE_BigIntSubMod+0x46>
/home/rahulmahadev/devel/optee/optee_os/lib/libutee/tee_api_arith.c:418
    17fa:	4b17      	ldr	r3, [pc, #92]	; (1858 <TEE_BigIntSubMod+0x98>)
    17fc:	447b      	add	r3, pc
    17fe:	4618      	mov	r0, r3
    1800:	4b16      	ldr	r3, [pc, #88]	; (185c <TEE_BigIntSubMod+0x9c>)
    1802:	447b      	add	r3, pc
    1804:	4798      	blx	r3
/home/rahulmahadev/devel/optee/optee_os/lib/libutee/tee_api_arith.c:420
    1806:	4b16      	ldr	r3, [pc, #88]	; (1860 <TEE_BigIntSubMod+0xa0>)
    1808:	447b      	add	r3, pc
    180a:	681b      	ldr	r3, [r3, #0]
    180c:	9300      	str	r3, [sp, #0]
    180e:	693b      	ldr	r3, [r7, #16]
    1810:	697a      	ldr	r2, [r7, #20]
    1812:	69b9      	ldr	r1, [r7, #24]
    1814:	69f8      	ldr	r0, [r7, #28]
    1816:	4d13      	ldr	r5, [pc, #76]	; (1864 <TEE_BigIntSubMod+0xa4>)
    1818:	5965      	ldr	r5, [r4, r5]
    181a:	47a8      	blx	r5
/home/rahulmahadev/devel/optee/optee_os/lib/libutee/tee_api_arith.c:421
    181c:	f04f 0100 	mov.w	r1, #0
    1820:	69f8      	ldr	r0, [r7, #28]
    1822:	4b11      	ldr	r3, [pc, #68]	; (1868 <TEE_BigIntSubMod+0xa8>)
    1824:	58e3      	ldr	r3, [r4, r3]
    1826:	4798      	blx	r3
    1828:	4603      	mov	r3, r0
    182a:	2b00      	cmp	r3, #0
    182c:	da08      	bge.n	1840 <TEE_BigIntSubMod+0x80>
/home/rahulmahadev/devel/optee/optee_os/lib/libutee/tee_api_arith.c:422
    182e:	4b0f      	ldr	r3, [pc, #60]	; (186c <TEE_BigIntSubMod+0xac>)
    1830:	447b      	add	r3, pc
    1832:	681b      	ldr	r3, [r3, #0]
    1834:	693a      	ldr	r2, [r7, #16]
    1836:	69f9      	ldr	r1, [r7, #28]
    1838:	69f8      	ldr	r0, [r7, #28]
    183a:	4d0d      	ldr	r5, [pc, #52]	; (1870 <TEE_BigIntSubMod+0xb0>)
    183c:	5964      	ldr	r4, [r4, r5]
    183e:	47a0      	blx	r4
/home/rahulmahadev/devel/optee/optee_os/lib/libutee/tee_api_arith.c:423
    1840:	f107 0720 	add.w	r7, r7, #32
    1844:	46bd      	mov	sp, r7
    1846:	e9dd 4500 	ldrd	r4, r5, [sp]
    184a:	b002      	add	sp, #8
    184c:	bd80      	pop	{r7, pc}
    184e:	bf00      	nop
    1850:	0000ba12 	.word	0x0000ba12
    1854:	fffffb99 	.word	0xfffffb99
    1858:	0000a420 	.word	0x0000a420
    185c:	fffff72b 	.word	0xfffff72b
    1860:	0000c86c 	.word	0x0000c86c
    1864:	0000015c 	.word	0x0000015c
    1868:	0000016c 	.word	0x0000016c
    186c:	0000c844 	.word	0x0000c844
    1870:	0000012c 	.word	0x0000012c

00001874 <TEE_BigIntMulMod>:
TEE_BigIntMulMod():
/home/rahulmahadev/devel/optee/optee_os/lib/libutee/tee_api_arith.c:430
    1874:	e96d 4504 	strd	r4, r5, [sp, #-16]!
    1878:	e9cd 7e02 	strd	r7, lr, [sp, #8]
    187c:	b08c      	sub	sp, #48	; 0x30
    187e:	af02      	add	r7, sp, #8
    1880:	60f8      	str	r0, [r7, #12]
    1882:	60b9      	str	r1, [r7, #8]
    1884:	607a      	str	r2, [r7, #4]
    1886:	603b      	str	r3, [r7, #0]
    1888:	4c2b      	ldr	r4, [pc, #172]	; (1938 <TEE_BigIntMulMod+0xc4>)
    188a:	447c      	add	r4, pc
/home/rahulmahadev/devel/optee/optee_os/lib/libutee/tee_api_arith.c:431
    188c:	68fb      	ldr	r3, [r7, #12]
    188e:	627b      	str	r3, [r7, #36]	; 0x24
/home/rahulmahadev/devel/optee/optee_os/lib/libutee/tee_api_arith.c:432
    1890:	68bb      	ldr	r3, [r7, #8]
    1892:	623b      	str	r3, [r7, #32]
/home/rahulmahadev/devel/optee/optee_os/lib/libutee/tee_api_arith.c:433
    1894:	687b      	ldr	r3, [r7, #4]
    1896:	61fb      	str	r3, [r7, #28]
/home/rahulmahadev/devel/optee/optee_os/lib/libutee/tee_api_arith.c:434
    1898:	683b      	ldr	r3, [r7, #0]
    189a:	61bb      	str	r3, [r7, #24]
/home/rahulmahadev/devel/optee/optee_os/lib/libutee/tee_api_arith.c:437
    189c:	f04f 0102 	mov.w	r1, #2
    18a0:	6838      	ldr	r0, [r7, #0]
    18a2:	4b26      	ldr	r3, [pc, #152]	; (193c <TEE_BigIntMulMod+0xc8>)
    18a4:	447b      	add	r3, pc
    18a6:	4798      	blx	r3
    18a8:	4603      	mov	r3, r0
    18aa:	2b00      	cmp	r3, #0
    18ac:	da05      	bge.n	18ba <TEE_BigIntMulMod+0x46>
/home/rahulmahadev/devel/optee/optee_os/lib/libutee/tee_api_arith.c:438
    18ae:	4b24      	ldr	r3, [pc, #144]	; (1940 <TEE_BigIntMulMod+0xcc>)
    18b0:	447b      	add	r3, pc
    18b2:	4618      	mov	r0, r3
    18b4:	4b23      	ldr	r3, [pc, #140]	; (1944 <TEE_BigIntMulMod+0xd0>)
    18b6:	447b      	add	r3, pc
    18b8:	4798      	blx	r3
/home/rahulmahadev/devel/optee/optee_os/lib/libutee/tee_api_arith.c:448
    18ba:	4b23      	ldr	r3, [pc, #140]	; (1948 <TEE_BigIntMulMod+0xd4>)
    18bc:	447b      	add	r3, pc
    18be:	681a      	ldr	r2, [r3, #0]
    18c0:	f107 0314 	add.w	r3, r7, #20
    18c4:	4611      	mov	r1, r2
    18c6:	4618      	mov	r0, r3
    18c8:	4b20      	ldr	r3, [pc, #128]	; (194c <TEE_BigIntMulMod+0xd8>)
    18ca:	58e3      	ldr	r3, [r4, r3]
    18cc:	4798      	blx	r3
/home/rahulmahadev/devel/optee/optee_os/lib/libutee/tee_api_arith.c:449
    18ce:	6978      	ldr	r0, [r7, #20]
    18d0:	4b1f      	ldr	r3, [pc, #124]	; (1950 <TEE_BigIntMulMod+0xdc>)
    18d2:	447b      	add	r3, pc
    18d4:	681b      	ldr	r3, [r3, #0]
    18d6:	9300      	str	r3, [sp, #0]
    18d8:	69bb      	ldr	r3, [r7, #24]
    18da:	69fa      	ldr	r2, [r7, #28]
    18dc:	6a39      	ldr	r1, [r7, #32]
    18de:	4d1d      	ldr	r5, [pc, #116]	; (1954 <TEE_BigIntMulMod+0xe0>)
    18e0:	5965      	ldr	r5, [r4, r5]
    18e2:	47a8      	blx	r5
/home/rahulmahadev/devel/optee/optee_os/lib/libutee/tee_api_arith.c:450
    18e4:	697b      	ldr	r3, [r7, #20]
    18e6:	f04f 0100 	mov.w	r1, #0
    18ea:	4618      	mov	r0, r3
    18ec:	4b1a      	ldr	r3, [pc, #104]	; (1958 <TEE_BigIntMulMod+0xe4>)
    18ee:	58e3      	ldr	r3, [r4, r3]
    18f0:	4798      	blx	r3
    18f2:	4603      	mov	r3, r0
    18f4:	2b00      	cmp	r3, #0
    18f6:	da08      	bge.n	190a <TEE_BigIntMulMod+0x96>
/home/rahulmahadev/devel/optee/optee_os/lib/libutee/tee_api_arith.c:451
    18f8:	6978      	ldr	r0, [r7, #20]
    18fa:	6979      	ldr	r1, [r7, #20]
    18fc:	4b17      	ldr	r3, [pc, #92]	; (195c <TEE_BigIntMulMod+0xe8>)
    18fe:	447b      	add	r3, pc
    1900:	681b      	ldr	r3, [r3, #0]
    1902:	69ba      	ldr	r2, [r7, #24]
    1904:	4d16      	ldr	r5, [pc, #88]	; (1960 <TEE_BigIntMulMod+0xec>)
    1906:	5965      	ldr	r5, [r4, r5]
    1908:	47a8      	blx	r5
/home/rahulmahadev/devel/optee/optee_os/lib/libutee/tee_api_arith.c:452
    190a:	697b      	ldr	r3, [r7, #20]
    190c:	4619      	mov	r1, r3
    190e:	6a78      	ldr	r0, [r7, #36]	; 0x24
    1910:	4b14      	ldr	r3, [pc, #80]	; (1964 <TEE_BigIntMulMod+0xf0>)
    1912:	58e3      	ldr	r3, [r4, r3]
    1914:	4798      	blx	r3
/home/rahulmahadev/devel/optee/optee_os/lib/libutee/tee_api_arith.c:453
    1916:	4b14      	ldr	r3, [pc, #80]	; (1968 <TEE_BigIntMulMod+0xf4>)
    1918:	447b      	add	r3, pc
    191a:	681a      	ldr	r2, [r3, #0]
    191c:	f107 0314 	add.w	r3, r7, #20
    1920:	4611      	mov	r1, r2
    1922:	4618      	mov	r0, r3
    1924:	4b11      	ldr	r3, [pc, #68]	; (196c <TEE_BigIntMulMod+0xf8>)
    1926:	58e3      	ldr	r3, [r4, r3]
    1928:	4798      	blx	r3
/home/rahulmahadev/devel/optee/optee_os/lib/libutee/tee_api_arith.c:454
    192a:	f107 0728 	add.w	r7, r7, #40	; 0x28
    192e:	46bd      	mov	sp, r7
    1930:	e9dd 4500 	ldrd	r4, r5, [sp]
    1934:	b002      	add	sp, #8
    1936:	bd80      	pop	{r7, pc}
    1938:	0000b95e 	.word	0x0000b95e
    193c:	fffffae5 	.word	0xfffffae5
    1940:	0000a36c 	.word	0x0000a36c
    1944:	fffff677 	.word	0xfffff677
    1948:	0000c7b8 	.word	0x0000c7b8
    194c:	000000d4 	.word	0x000000d4
    1950:	0000c7a2 	.word	0x0000c7a2
    1954:	000000e0 	.word	0x000000e0
    1958:	0000016c 	.word	0x0000016c
    195c:	0000c776 	.word	0x0000c776
    1960:	0000012c 	.word	0x0000012c
    1964:	00000010 	.word	0x00000010
    1968:	0000c75c 	.word	0x0000c75c
    196c:	0000008c 	.word	0x0000008c

00001970 <TEE_BigIntSquareMod>:
TEE_BigIntSquareMod():
/home/rahulmahadev/devel/optee/optee_os/lib/libutee/tee_api_arith.c:461
    1970:	f84d 4d0c 	str.w	r4, [sp, #-12]!
    1974:	e9cd 7e01 	strd	r7, lr, [sp, #4]
    1978:	b085      	sub	sp, #20
    197a:	af00      	add	r7, sp, #0
    197c:	60f8      	str	r0, [r7, #12]
    197e:	60b9      	str	r1, [r7, #8]
    1980:	607a      	str	r2, [r7, #4]
/home/rahulmahadev/devel/optee/optee_os/lib/libutee/tee_api_arith.c:462
    1982:	687b      	ldr	r3, [r7, #4]
    1984:	68ba      	ldr	r2, [r7, #8]
    1986:	68b9      	ldr	r1, [r7, #8]
    1988:	68f8      	ldr	r0, [r7, #12]
    198a:	4c05      	ldr	r4, [pc, #20]	; (19a0 <TEE_BigIntSquareMod+0x30>)
    198c:	447c      	add	r4, pc
    198e:	47a0      	blx	r4
/home/rahulmahadev/devel/optee/optee_os/lib/libutee/tee_api_arith.c:463
    1990:	f107 0714 	add.w	r7, r7, #20
    1994:	46bd      	mov	sp, r7
    1996:	e9dd 4700 	ldrd	r4, r7, [sp]
    199a:	b002      	add	sp, #8
    199c:	f85d fb04 	ldr.w	pc, [sp], #4
    19a0:	fffffee5 	.word	0xfffffee5

000019a4 <TEE_BigIntInvMod>:
TEE_BigIntInvMod():
/home/rahulmahadev/devel/optee/optee_os/lib/libutee/tee_api_arith.c:470
    19a4:	e96d 4504 	strd	r4, r5, [sp, #-16]!
    19a8:	e9cd 7e02 	strd	r7, lr, [sp, #8]
    19ac:	b088      	sub	sp, #32
    19ae:	af00      	add	r7, sp, #0
    19b0:	60f8      	str	r0, [r7, #12]
    19b2:	60b9      	str	r1, [r7, #8]
    19b4:	607a      	str	r2, [r7, #4]
    19b6:	4d18      	ldr	r5, [pc, #96]	; (1a18 <TEE_BigIntInvMod+0x74>)
    19b8:	447d      	add	r5, pc
/home/rahulmahadev/devel/optee/optee_os/lib/libutee/tee_api_arith.c:471
    19ba:	68fb      	ldr	r3, [r7, #12]
    19bc:	61fb      	str	r3, [r7, #28]
/home/rahulmahadev/devel/optee/optee_os/lib/libutee/tee_api_arith.c:472
    19be:	68bb      	ldr	r3, [r7, #8]
    19c0:	61bb      	str	r3, [r7, #24]
/home/rahulmahadev/devel/optee/optee_os/lib/libutee/tee_api_arith.c:473
    19c2:	687b      	ldr	r3, [r7, #4]
    19c4:	617b      	str	r3, [r7, #20]
/home/rahulmahadev/devel/optee/optee_os/lib/libutee/tee_api_arith.c:475
    19c6:	f04f 0102 	mov.w	r1, #2
    19ca:	6878      	ldr	r0, [r7, #4]
    19cc:	4b13      	ldr	r3, [pc, #76]	; (1a1c <TEE_BigIntInvMod+0x78>)
    19ce:	447b      	add	r3, pc
    19d0:	4798      	blx	r3
    19d2:	4603      	mov	r3, r0
    19d4:	2b00      	cmp	r3, #0
    19d6:	db08      	blt.n	19ea <TEE_BigIntInvMod+0x46>
/home/rahulmahadev/devel/optee/optee_os/lib/libutee/tee_api_arith.c:475 (discriminator 1)
    19d8:	f04f 0100 	mov.w	r1, #0
    19dc:	68b8      	ldr	r0, [r7, #8]
    19de:	4b10      	ldr	r3, [pc, #64]	; (1a20 <TEE_BigIntInvMod+0x7c>)
    19e0:	447b      	add	r3, pc
    19e2:	4798      	blx	r3
    19e4:	4603      	mov	r3, r0
    19e6:	2b00      	cmp	r3, #0
    19e8:	d105      	bne.n	19f6 <TEE_BigIntInvMod+0x52>
/home/rahulmahadev/devel/optee/optee_os/lib/libutee/tee_api_arith.c:476
    19ea:	4b0e      	ldr	r3, [pc, #56]	; (1a24 <TEE_BigIntInvMod+0x80>)
    19ec:	447b      	add	r3, pc
    19ee:	4618      	mov	r0, r3
    19f0:	4b0d      	ldr	r3, [pc, #52]	; (1a28 <TEE_BigIntInvMod+0x84>)
    19f2:	447b      	add	r3, pc
    19f4:	4798      	blx	r3
/home/rahulmahadev/devel/optee/optee_os/lib/libutee/tee_api_arith.c:478
    19f6:	4b0d      	ldr	r3, [pc, #52]	; (1a2c <TEE_BigIntInvMod+0x88>)
    19f8:	447b      	add	r3, pc
    19fa:	681b      	ldr	r3, [r3, #0]
    19fc:	697a      	ldr	r2, [r7, #20]
    19fe:	69b9      	ldr	r1, [r7, #24]
    1a00:	69f8      	ldr	r0, [r7, #28]
    1a02:	4c0b      	ldr	r4, [pc, #44]	; (1a30 <TEE_BigIntInvMod+0x8c>)
    1a04:	592c      	ldr	r4, [r5, r4]
    1a06:	47a0      	blx	r4
/home/rahulmahadev/devel/optee/optee_os/lib/libutee/tee_api_arith.c:479
    1a08:	f107 0720 	add.w	r7, r7, #32
    1a0c:	46bd      	mov	sp, r7
    1a0e:	e9dd 4500 	ldrd	r4, r5, [sp]
    1a12:	b002      	add	sp, #8
    1a14:	bd80      	pop	{r7, pc}
    1a16:	bf00      	nop
    1a18:	0000b830 	.word	0x0000b830
    1a1c:	fffff9bb 	.word	0xfffff9bb
    1a20:	fffff9a9 	.word	0xfffff9a9
    1a24:	0000a248 	.word	0x0000a248
    1a28:	fffff53b 	.word	0xfffff53b
    1a2c:	0000c67c 	.word	0x0000c67c
    1a30:	00000120 	.word	0x00000120

00001a34 <TEE_BigIntRelativePrime>:
TEE_BigIntRelativePrime():
/home/rahulmahadev/devel/optee/optee_os/lib/libutee/tee_api_arith.c:489
    1a34:	e96d 4504 	strd	r4, r5, [sp, #-16]!
    1a38:	e9cd 7e02 	strd	r7, lr, [sp, #8]
    1a3c:	b086      	sub	sp, #24
    1a3e:	af00      	add	r7, sp, #0
    1a40:	6078      	str	r0, [r7, #4]
    1a42:	6039      	str	r1, [r7, #0]
    1a44:	4c1c      	ldr	r4, [pc, #112]	; (1ab8 <TEE_BigIntRelativePrime+0x84>)
    1a46:	447c      	add	r4, pc
/home/rahulmahadev/devel/optee/optee_os/lib/libutee/tee_api_arith.c:490
    1a48:	687b      	ldr	r3, [r7, #4]
    1a4a:	617b      	str	r3, [r7, #20]
/home/rahulmahadev/devel/optee/optee_os/lib/libutee/tee_api_arith.c:491
    1a4c:	683b      	ldr	r3, [r7, #0]
    1a4e:	613b      	str	r3, [r7, #16]
/home/rahulmahadev/devel/optee/optee_os/lib/libutee/tee_api_arith.c:495
    1a50:	4b1a      	ldr	r3, [pc, #104]	; (1abc <TEE_BigIntRelativePrime+0x88>)
    1a52:	447b      	add	r3, pc
    1a54:	681a      	ldr	r2, [r3, #0]
    1a56:	f107 0308 	add.w	r3, r7, #8
    1a5a:	4611      	mov	r1, r2
    1a5c:	4618      	mov	r0, r3
    1a5e:	4b18      	ldr	r3, [pc, #96]	; (1ac0 <TEE_BigIntRelativePrime+0x8c>)
    1a60:	58e3      	ldr	r3, [r4, r3]
    1a62:	4798      	blx	r3
/home/rahulmahadev/devel/optee/optee_os/lib/libutee/tee_api_arith.c:497
    1a64:	68b8      	ldr	r0, [r7, #8]
    1a66:	4b17      	ldr	r3, [pc, #92]	; (1ac4 <TEE_BigIntRelativePrime+0x90>)
    1a68:	447b      	add	r3, pc
    1a6a:	681b      	ldr	r3, [r3, #0]
    1a6c:	693a      	ldr	r2, [r7, #16]
    1a6e:	6979      	ldr	r1, [r7, #20]
    1a70:	4d15      	ldr	r5, [pc, #84]	; (1ac8 <TEE_BigIntRelativePrime+0x94>)
    1a72:	5965      	ldr	r5, [r4, r5]
    1a74:	47a8      	blx	r5
/home/rahulmahadev/devel/optee/optee_os/lib/libutee/tee_api_arith.c:498
    1a76:	68bb      	ldr	r3, [r7, #8]
    1a78:	f04f 0101 	mov.w	r1, #1
    1a7c:	4618      	mov	r0, r3
    1a7e:	4b13      	ldr	r3, [pc, #76]	; (1acc <TEE_BigIntRelativePrime+0x98>)
    1a80:	58e3      	ldr	r3, [r4, r3]
    1a82:	4798      	blx	r3
    1a84:	4603      	mov	r3, r0
    1a86:	60fb      	str	r3, [r7, #12]
/home/rahulmahadev/devel/optee/optee_os/lib/libutee/tee_api_arith.c:500
    1a88:	4b11      	ldr	r3, [pc, #68]	; (1ad0 <TEE_BigIntRelativePrime+0x9c>)
    1a8a:	447b      	add	r3, pc
    1a8c:	681a      	ldr	r2, [r3, #0]
    1a8e:	f107 0308 	add.w	r3, r7, #8
    1a92:	4611      	mov	r1, r2
    1a94:	4618      	mov	r0, r3
    1a96:	4b0f      	ldr	r3, [pc, #60]	; (1ad4 <TEE_BigIntRelativePrime+0xa0>)
    1a98:	58e3      	ldr	r3, [r4, r3]
    1a9a:	4798      	blx	r3
/home/rahulmahadev/devel/optee/optee_os/lib/libutee/tee_api_arith.c:502
    1a9c:	68fb      	ldr	r3, [r7, #12]
    1a9e:	2b00      	cmp	r3, #0
    1aa0:	bf0c      	ite	eq
    1aa2:	2301      	moveq	r3, #1
    1aa4:	2300      	movne	r3, #0
    1aa6:	b2db      	uxtb	r3, r3
/home/rahulmahadev/devel/optee/optee_os/lib/libutee/tee_api_arith.c:503
    1aa8:	4618      	mov	r0, r3
    1aaa:	f107 0718 	add.w	r7, r7, #24
    1aae:	46bd      	mov	sp, r7
    1ab0:	e9dd 4500 	ldrd	r4, r5, [sp]
    1ab4:	b002      	add	sp, #8
    1ab6:	bd80      	pop	{r7, pc}
    1ab8:	0000b7a2 	.word	0x0000b7a2
    1abc:	0000c622 	.word	0x0000c622
    1ac0:	000000d4 	.word	0x000000d4
    1ac4:	0000c60c 	.word	0x0000c60c
    1ac8:	000000d0 	.word	0x000000d0
    1acc:	0000016c 	.word	0x0000016c
    1ad0:	0000c5ea 	.word	0x0000c5ea
    1ad4:	0000008c 	.word	0x0000008c

00001ad8 <TEE_BigIntComputeExtendedGcd>:
TEE_BigIntComputeExtendedGcd():
/home/rahulmahadev/devel/optee/optee_os/lib/libutee/tee_api_arith.c:511
    1ad8:	e96d 4504 	strd	r4, r5, [sp, #-16]!
    1adc:	e9cd 7e02 	strd	r7, lr, [sp, #8]
    1ae0:	b08c      	sub	sp, #48	; 0x30
    1ae2:	af02      	add	r7, sp, #8
    1ae4:	60f8      	str	r0, [r7, #12]
    1ae6:	60b9      	str	r1, [r7, #8]
    1ae8:	607a      	str	r2, [r7, #4]
    1aea:	603b      	str	r3, [r7, #0]
    1aec:	4d0f      	ldr	r5, [pc, #60]	; (1b2c <TEE_BigIntComputeExtendedGcd+0x54>)
    1aee:	447d      	add	r5, pc
/home/rahulmahadev/devel/optee/optee_os/lib/libutee/tee_api_arith.c:512
    1af0:	68fb      	ldr	r3, [r7, #12]
    1af2:	627b      	str	r3, [r7, #36]	; 0x24
/home/rahulmahadev/devel/optee/optee_os/lib/libutee/tee_api_arith.c:513
    1af4:	68bb      	ldr	r3, [r7, #8]
    1af6:	623b      	str	r3, [r7, #32]
/home/rahulmahadev/devel/optee/optee_os/lib/libutee/tee_api_arith.c:514
    1af8:	687b      	ldr	r3, [r7, #4]
    1afa:	61fb      	str	r3, [r7, #28]
/home/rahulmahadev/devel/optee/optee_os/lib/libutee/tee_api_arith.c:515
    1afc:	683b      	ldr	r3, [r7, #0]
    1afe:	61bb      	str	r3, [r7, #24]
/home/rahulmahadev/devel/optee/optee_os/lib/libutee/tee_api_arith.c:516
    1b00:	6bbb      	ldr	r3, [r7, #56]	; 0x38
    1b02:	617b      	str	r3, [r7, #20]
/home/rahulmahadev/devel/optee/optee_os/lib/libutee/tee_api_arith.c:518
    1b04:	4b0a      	ldr	r3, [pc, #40]	; (1b30 <TEE_BigIntComputeExtendedGcd+0x58>)
    1b06:	447b      	add	r3, pc
    1b08:	681b      	ldr	r3, [r3, #0]
    1b0a:	9301      	str	r3, [sp, #4]
    1b0c:	697b      	ldr	r3, [r7, #20]
    1b0e:	9300      	str	r3, [sp, #0]
    1b10:	69bb      	ldr	r3, [r7, #24]
    1b12:	69fa      	ldr	r2, [r7, #28]
    1b14:	6a39      	ldr	r1, [r7, #32]
    1b16:	6a78      	ldr	r0, [r7, #36]	; 0x24
    1b18:	4c06      	ldr	r4, [pc, #24]	; (1b34 <TEE_BigIntComputeExtendedGcd+0x5c>)
    1b1a:	592c      	ldr	r4, [r5, r4]
    1b1c:	47a0      	blx	r4
/home/rahulmahadev/devel/optee/optee_os/lib/libutee/tee_api_arith.c:519
    1b1e:	f107 0728 	add.w	r7, r7, #40	; 0x28
    1b22:	46bd      	mov	sp, r7
    1b24:	e9dd 4500 	ldrd	r4, r5, [sp]
    1b28:	b002      	add	sp, #8
    1b2a:	bd80      	pop	{r7, pc}
    1b2c:	0000b6fa 	.word	0x0000b6fa
    1b30:	0000c56e 	.word	0x0000c56e
    1b34:	000001ac 	.word	0x000001ac

00001b38 <TEE_BigIntIsProbablePrime>:
TEE_BigIntIsProbablePrime():
/home/rahulmahadev/devel/optee/optee_os/lib/libutee/tee_api_arith.c:526
    1b38:	f84d 4d0c 	str.w	r4, [sp, #-12]!
    1b3c:	e9cd 7e01 	strd	r7, lr, [sp, #4]
    1b40:	b085      	sub	sp, #20
    1b42:	af00      	add	r7, sp, #0
    1b44:	6078      	str	r0, [r7, #4]
    1b46:	6039      	str	r1, [r7, #0]
    1b48:	4c11      	ldr	r4, [pc, #68]	; (1b90 <TEE_BigIntIsProbablePrime+0x58>)
    1b4a:	447c      	add	r4, pc
/home/rahulmahadev/devel/optee/optee_os/lib/libutee/tee_api_arith.c:527
    1b4c:	687b      	ldr	r3, [r7, #4]
    1b4e:	60fb      	str	r3, [r7, #12]
/home/rahulmahadev/devel/optee/optee_os/lib/libutee/tee_api_arith.c:529
    1b50:	683b      	ldr	r3, [r7, #0]
    1b52:	2b4f      	cmp	r3, #79	; 0x4f
    1b54:	d802      	bhi.n	1b5c <TEE_BigIntIsProbablePrime+0x24>
/home/rahulmahadev/devel/optee/optee_os/lib/libutee/tee_api_arith.c:530
    1b56:	f04f 0350 	mov.w	r3, #80	; 0x50
    1b5a:	603b      	str	r3, [r7, #0]
/home/rahulmahadev/devel/optee/optee_os/lib/libutee/tee_api_arith.c:532
    1b5c:	683b      	ldr	r3, [r7, #0]
    1b5e:	f5b3 7f80 	cmp.w	r3, #256	; 0x100
    1b62:	d902      	bls.n	1b6a <TEE_BigIntIsProbablePrime+0x32>
/home/rahulmahadev/devel/optee/optee_os/lib/libutee/tee_api_arith.c:533
    1b64:	f44f 7380 	mov.w	r3, #256	; 0x100
    1b68:	603b      	str	r3, [r7, #0]
/home/rahulmahadev/devel/optee/optee_os/lib/libutee/tee_api_arith.c:535
    1b6a:	683b      	ldr	r3, [r7, #0]
    1b6c:	4a09      	ldr	r2, [pc, #36]	; (1b94 <TEE_BigIntIsProbablePrime+0x5c>)
    1b6e:	447a      	add	r2, pc
    1b70:	6812      	ldr	r2, [r2, #0]
    1b72:	4619      	mov	r1, r3
    1b74:	68f8      	ldr	r0, [r7, #12]
    1b76:	4b08      	ldr	r3, [pc, #32]	; (1b98 <TEE_BigIntIsProbablePrime+0x60>)
    1b78:	58e3      	ldr	r3, [r4, r3]
    1b7a:	4798      	blx	r3
    1b7c:	4603      	mov	r3, r0
/home/rahulmahadev/devel/optee/optee_os/lib/libutee/tee_api_arith.c:536
    1b7e:	4618      	mov	r0, r3
    1b80:	f107 0714 	add.w	r7, r7, #20
    1b84:	46bd      	mov	sp, r7
    1b86:	e9dd 4700 	ldrd	r4, r7, [sp]
    1b8a:	b002      	add	sp, #8
    1b8c:	f85d fb04 	ldr.w	pc, [sp], #4
    1b90:	0000b69e 	.word	0x0000b69e
    1b94:	0000c506 	.word	0x0000c506
    1b98:	00000090 	.word	0x00000090

00001b9c <TEE_BigIntConvertToFMM>:
TEE_BigIntConvertToFMM():
/home/rahulmahadev/devel/optee/optee_os/lib/libutee/tee_api_arith.c:549
    1b9c:	e96d 4504 	strd	r4, r5, [sp, #-16]!
    1ba0:	e9cd 7e02 	strd	r7, lr, [sp, #8]
    1ba4:	b08a      	sub	sp, #40	; 0x28
    1ba6:	af02      	add	r7, sp, #8
    1ba8:	60f8      	str	r0, [r7, #12]
    1baa:	60b9      	str	r1, [r7, #8]
    1bac:	607a      	str	r2, [r7, #4]
    1bae:	603b      	str	r3, [r7, #0]
    1bb0:	4d10      	ldr	r5, [pc, #64]	; (1bf4 <TEE_BigIntConvertToFMM+0x58>)
    1bb2:	447d      	add	r5, pc
/home/rahulmahadev/devel/optee/optee_os/lib/libutee/tee_api_arith.c:550
    1bb4:	68fb      	ldr	r3, [r7, #12]
    1bb6:	61fb      	str	r3, [r7, #28]
/home/rahulmahadev/devel/optee/optee_os/lib/libutee/tee_api_arith.c:551
    1bb8:	68bb      	ldr	r3, [r7, #8]
    1bba:	61bb      	str	r3, [r7, #24]
/home/rahulmahadev/devel/optee/optee_os/lib/libutee/tee_api_arith.c:552
    1bbc:	687b      	ldr	r3, [r7, #4]
    1bbe:	617b      	str	r3, [r7, #20]
/home/rahulmahadev/devel/optee/optee_os/lib/libutee/tee_api_arith.c:553
    1bc0:	683b      	ldr	r3, [r7, #0]
    1bc2:	613b      	str	r3, [r7, #16]
/home/rahulmahadev/devel/optee/optee_os/lib/libutee/tee_api_arith.c:556
    1bc4:	693b      	ldr	r3, [r7, #16]
    1bc6:	6859      	ldr	r1, [r3, #4]
    1bc8:	693b      	ldr	r3, [r7, #16]
    1bca:	689b      	ldr	r3, [r3, #8]
    1bcc:	4a0a      	ldr	r2, [pc, #40]	; (1bf8 <TEE_BigIntConvertToFMM+0x5c>)
    1bce:	447a      	add	r2, pc
    1bd0:	6812      	ldr	r2, [r2, #0]
    1bd2:	9201      	str	r2, [sp, #4]
    1bd4:	9300      	str	r3, [sp, #0]
    1bd6:	697b      	ldr	r3, [r7, #20]
    1bd8:	460a      	mov	r2, r1
    1bda:	69b9      	ldr	r1, [r7, #24]
    1bdc:	69f8      	ldr	r0, [r7, #28]
    1bde:	4c07      	ldr	r4, [pc, #28]	; (1bfc <TEE_BigIntConvertToFMM+0x60>)
    1be0:	592c      	ldr	r4, [r5, r4]
    1be2:	47a0      	blx	r4
/home/rahulmahadev/devel/optee/optee_os/lib/libutee/tee_api_arith.c:558
    1be4:	f107 0720 	add.w	r7, r7, #32
    1be8:	46bd      	mov	sp, r7
    1bea:	e9dd 4500 	ldrd	r4, r5, [sp]
    1bee:	b002      	add	sp, #8
    1bf0:	bd80      	pop	{r7, pc}
    1bf2:	bf00      	nop
    1bf4:	0000b636 	.word	0x0000b636
    1bf8:	0000c4a6 	.word	0x0000c4a6
    1bfc:	00000034 	.word	0x00000034

00001c00 <TEE_BigIntConvertFromFMM>:
TEE_BigIntConvertFromFMM():
/home/rahulmahadev/devel/optee/optee_os/lib/libutee/tee_api_arith.c:567
    1c00:	e96d 4504 	strd	r4, r5, [sp, #-16]!
    1c04:	e9cd 7e02 	strd	r7, lr, [sp, #8]
    1c08:	b08c      	sub	sp, #48	; 0x30
    1c0a:	af02      	add	r7, sp, #8
    1c0c:	60f8      	str	r0, [r7, #12]
    1c0e:	60b9      	str	r1, [r7, #8]
    1c10:	607a      	str	r2, [r7, #4]
    1c12:	603b      	str	r3, [r7, #0]
    1c14:	4c1e      	ldr	r4, [pc, #120]	; (1c90 <TEE_BigIntConvertFromFMM+0x90>)
    1c16:	447c      	add	r4, pc
/home/rahulmahadev/devel/optee/optee_os/lib/libutee/tee_api_arith.c:568
    1c18:	68fb      	ldr	r3, [r7, #12]
    1c1a:	627b      	str	r3, [r7, #36]	; 0x24
/home/rahulmahadev/devel/optee/optee_os/lib/libutee/tee_api_arith.c:569
    1c1c:	68bb      	ldr	r3, [r7, #8]
    1c1e:	623b      	str	r3, [r7, #32]
/home/rahulmahadev/devel/optee/optee_os/lib/libutee/tee_api_arith.c:570
    1c20:	687b      	ldr	r3, [r7, #4]
    1c22:	61fb      	str	r3, [r7, #28]
/home/rahulmahadev/devel/optee/optee_os/lib/libutee/tee_api_arith.c:571
    1c24:	683b      	ldr	r3, [r7, #0]
    1c26:	61bb      	str	r3, [r7, #24]
/home/rahulmahadev/devel/optee/optee_os/lib/libutee/tee_api_arith.c:579
    1c28:	4b1a      	ldr	r3, [pc, #104]	; (1c94 <TEE_BigIntConvertFromFMM+0x94>)
    1c2a:	447b      	add	r3, pc
    1c2c:	681a      	ldr	r2, [r3, #0]
    1c2e:	f107 0314 	add.w	r3, r7, #20
    1c32:	4611      	mov	r1, r2
    1c34:	4618      	mov	r0, r3
    1c36:	4b18      	ldr	r3, [pc, #96]	; (1c98 <TEE_BigIntConvertFromFMM+0x98>)
    1c38:	58e3      	ldr	r3, [r4, r3]
    1c3a:	4798      	blx	r3
/home/rahulmahadev/devel/optee/optee_os/lib/libutee/tee_api_arith.c:582
    1c3c:	697d      	ldr	r5, [r7, #20]
    1c3e:	4b17      	ldr	r3, [pc, #92]	; (1c9c <TEE_BigIntConvertFromFMM+0x9c>)
    1c40:	58e3      	ldr	r3, [r4, r3]
    1c42:	4798      	blx	r3
    1c44:	4601      	mov	r1, r0
    1c46:	69bb      	ldr	r3, [r7, #24]
    1c48:	689b      	ldr	r3, [r3, #8]
    1c4a:	4a15      	ldr	r2, [pc, #84]	; (1ca0 <TEE_BigIntConvertFromFMM+0xa0>)
    1c4c:	447a      	add	r2, pc
    1c4e:	6812      	ldr	r2, [r2, #0]
    1c50:	9201      	str	r2, [sp, #4]
    1c52:	9300      	str	r3, [sp, #0]
    1c54:	69fb      	ldr	r3, [r7, #28]
    1c56:	6a3a      	ldr	r2, [r7, #32]
    1c58:	4628      	mov	r0, r5
    1c5a:	4d12      	ldr	r5, [pc, #72]	; (1ca4 <TEE_BigIntConvertFromFMM+0xa4>)
    1c5c:	5965      	ldr	r5, [r4, r5]
    1c5e:	47a8      	blx	r5
/home/rahulmahadev/devel/optee/optee_os/lib/libutee/tee_api_arith.c:585
    1c60:	697b      	ldr	r3, [r7, #20]
    1c62:	4619      	mov	r1, r3
    1c64:	6a78      	ldr	r0, [r7, #36]	; 0x24
    1c66:	4b10      	ldr	r3, [pc, #64]	; (1ca8 <TEE_BigIntConvertFromFMM+0xa8>)
    1c68:	58e3      	ldr	r3, [r4, r3]
    1c6a:	4798      	blx	r3
/home/rahulmahadev/devel/optee/optee_os/lib/libutee/tee_api_arith.c:586
    1c6c:	4b0f      	ldr	r3, [pc, #60]	; (1cac <TEE_BigIntConvertFromFMM+0xac>)
    1c6e:	447b      	add	r3, pc
    1c70:	681a      	ldr	r2, [r3, #0]
    1c72:	f107 0314 	add.w	r3, r7, #20
    1c76:	4611      	mov	r1, r2
    1c78:	4618      	mov	r0, r3
    1c7a:	4b0d      	ldr	r3, [pc, #52]	; (1cb0 <TEE_BigIntConvertFromFMM+0xb0>)
    1c7c:	58e3      	ldr	r3, [r4, r3]
    1c7e:	4798      	blx	r3
/home/rahulmahadev/devel/optee/optee_os/lib/libutee/tee_api_arith.c:587
    1c80:	f107 0728 	add.w	r7, r7, #40	; 0x28
    1c84:	46bd      	mov	sp, r7
    1c86:	e9dd 4500 	ldrd	r4, r5, [sp]
    1c8a:	b002      	add	sp, #8
    1c8c:	bd80      	pop	{r7, pc}
    1c8e:	bf00      	nop
    1c90:	0000b5d2 	.word	0x0000b5d2
    1c94:	0000c44a 	.word	0x0000c44a
    1c98:	000000d4 	.word	0x000000d4
    1c9c:	000001cc 	.word	0x000001cc
    1ca0:	0000c428 	.word	0x0000c428
    1ca4:	00000034 	.word	0x00000034
    1ca8:	00000010 	.word	0x00000010
    1cac:	0000c406 	.word	0x0000c406
    1cb0:	0000008c 	.word	0x0000008c

00001cb4 <TEE_BigIntComputeFMM>:
TEE_BigIntComputeFMM():
/home/rahulmahadev/devel/optee/optee_os/lib/libutee/tee_api_arith.c:597
    1cb4:	e96d 4504 	strd	r4, r5, [sp, #-16]!
    1cb8:	e9cd 7e02 	strd	r7, lr, [sp, #8]
    1cbc:	b08c      	sub	sp, #48	; 0x30
    1cbe:	af02      	add	r7, sp, #8
    1cc0:	60f8      	str	r0, [r7, #12]
    1cc2:	60b9      	str	r1, [r7, #8]
    1cc4:	607a      	str	r2, [r7, #4]
    1cc6:	603b      	str	r3, [r7, #0]
    1cc8:	4d10      	ldr	r5, [pc, #64]	; (1d0c <TEE_BigIntComputeFMM+0x58>)
    1cca:	447d      	add	r5, pc
/home/rahulmahadev/devel/optee/optee_os/lib/libutee/tee_api_arith.c:598
    1ccc:	68fb      	ldr	r3, [r7, #12]
    1cce:	627b      	str	r3, [r7, #36]	; 0x24
/home/rahulmahadev/devel/optee/optee_os/lib/libutee/tee_api_arith.c:599
    1cd0:	68bb      	ldr	r3, [r7, #8]
    1cd2:	623b      	str	r3, [r7, #32]
/home/rahulmahadev/devel/optee/optee_os/lib/libutee/tee_api_arith.c:600
    1cd4:	687b      	ldr	r3, [r7, #4]
    1cd6:	61fb      	str	r3, [r7, #28]
/home/rahulmahadev/devel/optee/optee_os/lib/libutee/tee_api_arith.c:601
    1cd8:	683b      	ldr	r3, [r7, #0]
    1cda:	61bb      	str	r3, [r7, #24]
/home/rahulmahadev/devel/optee/optee_os/lib/libutee/tee_api_arith.c:602
    1cdc:	6bbb      	ldr	r3, [r7, #56]	; 0x38
    1cde:	617b      	str	r3, [r7, #20]
/home/rahulmahadev/devel/optee/optee_os/lib/libutee/tee_api_arith.c:604
    1ce0:	697b      	ldr	r3, [r7, #20]
    1ce2:	689b      	ldr	r3, [r3, #8]
    1ce4:	4a0a      	ldr	r2, [pc, #40]	; (1d10 <TEE_BigIntComputeFMM+0x5c>)
    1ce6:	447a      	add	r2, pc
    1ce8:	6812      	ldr	r2, [r2, #0]
    1cea:	9201      	str	r2, [sp, #4]
    1cec:	9300      	str	r3, [sp, #0]
    1cee:	69bb      	ldr	r3, [r7, #24]
    1cf0:	69fa      	ldr	r2, [r7, #28]
    1cf2:	6a39      	ldr	r1, [r7, #32]
    1cf4:	6a78      	ldr	r0, [r7, #36]	; 0x24
    1cf6:	4c07      	ldr	r4, [pc, #28]	; (1d14 <TEE_BigIntComputeFMM+0x60>)
    1cf8:	592c      	ldr	r4, [r5, r4]
    1cfa:	47a0      	blx	r4
/home/rahulmahadev/devel/optee/optee_os/lib/libutee/tee_api_arith.c:606
    1cfc:	f107 0728 	add.w	r7, r7, #40	; 0x28
    1d00:	46bd      	mov	sp, r7
    1d02:	e9dd 4500 	ldrd	r4, r5, [sp]
    1d06:	b002      	add	sp, #8
    1d08:	bd80      	pop	{r7, pc}
    1d0a:	bf00      	nop
    1d0c:	0000b51e 	.word	0x0000b51e
    1d10:	0000c38e 	.word	0x0000c38e
    1d14:	00000034 	.word	0x00000034

00001d18 <__utee_from_param>:
__utee_from_param():
/home/rahulmahadev/devel/optee/optee_os/lib/libutee/tee_api.c:42
    1d18:	e96d 4702 	strd	r4, r7, [sp, #-8]!
    1d1c:	b086      	sub	sp, #24
    1d1e:	af00      	add	r7, sp, #0
    1d20:	60f8      	str	r0, [r7, #12]
    1d22:	60b9      	str	r1, [r7, #8]
    1d24:	607a      	str	r2, [r7, #4]
/home/rahulmahadev/devel/optee/optee_os/lib/libutee/tee_api.c:45
    1d26:	68bb      	ldr	r3, [r7, #8]
    1d28:	f04f 0400 	mov.w	r4, #0
    1d2c:	68fa      	ldr	r2, [r7, #12]
    1d2e:	e9c2 3400 	strd	r3, r4, [r2]
/home/rahulmahadev/devel/optee/optee_os/lib/libutee/tee_api.c:46
    1d32:	f04f 0300 	mov.w	r3, #0
    1d36:	617b      	str	r3, [r7, #20]
    1d38:	e097      	b.n	1e6a <__utee_from_param+0x152>
/home/rahulmahadev/devel/optee/optee_os/lib/libutee/tee_api.c:47
    1d3a:	697b      	ldr	r3, [r7, #20]
    1d3c:	ea4f 0383 	mov.w	r3, r3, lsl #2
    1d40:	461a      	mov	r2, r3
    1d42:	68bb      	ldr	r3, [r7, #8]
    1d44:	fa23 f302 	lsr.w	r3, r3, r2
    1d48:	f003 030f 	and.w	r3, r3, #15
    1d4c:	f103 33ff 	add.w	r3, r3, #4294967295
    1d50:	2b06      	cmp	r3, #6
    1d52:	d865      	bhi.n	1e20 <__utee_from_param+0x108>
    1d54:	a202      	add	r2, pc, #8	; (adr r2, 1d60 <__utee_from_param+0x48>)
    1d56:	f852 3023 	ldr.w	r3, [r2, r3, lsl #2]
    1d5a:	441a      	add	r2, r3
    1d5c:	4710      	bx	r2
    1d5e:	bf00      	nop
    1d60:	0000001d 	.word	0x0000001d
    1d64:	0000001d 	.word	0x0000001d
    1d68:	0000001d 	.word	0x0000001d
    1d6c:	000000c1 	.word	0x000000c1
    1d70:	0000006f 	.word	0x0000006f
    1d74:	0000006f 	.word	0x0000006f
    1d78:	0000006f 	.word	0x0000006f
/home/rahulmahadev/devel/optee/optee_os/lib/libutee/tee_api.c:51
    1d7c:	697b      	ldr	r3, [r7, #20]
    1d7e:	ea4f 0243 	mov.w	r2, r3, lsl #1
    1d82:	697b      	ldr	r3, [r7, #20]
    1d84:	ea4f 03c3 	mov.w	r3, r3, lsl #3
    1d88:	6879      	ldr	r1, [r7, #4]
    1d8a:	440b      	add	r3, r1
    1d8c:	681b      	ldr	r3, [r3, #0]
    1d8e:	f04f 0400 	mov.w	r4, #0
    1d92:	68f9      	ldr	r1, [r7, #12]
    1d94:	f102 0201 	add.w	r2, r2, #1
    1d98:	ea4f 02c2 	mov.w	r2, r2, lsl #3
    1d9c:	440a      	add	r2, r1
    1d9e:	e9c2 3400 	strd	r3, r4, [r2]
/home/rahulmahadev/devel/optee/optee_os/lib/libutee/tee_api.c:52
    1da2:	697b      	ldr	r3, [r7, #20]
    1da4:	ea4f 0343 	mov.w	r3, r3, lsl #1
    1da8:	f103 0201 	add.w	r2, r3, #1
    1dac:	697b      	ldr	r3, [r7, #20]
    1dae:	ea4f 03c3 	mov.w	r3, r3, lsl #3
    1db2:	6879      	ldr	r1, [r7, #4]
    1db4:	440b      	add	r3, r1
    1db6:	685b      	ldr	r3, [r3, #4]
    1db8:	f04f 0400 	mov.w	r4, #0
    1dbc:	68f9      	ldr	r1, [r7, #12]
    1dbe:	f102 0201 	add.w	r2, r2, #1
    1dc2:	ea4f 02c2 	mov.w	r2, r2, lsl #3
    1dc6:	440a      	add	r2, r1
    1dc8:	e9c2 3400 	strd	r3, r4, [r2]
/home/rahulmahadev/devel/optee/optee_os/lib/libutee/tee_api.c:53
    1dcc:	e049      	b.n	1e62 <__utee_from_param+0x14a>
/home/rahulmahadev/devel/optee/optee_os/lib/libutee/tee_api.c:57
    1dce:	697b      	ldr	r3, [r7, #20]
    1dd0:	ea4f 0243 	mov.w	r2, r3, lsl #1
    1dd4:	697b      	ldr	r3, [r7, #20]
    1dd6:	ea4f 03c3 	mov.w	r3, r3, lsl #3
    1dda:	6879      	ldr	r1, [r7, #4]
    1ddc:	440b      	add	r3, r1
    1dde:	681b      	ldr	r3, [r3, #0]
    1de0:	f04f 0400 	mov.w	r4, #0
    1de4:	68f9      	ldr	r1, [r7, #12]
    1de6:	f102 0201 	add.w	r2, r2, #1
    1dea:	ea4f 02c2 	mov.w	r2, r2, lsl #3
    1dee:	440a      	add	r2, r1
    1df0:	e9c2 3400 	strd	r3, r4, [r2]
/home/rahulmahadev/devel/optee/optee_os/lib/libutee/tee_api.c:58
    1df4:	697b      	ldr	r3, [r7, #20]
    1df6:	ea4f 0343 	mov.w	r3, r3, lsl #1
    1dfa:	f103 0201 	add.w	r2, r3, #1
    1dfe:	697b      	ldr	r3, [r7, #20]
    1e00:	ea4f 03c3 	mov.w	r3, r3, lsl #3
    1e04:	6879      	ldr	r1, [r7, #4]
    1e06:	440b      	add	r3, r1
    1e08:	685b      	ldr	r3, [r3, #4]
    1e0a:	f04f 0400 	mov.w	r4, #0
    1e0e:	68f9      	ldr	r1, [r7, #12]
    1e10:	f102 0201 	add.w	r2, r2, #1
    1e14:	ea4f 02c2 	mov.w	r2, r2, lsl #3
    1e18:	440a      	add	r2, r1
    1e1a:	e9c2 3400 	strd	r3, r4, [r2]
/home/rahulmahadev/devel/optee/optee_os/lib/libutee/tee_api.c:59
    1e1e:	e020      	b.n	1e62 <__utee_from_param+0x14a>
/home/rahulmahadev/devel/optee/optee_os/lib/libutee/tee_api.c:61
    1e20:	697b      	ldr	r3, [r7, #20]
    1e22:	ea4f 0343 	mov.w	r3, r3, lsl #1
    1e26:	68fa      	ldr	r2, [r7, #12]
    1e28:	f103 0301 	add.w	r3, r3, #1
    1e2c:	ea4f 03c3 	mov.w	r3, r3, lsl #3
    1e30:	441a      	add	r2, r3
    1e32:	f04f 0300 	mov.w	r3, #0
    1e36:	f04f 0400 	mov.w	r4, #0
    1e3a:	e9c2 3400 	strd	r3, r4, [r2]
/home/rahulmahadev/devel/optee/optee_os/lib/libutee/tee_api.c:62
    1e3e:	697b      	ldr	r3, [r7, #20]
    1e40:	ea4f 0343 	mov.w	r3, r3, lsl #1
    1e44:	f103 0301 	add.w	r3, r3, #1
    1e48:	68fa      	ldr	r2, [r7, #12]
    1e4a:	f103 0301 	add.w	r3, r3, #1
    1e4e:	ea4f 03c3 	mov.w	r3, r3, lsl #3
    1e52:	441a      	add	r2, r3
    1e54:	f04f 0300 	mov.w	r3, #0
    1e58:	f04f 0400 	mov.w	r4, #0
    1e5c:	e9c2 3400 	strd	r3, r4, [r2]
/home/rahulmahadev/devel/optee/optee_os/lib/libutee/tee_api.c:63
    1e60:	bf00      	nop
/home/rahulmahadev/devel/optee/optee_os/lib/libutee/tee_api.c:46 (discriminator 2)
    1e62:	697b      	ldr	r3, [r7, #20]
    1e64:	f103 0301 	add.w	r3, r3, #1
    1e68:	617b      	str	r3, [r7, #20]
/home/rahulmahadev/devel/optee/optee_os/lib/libutee/tee_api.c:46 (discriminator 1)
    1e6a:	697b      	ldr	r3, [r7, #20]
    1e6c:	2b03      	cmp	r3, #3
    1e6e:	f67f af64 	bls.w	1d3a <__utee_from_param+0x22>
/home/rahulmahadev/devel/optee/optee_os/lib/libutee/tee_api.c:66
    1e72:	f107 0718 	add.w	r7, r7, #24
    1e76:	46bd      	mov	sp, r7
    1e78:	e9dd 4700 	ldrd	r4, r7, [sp]
    1e7c:	b002      	add	sp, #8
    1e7e:	4770      	bx	lr

00001e80 <__utee_to_param>:
__utee_to_param():
/home/rahulmahadev/devel/optee/optee_os/lib/libutee/tee_api.c:70
    1e80:	e96d 4702 	strd	r4, r7, [sp, #-8]!
    1e84:	b088      	sub	sp, #32
    1e86:	af00      	add	r7, sp, #0
    1e88:	60f8      	str	r0, [r7, #12]
    1e8a:	60b9      	str	r1, [r7, #8]
    1e8c:	607a      	str	r2, [r7, #4]
/home/rahulmahadev/devel/optee/optee_os/lib/libutee/tee_api.c:72
    1e8e:	687b      	ldr	r3, [r7, #4]
    1e90:	e9d3 3400 	ldrd	r3, r4, [r3]
    1e94:	61bb      	str	r3, [r7, #24]
/home/rahulmahadev/devel/optee/optee_os/lib/libutee/tee_api.c:74
    1e96:	f04f 0300 	mov.w	r3, #0
    1e9a:	61fb      	str	r3, [r7, #28]
    1e9c:	e05d      	b.n	1f5a <__utee_to_param+0xda>
/home/rahulmahadev/devel/optee/optee_os/lib/libutee/tee_api.c:75
    1e9e:	69fb      	ldr	r3, [r7, #28]
    1ea0:	ea4f 0343 	mov.w	r3, r3, lsl #1
    1ea4:	687a      	ldr	r2, [r7, #4]
    1ea6:	f103 0301 	add.w	r3, r3, #1
    1eaa:	ea4f 03c3 	mov.w	r3, r3, lsl #3
    1eae:	4413      	add	r3, r2
    1eb0:	e9d3 3400 	ldrd	r3, r4, [r3]
    1eb4:	617b      	str	r3, [r7, #20]
/home/rahulmahadev/devel/optee/optee_os/lib/libutee/tee_api.c:76
    1eb6:	69fb      	ldr	r3, [r7, #28]
    1eb8:	ea4f 0343 	mov.w	r3, r3, lsl #1
    1ebc:	f103 0301 	add.w	r3, r3, #1
    1ec0:	687a      	ldr	r2, [r7, #4]
    1ec2:	f103 0301 	add.w	r3, r3, #1
    1ec6:	ea4f 03c3 	mov.w	r3, r3, lsl #3
    1eca:	4413      	add	r3, r2
    1ecc:	e9d3 3400 	ldrd	r3, r4, [r3]
    1ed0:	613b      	str	r3, [r7, #16]
/home/rahulmahadev/devel/optee/optee_os/lib/libutee/tee_api.c:78
    1ed2:	69fb      	ldr	r3, [r7, #28]
    1ed4:	ea4f 0383 	mov.w	r3, r3, lsl #2
    1ed8:	461a      	mov	r2, r3
    1eda:	69bb      	ldr	r3, [r7, #24]
    1edc:	fa23 f302 	lsr.w	r3, r3, r2
    1ee0:	f003 030f 	and.w	r3, r3, #15
    1ee4:	f103 33ff 	add.w	r3, r3, #4294967295
    1ee8:	2b06      	cmp	r3, #6
    1eea:	d831      	bhi.n	1f50 <__utee_to_param+0xd0>
    1eec:	a202      	add	r2, pc, #8	; (adr r2, 1ef8 <__utee_to_param+0x78>)
    1eee:	f852 3023 	ldr.w	r3, [r2, r3, lsl #2]
    1ef2:	441a      	add	r2, r3
    1ef4:	4710      	bx	r2
    1ef6:	bf00      	nop
    1ef8:	0000001d 	.word	0x0000001d
    1efc:	0000001d 	.word	0x0000001d
    1f00:	0000001d 	.word	0x0000001d
    1f04:	00000059 	.word	0x00000059
    1f08:	0000003b 	.word	0x0000003b
    1f0c:	0000003b 	.word	0x0000003b
    1f10:	0000003b 	.word	0x0000003b
/home/rahulmahadev/devel/optee/optee_os/lib/libutee/tee_api.c:82
    1f14:	69fb      	ldr	r3, [r7, #28]
    1f16:	ea4f 03c3 	mov.w	r3, r3, lsl #3
    1f1a:	68fa      	ldr	r2, [r7, #12]
    1f1c:	4413      	add	r3, r2
    1f1e:	697a      	ldr	r2, [r7, #20]
    1f20:	601a      	str	r2, [r3, #0]
/home/rahulmahadev/devel/optee/optee_os/lib/libutee/tee_api.c:83
    1f22:	69fb      	ldr	r3, [r7, #28]
    1f24:	ea4f 03c3 	mov.w	r3, r3, lsl #3
    1f28:	68fa      	ldr	r2, [r7, #12]
    1f2a:	4413      	add	r3, r2
    1f2c:	693a      	ldr	r2, [r7, #16]
    1f2e:	605a      	str	r2, [r3, #4]
/home/rahulmahadev/devel/optee/optee_os/lib/libutee/tee_api.c:84
    1f30:	e00f      	b.n	1f52 <__utee_to_param+0xd2>
/home/rahulmahadev/devel/optee/optee_os/lib/libutee/tee_api.c:88
    1f32:	69fb      	ldr	r3, [r7, #28]
    1f34:	ea4f 03c3 	mov.w	r3, r3, lsl #3
    1f38:	68fa      	ldr	r2, [r7, #12]
    1f3a:	4413      	add	r3, r2
    1f3c:	697a      	ldr	r2, [r7, #20]
    1f3e:	601a      	str	r2, [r3, #0]
/home/rahulmahadev/devel/optee/optee_os/lib/libutee/tee_api.c:89
    1f40:	69fb      	ldr	r3, [r7, #28]
    1f42:	ea4f 03c3 	mov.w	r3, r3, lsl #3
    1f46:	68fa      	ldr	r2, [r7, #12]
    1f48:	4413      	add	r3, r2
    1f4a:	693a      	ldr	r2, [r7, #16]
    1f4c:	605a      	str	r2, [r3, #4]
/home/rahulmahadev/devel/optee/optee_os/lib/libutee/tee_api.c:90
    1f4e:	e000      	b.n	1f52 <__utee_to_param+0xd2>
/home/rahulmahadev/devel/optee/optee_os/lib/libutee/tee_api.c:92
    1f50:	bf00      	nop
/home/rahulmahadev/devel/optee/optee_os/lib/libutee/tee_api.c:74 (discriminator 2)
    1f52:	69fb      	ldr	r3, [r7, #28]
    1f54:	f103 0301 	add.w	r3, r3, #1
    1f58:	61fb      	str	r3, [r7, #28]
/home/rahulmahadev/devel/optee/optee_os/lib/libutee/tee_api.c:74 (discriminator 1)
    1f5a:	69fb      	ldr	r3, [r7, #28]
    1f5c:	2b03      	cmp	r3, #3
    1f5e:	d99e      	bls.n	1e9e <__utee_to_param+0x1e>
/home/rahulmahadev/devel/optee/optee_os/lib/libutee/tee_api.c:96
    1f60:	68bb      	ldr	r3, [r7, #8]
    1f62:	2b00      	cmp	r3, #0
    1f64:	d002      	beq.n	1f6c <__utee_to_param+0xec>
/home/rahulmahadev/devel/optee/optee_os/lib/libutee/tee_api.c:97
    1f66:	68bb      	ldr	r3, [r7, #8]
    1f68:	69ba      	ldr	r2, [r7, #24]
    1f6a:	601a      	str	r2, [r3, #0]
/home/rahulmahadev/devel/optee/optee_os/lib/libutee/tee_api.c:98
    1f6c:	f107 0720 	add.w	r7, r7, #32
    1f70:	46bd      	mov	sp, r7
    1f72:	e9dd 4700 	ldrd	r4, r7, [sp]
    1f76:	b002      	add	sp, #8
    1f78:	4770      	bx	lr
$t():
    1f7a:	bf00      	nop

00001f7c <TEE_OpenTASession>:
TEE_OpenTASession():
/home/rahulmahadev/devel/optee/optee_os/lib/libutee/tee_api.c:105
    1f7c:	e96d 4504 	strd	r4, r5, [sp, #-16]!
    1f80:	e9cd 7e02 	strd	r7, lr, [sp, #8]
    1f84:	b09c      	sub	sp, #112	; 0x70
    1f86:	af02      	add	r7, sp, #8
    1f88:	60f8      	str	r0, [r7, #12]
    1f8a:	60b9      	str	r1, [r7, #8]
    1f8c:	607a      	str	r2, [r7, #4]
    1f8e:	603b      	str	r3, [r7, #0]
    1f90:	4d19      	ldr	r5, [pc, #100]	; (1ff8 <TEE_OpenTASession+0x7c>)
    1f92:	447d      	add	r5, pc
/home/rahulmahadev/devel/optee/optee_os/lib/libutee/tee_api.c:110
    1f94:	f107 0318 	add.w	r3, r7, #24
    1f98:	683a      	ldr	r2, [r7, #0]
    1f9a:	6879      	ldr	r1, [r7, #4]
    1f9c:	4618      	mov	r0, r3
    1f9e:	4b17      	ldr	r3, [pc, #92]	; (1ffc <TEE_OpenTASession+0x80>)
    1fa0:	447b      	add	r3, pc
    1fa2:	4798      	blx	r3
/home/rahulmahadev/devel/optee/optee_os/lib/libutee/tee_api.c:111
    1fa4:	f107 0114 	add.w	r1, r7, #20
    1fa8:	f107 0218 	add.w	r2, r7, #24
    1fac:	6ffb      	ldr	r3, [r7, #124]	; 0x7c
    1fae:	9300      	str	r3, [sp, #0]
    1fb0:	460b      	mov	r3, r1
    1fb2:	68b9      	ldr	r1, [r7, #8]
    1fb4:	68f8      	ldr	r0, [r7, #12]
    1fb6:	4c12      	ldr	r4, [pc, #72]	; (2000 <TEE_OpenTASession+0x84>)
    1fb8:	592c      	ldr	r4, [r5, r4]
    1fba:	47a0      	blx	r4
    1fbc:	6678      	str	r0, [r7, #100]	; 0x64
/home/rahulmahadev/devel/optee/optee_os/lib/libutee/tee_api.c:113
    1fbe:	f107 0318 	add.w	r3, r7, #24
    1fc2:	461a      	mov	r2, r3
    1fc4:	f04f 0100 	mov.w	r1, #0
    1fc8:	6838      	ldr	r0, [r7, #0]
    1fca:	4b0e      	ldr	r3, [pc, #56]	; (2004 <TEE_OpenTASession+0x88>)
    1fcc:	447b      	add	r3, pc
    1fce:	4798      	blx	r3
/home/rahulmahadev/devel/optee/optee_os/lib/libutee/tee_api.c:119
    1fd0:	6e7b      	ldr	r3, [r7, #100]	; 0x64
    1fd2:	2b00      	cmp	r3, #0
    1fd4:	d002      	beq.n	1fdc <TEE_OpenTASession+0x60>
/home/rahulmahadev/devel/optee/optee_os/lib/libutee/tee_api.c:120
    1fd6:	f04f 0300 	mov.w	r3, #0
    1fda:	617b      	str	r3, [r7, #20]
/home/rahulmahadev/devel/optee/optee_os/lib/libutee/tee_api.c:122
    1fdc:	697b      	ldr	r3, [r7, #20]
    1fde:	461a      	mov	r2, r3
    1fe0:	6fbb      	ldr	r3, [r7, #120]	; 0x78
    1fe2:	601a      	str	r2, [r3, #0]
/home/rahulmahadev/devel/optee/optee_os/lib/libutee/tee_api.c:123
    1fe4:	6e7b      	ldr	r3, [r7, #100]	; 0x64
/home/rahulmahadev/devel/optee/optee_os/lib/libutee/tee_api.c:124
    1fe6:	4618      	mov	r0, r3
    1fe8:	f107 0768 	add.w	r7, r7, #104	; 0x68
    1fec:	46bd      	mov	sp, r7
    1fee:	e9dd 4500 	ldrd	r4, r5, [sp]
    1ff2:	b002      	add	sp, #8
    1ff4:	bd80      	pop	{r7, pc}
    1ff6:	bf00      	nop
    1ff8:	0000b256 	.word	0x0000b256
    1ffc:	fffffd75 	.word	0xfffffd75
    2000:	000001a0 	.word	0x000001a0
    2004:	fffffeb1 	.word	0xfffffeb1

00002008 <TEE_CloseTASession>:
TEE_CloseTASession():
/home/rahulmahadev/devel/optee/optee_os/lib/libutee/tee_api.c:127
    2008:	e96d 4504 	strd	r4, r5, [sp, #-16]!
    200c:	e9cd 7e02 	strd	r7, lr, [sp, #8]
    2010:	b086      	sub	sp, #24
    2012:	af02      	add	r7, sp, #8
    2014:	6078      	str	r0, [r7, #4]
    2016:	4c14      	ldr	r4, [pc, #80]	; (2068 <TEE_CloseTASession+0x60>)
    2018:	447c      	add	r4, pc
/home/rahulmahadev/devel/optee/optee_os/lib/libutee/tee_api.c:128
    201a:	687b      	ldr	r3, [r7, #4]
    201c:	2b00      	cmp	r3, #0
    201e:	d01c      	beq.n	205a <TEE_CloseTASession+0x52>
/home/rahulmahadev/devel/optee/optee_os/lib/libutee/tee_api.c:129
    2020:	687b      	ldr	r3, [r7, #4]
    2022:	4618      	mov	r0, r3
    2024:	4b11      	ldr	r3, [pc, #68]	; (206c <TEE_CloseTASession+0x64>)
    2026:	58e3      	ldr	r3, [r4, r3]
    2028:	4798      	blx	r3
    202a:	60f8      	str	r0, [r7, #12]
/home/rahulmahadev/devel/optee/optee_os/lib/libutee/tee_api.c:131
    202c:	68fb      	ldr	r3, [r7, #12]
    202e:	2b00      	cmp	r3, #0
    2030:	d013      	beq.n	205a <TEE_CloseTASession+0x52>
/home/rahulmahadev/devel/optee/optee_os/lib/libutee/tee_api.c:132
    2032:	68fb      	ldr	r3, [r7, #12]
    2034:	9301      	str	r3, [sp, #4]
    2036:	4b0e      	ldr	r3, [pc, #56]	; (2070 <TEE_CloseTASession+0x68>)
    2038:	447b      	add	r3, pc
    203a:	9300      	str	r3, [sp, #0]
    203c:	f04f 0301 	mov.w	r3, #1
    2040:	f04f 0201 	mov.w	r2, #1
    2044:	f04f 0184 	mov.w	r1, #132	; 0x84
    2048:	480a      	ldr	r0, [pc, #40]	; (2074 <TEE_CloseTASession+0x6c>)
    204a:	4478      	add	r0, pc
    204c:	4d0a      	ldr	r5, [pc, #40]	; (2078 <TEE_CloseTASession+0x70>)
    204e:	5965      	ldr	r5, [r4, r5]
    2050:	47a8      	blx	r5
    2052:	68f8      	ldr	r0, [r7, #12]
    2054:	4b09      	ldr	r3, [pc, #36]	; (207c <TEE_CloseTASession+0x74>)
    2056:	58e3      	ldr	r3, [r4, r3]
    2058:	4798      	blx	r3
/home/rahulmahadev/devel/optee/optee_os/lib/libutee/tee_api.c:134
    205a:	f107 0710 	add.w	r7, r7, #16
    205e:	46bd      	mov	sp, r7
    2060:	e9dd 4500 	ldrd	r4, r5, [sp]
    2064:	b002      	add	sp, #8
    2066:	bd80      	pop	{r7, pc}
    2068:	0000b1d0 	.word	0x0000b1d0
    206c:	000000e8 	.word	0x000000e8
    2070:	00009c9c 	.word	0x00009c9c
    2074:	00009c96 	.word	0x00009c96
    2078:	0000005c 	.word	0x0000005c
    207c:	0000017c 	.word	0x0000017c

00002080 <TEE_InvokeTACommand>:
TEE_InvokeTACommand():
/home/rahulmahadev/devel/optee/optee_os/lib/libutee/tee_api.c:140
    2080:	e96d 4504 	strd	r4, r5, [sp, #-16]!
    2084:	e9cd 7e02 	strd	r7, lr, [sp, #8]
    2088:	b09a      	sub	sp, #104	; 0x68
    208a:	af02      	add	r7, sp, #8
    208c:	60f8      	str	r0, [r7, #12]
    208e:	60b9      	str	r1, [r7, #8]
    2090:	607a      	str	r2, [r7, #4]
    2092:	603b      	str	r3, [r7, #0]
    2094:	4c2c      	ldr	r4, [pc, #176]	; (2148 <TEE_InvokeTACommand+0xc8>)
    2096:	447c      	add	r4, pc
/home/rahulmahadev/devel/optee/optee_os/lib/libutee/tee_api.c:145
    2098:	f107 0310 	add.w	r3, r7, #16
    209c:	6f3a      	ldr	r2, [r7, #112]	; 0x70
    209e:	6839      	ldr	r1, [r7, #0]
    20a0:	4618      	mov	r0, r3
    20a2:	4b2a      	ldr	r3, [pc, #168]	; (214c <TEE_InvokeTACommand+0xcc>)
    20a4:	447b      	add	r3, pc
    20a6:	4798      	blx	r3
/home/rahulmahadev/devel/optee/optee_os/lib/libutee/tee_api.c:146
    20a8:	68f8      	ldr	r0, [r7, #12]
    20aa:	f107 0210 	add.w	r2, r7, #16
    20ae:	f107 0358 	add.w	r3, r7, #88	; 0x58
    20b2:	9300      	str	r3, [sp, #0]
    20b4:	4613      	mov	r3, r2
    20b6:	687a      	ldr	r2, [r7, #4]
    20b8:	68b9      	ldr	r1, [r7, #8]
    20ba:	4d25      	ldr	r5, [pc, #148]	; (2150 <TEE_InvokeTACommand+0xd0>)
    20bc:	5965      	ldr	r5, [r4, r5]
    20be:	47a8      	blx	r5
    20c0:	65f8      	str	r0, [r7, #92]	; 0x5c
/home/rahulmahadev/devel/optee/optee_os/lib/libutee/tee_api.c:149
    20c2:	f107 0310 	add.w	r3, r7, #16
    20c6:	461a      	mov	r2, r3
    20c8:	f04f 0100 	mov.w	r1, #0
    20cc:	6f38      	ldr	r0, [r7, #112]	; 0x70
    20ce:	4b21      	ldr	r3, [pc, #132]	; (2154 <TEE_InvokeTACommand+0xd4>)
    20d0:	447b      	add	r3, pc
    20d2:	4798      	blx	r3
/home/rahulmahadev/devel/optee/optee_os/lib/libutee/tee_api.c:151
    20d4:	6f7b      	ldr	r3, [r7, #116]	; 0x74
    20d6:	2b00      	cmp	r3, #0
    20d8:	d002      	beq.n	20e0 <TEE_InvokeTACommand+0x60>
/home/rahulmahadev/devel/optee/optee_os/lib/libutee/tee_api.c:152
    20da:	6dba      	ldr	r2, [r7, #88]	; 0x58
    20dc:	6f7b      	ldr	r3, [r7, #116]	; 0x74
    20de:	601a      	str	r2, [r3, #0]
/home/rahulmahadev/devel/optee/optee_os/lib/libutee/tee_api.c:154
    20e0:	6dbb      	ldr	r3, [r7, #88]	; 0x58
    20e2:	2b04      	cmp	r3, #4
    20e4:	d101      	bne.n	20ea <TEE_InvokeTACommand+0x6a>
/home/rahulmahadev/devel/optee/optee_os/lib/libutee/tee_api.c:155
    20e6:	6dfb      	ldr	r3, [r7, #92]	; 0x5c
    20e8:	e025      	b.n	2136 <TEE_InvokeTACommand+0xb6>
/home/rahulmahadev/devel/optee/optee_os/lib/libutee/tee_api.c:157
    20ea:	6dfb      	ldr	r3, [r7, #92]	; 0x5c
    20ec:	2b00      	cmp	r3, #0
    20ee:	d021      	beq.n	2134 <TEE_InvokeTACommand+0xb4>
/home/rahulmahadev/devel/optee/optee_os/lib/libutee/tee_api.c:157 (discriminator 1)
    20f0:	6dfa      	ldr	r2, [r7, #92]	; 0x5c
    20f2:	f04f 030c 	mov.w	r3, #12
    20f6:	f6cf 73ff 	movt	r3, #65535	; 0xffff
    20fa:	429a      	cmp	r2, r3
    20fc:	d01a      	beq.n	2134 <TEE_InvokeTACommand+0xb4>
/home/rahulmahadev/devel/optee/optee_os/lib/libutee/tee_api.c:158
    20fe:	6dfa      	ldr	r2, [r7, #92]	; 0x5c
    2100:	f243 0324 	movw	r3, #12324	; 0x3024
    2104:	f6cf 73ff 	movt	r3, #65535	; 0xffff
    2108:	429a      	cmp	r2, r3
    210a:	d013      	beq.n	2134 <TEE_InvokeTACommand+0xb4>
/home/rahulmahadev/devel/optee/optee_os/lib/libutee/tee_api.c:160
    210c:	6dfb      	ldr	r3, [r7, #92]	; 0x5c
    210e:	9301      	str	r3, [sp, #4]
    2110:	4b11      	ldr	r3, [pc, #68]	; (2158 <TEE_InvokeTACommand+0xd8>)
    2112:	447b      	add	r3, pc
    2114:	9300      	str	r3, [sp, #0]
    2116:	f04f 0301 	mov.w	r3, #1
    211a:	f04f 0201 	mov.w	r2, #1
    211e:	f04f 01a0 	mov.w	r1, #160	; 0xa0
    2122:	480e      	ldr	r0, [pc, #56]	; (215c <TEE_InvokeTACommand+0xdc>)
    2124:	4478      	add	r0, pc
    2126:	4d0e      	ldr	r5, [pc, #56]	; (2160 <TEE_InvokeTACommand+0xe0>)
    2128:	5965      	ldr	r5, [r4, r5]
    212a:	47a8      	blx	r5
    212c:	6df8      	ldr	r0, [r7, #92]	; 0x5c
    212e:	4b0d      	ldr	r3, [pc, #52]	; (2164 <TEE_InvokeTACommand+0xe4>)
    2130:	58e3      	ldr	r3, [r4, r3]
    2132:	4798      	blx	r3
/home/rahulmahadev/devel/optee/optee_os/lib/libutee/tee_api.c:162
    2134:	6dfb      	ldr	r3, [r7, #92]	; 0x5c
/home/rahulmahadev/devel/optee/optee_os/lib/libutee/tee_api.c:163 (discriminator 1)
    2136:	4618      	mov	r0, r3
    2138:	f107 0760 	add.w	r7, r7, #96	; 0x60
    213c:	46bd      	mov	sp, r7
    213e:	e9dd 4500 	ldrd	r4, r5, [sp]
    2142:	b002      	add	sp, #8
    2144:	bd80      	pop	{r7, pc}
    2146:	bf00      	nop
    2148:	0000b152 	.word	0x0000b152
    214c:	fffffc71 	.word	0xfffffc71
    2150:	000001b4 	.word	0x000001b4
    2154:	fffffdad 	.word	0xfffffdad
    2158:	00009bc2 	.word	0x00009bc2
    215c:	00009bd0 	.word	0x00009bd0
    2160:	0000005c 	.word	0x0000005c
    2164:	0000017c 	.word	0x0000017c

00002168 <TEE_GetCancellationFlag>:
TEE_GetCancellationFlag():
/home/rahulmahadev/devel/optee/optee_os/lib/libutee/tee_api.c:168
    2168:	e96d 7e02 	strd	r7, lr, [sp, #-8]!
    216c:	b082      	sub	sp, #8
    216e:	af00      	add	r7, sp, #0
    2170:	4a0c      	ldr	r2, [pc, #48]	; (21a4 <TEE_GetCancellationFlag+0x3c>)
    2172:	447a      	add	r2, pc
/home/rahulmahadev/devel/optee/optee_os/lib/libutee/tee_api.c:170
    2174:	463b      	mov	r3, r7
    2176:	4618      	mov	r0, r3
    2178:	4b0b      	ldr	r3, [pc, #44]	; (21a8 <TEE_GetCancellationFlag+0x40>)
    217a:	58d3      	ldr	r3, [r2, r3]
    217c:	4798      	blx	r3
    217e:	6078      	str	r0, [r7, #4]
/home/rahulmahadev/devel/optee/optee_os/lib/libutee/tee_api.c:172
    2180:	687b      	ldr	r3, [r7, #4]
    2182:	2b00      	cmp	r3, #0
    2184:	d002      	beq.n	218c <TEE_GetCancellationFlag+0x24>
/home/rahulmahadev/devel/optee/optee_os/lib/libutee/tee_api.c:173
    2186:	f04f 0300 	mov.w	r3, #0
    218a:	603b      	str	r3, [r7, #0]
/home/rahulmahadev/devel/optee/optee_os/lib/libutee/tee_api.c:174
    218c:	683b      	ldr	r3, [r7, #0]
    218e:	2b00      	cmp	r3, #0
    2190:	bf14      	ite	ne
    2192:	2301      	movne	r3, #1
    2194:	2300      	moveq	r3, #0
    2196:	b2db      	uxtb	r3, r3
/home/rahulmahadev/devel/optee/optee_os/lib/libutee/tee_api.c:175
    2198:	4618      	mov	r0, r3
    219a:	f107 0708 	add.w	r7, r7, #8
    219e:	46bd      	mov	sp, r7
    21a0:	bd80      	pop	{r7, pc}
    21a2:	bf00      	nop
    21a4:	0000b076 	.word	0x0000b076
    21a8:	00000148 	.word	0x00000148

000021ac <TEE_UnmaskCancellation>:
TEE_UnmaskCancellation():
/home/rahulmahadev/devel/optee/optee_os/lib/libutee/tee_api.c:178
    21ac:	e96d 4504 	strd	r4, r5, [sp, #-16]!
    21b0:	e9cd 7e02 	strd	r7, lr, [sp, #8]
    21b4:	b084      	sub	sp, #16
    21b6:	af02      	add	r7, sp, #8
    21b8:	4c16      	ldr	r4, [pc, #88]	; (2214 <TEE_UnmaskCancellation+0x68>)
    21ba:	447c      	add	r4, pc
/home/rahulmahadev/devel/optee/optee_os/lib/libutee/tee_api.c:180
    21bc:	463b      	mov	r3, r7
    21be:	4618      	mov	r0, r3
    21c0:	4b15      	ldr	r3, [pc, #84]	; (2218 <TEE_UnmaskCancellation+0x6c>)
    21c2:	58e3      	ldr	r3, [r4, r3]
    21c4:	4798      	blx	r3
    21c6:	6078      	str	r0, [r7, #4]
/home/rahulmahadev/devel/optee/optee_os/lib/libutee/tee_api.c:182
    21c8:	687b      	ldr	r3, [r7, #4]
    21ca:	2b00      	cmp	r3, #0
    21cc:	d013      	beq.n	21f6 <TEE_UnmaskCancellation+0x4a>
/home/rahulmahadev/devel/optee/optee_os/lib/libutee/tee_api.c:183
    21ce:	687b      	ldr	r3, [r7, #4]
    21d0:	9301      	str	r3, [sp, #4]
    21d2:	4b12      	ldr	r3, [pc, #72]	; (221c <TEE_UnmaskCancellation+0x70>)
    21d4:	447b      	add	r3, pc
    21d6:	9300      	str	r3, [sp, #0]
    21d8:	f04f 0301 	mov.w	r3, #1
    21dc:	f04f 0201 	mov.w	r2, #1
    21e0:	f04f 01b7 	mov.w	r1, #183	; 0xb7
    21e4:	480e      	ldr	r0, [pc, #56]	; (2220 <TEE_UnmaskCancellation+0x74>)
    21e6:	4478      	add	r0, pc
    21e8:	4d0e      	ldr	r5, [pc, #56]	; (2224 <TEE_UnmaskCancellation+0x78>)
    21ea:	5965      	ldr	r5, [r4, r5]
    21ec:	47a8      	blx	r5
    21ee:	6878      	ldr	r0, [r7, #4]
    21f0:	4b0d      	ldr	r3, [pc, #52]	; (2228 <TEE_UnmaskCancellation+0x7c>)
    21f2:	58e3      	ldr	r3, [r4, r3]
    21f4:	4798      	blx	r3
/home/rahulmahadev/devel/optee/optee_os/lib/libutee/tee_api.c:184
    21f6:	683b      	ldr	r3, [r7, #0]
    21f8:	2b00      	cmp	r3, #0
    21fa:	bf14      	ite	ne
    21fc:	2301      	movne	r3, #1
    21fe:	2300      	moveq	r3, #0
    2200:	b2db      	uxtb	r3, r3
/home/rahulmahadev/devel/optee/optee_os/lib/libutee/tee_api.c:185
    2202:	4618      	mov	r0, r3
    2204:	f107 0708 	add.w	r7, r7, #8
    2208:	46bd      	mov	sp, r7
    220a:	e9dd 4500 	ldrd	r4, r5, [sp]
    220e:	b002      	add	sp, #8
    2210:	bd80      	pop	{r7, pc}
    2212:	bf00      	nop
    2214:	0000b02e 	.word	0x0000b02e
    2218:	000001c4 	.word	0x000001c4
    221c:	00009b00 	.word	0x00009b00
    2220:	00009b22 	.word	0x00009b22
    2224:	0000005c 	.word	0x0000005c
    2228:	0000017c 	.word	0x0000017c

0000222c <TEE_MaskCancellation>:
TEE_MaskCancellation():
/home/rahulmahadev/devel/optee/optee_os/lib/libutee/tee_api.c:188
    222c:	e96d 4504 	strd	r4, r5, [sp, #-16]!
    2230:	e9cd 7e02 	strd	r7, lr, [sp, #8]
    2234:	b084      	sub	sp, #16
    2236:	af02      	add	r7, sp, #8
    2238:	4c16      	ldr	r4, [pc, #88]	; (2294 <TEE_MaskCancellation+0x68>)
    223a:	447c      	add	r4, pc
/home/rahulmahadev/devel/optee/optee_os/lib/libutee/tee_api.c:190
    223c:	463b      	mov	r3, r7
    223e:	4618      	mov	r0, r3
    2240:	4b15      	ldr	r3, [pc, #84]	; (2298 <TEE_MaskCancellation+0x6c>)
    2242:	58e3      	ldr	r3, [r4, r3]
    2244:	4798      	blx	r3
    2246:	6078      	str	r0, [r7, #4]
/home/rahulmahadev/devel/optee/optee_os/lib/libutee/tee_api.c:192
    2248:	687b      	ldr	r3, [r7, #4]
    224a:	2b00      	cmp	r3, #0
    224c:	d013      	beq.n	2276 <TEE_MaskCancellation+0x4a>
/home/rahulmahadev/devel/optee/optee_os/lib/libutee/tee_api.c:193
    224e:	687b      	ldr	r3, [r7, #4]
    2250:	9301      	str	r3, [sp, #4]
    2252:	4b12      	ldr	r3, [pc, #72]	; (229c <TEE_MaskCancellation+0x70>)
    2254:	447b      	add	r3, pc
    2256:	9300      	str	r3, [sp, #0]
    2258:	f04f 0301 	mov.w	r3, #1
    225c:	f04f 0201 	mov.w	r2, #1
    2260:	f04f 01c1 	mov.w	r1, #193	; 0xc1
    2264:	480e      	ldr	r0, [pc, #56]	; (22a0 <TEE_MaskCancellation+0x74>)
    2266:	4478      	add	r0, pc
    2268:	4d0e      	ldr	r5, [pc, #56]	; (22a4 <TEE_MaskCancellation+0x78>)
    226a:	5965      	ldr	r5, [r4, r5]
    226c:	47a8      	blx	r5
    226e:	6878      	ldr	r0, [r7, #4]
    2270:	4b0d      	ldr	r3, [pc, #52]	; (22a8 <TEE_MaskCancellation+0x7c>)
    2272:	58e3      	ldr	r3, [r4, r3]
    2274:	4798      	blx	r3
/home/rahulmahadev/devel/optee/optee_os/lib/libutee/tee_api.c:194
    2276:	683b      	ldr	r3, [r7, #0]
    2278:	2b00      	cmp	r3, #0
    227a:	bf14      	ite	ne
    227c:	2301      	movne	r3, #1
    227e:	2300      	moveq	r3, #0
    2280:	b2db      	uxtb	r3, r3
/home/rahulmahadev/devel/optee/optee_os/lib/libutee/tee_api.c:195
    2282:	4618      	mov	r0, r3
    2284:	f107 0708 	add.w	r7, r7, #8
    2288:	46bd      	mov	sp, r7
    228a:	e9dd 4500 	ldrd	r4, r5, [sp]
    228e:	b002      	add	sp, #8
    2290:	bd80      	pop	{r7, pc}
    2292:	bf00      	nop
    2294:	0000afae 	.word	0x0000afae
    2298:	000000c4 	.word	0x000000c4
    229c:	00009a80 	.word	0x00009a80
    22a0:	00009aba 	.word	0x00009aba
    22a4:	0000005c 	.word	0x0000005c
    22a8:	0000017c 	.word	0x0000017c

000022ac <TEE_CheckMemoryAccessRights>:
TEE_CheckMemoryAccessRights():
/home/rahulmahadev/devel/optee/optee_os/lib/libutee/tee_api.c:201
    22ac:	f84d 4d0c 	str.w	r4, [sp, #-12]!
    22b0:	e9cd 7e01 	strd	r7, lr, [sp, #4]
    22b4:	b087      	sub	sp, #28
    22b6:	af00      	add	r7, sp, #0
    22b8:	60f8      	str	r0, [r7, #12]
    22ba:	60b9      	str	r1, [r7, #8]
    22bc:	607a      	str	r2, [r7, #4]
    22be:	4c10      	ldr	r4, [pc, #64]	; (2300 <TEE_CheckMemoryAccessRights+0x54>)
    22c0:	447c      	add	r4, pc
/home/rahulmahadev/devel/optee/optee_os/lib/libutee/tee_api.c:204
    22c2:	687b      	ldr	r3, [r7, #4]
    22c4:	2b00      	cmp	r3, #0
    22c6:	d102      	bne.n	22ce <TEE_CheckMemoryAccessRights+0x22>
/home/rahulmahadev/devel/optee/optee_os/lib/libutee/tee_api.c:205
    22c8:	f04f 0300 	mov.w	r3, #0
    22cc:	e00e      	b.n	22ec <TEE_CheckMemoryAccessRights+0x40>
/home/rahulmahadev/devel/optee/optee_os/lib/libutee/tee_api.c:208
    22ce:	687a      	ldr	r2, [r7, #4]
    22d0:	68b9      	ldr	r1, [r7, #8]
    22d2:	68f8      	ldr	r0, [r7, #12]
    22d4:	4b0b      	ldr	r3, [pc, #44]	; (2304 <TEE_CheckMemoryAccessRights+0x58>)
    22d6:	58e3      	ldr	r3, [r4, r3]
    22d8:	4798      	blx	r3
    22da:	6178      	str	r0, [r7, #20]
/home/rahulmahadev/devel/optee/optee_os/lib/libutee/tee_api.c:209
    22dc:	697b      	ldr	r3, [r7, #20]
    22de:	2b00      	cmp	r3, #0
    22e0:	d000      	beq.n	22e4 <TEE_CheckMemoryAccessRights+0x38>
/home/rahulmahadev/devel/optee/optee_os/lib/libutee/tee_api.c:210
    22e2:	e002      	b.n	22ea <TEE_CheckMemoryAccessRights+0x3e>
/home/rahulmahadev/devel/optee/optee_os/lib/libutee/tee_api.c:217
    22e4:	f04f 0300 	mov.w	r3, #0
    22e8:	617b      	str	r3, [r7, #20]
/home/rahulmahadev/devel/optee/optee_os/lib/libutee/tee_api.c:219
    22ea:	697b      	ldr	r3, [r7, #20]
/home/rahulmahadev/devel/optee/optee_os/lib/libutee/tee_api.c:220
    22ec:	4618      	mov	r0, r3
    22ee:	f107 071c 	add.w	r7, r7, #28
    22f2:	46bd      	mov	sp, r7
    22f4:	e9dd 4700 	ldrd	r4, r7, [sp]
    22f8:	b002      	add	sp, #8
    22fa:	f85d fb04 	ldr.w	pc, [sp], #4
    22fe:	bf00      	nop
    2300:	0000af28 	.word	0x0000af28
    2304:	000001c8 	.word	0x000001c8

00002308 <TEE_SetInstanceData>:
TEE_SetInstanceData():
/home/rahulmahadev/devel/optee/optee_os/lib/libutee/tee_api.c:223
    2308:	f84d 7d04 	str.w	r7, [sp, #-4]!
    230c:	b083      	sub	sp, #12
    230e:	af00      	add	r7, sp, #0
    2310:	6078      	str	r0, [r7, #4]
/home/rahulmahadev/devel/optee/optee_os/lib/libutee/tee_api.c:224
    2312:	4b05      	ldr	r3, [pc, #20]	; (2328 <TEE_SetInstanceData+0x20>)
    2314:	447b      	add	r3, pc
    2316:	461a      	mov	r2, r3
    2318:	687b      	ldr	r3, [r7, #4]
    231a:	6013      	str	r3, [r2, #0]
/home/rahulmahadev/devel/optee/optee_os/lib/libutee/tee_api.c:225
    231c:	f107 070c 	add.w	r7, r7, #12
    2320:	46bd      	mov	sp, r7
    2322:	f85d 7b04 	ldr.w	r7, [sp], #4
    2326:	4770      	bx	lr
    2328:	0001597c 	.word	0x0001597c

0000232c <TEE_GetInstanceData>:
TEE_GetInstanceData():
/home/rahulmahadev/devel/optee/optee_os/lib/libutee/tee_api.c:228
    232c:	f84d 7d04 	str.w	r7, [sp, #-4]!
    2330:	af00      	add	r7, sp, #0
/home/rahulmahadev/devel/optee/optee_os/lib/libutee/tee_api.c:229
    2332:	4b04      	ldr	r3, [pc, #16]	; (2344 <TEE_GetInstanceData+0x18>)
    2334:	447b      	add	r3, pc
    2336:	681b      	ldr	r3, [r3, #0]
/home/rahulmahadev/devel/optee/optee_os/lib/libutee/tee_api.c:230
    2338:	4618      	mov	r0, r3
    233a:	46bd      	mov	sp, r7
    233c:	f85d 7b04 	ldr.w	r7, [sp], #4
    2340:	4770      	bx	lr
    2342:	bf00      	nop
    2344:	0001595c 	.word	0x0001595c

00002348 <TEE_MemMove>:
TEE_MemMove():
/home/rahulmahadev/devel/optee/optee_os/lib/libutee/tee_api.c:233
    2348:	f84d 4d0c 	str.w	r4, [sp, #-12]!
    234c:	e9cd 7e01 	strd	r7, lr, [sp, #4]
    2350:	b085      	sub	sp, #20
    2352:	af00      	add	r7, sp, #0
    2354:	60f8      	str	r0, [r7, #12]
    2356:	60b9      	str	r1, [r7, #8]
    2358:	607a      	str	r2, [r7, #4]
    235a:	4c09      	ldr	r4, [pc, #36]	; (2380 <TEE_MemMove+0x38>)
    235c:	447c      	add	r4, pc
/home/rahulmahadev/devel/optee/optee_os/lib/libutee/tee_api.c:234
    235e:	687a      	ldr	r2, [r7, #4]
    2360:	68b9      	ldr	r1, [r7, #8]
    2362:	68f8      	ldr	r0, [r7, #12]
    2364:	4b07      	ldr	r3, [pc, #28]	; (2384 <TEE_MemMove+0x3c>)
    2366:	58e3      	ldr	r3, [r4, r3]
    2368:	4798      	blx	r3
    236a:	4603      	mov	r3, r0
/home/rahulmahadev/devel/optee/optee_os/lib/libutee/tee_api.c:235
    236c:	4618      	mov	r0, r3
    236e:	f107 0714 	add.w	r7, r7, #20
    2372:	46bd      	mov	sp, r7
    2374:	e9dd 4700 	ldrd	r4, r7, [sp]
    2378:	b002      	add	sp, #8
    237a:	f85d fb04 	ldr.w	pc, [sp], #4
    237e:	bf00      	nop
    2380:	0000ae8c 	.word	0x0000ae8c
    2384:	00000040 	.word	0x00000040

00002388 <TEE_MemCompare>:
TEE_MemCompare():
/home/rahulmahadev/devel/optee/optee_os/lib/libutee/tee_api.c:238
    2388:	f84d 4d0c 	str.w	r4, [sp, #-12]!
    238c:	e9cd 7e01 	strd	r7, lr, [sp, #4]
    2390:	b085      	sub	sp, #20
    2392:	af00      	add	r7, sp, #0
    2394:	60f8      	str	r0, [r7, #12]
    2396:	60b9      	str	r1, [r7, #8]
    2398:	607a      	str	r2, [r7, #4]
    239a:	4c09      	ldr	r4, [pc, #36]	; (23c0 <TEE_MemCompare+0x38>)
    239c:	447c      	add	r4, pc
/home/rahulmahadev/devel/optee/optee_os/lib/libutee/tee_api.c:239
    239e:	687a      	ldr	r2, [r7, #4]
    23a0:	68b9      	ldr	r1, [r7, #8]
    23a2:	68f8      	ldr	r0, [r7, #12]
    23a4:	4b07      	ldr	r3, [pc, #28]	; (23c4 <TEE_MemCompare+0x3c>)
    23a6:	58e3      	ldr	r3, [r4, r3]
    23a8:	4798      	blx	r3
    23aa:	4603      	mov	r3, r0
/home/rahulmahadev/devel/optee/optee_os/lib/libutee/tee_api.c:240
    23ac:	4618      	mov	r0, r3
    23ae:	f107 0714 	add.w	r7, r7, #20
    23b2:	46bd      	mov	sp, r7
    23b4:	e9dd 4700 	ldrd	r4, r7, [sp]
    23b8:	b002      	add	sp, #8
    23ba:	f85d fb04 	ldr.w	pc, [sp], #4
    23be:	bf00      	nop
    23c0:	0000ae4c 	.word	0x0000ae4c
    23c4:	000000f8 	.word	0x000000f8

000023c8 <TEE_MemFill>:
TEE_MemFill():
/home/rahulmahadev/devel/optee/optee_os/lib/libutee/tee_api.c:243
    23c8:	f84d 4d0c 	str.w	r4, [sp, #-12]!
    23cc:	e9cd 7e01 	strd	r7, lr, [sp, #4]
    23d0:	b085      	sub	sp, #20
    23d2:	af00      	add	r7, sp, #0
    23d4:	60f8      	str	r0, [r7, #12]
    23d6:	60b9      	str	r1, [r7, #8]
    23d8:	607a      	str	r2, [r7, #4]
    23da:	4c09      	ldr	r4, [pc, #36]	; (2400 <TEE_MemFill+0x38>)
    23dc:	447c      	add	r4, pc
/home/rahulmahadev/devel/optee/optee_os/lib/libutee/tee_api.c:244
    23de:	68bb      	ldr	r3, [r7, #8]
    23e0:	687a      	ldr	r2, [r7, #4]
    23e2:	4619      	mov	r1, r3
    23e4:	68f8      	ldr	r0, [r7, #12]
    23e6:	4b07      	ldr	r3, [pc, #28]	; (2404 <TEE_MemFill+0x3c>)
    23e8:	58e3      	ldr	r3, [r4, r3]
    23ea:	4798      	blx	r3
    23ec:	4603      	mov	r3, r0
/home/rahulmahadev/devel/optee/optee_os/lib/libutee/tee_api.c:245
    23ee:	4618      	mov	r0, r3
    23f0:	f107 0714 	add.w	r7, r7, #20
    23f4:	46bd      	mov	sp, r7
    23f6:	e9dd 4700 	ldrd	r4, r7, [sp]
    23fa:	b002      	add	sp, #8
    23fc:	f85d fb04 	ldr.w	pc, [sp], #4
    2400:	0000ae0c 	.word	0x0000ae0c
    2404:	00000118 	.word	0x00000118

00002408 <TEE_GetSystemTime>:
TEE_GetSystemTime():
/home/rahulmahadev/devel/optee/optee_os/lib/libutee/tee_api.c:250
    2408:	e96d 4504 	strd	r4, r5, [sp, #-16]!
    240c:	e9cd 7e02 	strd	r7, lr, [sp, #8]
    2410:	b086      	sub	sp, #24
    2412:	af02      	add	r7, sp, #8
    2414:	6078      	str	r0, [r7, #4]
    2416:	4c14      	ldr	r4, [pc, #80]	; (2468 <TEE_GetSystemTime+0x60>)
    2418:	447c      	add	r4, pc
/home/rahulmahadev/devel/optee/optee_os/lib/libutee/tee_api.c:251
    241a:	6879      	ldr	r1, [r7, #4]
    241c:	f04f 0000 	mov.w	r0, #0
    2420:	4b12      	ldr	r3, [pc, #72]	; (246c <TEE_GetSystemTime+0x64>)
    2422:	58e3      	ldr	r3, [r4, r3]
    2424:	4798      	blx	r3
    2426:	60f8      	str	r0, [r7, #12]
/home/rahulmahadev/devel/optee/optee_os/lib/libutee/tee_api.c:253
    2428:	68fb      	ldr	r3, [r7, #12]
    242a:	2b00      	cmp	r3, #0
    242c:	d015      	beq.n	245a <TEE_GetSystemTime+0x52>
/home/rahulmahadev/devel/optee/optee_os/lib/libutee/tee_api.c:254
    242e:	f04f 0300 	mov.w	r3, #0
    2432:	9301      	str	r3, [sp, #4]
    2434:	4b0e      	ldr	r3, [pc, #56]	; (2470 <TEE_GetSystemTime+0x68>)
    2436:	447b      	add	r3, pc
    2438:	9300      	str	r3, [sp, #0]
    243a:	f04f 0301 	mov.w	r3, #1
    243e:	f04f 0201 	mov.w	r2, #1
    2442:	f04f 01fe 	mov.w	r1, #254	; 0xfe
    2446:	480b      	ldr	r0, [pc, #44]	; (2474 <TEE_GetSystemTime+0x6c>)
    2448:	4478      	add	r0, pc
    244a:	4d0b      	ldr	r5, [pc, #44]	; (2478 <TEE_GetSystemTime+0x70>)
    244c:	5965      	ldr	r5, [r4, r5]
    244e:	47a8      	blx	r5
    2450:	f04f 0000 	mov.w	r0, #0
    2454:	4b09      	ldr	r3, [pc, #36]	; (247c <TEE_GetSystemTime+0x74>)
    2456:	58e3      	ldr	r3, [r4, r3]
    2458:	4798      	blx	r3
/home/rahulmahadev/devel/optee/optee_os/lib/libutee/tee_api.c:255
    245a:	f107 0710 	add.w	r7, r7, #16
    245e:	46bd      	mov	sp, r7
    2460:	e9dd 4500 	ldrd	r4, r5, [sp]
    2464:	b002      	add	sp, #8
    2466:	bd80      	pop	{r7, pc}
    2468:	0000add0 	.word	0x0000add0
    246c:	000001c0 	.word	0x000001c0
    2470:	0000989e 	.word	0x0000989e
    2474:	000098f0 	.word	0x000098f0
    2478:	0000005c 	.word	0x0000005c
    247c:	0000017c 	.word	0x0000017c

00002480 <TEE_Wait>:
TEE_Wait():
/home/rahulmahadev/devel/optee/optee_os/lib/libutee/tee_api.c:258
    2480:	e96d 4504 	strd	r4, r5, [sp, #-16]!
    2484:	e9cd 7e02 	strd	r7, lr, [sp, #8]
    2488:	b086      	sub	sp, #24
    248a:	af02      	add	r7, sp, #8
    248c:	6078      	str	r0, [r7, #4]
    248e:	4c17      	ldr	r4, [pc, #92]	; (24ec <TEE_Wait+0x6c>)
    2490:	447c      	add	r4, pc
/home/rahulmahadev/devel/optee/optee_os/lib/libutee/tee_api.c:259
    2492:	6878      	ldr	r0, [r7, #4]
    2494:	4b16      	ldr	r3, [pc, #88]	; (24f0 <TEE_Wait+0x70>)
    2496:	58e3      	ldr	r3, [r4, r3]
    2498:	4798      	blx	r3
    249a:	60f8      	str	r0, [r7, #12]
/home/rahulmahadev/devel/optee/optee_os/lib/libutee/tee_api.c:261
    249c:	68fb      	ldr	r3, [r7, #12]
    249e:	2b00      	cmp	r3, #0
    24a0:	d01a      	beq.n	24d8 <TEE_Wait+0x58>
/home/rahulmahadev/devel/optee/optee_os/lib/libutee/tee_api.c:261 (discriminator 1)
    24a2:	68fa      	ldr	r2, [r7, #12]
    24a4:	f04f 0302 	mov.w	r3, #2
    24a8:	f6cf 73ff 	movt	r3, #65535	; 0xffff
    24ac:	429a      	cmp	r2, r3
    24ae:	d013      	beq.n	24d8 <TEE_Wait+0x58>
/home/rahulmahadev/devel/optee/optee_os/lib/libutee/tee_api.c:262
    24b0:	68fb      	ldr	r3, [r7, #12]
    24b2:	9301      	str	r3, [sp, #4]
    24b4:	4b0f      	ldr	r3, [pc, #60]	; (24f4 <TEE_Wait+0x74>)
    24b6:	447b      	add	r3, pc
    24b8:	9300      	str	r3, [sp, #0]
    24ba:	f04f 0301 	mov.w	r3, #1
    24be:	f04f 0201 	mov.w	r2, #1
    24c2:	f44f 7183 	mov.w	r1, #262	; 0x106
    24c6:	480c      	ldr	r0, [pc, #48]	; (24f8 <TEE_Wait+0x78>)
    24c8:	4478      	add	r0, pc
    24ca:	4d0c      	ldr	r5, [pc, #48]	; (24fc <TEE_Wait+0x7c>)
    24cc:	5965      	ldr	r5, [r4, r5]
    24ce:	47a8      	blx	r5
    24d0:	68f8      	ldr	r0, [r7, #12]
    24d2:	4b0b      	ldr	r3, [pc, #44]	; (2500 <TEE_Wait+0x80>)
    24d4:	58e3      	ldr	r3, [r4, r3]
    24d6:	4798      	blx	r3
/home/rahulmahadev/devel/optee/optee_os/lib/libutee/tee_api.c:264
    24d8:	68fb      	ldr	r3, [r7, #12]
/home/rahulmahadev/devel/optee/optee_os/lib/libutee/tee_api.c:265
    24da:	4618      	mov	r0, r3
    24dc:	f107 0710 	add.w	r7, r7, #16
    24e0:	46bd      	mov	sp, r7
    24e2:	e9dd 4500 	ldrd	r4, r5, [sp]
    24e6:	b002      	add	sp, #8
    24e8:	bd80      	pop	{r7, pc}
    24ea:	bf00      	nop
    24ec:	0000ad58 	.word	0x0000ad58
    24f0:	000001b8 	.word	0x000001b8
    24f4:	0000981e 	.word	0x0000981e
    24f8:	00009884 	.word	0x00009884
    24fc:	0000005c 	.word	0x0000005c
    2500:	0000017c 	.word	0x0000017c

00002504 <TEE_GetTAPersistentTime>:
TEE_GetTAPersistentTime():
/home/rahulmahadev/devel/optee/optee_os/lib/libutee/tee_api.c:268
    2504:	e96d 4504 	strd	r4, r5, [sp, #-16]!
    2508:	e9cd 7e02 	strd	r7, lr, [sp, #8]
    250c:	b086      	sub	sp, #24
    250e:	af02      	add	r7, sp, #8
    2510:	6078      	str	r0, [r7, #4]
    2512:	4c2a      	ldr	r4, [pc, #168]	; (25bc <TEE_GetTAPersistentTime+0xb8>)
    2514:	447c      	add	r4, pc
/home/rahulmahadev/devel/optee/optee_os/lib/libutee/tee_api.c:271
    2516:	6879      	ldr	r1, [r7, #4]
    2518:	f04f 0001 	mov.w	r0, #1
    251c:	4b28      	ldr	r3, [pc, #160]	; (25c0 <TEE_GetTAPersistentTime+0xbc>)
    251e:	58e3      	ldr	r3, [r4, r3]
    2520:	4798      	blx	r3
    2522:	60f8      	str	r0, [r7, #12]
/home/rahulmahadev/devel/optee/optee_os/lib/libutee/tee_api.c:273
    2524:	68fb      	ldr	r3, [r7, #12]
    2526:	2b00      	cmp	r3, #0
    2528:	d00e      	beq.n	2548 <TEE_GetTAPersistentTime+0x44>
/home/rahulmahadev/devel/optee/optee_os/lib/libutee/tee_api.c:273 (discriminator 1)
    252a:	68fa      	ldr	r2, [r7, #12]
    252c:	f243 030f 	movw	r3, #12303	; 0x300f
    2530:	f6cf 73ff 	movt	r3, #65535	; 0xffff
    2534:	429a      	cmp	r2, r3
    2536:	d007      	beq.n	2548 <TEE_GetTAPersistentTime+0x44>
/home/rahulmahadev/devel/optee/optee_os/lib/libutee/tee_api.c:274
    2538:	687b      	ldr	r3, [r7, #4]
    253a:	f04f 0200 	mov.w	r2, #0
    253e:	601a      	str	r2, [r3, #0]
/home/rahulmahadev/devel/optee/optee_os/lib/libutee/tee_api.c:275
    2540:	687b      	ldr	r3, [r7, #4]
    2542:	f04f 0200 	mov.w	r2, #0
    2546:	605a      	str	r2, [r3, #4]
/home/rahulmahadev/devel/optee/optee_os/lib/libutee/tee_api.c:278
    2548:	68fb      	ldr	r3, [r7, #12]
    254a:	2b00      	cmp	r3, #0
    254c:	d02c      	beq.n	25a8 <TEE_GetTAPersistentTime+0xa4>
/home/rahulmahadev/devel/optee/optee_os/lib/libutee/tee_api.c:278 (discriminator 1)
    254e:	68fb      	ldr	r3, [r7, #12]
    2550:	f513 4f30 	cmn.w	r3, #45056	; 0xb000
    2554:	d028      	beq.n	25a8 <TEE_GetTAPersistentTime+0xa4>
/home/rahulmahadev/devel/optee/optee_os/lib/libutee/tee_api.c:279
    2556:	68fa      	ldr	r2, [r7, #12]
    2558:	f245 0301 	movw	r3, #20481	; 0x5001
    255c:	f6cf 73ff 	movt	r3, #65535	; 0xffff
    2560:	429a      	cmp	r2, r3
    2562:	d021      	beq.n	25a8 <TEE_GetTAPersistentTime+0xa4>
/home/rahulmahadev/devel/optee/optee_os/lib/libutee/tee_api.c:280
    2564:	68fa      	ldr	r2, [r7, #12]
    2566:	f243 030f 	movw	r3, #12303	; 0x300f
    256a:	f6cf 73ff 	movt	r3, #65535	; 0xffff
    256e:	429a      	cmp	r2, r3
    2570:	d01a      	beq.n	25a8 <TEE_GetTAPersistentTime+0xa4>
/home/rahulmahadev/devel/optee/optee_os/lib/libutee/tee_api.c:281
    2572:	68fa      	ldr	r2, [r7, #12]
    2574:	f04f 030c 	mov.w	r3, #12
    2578:	f6cf 73ff 	movt	r3, #65535	; 0xffff
    257c:	429a      	cmp	r2, r3
    257e:	d013      	beq.n	25a8 <TEE_GetTAPersistentTime+0xa4>
/home/rahulmahadev/devel/optee/optee_os/lib/libutee/tee_api.c:283
    2580:	68fb      	ldr	r3, [r7, #12]
    2582:	9301      	str	r3, [sp, #4]
    2584:	4b0f      	ldr	r3, [pc, #60]	; (25c4 <TEE_GetTAPersistentTime+0xc0>)
    2586:	447b      	add	r3, pc
    2588:	9300      	str	r3, [sp, #0]
    258a:	f04f 0301 	mov.w	r3, #1
    258e:	f04f 0201 	mov.w	r2, #1
    2592:	f240 111b 	movw	r1, #283	; 0x11b
    2596:	480c      	ldr	r0, [pc, #48]	; (25c8 <TEE_GetTAPersistentTime+0xc4>)
    2598:	4478      	add	r0, pc
    259a:	4d0c      	ldr	r5, [pc, #48]	; (25cc <TEE_GetTAPersistentTime+0xc8>)
    259c:	5965      	ldr	r5, [r4, r5]
    259e:	47a8      	blx	r5
    25a0:	68f8      	ldr	r0, [r7, #12]
    25a2:	4b0b      	ldr	r3, [pc, #44]	; (25d0 <TEE_GetTAPersistentTime+0xcc>)
    25a4:	58e3      	ldr	r3, [r4, r3]
    25a6:	4798      	blx	r3
/home/rahulmahadev/devel/optee/optee_os/lib/libutee/tee_api.c:285
    25a8:	68fb      	ldr	r3, [r7, #12]
/home/rahulmahadev/devel/optee/optee_os/lib/libutee/tee_api.c:286
    25aa:	4618      	mov	r0, r3
    25ac:	f107 0710 	add.w	r7, r7, #16
    25b0:	46bd      	mov	sp, r7
    25b2:	e9dd 4500 	ldrd	r4, r5, [sp]
    25b6:	b002      	add	sp, #8
    25b8:	bd80      	pop	{r7, pc}
    25ba:	bf00      	nop
    25bc:	0000acd4 	.word	0x0000acd4
    25c0:	000001c0 	.word	0x000001c0
    25c4:	0000974e 	.word	0x0000974e
    25c8:	000097c0 	.word	0x000097c0
    25cc:	0000005c 	.word	0x0000005c
    25d0:	0000017c 	.word	0x0000017c

000025d4 <TEE_SetTAPersistentTime>:
TEE_SetTAPersistentTime():
/home/rahulmahadev/devel/optee/optee_os/lib/libutee/tee_api.c:289
    25d4:	e96d 4504 	strd	r4, r5, [sp, #-16]!
    25d8:	e9cd 7e02 	strd	r7, lr, [sp, #8]
    25dc:	b086      	sub	sp, #24
    25de:	af02      	add	r7, sp, #8
    25e0:	6078      	str	r0, [r7, #4]
    25e2:	4c1a      	ldr	r4, [pc, #104]	; (264c <TEE_SetTAPersistentTime+0x78>)
    25e4:	447c      	add	r4, pc
/home/rahulmahadev/devel/optee/optee_os/lib/libutee/tee_api.c:292
    25e6:	6878      	ldr	r0, [r7, #4]
    25e8:	4b19      	ldr	r3, [pc, #100]	; (2650 <TEE_SetTAPersistentTime+0x7c>)
    25ea:	58e3      	ldr	r3, [r4, r3]
    25ec:	4798      	blx	r3
    25ee:	60f8      	str	r0, [r7, #12]
/home/rahulmahadev/devel/optee/optee_os/lib/libutee/tee_api.c:294
    25f0:	68fb      	ldr	r3, [r7, #12]
    25f2:	2b00      	cmp	r3, #0
    25f4:	d021      	beq.n	263a <TEE_SetTAPersistentTime+0x66>
/home/rahulmahadev/devel/optee/optee_os/lib/libutee/tee_api.c:294 (discriminator 1)
    25f6:	68fa      	ldr	r2, [r7, #12]
    25f8:	f04f 030c 	mov.w	r3, #12
    25fc:	f6cf 73ff 	movt	r3, #65535	; 0xffff
    2600:	429a      	cmp	r2, r3
    2602:	d01a      	beq.n	263a <TEE_SetTAPersistentTime+0x66>
/home/rahulmahadev/devel/optee/optee_os/lib/libutee/tee_api.c:295
    2604:	68fa      	ldr	r2, [r7, #12]
    2606:	f243 0341 	movw	r3, #12353	; 0x3041
    260a:	f6cf 73ff 	movt	r3, #65535	; 0xffff
    260e:	429a      	cmp	r2, r3
    2610:	d013      	beq.n	263a <TEE_SetTAPersistentTime+0x66>
/home/rahulmahadev/devel/optee/optee_os/lib/libutee/tee_api.c:297
    2612:	68fb      	ldr	r3, [r7, #12]
    2614:	9301      	str	r3, [sp, #4]
    2616:	4b0f      	ldr	r3, [pc, #60]	; (2654 <TEE_SetTAPersistentTime+0x80>)
    2618:	447b      	add	r3, pc
    261a:	9300      	str	r3, [sp, #0]
    261c:	f04f 0301 	mov.w	r3, #1
    2620:	f04f 0201 	mov.w	r2, #1
    2624:	f240 1129 	movw	r1, #297	; 0x129
    2628:	480b      	ldr	r0, [pc, #44]	; (2658 <TEE_SetTAPersistentTime+0x84>)
    262a:	4478      	add	r0, pc
    262c:	4d0b      	ldr	r5, [pc, #44]	; (265c <TEE_SetTAPersistentTime+0x88>)
    262e:	5965      	ldr	r5, [r4, r5]
    2630:	47a8      	blx	r5
    2632:	68f8      	ldr	r0, [r7, #12]
    2634:	4b0a      	ldr	r3, [pc, #40]	; (2660 <TEE_SetTAPersistentTime+0x8c>)
    2636:	58e3      	ldr	r3, [r4, r3]
    2638:	4798      	blx	r3
/home/rahulmahadev/devel/optee/optee_os/lib/libutee/tee_api.c:299
    263a:	68fb      	ldr	r3, [r7, #12]
/home/rahulmahadev/devel/optee/optee_os/lib/libutee/tee_api.c:300
    263c:	4618      	mov	r0, r3
    263e:	f107 0710 	add.w	r7, r7, #16
    2642:	46bd      	mov	sp, r7
    2644:	e9dd 4500 	ldrd	r4, r5, [sp]
    2648:	b002      	add	sp, #8
    264a:	bd80      	pop	{r7, pc}
    264c:	0000ac04 	.word	0x0000ac04
    2650:	000000b8 	.word	0x000000b8
    2654:	000096bc 	.word	0x000096bc
    2658:	00009746 	.word	0x00009746
    265c:	0000005c 	.word	0x0000005c
    2660:	0000017c 	.word	0x0000017c

00002664 <TEE_GetREETime>:
TEE_GetREETime():
/home/rahulmahadev/devel/optee/optee_os/lib/libutee/tee_api.c:303
    2664:	e96d 4504 	strd	r4, r5, [sp, #-16]!
    2668:	e9cd 7e02 	strd	r7, lr, [sp, #8]
    266c:	b086      	sub	sp, #24
    266e:	af02      	add	r7, sp, #8
    2670:	6078      	str	r0, [r7, #4]
    2672:	4c14      	ldr	r4, [pc, #80]	; (26c4 <TEE_GetREETime+0x60>)
    2674:	447c      	add	r4, pc
/home/rahulmahadev/devel/optee/optee_os/lib/libutee/tee_api.c:304
    2676:	6879      	ldr	r1, [r7, #4]
    2678:	f04f 0002 	mov.w	r0, #2
    267c:	4b12      	ldr	r3, [pc, #72]	; (26c8 <TEE_GetREETime+0x64>)
    267e:	58e3      	ldr	r3, [r4, r3]
    2680:	4798      	blx	r3
    2682:	60f8      	str	r0, [r7, #12]
/home/rahulmahadev/devel/optee/optee_os/lib/libutee/tee_api.c:306
    2684:	68fb      	ldr	r3, [r7, #12]
    2686:	2b00      	cmp	r3, #0
    2688:	d015      	beq.n	26b6 <TEE_GetREETime+0x52>
/home/rahulmahadev/devel/optee/optee_os/lib/libutee/tee_api.c:307
    268a:	f04f 0300 	mov.w	r3, #0
    268e:	9301      	str	r3, [sp, #4]
    2690:	4b0e      	ldr	r3, [pc, #56]	; (26cc <TEE_GetREETime+0x68>)
    2692:	447b      	add	r3, pc
    2694:	9300      	str	r3, [sp, #0]
    2696:	f04f 0301 	mov.w	r3, #1
    269a:	f04f 0201 	mov.w	r2, #1
    269e:	f240 1133 	movw	r1, #307	; 0x133
    26a2:	480b      	ldr	r0, [pc, #44]	; (26d0 <TEE_GetREETime+0x6c>)
    26a4:	4478      	add	r0, pc
    26a6:	4d0b      	ldr	r5, [pc, #44]	; (26d4 <TEE_GetREETime+0x70>)
    26a8:	5965      	ldr	r5, [r4, r5]
    26aa:	47a8      	blx	r5
    26ac:	f04f 0000 	mov.w	r0, #0
    26b0:	4b09      	ldr	r3, [pc, #36]	; (26d8 <TEE_GetREETime+0x74>)
    26b2:	58e3      	ldr	r3, [r4, r3]
    26b4:	4798      	blx	r3
/home/rahulmahadev/devel/optee/optee_os/lib/libutee/tee_api.c:308
    26b6:	f107 0710 	add.w	r7, r7, #16
    26ba:	46bd      	mov	sp, r7
    26bc:	e9dd 4500 	ldrd	r4, r5, [sp]
    26c0:	b002      	add	sp, #8
    26c2:	bd80      	pop	{r7, pc}
    26c4:	0000ab74 	.word	0x0000ab74
    26c8:	000001c0 	.word	0x000001c0
    26cc:	00009642 	.word	0x00009642
    26d0:	000096e4 	.word	0x000096e4
    26d4:	0000005c 	.word	0x0000005c
    26d8:	0000017c 	.word	0x0000017c

000026dc <TEE_Malloc>:
TEE_Malloc():
/home/rahulmahadev/devel/optee/optee_os/lib/libutee/tee_api.c:311
    26dc:	e96d 7e02 	strd	r7, lr, [sp, #-8]!
    26e0:	b082      	sub	sp, #8
    26e2:	af00      	add	r7, sp, #0
    26e4:	6078      	str	r0, [r7, #4]
    26e6:	6039      	str	r1, [r7, #0]
    26e8:	4a06      	ldr	r2, [pc, #24]	; (2704 <TEE_Malloc+0x28>)
    26ea:	447a      	add	r2, pc
/home/rahulmahadev/devel/optee/optee_os/lib/libutee/tee_api.c:312
    26ec:	6839      	ldr	r1, [r7, #0]
    26ee:	6878      	ldr	r0, [r7, #4]
    26f0:	4b05      	ldr	r3, [pc, #20]	; (2708 <TEE_Malloc+0x2c>)
    26f2:	58d3      	ldr	r3, [r2, r3]
    26f4:	4798      	blx	r3
    26f6:	4603      	mov	r3, r0
/home/rahulmahadev/devel/optee/optee_os/lib/libutee/tee_api.c:313
    26f8:	4618      	mov	r0, r3
    26fa:	f107 0708 	add.w	r7, r7, #8
    26fe:	46bd      	mov	sp, r7
    2700:	bd80      	pop	{r7, pc}
    2702:	bf00      	nop
    2704:	0000aafe 	.word	0x0000aafe
    2708:	00000110 	.word	0x00000110

0000270c <TEE_Realloc>:
TEE_Realloc():
/home/rahulmahadev/devel/optee/optee_os/lib/libutee/tee_api.c:316
    270c:	e96d 7e02 	strd	r7, lr, [sp, #-8]!
    2710:	b082      	sub	sp, #8
    2712:	af00      	add	r7, sp, #0
    2714:	6078      	str	r0, [r7, #4]
    2716:	6039      	str	r1, [r7, #0]
    2718:	4a06      	ldr	r2, [pc, #24]	; (2734 <TEE_Realloc+0x28>)
    271a:	447a      	add	r2, pc
/home/rahulmahadev/devel/optee/optee_os/lib/libutee/tee_api.c:321
    271c:	6839      	ldr	r1, [r7, #0]
    271e:	6878      	ldr	r0, [r7, #4]
    2720:	4b05      	ldr	r3, [pc, #20]	; (2738 <TEE_Realloc+0x2c>)
    2722:	58d3      	ldr	r3, [r2, r3]
    2724:	4798      	blx	r3
    2726:	4603      	mov	r3, r0
/home/rahulmahadev/devel/optee/optee_os/lib/libutee/tee_api.c:322
    2728:	4618      	mov	r0, r3
    272a:	f107 0708 	add.w	r7, r7, #8
    272e:	46bd      	mov	sp, r7
    2730:	bd80      	pop	{r7, pc}
    2732:	bf00      	nop
    2734:	0000aace 	.word	0x0000aace
    2738:	00000020 	.word	0x00000020

0000273c <TEE_Free>:
TEE_Free():
/home/rahulmahadev/devel/optee/optee_os/lib/libutee/tee_api.c:325
    273c:	e96d 7e02 	strd	r7, lr, [sp, #-8]!
    2740:	b082      	sub	sp, #8
    2742:	af00      	add	r7, sp, #0
    2744:	6078      	str	r0, [r7, #4]
    2746:	4a05      	ldr	r2, [pc, #20]	; (275c <TEE_Free+0x20>)
    2748:	447a      	add	r2, pc
/home/rahulmahadev/devel/optee/optee_os/lib/libutee/tee_api.c:326
    274a:	6878      	ldr	r0, [r7, #4]
    274c:	4b04      	ldr	r3, [pc, #16]	; (2760 <TEE_Free+0x24>)
    274e:	58d3      	ldr	r3, [r2, r3]
    2750:	4798      	blx	r3
/home/rahulmahadev/devel/optee/optee_os/lib/libutee/tee_api.c:327
    2752:	f107 0708 	add.w	r7, r7, #8
    2756:	46bd      	mov	sp, r7
    2758:	bd80      	pop	{r7, pc}
    275a:	bf00      	nop
    275c:	0000aaa0 	.word	0x0000aaa0
    2760:	0000002c 	.word	0x0000002c

00002764 <TEE_CacheClean>:
TEE_CacheClean():
/home/rahulmahadev/devel/optee/optee_os/lib/libutee/tee_api.c:331
    2764:	f84d 4d0c 	str.w	r4, [sp, #-12]!
    2768:	e9cd 7e01 	strd	r7, lr, [sp, #4]
    276c:	b083      	sub	sp, #12
    276e:	af00      	add	r7, sp, #0
    2770:	6078      	str	r0, [r7, #4]
    2772:	6039      	str	r1, [r7, #0]
    2774:	4c09      	ldr	r4, [pc, #36]	; (279c <TEE_CacheClean+0x38>)
    2776:	447c      	add	r4, pc
/home/rahulmahadev/devel/optee/optee_os/lib/libutee/tee_api.c:332
    2778:	f04f 0200 	mov.w	r2, #0
    277c:	6839      	ldr	r1, [r7, #0]
    277e:	6878      	ldr	r0, [r7, #4]
    2780:	4b07      	ldr	r3, [pc, #28]	; (27a0 <TEE_CacheClean+0x3c>)
    2782:	58e3      	ldr	r3, [r4, r3]
    2784:	4798      	blx	r3
    2786:	4603      	mov	r3, r0
/home/rahulmahadev/devel/optee/optee_os/lib/libutee/tee_api.c:333
    2788:	4618      	mov	r0, r3
    278a:	f107 070c 	add.w	r7, r7, #12
    278e:	46bd      	mov	sp, r7
    2790:	e9dd 4700 	ldrd	r4, r7, [sp]
    2794:	b002      	add	sp, #8
    2796:	f85d fb04 	ldr.w	pc, [sp], #4
    279a:	bf00      	nop
    279c:	0000aa72 	.word	0x0000aa72
    27a0:	00000084 	.word	0x00000084

000027a4 <TEE_CacheFlush>:
TEE_CacheFlush():
/home/rahulmahadev/devel/optee/optee_os/lib/libutee/tee_api.c:335
    27a4:	f84d 4d0c 	str.w	r4, [sp, #-12]!
    27a8:	e9cd 7e01 	strd	r7, lr, [sp, #4]
    27ac:	b083      	sub	sp, #12
    27ae:	af00      	add	r7, sp, #0
    27b0:	6078      	str	r0, [r7, #4]
    27b2:	6039      	str	r1, [r7, #0]
    27b4:	4c09      	ldr	r4, [pc, #36]	; (27dc <TEE_CacheFlush+0x38>)
    27b6:	447c      	add	r4, pc
/home/rahulmahadev/devel/optee/optee_os/lib/libutee/tee_api.c:336
    27b8:	f04f 0201 	mov.w	r2, #1
    27bc:	6839      	ldr	r1, [r7, #0]
    27be:	6878      	ldr	r0, [r7, #4]
    27c0:	4b07      	ldr	r3, [pc, #28]	; (27e0 <TEE_CacheFlush+0x3c>)
    27c2:	58e3      	ldr	r3, [r4, r3]
    27c4:	4798      	blx	r3
    27c6:	4603      	mov	r3, r0
/home/rahulmahadev/devel/optee/optee_os/lib/libutee/tee_api.c:337
    27c8:	4618      	mov	r0, r3
    27ca:	f107 070c 	add.w	r7, r7, #12
    27ce:	46bd      	mov	sp, r7
    27d0:	e9dd 4700 	ldrd	r4, r7, [sp]
    27d4:	b002      	add	sp, #8
    27d6:	f85d fb04 	ldr.w	pc, [sp], #4
    27da:	bf00      	nop
    27dc:	0000aa32 	.word	0x0000aa32
    27e0:	00000084 	.word	0x00000084

000027e4 <TEE_CacheInvalidate>:
TEE_CacheInvalidate():
/home/rahulmahadev/devel/optee/optee_os/lib/libutee/tee_api.c:340
    27e4:	f84d 4d0c 	str.w	r4, [sp, #-12]!
    27e8:	e9cd 7e01 	strd	r7, lr, [sp, #4]
    27ec:	b083      	sub	sp, #12
    27ee:	af00      	add	r7, sp, #0
    27f0:	6078      	str	r0, [r7, #4]
    27f2:	6039      	str	r1, [r7, #0]
    27f4:	4c09      	ldr	r4, [pc, #36]	; (281c <TEE_CacheInvalidate+0x38>)
    27f6:	447c      	add	r4, pc
/home/rahulmahadev/devel/optee/optee_os/lib/libutee/tee_api.c:341
    27f8:	f04f 0202 	mov.w	r2, #2
    27fc:	6839      	ldr	r1, [r7, #0]
    27fe:	6878      	ldr	r0, [r7, #4]
    2800:	4b07      	ldr	r3, [pc, #28]	; (2820 <TEE_CacheInvalidate+0x3c>)
    2802:	58e3      	ldr	r3, [r4, r3]
    2804:	4798      	blx	r3
    2806:	4603      	mov	r3, r0
/home/rahulmahadev/devel/optee/optee_os/lib/libutee/tee_api.c:342
    2808:	4618      	mov	r0, r3
    280a:	f107 070c 	add.w	r7, r7, #12
    280e:	46bd      	mov	sp, r7
    2810:	e9dd 4700 	ldrd	r4, r7, [sp]
    2814:	b002      	add	sp, #8
    2816:	f85d fb04 	ldr.w	pc, [sp], #4
    281a:	bf00      	nop
    281c:	0000a9f2 	.word	0x0000a9f2
    2820:	00000084 	.word	0x00000084

00002824 <__TEE_Panic>:
__TEE_Panic():
/home/rahulmahadev/devel/optee/optee_os/lib/libutee/tee_api_panic.c:35
    2824:	e96d 7e02 	strd	r7, lr, [sp, #-8]!
    2828:	b082      	sub	sp, #8
    282a:	af00      	add	r7, sp, #0
    282c:	6078      	str	r0, [r7, #4]
    282e:	4a03      	ldr	r2, [pc, #12]	; (283c <__TEE_Panic+0x18>)
    2830:	447a      	add	r2, pc
/home/rahulmahadev/devel/optee/optee_os/lib/libutee/tee_api_panic.c:36
    2832:	6878      	ldr	r0, [r7, #4]
    2834:	4b02      	ldr	r3, [pc, #8]	; (2840 <__TEE_Panic+0x1c>)
    2836:	58d3      	ldr	r3, [r2, r3]
    2838:	4798      	blx	r3
    283a:	bf00      	nop
    283c:	0000a9b8 	.word	0x0000a9b8
    2840:	00000194 	.word	0x00000194

00002844 <TEE_Panic>:
TEE_Panic():
/home/rahulmahadev/devel/optee/optee_os/lib/libutee/tee_api_panic.c:40
    2844:	e96d 7e02 	strd	r7, lr, [sp, #-8]!
    2848:	b082      	sub	sp, #8
    284a:	af00      	add	r7, sp, #0
    284c:	6078      	str	r0, [r7, #4]
/home/rahulmahadev/devel/optee/optee_os/lib/libutee/tee_api_panic.c:41
    284e:	6878      	ldr	r0, [r7, #4]
    2850:	4b01      	ldr	r3, [pc, #4]	; (2858 <TEE_Panic+0x14>)
    2852:	447b      	add	r3, pc
    2854:	4798      	blx	r3
    2856:	bf00      	nop
    2858:	ffffffcf 	.word	0xffffffcf

0000285c <utee_get_ta_exec_id>:
utee_get_ta_exec_id():
/home/rahulmahadev/devel/optee/optee_os/lib/libutee/arch/arm/utee_misc.c:36
    285c:	f84d 7d04 	str.w	r7, [sp, #-4]!
    2860:	af00      	add	r7, sp, #0
/home/rahulmahadev/devel/optee/optee_os/lib/libutee/arch/arm/utee_misc.c:38
    2862:	f04f 0300 	mov.w	r3, #0
/home/rahulmahadev/devel/optee/optee_os/lib/libutee/arch/arm/utee_misc.c:39
    2866:	4618      	mov	r0, r3
    2868:	46bd      	mov	sp, r7
    286a:	f85d 7b04 	ldr.w	r7, [sp], #4
    286e:	4770      	bx	lr

00002870 <utee_malloc>:
utee_malloc():
/home/rahulmahadev/devel/optee/optee_os/lib/libutee/arch/arm/utee_misc.c:43
    2870:	e96d 7e02 	strd	r7, lr, [sp, #-8]!
    2874:	b082      	sub	sp, #8
    2876:	af00      	add	r7, sp, #0
    2878:	6078      	str	r0, [r7, #4]
    287a:	4a06      	ldr	r2, [pc, #24]	; (2894 <utee_malloc+0x24>)
    287c:	447a      	add	r2, pc
/home/rahulmahadev/devel/optee/optee_os/lib/libutee/arch/arm/utee_misc.c:44
    287e:	6878      	ldr	r0, [r7, #4]
    2880:	4b05      	ldr	r3, [pc, #20]	; (2898 <utee_malloc+0x28>)
    2882:	58d3      	ldr	r3, [r2, r3]
    2884:	4798      	blx	r3
    2886:	4603      	mov	r3, r0
/home/rahulmahadev/devel/optee/optee_os/lib/libutee/arch/arm/utee_misc.c:45
    2888:	4618      	mov	r0, r3
    288a:	f107 0708 	add.w	r7, r7, #8
    288e:	46bd      	mov	sp, r7
    2890:	bd80      	pop	{r7, pc}
    2892:	bf00      	nop
    2894:	0000a96c 	.word	0x0000a96c
    2898:	00000078 	.word	0x00000078

0000289c <utee_realloc>:
utee_realloc():
/home/rahulmahadev/devel/optee/optee_os/lib/libutee/arch/arm/utee_misc.c:48
    289c:	e96d 7e02 	strd	r7, lr, [sp, #-8]!
    28a0:	b082      	sub	sp, #8
    28a2:	af00      	add	r7, sp, #0
    28a4:	6078      	str	r0, [r7, #4]
    28a6:	6039      	str	r1, [r7, #0]
    28a8:	4a06      	ldr	r2, [pc, #24]	; (28c4 <utee_realloc+0x28>)
    28aa:	447a      	add	r2, pc
/home/rahulmahadev/devel/optee/optee_os/lib/libutee/arch/arm/utee_misc.c:49
    28ac:	6839      	ldr	r1, [r7, #0]
    28ae:	6878      	ldr	r0, [r7, #4]
    28b0:	4b05      	ldr	r3, [pc, #20]	; (28c8 <utee_realloc+0x2c>)
    28b2:	58d3      	ldr	r3, [r2, r3]
    28b4:	4798      	blx	r3
    28b6:	4603      	mov	r3, r0
/home/rahulmahadev/devel/optee/optee_os/lib/libutee/arch/arm/utee_misc.c:50
    28b8:	4618      	mov	r0, r3
    28ba:	f107 0708 	add.w	r7, r7, #8
    28be:	46bd      	mov	sp, r7
    28c0:	bd80      	pop	{r7, pc}
    28c2:	bf00      	nop
    28c4:	0000a93e 	.word	0x0000a93e
    28c8:	000000f0 	.word	0x000000f0

000028cc <utee_calloc>:
utee_calloc():
/home/rahulmahadev/devel/optee/optee_os/lib/libutee/arch/arm/utee_misc.c:53
    28cc:	e96d 7e02 	strd	r7, lr, [sp, #-8]!
    28d0:	b082      	sub	sp, #8
    28d2:	af00      	add	r7, sp, #0
    28d4:	6078      	str	r0, [r7, #4]
    28d6:	6039      	str	r1, [r7, #0]
    28d8:	4a06      	ldr	r2, [pc, #24]	; (28f4 <utee_calloc+0x28>)
    28da:	447a      	add	r2, pc
/home/rahulmahadev/devel/optee/optee_os/lib/libutee/arch/arm/utee_misc.c:54
    28dc:	6879      	ldr	r1, [r7, #4]
    28de:	6838      	ldr	r0, [r7, #0]
    28e0:	4b05      	ldr	r3, [pc, #20]	; (28f8 <utee_calloc+0x2c>)
    28e2:	58d3      	ldr	r3, [r2, r3]
    28e4:	4798      	blx	r3
    28e6:	4603      	mov	r3, r0
/home/rahulmahadev/devel/optee/optee_os/lib/libutee/arch/arm/utee_misc.c:55
    28e8:	4618      	mov	r0, r3
    28ea:	f107 0708 	add.w	r7, r7, #8
    28ee:	46bd      	mov	sp, r7
    28f0:	bd80      	pop	{r7, pc}
    28f2:	bf00      	nop
    28f4:	0000a90e 	.word	0x0000a90e
    28f8:	000000bc 	.word	0x000000bc

000028fc <utee_free>:
utee_free():
/home/rahulmahadev/devel/optee/optee_os/lib/libutee/arch/arm/utee_misc.c:58
    28fc:	e96d 7e02 	strd	r7, lr, [sp, #-8]!
    2900:	b082      	sub	sp, #8
    2902:	af00      	add	r7, sp, #0
    2904:	6078      	str	r0, [r7, #4]
    2906:	4a05      	ldr	r2, [pc, #20]	; (291c <utee_free+0x20>)
    2908:	447a      	add	r2, pc
/home/rahulmahadev/devel/optee/optee_os/lib/libutee/arch/arm/utee_misc.c:59
    290a:	6878      	ldr	r0, [r7, #4]
    290c:	4b04      	ldr	r3, [pc, #16]	; (2920 <utee_free+0x24>)
    290e:	58d3      	ldr	r3, [r2, r3]
    2910:	4798      	blx	r3
/home/rahulmahadev/devel/optee/optee_os/lib/libutee/arch/arm/utee_misc.c:60
    2912:	f107 0708 	add.w	r7, r7, #8
    2916:	46bd      	mov	sp, r7
    2918:	bd80      	pop	{r7, pc}
    291a:	bf00      	nop
    291c:	0000a8e0 	.word	0x0000a8e0
    2920:	000001d4 	.word	0x000001d4

00002924 <get_rng_array>:
get_rng_array():
/home/rahulmahadev/devel/optee/optee_os/lib/libutee/arch/arm/utee_misc.c:70
    2924:	e96d 7e02 	strd	r7, lr, [sp, #-8]!
    2928:	b082      	sub	sp, #8
    292a:	af00      	add	r7, sp, #0
    292c:	6078      	str	r0, [r7, #4]
    292e:	6039      	str	r1, [r7, #0]
    2930:	4a06      	ldr	r2, [pc, #24]	; (294c <get_rng_array+0x28>)
    2932:	447a      	add	r2, pc
/home/rahulmahadev/devel/optee/optee_os/lib/libutee/arch/arm/utee_misc.c:71
    2934:	6839      	ldr	r1, [r7, #0]
    2936:	6878      	ldr	r0, [r7, #4]
    2938:	4b05      	ldr	r3, [pc, #20]	; (2950 <get_rng_array+0x2c>)
    293a:	58d3      	ldr	r3, [r2, r3]
    293c:	4798      	blx	r3
    293e:	4603      	mov	r3, r0
/home/rahulmahadev/devel/optee/optee_os/lib/libutee/arch/arm/utee_misc.c:72
    2940:	4618      	mov	r0, r3
    2942:	f107 0708 	add.w	r7, r7, #8
    2946:	46bd      	mov	sp, r7
    2948:	bd80      	pop	{r7, pc}
    294a:	bf00      	nop
    294c:	0000a8b6 	.word	0x0000a8b6
    2950:	00000104 	.word	0x00000104

00002954 <buf_addr>:
buf_addr():
/home/rahulmahadev/devel/optee/optee_os/lib/libutee/tee_user_mem.c:129
    2954:	f84d 7d04 	str.w	r7, [sp, #-4]!
    2958:	b083      	sub	sp, #12
    295a:	af00      	add	r7, sp, #0
    295c:	6078      	str	r0, [r7, #4]
/home/rahulmahadev/devel/optee/optee_os/lib/libutee/tee_user_mem.c:130
    295e:	687b      	ldr	r3, [r7, #4]
    2960:	f103 0310 	add.w	r3, r3, #16
/home/rahulmahadev/devel/optee/optee_os/lib/libutee/tee_user_mem.c:131
    2964:	4618      	mov	r0, r3
    2966:	f107 070c 	add.w	r7, r7, #12
    296a:	46bd      	mov	sp, r7
    296c:	f85d 7b04 	ldr.w	r7, [sp], #4
    2970:	4770      	bx	lr
    2972:	bf00      	nop

00002974 <buf_size>:
buf_size():
/home/rahulmahadev/devel/optee/optee_os/lib/libutee/tee_user_mem.c:134
    2974:	f84d 7d04 	str.w	r7, [sp, #-4]!
    2978:	b083      	sub	sp, #12
    297a:	af00      	add	r7, sp, #0
    297c:	6078      	str	r0, [r7, #4]
/home/rahulmahadev/devel/optee/optee_os/lib/libutee/tee_user_mem.c:135
    297e:	687b      	ldr	r3, [r7, #4]
    2980:	689b      	ldr	r3, [r3, #8]
    2982:	f04f 0201 	mov.w	r2, #1
    2986:	eba3 0302 	sub.w	r3, r3, r2
    298a:	f1a3 0310 	sub.w	r3, r3, #16
/home/rahulmahadev/devel/optee/optee_os/lib/libutee/tee_user_mem.c:136
    298e:	4618      	mov	r0, r3
    2990:	f107 070c 	add.w	r7, r7, #12
    2994:	46bd      	mov	sp, r7
    2996:	f85d 7b04 	ldr.w	r7, [sp], #4
    299a:	4770      	bx	lr

0000299c <elem_addr>:
elem_addr():
/home/rahulmahadev/devel/optee/optee_os/lib/libutee/tee_user_mem.c:139
    299c:	f84d 7d04 	str.w	r7, [sp, #-4]!
    29a0:	b083      	sub	sp, #12
    29a2:	af00      	add	r7, sp, #0
    29a4:	6078      	str	r0, [r7, #4]
/home/rahulmahadev/devel/optee/optee_os/lib/libutee/tee_user_mem.c:140
    29a6:	687b      	ldr	r3, [r7, #4]
    29a8:	f1a3 0310 	sub.w	r3, r3, #16
/home/rahulmahadev/devel/optee/optee_os/lib/libutee/tee_user_mem.c:141
    29ac:	4618      	mov	r0, r3
    29ae:	f107 070c 	add.w	r7, r7, #12
    29b2:	46bd      	mov	sp, r7
    29b4:	f85d 7b04 	ldr.w	r7, [sp], #4
    29b8:	4770      	bx	lr
    29ba:	bf00      	nop

000029bc <is_buffer_valid>:
is_buffer_valid():
/home/rahulmahadev/devel/optee/optee_os/lib/libutee/tee_user_mem.c:147
    29bc:	e96d 7e02 	strd	r7, lr, [sp, #-8]!
    29c0:	b084      	sub	sp, #16
    29c2:	af00      	add	r7, sp, #0
    29c4:	6078      	str	r0, [r7, #4]
/home/rahulmahadev/devel/optee/optee_os/lib/libutee/tee_user_mem.c:150
    29c6:	4b0e      	ldr	r3, [pc, #56]	; (2a00 <is_buffer_valid+0x44>)
    29c8:	447b      	add	r3, pc
    29ca:	681b      	ldr	r3, [r3, #0]
    29cc:	60fb      	str	r3, [r7, #12]
    29ce:	e00d      	b.n	29ec <is_buffer_valid+0x30>
/home/rahulmahadev/devel/optee/optee_os/lib/libutee/tee_user_mem.c:151
    29d0:	68f8      	ldr	r0, [r7, #12]
    29d2:	4b0c      	ldr	r3, [pc, #48]	; (2a04 <is_buffer_valid+0x48>)
    29d4:	447b      	add	r3, pc
    29d6:	4798      	blx	r3
    29d8:	4602      	mov	r2, r0
    29da:	687b      	ldr	r3, [r7, #4]
    29dc:	429a      	cmp	r2, r3
    29de:	d102      	bne.n	29e6 <is_buffer_valid+0x2a>
/home/rahulmahadev/devel/optee/optee_os/lib/libutee/tee_user_mem.c:152
    29e0:	f04f 0301 	mov.w	r3, #1
    29e4:	e007      	b.n	29f6 <is_buffer_valid+0x3a>
/home/rahulmahadev/devel/optee/optee_os/lib/libutee/tee_user_mem.c:150 (discriminator 2)
    29e6:	68fb      	ldr	r3, [r7, #12]
    29e8:	681b      	ldr	r3, [r3, #0]
    29ea:	60fb      	str	r3, [r7, #12]
/home/rahulmahadev/devel/optee/optee_os/lib/libutee/tee_user_mem.c:150 (discriminator 1)
    29ec:	68fb      	ldr	r3, [r7, #12]
    29ee:	2b00      	cmp	r3, #0
    29f0:	d1ee      	bne.n	29d0 <is_buffer_valid+0x14>
/home/rahulmahadev/devel/optee/optee_os/lib/libutee/tee_user_mem.c:154
    29f2:	f04f 0300 	mov.w	r3, #0
/home/rahulmahadev/devel/optee/optee_os/lib/libutee/tee_user_mem.c:155
    29f6:	4618      	mov	r0, r3
    29f8:	f107 0710 	add.w	r7, r7, #16
    29fc:	46bd      	mov	sp, r7
    29fe:	bd80      	pop	{r7, pc}
    2a00:	0000b6b4 	.word	0x0000b6b4
    2a04:	ffffff7d 	.word	0xffffff7d

00002a08 <print_buf>:
print_buf():
/home/rahulmahadev/devel/optee/optee_os/lib/libutee/tee_user_mem.c:164
    2a08:	e96d 4504 	strd	r4, r5, [sp, #-16]!
    2a0c:	e9cd 7e02 	strd	r7, lr, [sp, #8]
    2a10:	b08c      	sub	sp, #48	; 0x30
    2a12:	af08      	add	r7, sp, #32
    2a14:	60f8      	str	r0, [r7, #12]
    2a16:	60b9      	str	r1, [r7, #8]
    2a18:	607a      	str	r2, [r7, #4]
    2a1a:	603b      	str	r3, [r7, #0]
    2a1c:	4d14      	ldr	r5, [pc, #80]	; (2a70 <print_buf+0x68>)
    2a1e:	447d      	add	r5, pc
/home/rahulmahadev/devel/optee/optee_os/lib/libutee/tee_user_mem.c:165
    2a20:	6a38      	ldr	r0, [r7, #32]
    2a22:	4b14      	ldr	r3, [pc, #80]	; (2a74 <print_buf+0x6c>)
    2a24:	447b      	add	r3, pc
    2a26:	4798      	blx	r3
    2a28:	4604      	mov	r4, r0
    2a2a:	6a38      	ldr	r0, [r7, #32]
    2a2c:	4b12      	ldr	r3, [pc, #72]	; (2a78 <print_buf+0x70>)
    2a2e:	447b      	add	r3, pc
    2a30:	4798      	blx	r3
    2a32:	4603      	mov	r3, r0
    2a34:	9306      	str	r3, [sp, #24]
    2a36:	9405      	str	r4, [sp, #20]
    2a38:	6a3b      	ldr	r3, [r7, #32]
    2a3a:	9304      	str	r3, [sp, #16]
    2a3c:	683b      	ldr	r3, [r7, #0]
    2a3e:	9303      	str	r3, [sp, #12]
    2a40:	687b      	ldr	r3, [r7, #4]
    2a42:	9302      	str	r3, [sp, #8]
    2a44:	68bb      	ldr	r3, [r7, #8]
    2a46:	9301      	str	r3, [sp, #4]
    2a48:	4b0c      	ldr	r3, [pc, #48]	; (2a7c <print_buf+0x74>)
    2a4a:	447b      	add	r3, pc
    2a4c:	9300      	str	r3, [sp, #0]
    2a4e:	f04f 0301 	mov.w	r3, #1
    2a52:	68fa      	ldr	r2, [r7, #12]
    2a54:	f04f 0100 	mov.w	r1, #0
    2a58:	f04f 0000 	mov.w	r0, #0
    2a5c:	4c08      	ldr	r4, [pc, #32]	; (2a80 <print_buf+0x78>)
    2a5e:	592c      	ldr	r4, [r5, r4]
    2a60:	47a0      	blx	r4
/home/rahulmahadev/devel/optee/optee_os/lib/libutee/tee_user_mem.c:168
    2a62:	f107 0710 	add.w	r7, r7, #16
    2a66:	46bd      	mov	sp, r7
    2a68:	e9dd 4500 	ldrd	r4, r5, [sp]
    2a6c:	b002      	add	sp, #8
    2a6e:	bd80      	pop	{r7, pc}
    2a70:	0000a7ca 	.word	0x0000a7ca
    2a74:	ffffff2d 	.word	0xffffff2d
    2a78:	ffffff43 	.word	0xffffff43
    2a7c:	00009356 	.word	0x00009356
    2a80:	0000005c 	.word	0x0000005c

00002a84 <heap_inc>:
heap_inc():
/home/rahulmahadev/devel/optee/optee_os/lib/libutee/tee_user_mem.c:194
    2a84:	f84d 7d04 	str.w	r7, [sp, #-4]!
    2a88:	b083      	sub	sp, #12
    2a8a:	af00      	add	r7, sp, #0
    2a8c:	6078      	str	r0, [r7, #4]
/home/rahulmahadev/devel/optee/optee_os/lib/libutee/tee_user_mem.c:196
    2a8e:	4b0f      	ldr	r3, [pc, #60]	; (2acc <heap_inc+0x48>)
    2a90:	447b      	add	r3, pc
    2a92:	681a      	ldr	r2, [r3, #0]
    2a94:	687b      	ldr	r3, [r7, #4]
    2a96:	4413      	add	r3, r2
    2a98:	4a0d      	ldr	r2, [pc, #52]	; (2ad0 <heap_inc+0x4c>)
    2a9a:	447a      	add	r2, pc
    2a9c:	6013      	str	r3, [r2, #0]
/home/rahulmahadev/devel/optee/optee_os/lib/libutee/tee_user_mem.c:198
    2a9e:	4b0d      	ldr	r3, [pc, #52]	; (2ad4 <heap_inc+0x50>)
    2aa0:	447b      	add	r3, pc
    2aa2:	681b      	ldr	r3, [r3, #0]
    2aa4:	f103 0301 	add.w	r3, r3, #1
    2aa8:	4a0b      	ldr	r2, [pc, #44]	; (2ad8 <heap_inc+0x54>)
    2aaa:	447a      	add	r2, pc
    2aac:	6013      	str	r3, [r2, #0]
/home/rahulmahadev/devel/optee/optee_os/lib/libutee/tee_user_mem.c:199
    2aae:	4b0b      	ldr	r3, [pc, #44]	; (2adc <heap_inc+0x58>)
    2ab0:	447b      	add	r3, pc
    2ab2:	685a      	ldr	r2, [r3, #4]
    2ab4:	687b      	ldr	r3, [r7, #4]
    2ab6:	4413      	add	r3, r2
    2ab8:	4a09      	ldr	r2, [pc, #36]	; (2ae0 <heap_inc+0x5c>)
    2aba:	447a      	add	r2, pc
    2abc:	6053      	str	r3, [r2, #4]
/home/rahulmahadev/devel/optee/optee_os/lib/libutee/tee_user_mem.c:201
    2abe:	f107 070c 	add.w	r7, r7, #12
    2ac2:	46bd      	mov	sp, r7
    2ac4:	f85d 7b04 	ldr.w	r7, [sp], #4
    2ac8:	4770      	bx	lr
    2aca:	bf00      	nop
    2acc:	00015204 	.word	0x00015204
    2ad0:	000151fa 	.word	0x000151fa
    2ad4:	000151f8 	.word	0x000151f8
    2ad8:	000151ee 	.word	0x000151ee
    2adc:	000151e8 	.word	0x000151e8
    2ae0:	000151de 	.word	0x000151de

00002ae4 <heap_dec>:
heap_dec():
/home/rahulmahadev/devel/optee/optee_os/lib/libutee/tee_user_mem.c:204
    2ae4:	f84d 7d04 	str.w	r7, [sp, #-4]!
    2ae8:	b083      	sub	sp, #12
    2aea:	af00      	add	r7, sp, #0
    2aec:	6078      	str	r0, [r7, #4]
